

Microchip MPLAB XC8 Assembler V2.05 build -831301201 
                                                                                               Sun Apr 14 00:40:29 2019

Microchip MPLAB XC8 C Compiler v2.05 (Free license) build 20181220022703 Og1 
     1                           	processor	18F25Q10
     2                           	fnconf	rparam,??,?,0
     3                           	opt	pw 120
     4                           	opt	flic
     5                           	psect	idataCOMRAM,global,class=CODE,delta=1,noexec
     6                           	psect	nvCOMRAM,global,class=COMRAM,space=1,delta=1,noexec
     7                           	psect	nvBANK0,global,class=BANK0,space=1,delta=1,lowdata,noexec
     8                           	psect	cinit,global,reloc=2,class=CODE,delta=1
     9                           	psect	bssCOMRAM,global,class=COMRAM,space=1,delta=1,noexec
    10                           	psect	dataCOMRAM,global,class=COMRAM,space=1,delta=1,noexec
    11                           	psect	bssBANK0,global,class=BANK0,space=1,delta=1,lowdata,noexec
    12                           	psect	cstackBANK0,global,class=BANK0,space=1,delta=1,noexec
    13                           	psect	cstackCOMRAM,global,class=COMRAM,space=1,delta=1,noexec
    14                           	psect	text0,global,reloc=2,class=CODE,delta=1
    15                           	psect	text1,global,reloc=2,class=CODE,delta=1
    16                           	psect	text2,global,reloc=2,class=CODE,delta=1
    17                           	psect	text3,global,reloc=2,class=CODE,delta=1
    18                           	psect	text4,global,reloc=2,class=CODE,delta=1
    19                           	psect	text5,global,reloc=2,class=CODE,delta=1
    20                           	psect	text6,global,reloc=2,class=CODE,delta=1
    21                           	psect	text7,global,reloc=2,class=CODE,delta=1
    22                           	psect	text8,global,reloc=2,class=CODE,delta=1
    23                           	psect	text9,global,reloc=2,class=CODE,delta=1,group=1
    24                           	psect	text10,global,reloc=2,class=CODE,delta=1,group=1
    25                           	psect	text11,global,reloc=2,class=CODE,delta=1,group=1
    26                           	psect	text12,global,reloc=2,class=CODE,delta=1
    27                           	psect	text13,global,reloc=2,class=CODE,delta=1
    28                           	psect	text14,global,reloc=2,class=CODE,delta=1
    29                           	psect	text15,global,reloc=2,class=CODE,delta=1
    30                           	psect	text16,global,reloc=2,class=CODE,delta=1
    31                           	psect	text17,global,reloc=2,class=CODE,delta=1
    32                           	psect	text18,global,reloc=2,class=CODE,delta=1
    33                           	psect	text19,global,reloc=2,class=CODE,delta=1
    34                           	psect	text20,global,reloc=2,class=CODE,delta=1
    35                           	psect	text21,global,reloc=2,class=CODE,delta=1
    36                           	psect	text22,global,reloc=2,class=CODE,delta=1
    37                           	psect	text23,global,reloc=2,class=CODE,delta=1
    38                           	psect	text24,global,reloc=2,class=CODE,delta=1
    39                           	psect	text25,global,reloc=2,class=CODE,delta=1
    40                           	psect	text26,global,reloc=2,class=CODE,delta=1
    41                           	psect	text27,global,reloc=2,class=CODE,delta=1
    42                           	psect	text28,global,reloc=2,class=CODE,delta=1
    43                           	psect	text29,global,reloc=2,class=CODE,delta=1
    44                           	psect	intcode,global,reloc=2,class=CODE,delta=1
    45                           	psect	text31,global,reloc=2,class=CODE,delta=1
    46                           	psect	text32,global,reloc=2,class=CODE,delta=1
    47                           	psect	text33,global,reloc=2,class=CODE,delta=1
    48                           	psect	text34,global,reloc=2,class=CODE,delta=1
    49                           	psect	text35,global,reloc=2,class=CODE,delta=1
    50                           	psect	text36,global,reloc=2,class=CODE,delta=1
    51                           	psect	text37,global,reloc=2,class=CODE,delta=1
    52                           	psect	text38,global,reloc=2,class=CODE,delta=1
    53                           	psect	text39,global,reloc=2,class=CODE,delta=1
    54                           	psect	text40,global,reloc=2,class=CODE,delta=1
    55                           	psect	text41,global,reloc=2,class=CODE,delta=1
    56                           	psect	text42,global,reloc=2,class=CODE,delta=1
    57                           	psect	text43,global,reloc=2,class=CODE,delta=1
    58                           	psect	text44,global,reloc=2,class=CODE,delta=1
    59                           	psect	text45,global,reloc=2,class=CODE,delta=1
    60                           	psect	text46,global,reloc=2,class=CODE,delta=1
    61                           	psect	text47,global,reloc=2,class=CODE,delta=1
    62                           	psect	text48,global,reloc=2,class=CODE,delta=1
    63                           	psect	text49,global,reloc=2,class=CODE,delta=1
    64                           	psect	text50,global,reloc=2,class=CODE,delta=1
    65                           	psect	text51,global,reloc=2,class=CODE,delta=1
    66                           	psect	text52,global,reloc=2,class=CODE,delta=1
    67                           	psect	text53,global,reloc=2,class=CODE,delta=1
    68                           	psect	text54,global,reloc=2,class=CODE,delta=1,group=1
    69                           	psect	text55,global,reloc=2,class=CODE,delta=1,group=1
    70                           	psect	intsave_regs,global,class=BIGRAM,space=1,delta=1,noexec
    71                           	psect	text56,global,reloc=2,class=CODE,delta=1,group=1
    72                           	psect	rparam,global,class=COMRAM,space=1,delta=1,noexec
    73                           	psect	temp,global,ovrld,common,class=COMRAM,space=1,delta=1
    74  0000                     
    75                           ; Version 2.05
    76                           ; Generated 20/12/2018 GMT
    77                           ; 
    78                           ; Copyright © 2018, Microchip Technology Inc. and its subsidiaries ("Microchip")
    79                           ; All rights reserved.
    80                           ; 
    81                           ; This software is developed by Microchip Technology Inc. and its subsidiaries ("Microch
      +                          ip").
    82                           ; 
    83                           ; Redistribution and use in source and binary forms, with or without modification, are
    84                           ; permitted provided that the following conditions are met:
    85                           ; 
    86                           ;     1. Redistributions of source code must retain the above copyright notice, this lis
      +                          t of
    87                           ;        conditions and the following disclaimer.
    88                           ; 
    89                           ;     2. Redistributions in binary form must reproduce the above copyright notice, this 
      +                          list
    90                           ;        of conditions and the following disclaimer in the documentation and/or other
    91                           ;        materials provided with the distribution.
    92                           ; 
    93                           ;     3. Microchip's name may not be used to endorse or promote products derived from th
      +                          is
    94                           ;        software without specific prior written permission.
    95                           ; 
    96                           ; THIS SOFTWARE IS PROVIDED BY MICROCHIP "AS IS" AND ANY EXPRESS OR IMPLIED WARRANTIES,
    97                           ; INCLUDING, BUT NOT LIMITED TO, THE IMPLIED WARRANTIES OF MERCHANTABILITY AND FITNESS F
      +                          OR
    98                           ; PURPOSE ARE DISCLAIMED.  IN NO EVENT SHALL MICROCHIP BE LIABLE FOR ANY DIRECT, INDIREC
      +                          T,
    99                           ; INCIDENTAL, SPECIAL, EXEMPLARY, OR CONSEQUENTIAL DAMAGES (INCLUDING BUT NOT LIMITED TO
   100                           ; PROCUREMENT OF SUBSTITUTE GOODS OR SERVICES; LOSS OF USE, DATA OR PROFITS; OR BUSINESS
   101                           ; INTERRUPTION) HOWSOEVER CAUSED AND ON ANY THEORY OF LIABILITY, WHETHER IN CONTRACT, ST
      +                          RICT
   102                           ; LIABILITY, OR TORT (INCLUDING NEGLIGENCE OR OTHERWISE) ARISING IN ANY WAY OUT OF THE U
      +                          SE OF
   103                           ; THIS SOFTWARE, EVEN IF ADVISED OF THE POSSIBILITY OF SUCH DAMAGE.
   104                           ; 
   105                           ; 
   106                           ; Code-generator required, PIC18F25Q10 Definitions
   107                           ; 
   108                           ; SFR Addresses
   109  0000                     
   110                           	psect	idataCOMRAM
   111  0011A8                     __pidataCOMRAM:
   112                           	opt callstack 0
   113                           
   114                           ;initializer for _servo_max
   115  0011A8  1C                 	db	28
   116                           
   117                           ;initializer for _servo_min
   118  0011A9  E2                 	db	226
   119                           
   120                           ;initializer for _servo_trim
   121  0011AA  EF                 	db	239
   122                           
   123                           	psect	nvCOMRAM
   124  000054                     __pnvCOMRAM:
   125                           	opt callstack 0
   126  000054                     _TMR1_InterruptHandler:
   127                           	opt callstack 0
   128  000054                     	ds	2
   129  000056                     _timer1ReloadVal:
   130                           	opt callstack 0
   131  000056                     	ds	2
   132  000058                     _IOCCF2_InterruptHandler:
   133                           	opt callstack 0
   134  000058                     	ds	2
   135  00005A                     _EUSART1_TxDefaultInterruptHandler:
   136                           	opt callstack 0
   137  00005A                     	ds	2
   138                           
   139                           	psect	nvBANK0
   140  00007A                     __pnvBANK0:
   141                           	opt callstack 0
   142  00007A                     _EUSART1_ErrorHandler:
   143                           	opt callstack 0
   144  00007A                     	ds	2
   145  00007C                     _EUSART1_OverrunErrorHandler:
   146                           	opt callstack 0
   147  00007C                     	ds	2
   148  00007E                     _EUSART1_FramingErrorHandler:
   149                           	opt callstack 0
   150  00007E                     	ds	2
   151  000080                     _CCP1_CallBack:
   152                           	opt callstack 0
   153  000080                     	ds	2
   154  000082                     _TMR2_InterruptHandler:
   155                           	opt callstack 0
   156  000082                     	ds	2
   157  000084                     _EUSART1_RxDefaultInterruptHandler:
   158                           	opt callstack 0
   159  000084                     	ds	2
   160  000086                     _eusart1TxBufferRemaining:
   161                           	opt callstack 0
   162  000086                     	ds	1
   163  0000                     _PIR6	set	3787
   164  0000                     _PIR6bits	set	3787
   165  0000                     _PIE6bits	set	3779
   166  0000                     _PIR3bits	set	3784
   167  0000                     _PIE3bits	set	3776
   168  0000                     _PIR0bits	set	3781
   169  0000                     _PIE4bits	set	3777
   170  0000                     _PIR4bits	set	3785
   171  0000                     _RC6PPS	set	3832
   172  0000                     _CCP1PPS	set	3754
   173  0000                     _PIE0bits	set	3773
   174  0000                     _PMD5	set	3809
   175  0000                     _PMD4	set	3808
   176  0000                     _PMD3	set	3807
   177  0000                     _PMD2	set	3806
   178  0000                     _PMD1	set	3805
   179  0000                     _PMD0	set	3804
   180  0000                     _OSCTUNE	set	3800
   181  0000                     _OSCFRQ	set	3801
   182  0000                     _OSCEN	set	3799
   183  0000                     _OSCCON3	set	3797
   184  0000                     _OSCCON1	set	3795
   185  0000                     _IOCCPbits	set	3863
   186  0000                     _IOCCNbits	set	3862
   187  0000                     _IOCCFbits	set	3861
   188  0000                     _SLRCONC	set	3865
   189  0000                     _SLRCONB	set	3857
   190  0000                     _SLRCONA	set	3849
   191  0000                     _ODCONC	set	3866
   192  0000                     _ODCONB	set	3858
   193  0000                     _ODCONA	set	3850
   194  0000                     _WPUC	set	3867
   195  0000                     _WPUA	set	3851
   196  0000                     _WPUB	set	3859
   197  0000                     _WPUE	set	3880
   198  0000                     _ANSELA	set	3852
   199  0000                     _ANSELB	set	3860
   200  0000                     _ANSELC	set	3868
   201  0000                     _TRISCbits	set	3977
   202  0000                     _LATCbits	set	3972
   203  0000                     _LATAbits	set	3970
   204  0000                     _RC1REG	set	3992
   205  0000                     _RC1STAbits	set	3996
   206  0000                     _TX1REG	set	3993
   207  0000                     _TX1STAbits	set	3997
   208  0000                     _SP1BRGH	set	3995
   209  0000                     _SP1BRGL	set	3994
   210  0000                     _TX1STA	set	3997
   211  0000                     _RC1STA	set	3996
   212  0000                     _BAUD1CON	set	3998
   213  0000                     _T1GCONbits	set	4047
   214  0000                     _T1CONbits	set	4046
   215  0000                     _T1CON	set	4046
   216  0000                     _TMR1L	set	4044
   217  0000                     _TMR1H	set	4045
   218  0000                     _T1CLK	set	4049
   219  0000                     _T1GATE	set	4048
   220  0000                     _T1GCON	set	4047
   221  0000                     _CCPTMRSbits	set	4013
   222  0000                     _CCPR1L	set	4009
   223  0000                     _CCPR1H	set	4010
   224  0000                     _CCP1CAP	set	4012
   225  0000                     _CCP1CON	set	4011
   226  0000                     _INTCONbits	set	4082
   227  0000                     _PR2	set	4027
   228  0000                     _TMR2	set	4026
   229  0000                     _T2CONbits	set	4028
   230  0000                     _T2RSTbits	set	4031
   231  0000                     _T2HLTbits	set	4029
   232  0000                     _T2CON	set	4028
   233  0000                     _T2TMR	set	4026
   234  0000                     _T2PR	set	4027
   235  0000                     _T2RST	set	4031
   236  0000                     _T2HLT	set	4029
   237  0000                     _T2CLKCON	set	4030
   238  0000                     _TRISC	set	3977
   239  0000                     _TRISB	set	3976
   240  0000                     _TRISA	set	3975
   241  0000                     _LATC	set	3972
   242  0000                     _LATB	set	3971
   243  0000                     _LATA	set	3970
   244                           
   245                           ; #config settings
   246  0000                     
   247                           	psect	cinit
   248  000D7A                     __pcinit:
   249                           	opt callstack 0
   250  000D7A                     start_initialization:
   251                           	opt callstack 0
   252  000D7A                     __initialization:
   253                           	opt callstack 0
   254                           
   255                           ; Initialize objects allocated to COMRAM (3 bytes)
   256                           ; load TBLPTR registers with __pidataCOMRAM
   257  000D7A  0EA8               	movlw	low __pidataCOMRAM
   258  000D7C  6EF6               	movwf	tblptrl,c
   259  000D7E  0E11               	movlw	high __pidataCOMRAM
   260  000D80  6EF7               	movwf	tblptrh,c
   261  000D82  0E00               	movlw	low (__pidataCOMRAM shr (0+16))
   262  000D84  6EF8               	movwf	tblptru,c
   263  000D86  0009               	tblrd		*+	;fetch initializer
   264  000D88  CFF5 F05C          	movff	tablat,__pdataCOMRAM
   265  000D8C  0009               	tblrd		*+	;fetch initializer
   266  000D8E  CFF5 F05D          	movff	tablat,__pdataCOMRAM+1
   267  000D92  0009               	tblrd		*+	;fetch initializer
   268  000D94  CFF5 F05E          	movff	tablat,__pdataCOMRAM+2
   269                           
   270                           ; Clear objects allocated to BANK0 (12 bytes)
   271  000D98  EE00  F087         	lfsr	0,__pbssBANK0
   272  000D9C  0E0C               	movlw	12
   273  000D9E                     clear_0:
   274  000D9E  6AEE               	clrf	postinc0,c
   275  000DA0  06E8               	decf	wreg,f,c
   276  000DA2  E1FD               	bnz	clear_0
   277                           
   278                           ; Clear objects allocated to COMRAM (34 bytes)
   279  000DA4  EE00  F032         	lfsr	0,__pbssCOMRAM
   280  000DA8  0E22               	movlw	34
   281  000DAA                     clear_1:
   282  000DAA  6AEE               	clrf	postinc0,c
   283  000DAC  06E8               	decf	wreg,f,c
   284  000DAE  E1FD               	bnz	clear_1
   285  000DB0                     end_of_initialization:
   286                           	opt callstack 0
   287  000DB0                     __end_of__initialization:
   288                           	opt callstack 0
   289  000DB0  905F               	bcf	int$flags,0,c	;clear compiler interrupt flag (level 1)
   290  000DB2  925F               	bcf	int$flags,1,c	;clear compiler interrupt flag (level 2)
   291  000DB4  0E00               	movlw	low (__Lmediumconst shr (0+16))
   292  000DB6  6EF8               	movwf	tblptru,c
   293  000DB8  0100               	movlb	0
   294  000DBA  EF99  F004         	goto	_main	;jump to C main() function
   295                           
   296                           	psect	bssCOMRAM
   297  000032                     __pbssCOMRAM:
   298                           	opt callstack 0
   299  000032                     _status:
   300                           	opt callstack 0
   301  000032                     	ds	8
   302  00003A                     _eusart1RxStatusBuffer:
   303                           	opt callstack 0
   304  00003A                     	ds	8
   305  000042                     _eusart1RxBuffer:
   306                           	opt callstack 0
   307  000042                     	ds	8
   308  00004A                     _eusart1TxBuffer:
   309                           	opt callstack 0
   310  00004A                     	ds	8
   311  000052                     _eusart1RxCount:
   312                           	opt callstack 0
   313  000052                     	ds	1
   314  000053                     _eusart1RxTail:
   315                           	opt callstack 0
   316  000053                     	ds	1
   317                           
   318                           	psect	dataCOMRAM
   319  00005C                     __pdataCOMRAM:
   320                           	opt callstack 0
   321  00005C                     _servo_max:
   322                           	opt callstack 0
   323  00005C                     	ds	1
   324  00005D                     _servo_min:
   325                           	opt callstack 0
   326  00005D                     	ds	1
   327  00005E                     _servo_trim:
   328                           	opt callstack 0
   329  00005E                     	ds	1
   330                           
   331                           	psect	bssBANK0
   332  000087                     __pbssBANK0:
   333                           	opt callstack 0
   334  000087                     _carctl:
   335                           	opt callstack 0
   336  000087                     	ds	6
   337  00008D                     _stateTime:
   338                           	opt callstack 0
   339  00008D                     	ds	2
   340  00008F                     _eusart1RxLastError:
   341                           	opt callstack 0
   342  00008F                     	ds	1
   343  000090                     _eusart1RxHead:
   344                           	opt callstack 0
   345  000090                     	ds	1
   346  000091                     _eusart1TxTail:
   347                           	opt callstack 0
   348  000091                     	ds	1
   349  000092                     _eusart1TxHead:
   350                           	opt callstack 0
   351  000092                     	ds	1
   352                           
   353                           	psect	cstackBANK0
   354  000060                     __pcstackBANK0:
   355                           	opt callstack 0
   356  000060                     ?_ping_get:
   357                           	opt callstack 0
   358  000060                     ?___fladd:
   359                           	opt callstack 0
   360  000060                     ?___fltol:
   361                           	opt callstack 0
   362  000060                     carcontrol_steering@steering:
   363                           	opt callstack 0
   364  000060                     carcontrol_throttle@throttle:
   365                           	opt callstack 0
   366  000060                     IOCCF2_SetInterruptHandler@InterruptHandler:
   367                           	opt callstack 0
   368  000060                     TMR2_SetInterruptHandler@InterruptHandler:
   369                           	opt callstack 0
   370  000060                     CCP1_SetCallBack@customCallBack:
   371                           	opt callstack 0
   372  000060                     TMR1_WriteTimer@timerVal:
   373                           	opt callstack 0
   374  000060                     TMR1_SetInterruptHandler@InterruptHandler:
   375                           	opt callstack 0
   376  000060                     EUSART1_SetFramingErrorHandler@interruptHandler:
   377                           	opt callstack 0
   378  000060                     EUSART1_SetOverrunErrorHandler@interruptHandler:
   379                           	opt callstack 0
   380  000060                     EUSART1_SetErrorHandler@interruptHandler:
   381                           	opt callstack 0
   382  000060                     EUSART1_SetTxInterruptHandler@interruptHandler:
   383                           	opt callstack 0
   384  000060                     EUSART1_SetRxInterruptHandler@interruptHandler:
   385                           	opt callstack 0
   386  000060                     ___fleq@ff1:
   387                           	opt callstack 0
   388  000060                     ___fltol@f1:
   389                           	opt callstack 0
   390  000060                     ___fladd@b:
   391                           	opt callstack 0
   392                           
   393                           ; 4 bytes @ 0x0
   394  000060                     	ds	2
   395  000062                     ??_TMR1_Initialize:
   396  000062                     
   397                           ; 1 bytes @ 0x2
   398  000062                     	ds	2
   399  000064                     ??___fltol:
   400  000064                     ___fleq@ff2:
   401                           	opt callstack 0
   402  000064                     ___fladd@a:
   403                           	opt callstack 0
   404                           
   405                           ; 4 bytes @ 0x4
   406  000064                     	ds	4
   407  000068                     ??___fladd:
   408  000068                     ??___fleq:
   409  000068                     ___fltol@sign1:
   410                           	opt callstack 0
   411                           
   412                           ; 1 bytes @ 0x8
   413  000068                     	ds	1
   414  000069                     ___fltol@exp1:
   415                           	opt callstack 0
   416                           
   417                           ; 1 bytes @ 0x9
   418  000069                     	ds	3
   419  00006C                     ___fladd@signs:
   420                           	opt callstack 0
   421                           
   422                           ; 1 bytes @ 0xC
   423  00006C                     	ds	1
   424  00006D                     ___fladd@aexp:
   425                           	opt callstack 0
   426                           
   427                           ; 1 bytes @ 0xD
   428  00006D                     	ds	1
   429  00006E                     ___fladd@bexp:
   430                           	opt callstack 0
   431                           
   432                           ; 1 bytes @ 0xE
   433  00006E                     	ds	1
   434  00006F                     ___fladd@grs:
   435                           	opt callstack 0
   436                           
   437                           ; 1 bytes @ 0xF
   438  00006F                     	ds	1
   439  000070                     ??_main:
   440                           
   441                           ; 1 bytes @ 0x10
   442  000070                     	ds	2
   443  000072                     main@angle:
   444                           	opt callstack 0
   445                           
   446                           ; 4 bytes @ 0x12
   447  000072                     	ds	4
   448  000076                     main@dis:
   449                           	opt callstack 0
   450                           
   451                           ; 4 bytes @ 0x16
   452  000076                     	ds	4
   453                           
   454                           	psect	cstackCOMRAM
   455  000001                     __pcstackCOMRAM:
   456                           	opt callstack 0
   457  000001                     ??_carcontrol_ISR:
   458  000001                     ?___xxtofl:
   459                           	opt callstack 0
   460  000001                     i2IOCCF2_SetInterruptHandler@InterruptHandler:
   461                           	opt callstack 0
   462  000001                     i2TMR1_WriteTimer@timerVal:
   463                           	opt callstack 0
   464  000001                     i2TMR1_SetInterruptHandler@InterruptHandler:
   465                           	opt callstack 0
   466  000001                     ___xxtofl@val:
   467                           	opt callstack 0
   468                           
   469                           ; 4 bytes @ 0x0
   470  000001                     	ds	2
   471  000003                     
   472                           ; 1 bytes @ 0x2
   473  000003                     	ds	1
   474  000004                     
   475                           ; 1 bytes @ 0x3
   476  000004                     	ds	1
   477  000005                     ??___xxtofl:
   478                           
   479                           ; 1 bytes @ 0x4
   480  000005                     	ds	4
   481  000009                     ___xxtofl@sign:
   482                           	opt callstack 0
   483                           
   484                           ; 1 bytes @ 0x8
   485  000009                     	ds	1
   486  00000A                     ___xxtofl@exp:
   487                           	opt callstack 0
   488                           
   489                           ; 1 bytes @ 0x9
   490  00000A                     	ds	1
   491  00000B                     ___xxtofl@arg:
   492                           	opt callstack 0
   493                           
   494                           ; 4 bytes @ 0xA
   495  00000B                     	ds	4
   496  00000F                     ?___flmul:
   497                           	opt callstack 0
   498  00000F                     ___flmul@b:
   499                           	opt callstack 0
   500                           
   501                           ; 4 bytes @ 0xE
   502  00000F                     	ds	4
   503  000013                     ___flmul@a:
   504                           	opt callstack 0
   505                           
   506                           ; 4 bytes @ 0x12
   507  000013                     	ds	4
   508  000017                     ??___flmul:
   509                           
   510                           ; 1 bytes @ 0x16
   511  000017                     	ds	4
   512  00001B                     ___flmul@sign:
   513                           	opt callstack 0
   514                           
   515                           ; 1 bytes @ 0x1A
   516  00001B                     	ds	1
   517  00001C                     ___flmul@grs:
   518                           	opt callstack 0
   519                           
   520                           ; 4 bytes @ 0x1B
   521  00001C                     	ds	4
   522  000020                     ___flmul@aexp:
   523                           	opt callstack 0
   524                           
   525                           ; 1 bytes @ 0x1F
   526  000020                     	ds	1
   527  000021                     ___flmul@bexp:
   528                           	opt callstack 0
   529                           
   530                           ; 1 bytes @ 0x20
   531  000021                     	ds	1
   532  000022                     ___flmul@prod:
   533                           	opt callstack 0
   534                           
   535                           ; 4 bytes @ 0x21
   536  000022                     	ds	4
   537  000026                     ___flmul@temp:
   538                           	opt callstack 0
   539                           
   540                           ; 2 bytes @ 0x25
   541  000026                     	ds	2
   542  000028                     ping_CCP1_triggered@timeOfFlight:
   543                           	opt callstack 0
   544                           
   545                           ; 2 bytes @ 0x27
   546  000028                     	ds	2
   547  00002A                     CCP1_CaptureISR@module:
   548                           	opt callstack 0
   549                           
   550                           ; 2 bytes @ 0x29
   551  00002A                     	ds	2
   552  00002C                     ??_INTERRUPT_InterruptManager:
   553                           
   554                           ; 1 bytes @ 0x2B
   555  00002C                     	ds	6
   556                           
   557 ;;
   558 ;;Main: autosize = 0, tempsize = 2, incstack = 0, save=0
   559 ;;
   560 ;; *************** function _main *****************
   561 ;; Defined at:
   562 ;;		line 51 in file "main.c"
   563 ;; Parameters:    Size  Location     Type
   564 ;;		None
   565 ;; Auto vars:     Size  Location     Type
   566 ;;  dis             4   22[BANK0 ] PTR FTN()void 
   567 ;;  angle           4   18[BANK0 ] PTR FTN()void 
   568 ;; Return value:  Size  Location     Type
   569 ;;                  1    wreg      void 
   570 ;; Registers used:
   571 ;;		wreg, status,2, status,0, cstack
   572 ;; Tracked objects:
   573 ;;		On entry : 0/0
   574 ;;		On exit  : 0/0
   575 ;;		Unchanged: 0/0
   576 ;; Data sizes:     COMRAM   BANK0   BANK1   BANK2   BANK3   BANK4   BANK5   BANK6   BANK7
   577 ;;      Params:         0       0       0       0       0       0       0       0       0
   578 ;;      Locals:         0       8       0       0       0       0       0       0       0
   579 ;;      Temps:          0       2       0       0       0       0       0       0       0
   580 ;;      Totals:         0      10       0       0       0       0       0       0       0
   581 ;;Total ram usage:       10 bytes
   582 ;; Hardware stack levels required when called:    8
   583 ;; This function calls:
   584 ;;		_SYSTEM_Initialize
   585 ;;		___fladd
   586 ;;		___fleq
   587 ;;		___fltol
   588 ;;		_carcontrol_init
   589 ;;		_carcontrol_steering
   590 ;;		_ping_get
   591 ;;		_ping_init
   592 ;;		_ping_send
   593 ;; This function is called by:
   594 ;;		Startup code after reset
   595 ;; This function uses a non-reentrant model
   596 ;;
   597                           
   598                           	psect	text0
   599  000932                     __ptext0:
   600                           	opt callstack 0
   601  000932                     _main:
   602                           	opt callstack 23
   603                           
   604                           ;main.c: 54:     SYSTEM_Initialize();
   605                           
   606                           ;incstack = 0
   607  000932  EC17  F008         	call	_SYSTEM_Initialize	;wreg free
   608                           
   609                           ;main.c: 61:     (INTCONbits.GIE = 1);
   610  000936  8EF2               	bsf	4082,7,c	;volatile
   611                           
   612                           ;main.c: 67:     (INTCONbits.PEIE = 1);
   613  000938  8CF2               	bsf	4082,6,c	;volatile
   614                           
   615                           ;main.c: 72:     carcontrol_init();
   616  00093A  EC19  F007         	call	_carcontrol_init	;wreg free
   617                           
   618                           ;main.c: 73:     ping_init();
   619  00093E  ECDF  F006         	call	_ping_init	;wreg free
   620                           
   621                           ;main.c: 74:     _delay((unsigned long)((1000)*(64000000/4000.0)));
   622  000942  0E52               	movlw	82
   623  000944  0100               	movlb	0	; () banked
   624  000946  6F71               	movwf	(??_main+1)& (0+255),b
   625  000948  0E2B               	movlw	43
   626  00094A  6F70               	movwf	??_main& (0+255),b
   627  00094C  0E00               	movlw	0
   628  00094E                     u2587:
   629  00094E  2EE8               	decfsz	wreg,f,c
   630  000950  D7FE               	bra	u2587
   631  000952  2F70               	decfsz	??_main& (0+255),f,b
   632  000954  D7FC               	bra	u2587
   633  000956  2F71               	decfsz	(??_main+1)& (0+255),f,b
   634  000958  D7FA               	bra	u2587
   635  00095A  F000               	nop	
   636                           
   637                           ;main.c: 76:     carcontrol_steering(0);
   638  00095C  0E00               	movlw	0
   639  00095E  EC65  F007         	call	_carcontrol_steering
   640                           
   641                           ;main.c: 78:     _delay((unsigned long)((10)*(64000000/4000000.0)));
   642  000962  0E35               	movlw	53
   643  000964                     u2597:
   644  000964  2EE8               	decfsz	wreg,f,c
   645  000966  D7FE               	bra	u2597
   646  000968  F000               	nop	
   647  00096A                     l3271:
   648                           
   649                           ;main.c: 81:     {;main.c: 82:         ping_send();
   650  00096A  ECFD  F006         	call	_ping_send	;wreg free
   651  00096E                     
   652                           ;main.c: 86:            dis = ping_get();
   653  00096E  EC4D  F007         	call	_ping_get	;wreg free
   654  000972  C060  F076         	movff	?_ping_get,main@dis
   655  000976  C061  F077         	movff	?_ping_get+1,main@dis+1
   656  00097A  C062  F078         	movff	?_ping_get+2,main@dis+2
   657  00097E  C063  F079         	movff	?_ping_get+3,main@dis+3
   658                           
   659                           ;main.c: 87:         } while (dis == 0);
   660  000982  C076  F060         	movff	main@dis,___fleq@ff1
   661  000986  C077  F061         	movff	main@dis+1,___fleq@ff1+1
   662  00098A  C078  F062         	movff	main@dis+2,___fleq@ff1+2
   663  00098E  C079  F063         	movff	main@dis+3,___fleq@ff1+3
   664  000992  0E00               	movlw	0
   665  000994  0100               	movlb	0	; () banked
   666  000996  6F64               	movwf	___fleq@ff2& (0+255),b
   667  000998  0E00               	movlw	0
   668  00099A  6F65               	movwf	(___fleq@ff2+1)& (0+255),b
   669  00099C  0E00               	movlw	0
   670  00099E  6F66               	movwf	(___fleq@ff2+2)& (0+255),b
   671  0009A0  0E00               	movlw	0
   672  0009A2  6F67               	movwf	(___fleq@ff2+3)& (0+255),b
   673  0009A4  ECAB  F005         	call	___fleq	;wreg free
   674  0009A8  0100               	movlb	0	; () banked
   675  0009AA  B0D8               	btfsc	status,0,c
   676  0009AC  D7E0               	goto	l3273
   677                           
   678                           ; BSR set to: 0
   679                           ;main.c: 89:         double angle = (dis)-30;
   680  0009AE  C076  F060         	movff	main@dis,___fladd@b
   681  0009B2  C077  F061         	movff	main@dis+1,___fladd@b+1
   682  0009B6  C078  F062         	movff	main@dis+2,___fladd@b+2
   683  0009BA  C079  F063         	movff	main@dis+3,___fladd@b+3
   684  0009BE  0E00               	movlw	0
   685  0009C0  6F64               	movwf	___fladd@a& (0+255),b
   686  0009C2  0E00               	movlw	0
   687  0009C4  6F65               	movwf	(___fladd@a+1)& (0+255),b
   688  0009C6  0EF0               	movlw	240
   689  0009C8  6F66               	movwf	(___fladd@a+2)& (0+255),b
   690  0009CA  0EC1               	movlw	193
   691  0009CC  6F67               	movwf	(___fladd@a+3)& (0+255),b
   692  0009CE  ECFF  F001         	call	___fladd	;wreg free
   693  0009D2  C060  F072         	movff	?___fladd,main@angle
   694  0009D6  C061  F073         	movff	?___fladd+1,main@angle+1
   695  0009DA  C062  F074         	movff	?___fladd+2,main@angle+2
   696  0009DE  C063  F075         	movff	?___fladd+3,main@angle+3
   697                           
   698                           ;main.c: 90:         carcontrol_steering(angle);
   699  0009E2  C072  F060         	movff	main@angle,___fltol@f1
   700  0009E6  C073  F061         	movff	main@angle+1,___fltol@f1+1
   701  0009EA  C074  F062         	movff	main@angle+2,___fltol@f1+2
   702  0009EE  C075  F063         	movff	main@angle+3,___fltol@f1+3
   703  0009F2  EC00  F005         	call	___fltol	;wreg free
   704  0009F6  0100               	movlb	0	; () banked
   705  0009F8  5160               	movf	?___fltol& (0+255),w,b
   706  0009FA  EC65  F007         	call	_carcontrol_steering
   707  0009FE  D7B5               	goto	l3271
   708  000A00                     __end_of_main:
   709                           	opt callstack 0
   710                           
   711 ;; *************** function _ping_send *****************
   712 ;; Defined at:
   713 ;;		line 112 in file "ping.c"
   714 ;; Parameters:    Size  Location     Type
   715 ;;		None
   716 ;; Auto vars:     Size  Location     Type
   717 ;;		None
   718 ;; Return value:  Size  Location     Type
   719 ;;                  1    wreg      void 
   720 ;; Registers used:
   721 ;;		wreg, status,2, status,0, cstack
   722 ;; Tracked objects:
   723 ;;		On entry : 0/0
   724 ;;		On exit  : 0/0
   725 ;;		Unchanged: 0/0
   726 ;; Data sizes:     COMRAM   BANK0   BANK1   BANK2   BANK3   BANK4   BANK5   BANK6   BANK7
   727 ;;      Params:         0       0       0       0       0       0       0       0       0
   728 ;;      Locals:         0       0       0       0       0       0       0       0       0
   729 ;;      Temps:          0       0       0       0       0       0       0       0       0
   730 ;;      Totals:         0       0       0       0       0       0       0       0       0
   731 ;;Total ram usage:        0 bytes
   732 ;; Hardware stack levels used:    1
   733 ;; Hardware stack levels required when called:    6
   734 ;; This function calls:
   735 ;;		_TMR1_SetInterruptHandler
   736 ;;		_TMR1_StartTimer
   737 ;;		_TMR1_WriteTimer
   738 ;; This function is called by:
   739 ;;		_main
   740 ;; This function uses a non-reentrant model
   741 ;;
   742                           
   743                           	psect	text1
   744  000DFA                     __ptext1:
   745                           	opt callstack 0
   746  000DFA                     _ping_send:
   747                           	opt callstack 24
   748                           
   749                           ;ping.c: 113:     _delay((unsigned long)((10)*(64000000/4000000.0)));
   750                           
   751                           ;incstack = 0
   752  000DFA  0E35               	movlw	53
   753  000DFC                     u2607:
   754  000DFC  2EE8               	decfsz	wreg,f,c
   755  000DFE  D7FE               	bra	u2607
   756  000E00  F000               	nop	
   757                           
   758                           ;ping.c: 114:     if (!status.pingStarted) {
   759  000E02  5037               	movf	_status+5,w,c	;volatile
   760  000E04  A4D8               	btfss	status,2,c
   761  000E06  0012               	return	
   762                           
   763                           ;ping.c: 115:         do { LATCbits.LATC2 = 1; } while(0);
   764  000E08  8484               	bsf	3972,2,c	;volatile
   765                           
   766                           ;ping.c: 116:         do { TRISCbits.TRISC2 = 0; } while(0);
   767  000E0A  9489               	bcf	3977,2,c	;volatile
   768                           
   769                           ;ping.c: 117:         TMR1_SetInterruptHandler(ping_TMR1Overflow_isr);
   770  000E0C  0E92               	movlw	low _ping_TMR1Overflow_isr
   771  000E0E  0100               	movlb	0	; () banked
   772  000E10  6F60               	movwf	TMR1_SetInterruptHandler@InterruptHandler& (0+255),b
   773  000E12  0E10               	movlw	high _ping_TMR1Overflow_isr
   774  000E14  6F61               	movwf	(TMR1_SetInterruptHandler@InterruptHandler+1)& (0+255),b
   775  000E16  EC96  F008         	call	_TMR1_SetInterruptHandler	;wreg free
   776                           
   777                           ;ping.c: 118:         TMR1_WriteTimer(0xFFFC);
   778  000E1A  0EFF               	movlw	255
   779  000E1C  0100               	movlb	0	; () banked
   780  000E1E  6F61               	movwf	(TMR1_WriteTimer@timerVal+1)& (0+255),b
   781  000E20  0EFC               	movlw	252
   782  000E22  6F60               	movwf	TMR1_WriteTimer@timerVal& (0+255),b
   783  000E24  EC39  F008         	call	_TMR1_WriteTimer	;wreg free
   784                           
   785                           ;ping.c: 119:         TMR1_StartTimer();
   786  000E28  ECCE  F008         	call	_TMR1_StartTimer	;wreg free
   787                           
   788                           ;ping.c: 120:         status.pingStarted = 1;
   789  000E2C  0E01               	movlw	1
   790  000E2E  6E37               	movwf	_status+5,c	;volatile
   791  000E30  0012               	return		;funcret
   792  000E32                     __end_of_ping_send:
   793                           	opt callstack 0
   794                           
   795 ;; *************** function _TMR1_WriteTimer *****************
   796 ;; Defined at:
   797 ;;		line 127 in file "mcc_generated_files/tmr1.c"
   798 ;; Parameters:    Size  Location     Type
   799 ;;  timerVal        2    0[BANK0 ] unsigned short 
   800 ;; Auto vars:     Size  Location     Type
   801 ;;		None
   802 ;; Return value:  Size  Location     Type
   803 ;;                  1    wreg      void 
   804 ;; Registers used:
   805 ;;		wreg, status,2
   806 ;; Tracked objects:
   807 ;;		On entry : 0/0
   808 ;;		On exit  : 0/0
   809 ;;		Unchanged: 0/0
   810 ;; Data sizes:     COMRAM   BANK0   BANK1   BANK2   BANK3   BANK4   BANK5   BANK6   BANK7
   811 ;;      Params:         0       2       0       0       0       0       0       0       0
   812 ;;      Locals:         0       0       0       0       0       0       0       0       0
   813 ;;      Temps:          0       0       0       0       0       0       0       0       0
   814 ;;      Totals:         0       2       0       0       0       0       0       0       0
   815 ;;Total ram usage:        2 bytes
   816 ;; Hardware stack levels used:    1
   817 ;; Hardware stack levels required when called:    5
   818 ;; This function calls:
   819 ;;		Nothing
   820 ;; This function is called by:
   821 ;;		_ping_send
   822 ;;		_TMR1_Reload
   823 ;; This function uses a non-reentrant model
   824 ;;
   825                           
   826                           	psect	text2
   827  001072                     __ptext2:
   828                           	opt callstack 0
   829  001072                     _TMR1_WriteTimer:
   830                           	opt callstack 24
   831                           
   832                           ;mcc_generated_files/tmr1.c: 127: void TMR1_WriteTimer(uint16_t timerVal);mcc_generated_
      +                          files/tmr1.c: 128: {;mcc_generated_files/tmr1.c: 129:     if (T1CONbits.nT1SYNC == 1)
   833                           
   834                           ;incstack = 0
   835  001072  A4CE               	btfss	4046,2,c	;volatile
   836  001074  D008               	goto	l2707
   837                           
   838                           ;mcc_generated_files/tmr1.c: 130:     {;mcc_generated_files/tmr1.c: 132:         T1CONbi
      +                          ts.TMR1ON = 0;
   839  001076  90CE               	bcf	4046,0,c	;volatile
   840                           
   841                           ;mcc_generated_files/tmr1.c: 135:         TMR1H = (timerVal >> 8);
   842  001078  0100               	movlb	0	; () banked
   843  00107A  5161               	movf	(TMR1_WriteTimer@timerVal+1)& (0+255),w,b
   844  00107C  6ECD               	movwf	4045,c	;volatile
   845                           
   846                           ; BSR set to: 0
   847                           ;mcc_generated_files/tmr1.c: 136:         TMR1L = timerVal;
   848  00107E  C060  FFCC         	movff	TMR1_WriteTimer@timerVal,4044	;volatile
   849                           
   850                           ; BSR set to: 0
   851                           ;mcc_generated_files/tmr1.c: 139:         T1CONbits.TMR1ON =1;
   852  001082  80CE               	bsf	4046,0,c	;volatile
   853                           
   854                           ;mcc_generated_files/tmr1.c: 140:     }
   855  001084  0012               	return	
   856  001086                     l2707:
   857                           
   858                           ;mcc_generated_files/tmr1.c: 142:     {;mcc_generated_files/tmr1.c: 144:         TMR1H =
      +                           (timerVal >> 8);
   859  001086  0100               	movlb	0	; () banked
   860  001088  5161               	movf	(TMR1_WriteTimer@timerVal+1)& (0+255),w,b
   861  00108A  6ECD               	movwf	4045,c	;volatile
   862                           
   863                           ; BSR set to: 0
   864                           ;mcc_generated_files/tmr1.c: 145:         TMR1L = timerVal;
   865  00108C  C060  FFCC         	movff	TMR1_WriteTimer@timerVal,4044	;volatile
   866                           
   867                           ; BSR set to: 0
   868  001090  0012               	return		;funcret
   869  001092                     __end_of_TMR1_WriteTimer:
   870                           	opt callstack 0
   871                           
   872 ;; *************** function _TMR1_StartTimer *****************
   873 ;; Defined at:
   874 ;;		line 99 in file "mcc_generated_files/tmr1.c"
   875 ;; Parameters:    Size  Location     Type
   876 ;;		None
   877 ;; Auto vars:     Size  Location     Type
   878 ;;		None
   879 ;; Return value:  Size  Location     Type
   880 ;;                  1    wreg      void 
   881 ;; Registers used:
   882 ;;		None
   883 ;; Tracked objects:
   884 ;;		On entry : 0/0
   885 ;;		On exit  : 0/0
   886 ;;		Unchanged: 0/0
   887 ;; Data sizes:     COMRAM   BANK0   BANK1   BANK2   BANK3   BANK4   BANK5   BANK6   BANK7
   888 ;;      Params:         0       0       0       0       0       0       0       0       0
   889 ;;      Locals:         0       0       0       0       0       0       0       0       0
   890 ;;      Temps:          0       0       0       0       0       0       0       0       0
   891 ;;      Totals:         0       0       0       0       0       0       0       0       0
   892 ;;Total ram usage:        0 bytes
   893 ;; Hardware stack levels used:    1
   894 ;; Hardware stack levels required when called:    5
   895 ;; This function calls:
   896 ;;		Nothing
   897 ;; This function is called by:
   898 ;;		_ping_send
   899 ;; This function uses a non-reentrant model
   900 ;;
   901                           
   902                           	psect	text3
   903  00119C                     __ptext3:
   904                           	opt callstack 0
   905  00119C                     _TMR1_StartTimer:
   906                           	opt callstack 24
   907                           
   908                           ;mcc_generated_files/tmr1.c: 102:     T1CONbits.TMR1ON = 1;
   909                           
   910                           ; BSR set to: 0
   911                           ;incstack = 0
   912  00119C  80CE               	bsf	4046,0,c	;volatile
   913  00119E  0012               	return		;funcret
   914  0011A0                     __end_of_TMR1_StartTimer:
   915                           	opt callstack 0
   916                           
   917 ;; *************** function _ping_init *****************
   918 ;; Defined at:
   919 ;;		line 97 in file "ping.c"
   920 ;; Parameters:    Size  Location     Type
   921 ;;		None
   922 ;; Auto vars:     Size  Location     Type
   923 ;;		None
   924 ;; Return value:  Size  Location     Type
   925 ;;                  1    wreg      void 
   926 ;; Registers used:
   927 ;;		wreg, status,2, status,0, cstack
   928 ;; Tracked objects:
   929 ;;		On entry : 0/0
   930 ;;		On exit  : 0/0
   931 ;;		Unchanged: 0/0
   932 ;; Data sizes:     COMRAM   BANK0   BANK1   BANK2   BANK3   BANK4   BANK5   BANK6   BANK7
   933 ;;      Params:         0       0       0       0       0       0       0       0       0
   934 ;;      Locals:         0       0       0       0       0       0       0       0       0
   935 ;;      Temps:          0       0       0       0       0       0       0       0       0
   936 ;;      Totals:         0       0       0       0       0       0       0       0       0
   937 ;;Total ram usage:        0 bytes
   938 ;; Hardware stack levels used:    1
   939 ;; Hardware stack levels required when called:    6
   940 ;; This function calls:
   941 ;;		_CCP1_SetCallBack
   942 ;;		_IOCCF2_SetInterruptHandler
   943 ;;		_TMR1_SetInterruptHandler
   944 ;; This function is called by:
   945 ;;		_main
   946 ;; This function uses a non-reentrant model
   947 ;;
   948                           
   949                           	psect	text4
   950  000DBE                     __ptext4:
   951                           	opt callstack 0
   952  000DBE                     _ping_init:
   953                           	opt callstack 24
   954                           
   955                           ;incstack = 0
   956                           ;ping.c: 98:     do { LATCbits.LATC1 = 1; } while(0);
   957  000DBE  8284               	bsf	3972,1,c	;volatile
   958                           
   959                           ;ping.c: 99:     status.readReady = 0;
   960  000DC0  0E00               	movlw	0
   961  000DC2  6E32               	movwf	_status,c	;volatile
   962                           
   963                           ;ping.c: 100:     status.pingStarted = 0;
   964  000DC4  0E00               	movlw	0
   965  000DC6  6E37               	movwf	_status+5,c	;volatile
   966                           
   967                           ;ping.c: 101:     PIE6bits.CCP1IE = 0;
   968  000DC8  010E               	movlb	14	; () banked
   969  000DCA  91C3               	bcf	195,0,b	;volatile
   970                           
   971                           ; BSR set to: 14
   972                           ;ping.c: 102:     TMR1_SetInterruptHandler(TMR1_DefaultInterruptHandler);
   973  000DCC  0EAE               	movlw	low _TMR1_DefaultInterruptHandler
   974  000DCE  0100               	movlb	0	; () banked
   975  000DD0  6F60               	movwf	TMR1_SetInterruptHandler@InterruptHandler& (0+255),b
   976  000DD2  0E11               	movlw	high _TMR1_DefaultInterruptHandler
   977  000DD4  6F61               	movwf	(TMR1_SetInterruptHandler@InterruptHandler+1)& (0+255),b
   978  000DD6  EC96  F008         	call	_TMR1_SetInterruptHandler	;wreg free
   979                           
   980                           ;ping.c: 103:     IOCCF2_SetInterruptHandler(IOCCF2_DefaultInterruptHandler);
   981  000DDA  0EB0               	movlw	low _IOCCF2_DefaultInterruptHandler
   982  000DDC  0100               	movlb	0	; () banked
   983  000DDE  6F60               	movwf	IOCCF2_SetInterruptHandler@InterruptHandler& (0+255),b
   984  000DE0  0E11               	movlw	high _IOCCF2_DefaultInterruptHandler
   985  000DE2  6F61               	movwf	(IOCCF2_SetInterruptHandler@InterruptHandler+1)& (0+255),b
   986  000DE4  EC9B  F008         	call	_IOCCF2_SetInterruptHandler	;wreg free
   987                           
   988                           ;ping.c: 104:     CCP1_SetCallBack(ping_CCP1_triggered);
   989  000DE8  0ECE               	movlw	low _ping_CCP1_triggered
   990  000DEA  0100               	movlb	0	; () banked
   991  000DEC  6F60               	movwf	CCP1_SetCallBack@customCallBack& (0+255),b
   992  000DEE  0E0C               	movlw	high _ping_CCP1_triggered
   993  000DF0  6F61               	movwf	(CCP1_SetCallBack@customCallBack+1)& (0+255),b
   994  000DF2  ECB9  F008         	call	_CCP1_SetCallBack	;wreg free
   995  000DF6  9284               	bcf	3972,1,c	;volatile
   996  000DF8  0012               	return		;funcret
   997  000DFA                     __end_of_ping_init:
   998                           	opt callstack 0
   999                           
  1000 ;; *************** function _ping_get *****************
  1001 ;; Defined at:
  1002 ;;		line 129 in file "ping.c"
  1003 ;; Parameters:    Size  Location     Type
  1004 ;;		None
  1005 ;; Auto vars:     Size  Location     Type
  1006 ;;		None
  1007 ;; Return value:  Size  Location     Type
  1008 ;;                  4    0[BANK0 ] float 
  1009 ;; Registers used:
  1010 ;;		wreg, status,2
  1011 ;; Tracked objects:
  1012 ;;		On entry : 0/0
  1013 ;;		On exit  : 0/0
  1014 ;;		Unchanged: 0/0
  1015 ;; Data sizes:     COMRAM   BANK0   BANK1   BANK2   BANK3   BANK4   BANK5   BANK6   BANK7
  1016 ;;      Params:         0       4       0       0       0       0       0       0       0
  1017 ;;      Locals:         0       0       0       0       0       0       0       0       0
  1018 ;;      Temps:          0       0       0       0       0       0       0       0       0
  1019 ;;      Totals:         0       4       0       0       0       0       0       0       0
  1020 ;;Total ram usage:        4 bytes
  1021 ;; Hardware stack levels used:    1
  1022 ;; Hardware stack levels required when called:    5
  1023 ;; This function calls:
  1024 ;;		Nothing
  1025 ;; This function is called by:
  1026 ;;		_main
  1027 ;; This function uses a non-reentrant model
  1028 ;;
  1029                           
  1030                           	psect	text5
  1031  000E9A                     __ptext5:
  1032                           	opt callstack 0
  1033  000E9A                     _ping_get:
  1034                           	opt callstack 25
  1035                           
  1036                           ;ping.c: 130:     if (status.readReady) {
  1037                           
  1038                           ;incstack = 0
  1039  000E9A  5032               	movf	_status,w,c	;volatile
  1040  000E9C  B4D8               	btfsc	status,2,c
  1041  000E9E  D00B               	goto	l2959
  1042                           
  1043                           ;ping.c: 131:         status.readReady = 0;
  1044  000EA0  0E00               	movlw	0
  1045  000EA2  6E32               	movwf	_status,c	;volatile
  1046                           
  1047                           ;ping.c: 132:         return status.measurment;
  1048  000EA4  C033  F060         	movff	_status+1,?_ping_get	;volatile
  1049  000EA8  C034  F061         	movff	_status+2,?_ping_get+1	;volatile
  1050  000EAC  C035  F062         	movff	_status+3,?_ping_get+2	;volatile
  1051  000EB0  C036  F063         	movff	_status+4,?_ping_get+3	;volatile
  1052  000EB4  0012               	return	
  1053  000EB6                     l2959:
  1054                           
  1055                           ;ping.c: 134:         return 0;
  1056  000EB6  0E00               	movlw	0
  1057  000EB8  0100               	movlb	0	; () banked
  1058  000EBA  6F60               	movwf	?_ping_get& (0+255),b
  1059  000EBC  0E00               	movlw	0
  1060  000EBE  6F61               	movwf	(?_ping_get+1)& (0+255),b
  1061  000EC0  0E00               	movlw	0
  1062  000EC2  6F62               	movwf	(?_ping_get+2)& (0+255),b
  1063  000EC4  0E00               	movlw	0
  1064  000EC6  6F63               	movwf	(?_ping_get+3)& (0+255),b
  1065  000EC8  0012               	return		;funcret
  1066  000ECA                     __end_of_ping_get:
  1067                           	opt callstack 0
  1068                           
  1069 ;; *************** function _carcontrol_init *****************
  1070 ;; Defined at:
  1071 ;;		line 27 in file "car_ctrl.c"
  1072 ;; Parameters:    Size  Location     Type
  1073 ;;		None
  1074 ;; Auto vars:     Size  Location     Type
  1075 ;;		None
  1076 ;; Return value:  Size  Location     Type
  1077 ;;                  1    wreg      void 
  1078 ;; Registers used:
  1079 ;;		wreg, status,2, status,0, cstack
  1080 ;; Tracked objects:
  1081 ;;		On entry : 0/0
  1082 ;;		On exit  : 0/0
  1083 ;;		Unchanged: 0/0
  1084 ;; Data sizes:     COMRAM   BANK0   BANK1   BANK2   BANK3   BANK4   BANK5   BANK6   BANK7
  1085 ;;      Params:         0       0       0       0       0       0       0       0       0
  1086 ;;      Locals:         0       0       0       0       0       0       0       0       0
  1087 ;;      Temps:          0       0       0       0       0       0       0       0       0
  1088 ;;      Totals:         0       0       0       0       0       0       0       0       0
  1089 ;;Total ram usage:        0 bytes
  1090 ;; Hardware stack levels used:    1
  1091 ;; Hardware stack levels required when called:    6
  1092 ;; This function calls:
  1093 ;;		_TMR2_SetInterruptHandler
  1094 ;;		_carcontrol_steering
  1095 ;;		_carcontrol_throttle
  1096 ;; This function is called by:
  1097 ;;		_main
  1098 ;; This function uses a non-reentrant model
  1099 ;;
  1100                           
  1101                           	psect	text6
  1102  000E32                     __ptext6:
  1103                           	opt callstack 0
  1104  000E32                     _carcontrol_init:
  1105                           	opt callstack 24
  1106                           
  1107                           ;car_ctrl.c: 28:     carctl.state = state_unset;
  1108                           
  1109                           ;incstack = 0
  1110  000E32  0E00               	movlw	0
  1111  000E34  0100               	movlb	0	; () banked
  1112  000E36  6F88               	movwf	(_carctl+1)& (0+255),b	;volatile
  1113                           
  1114                           ; BSR set to: 0
  1115                           ;car_ctrl.c: 29:     carcontrol_throttle(0);
  1116  000E38  0E00               	movlw	0
  1117  000E3A  EC80  F008         	call	_carcontrol_throttle
  1118                           
  1119                           ;car_ctrl.c: 30:     carcontrol_steering(0);
  1120  000E3E  0E00               	movlw	0
  1121  000E40  EC65  F007         	call	_carcontrol_steering
  1122                           
  1123                           ;car_ctrl.c: 31:     carctl.servoHighTime = 50;
  1124  000E44  0E32               	movlw	50
  1125  000E46  0100               	movlb	0	; () banked
  1126  000E48  6F8C               	movwf	(_carctl+5)& (0+255),b	;volatile
  1127                           
  1128                           ; BSR set to: 0
  1129                           ;car_ctrl.c: 33:     TMR2_SetInterruptHandler(carcontrol_ISR);
  1130  000E4A  0E4C               	movlw	low _carcontrol_ISR
  1131  000E4C  6F60               	movwf	TMR2_SetInterruptHandler@InterruptHandler& (0+255),b
  1132  000E4E  0E08               	movlw	high _carcontrol_ISR
  1133  000E50  6F61               	movwf	(TMR2_SetInterruptHandler@InterruptHandler+1)& (0+255),b
  1134  000E52  EC91  F008         	call	_TMR2_SetInterruptHandler	;wreg free
  1135                           
  1136                           ;car_ctrl.c: 34:     stateTime = 0;
  1137  000E56  0E00               	movlw	0
  1138  000E58  0100               	movlb	0	; () banked
  1139  000E5A  6F8E               	movwf	(_stateTime+1)& (0+255),b
  1140  000E5C  0E00               	movlw	0
  1141  000E5E  6F8D               	movwf	_stateTime& (0+255),b
  1142                           
  1143                           ; BSR set to: 0
  1144                           ;car_ctrl.c: 35:     carctl.initialized = 1;
  1145  000E60  0E01               	movlw	1
  1146  000E62  6F87               	movwf	_carctl& (0+255),b	;volatile
  1147                           
  1148                           ; BSR set to: 0
  1149  000E64  0012               	return		;funcret
  1150  000E66                     __end_of_carcontrol_init:
  1151                           	opt callstack 0
  1152                           
  1153 ;; *************** function _carcontrol_throttle *****************
  1154 ;; Defined at:
  1155 ;;		line 118 in file "car_ctrl.c"
  1156 ;; Parameters:    Size  Location     Type
  1157 ;;  throttle        1    wreg     unsigned char 
  1158 ;; Auto vars:     Size  Location     Type
  1159 ;;  throttle        1    0[BANK0 ] unsigned char 
  1160 ;; Return value:  Size  Location     Type
  1161 ;;                  1    wreg      void 
  1162 ;; Registers used:
  1163 ;;		wreg, status,2, status,0
  1164 ;; Tracked objects:
  1165 ;;		On entry : 0/0
  1166 ;;		On exit  : 0/0
  1167 ;;		Unchanged: 0/0
  1168 ;; Data sizes:     COMRAM   BANK0   BANK1   BANK2   BANK3   BANK4   BANK5   BANK6   BANK7
  1169 ;;      Params:         0       0       0       0       0       0       0       0       0
  1170 ;;      Locals:         0       1       0       0       0       0       0       0       0
  1171 ;;      Temps:          0       0       0       0       0       0       0       0       0
  1172 ;;      Totals:         0       1       0       0       0       0       0       0       0
  1173 ;;Total ram usage:        1 bytes
  1174 ;; Hardware stack levels used:    1
  1175 ;; Hardware stack levels required when called:    5
  1176 ;; This function calls:
  1177 ;;		Nothing
  1178 ;; This function is called by:
  1179 ;;		_carcontrol_init
  1180 ;; This function uses a non-reentrant model
  1181 ;;
  1182                           
  1183                           	psect	text7
  1184  001100                     __ptext7:
  1185                           	opt callstack 0
  1186  001100                     _carcontrol_throttle:
  1187                           	opt callstack 24
  1188                           
  1189                           ; BSR set to: 0
  1190                           ;incstack = 0
  1191                           ;carcontrol_throttle@throttle stored from wreg
  1192  001100  0100               	movlb	0	; () banked
  1193  001102  6F60               	movwf	carcontrol_throttle@throttle& (0+255),b
  1194                           
  1195                           ;car_ctrl.c: 120:     if (throttle > 100) throttle = 100;
  1196  001104  0E64               	movlw	100
  1197  001106  0100               	movlb	0	; () banked
  1198  001108  6560               	cpfsgt	carcontrol_throttle@throttle& (0+255),b
  1199  00110A  D002               	goto	l2731
  1200                           
  1201                           ; BSR set to: 0
  1202  00110C  0E64               	movlw	100
  1203  00110E  6F60               	movwf	carcontrol_throttle@throttle& (0+255),b
  1204  001110                     l2731:
  1205                           
  1206                           ; BSR set to: 0
  1207                           ;car_ctrl.c: 121:     carctl.throttleHighTime = throttle;
  1208  001110  C060  F08B         	movff	carcontrol_throttle@throttle,_carctl+4	;volatile
  1209                           
  1210                           ; BSR set to: 0
  1211  001114  0012               	return		;funcret
  1212  001116                     __end_of_carcontrol_throttle:
  1213                           	opt callstack 0
  1214                           
  1215 ;; *************** function _carcontrol_steering *****************
  1216 ;; Defined at:
  1217 ;;		line 93 in file "car_ctrl.c"
  1218 ;; Parameters:    Size  Location     Type
  1219 ;;  steering        1    wreg     char 
  1220 ;; Auto vars:     Size  Location     Type
  1221 ;;  steering        1    0[BANK0 ] char 
  1222 ;; Return value:  Size  Location     Type
  1223 ;;                  1    wreg      void 
  1224 ;; Registers used:
  1225 ;;		wreg, status,2, status,0
  1226 ;; Tracked objects:
  1227 ;;		On entry : 0/0
  1228 ;;		On exit  : 0/0
  1229 ;;		Unchanged: 0/0
  1230 ;; Data sizes:     COMRAM   BANK0   BANK1   BANK2   BANK3   BANK4   BANK5   BANK6   BANK7
  1231 ;;      Params:         0       0       0       0       0       0       0       0       0
  1232 ;;      Locals:         0       1       0       0       0       0       0       0       0
  1233 ;;      Temps:          0       0       0       0       0       0       0       0       0
  1234 ;;      Totals:         0       1       0       0       0       0       0       0       0
  1235 ;;Total ram usage:        1 bytes
  1236 ;; Hardware stack levels used:    1
  1237 ;; Hardware stack levels required when called:    5
  1238 ;; This function calls:
  1239 ;;		Nothing
  1240 ;; This function is called by:
  1241 ;;		_main
  1242 ;;		_carcontrol_init
  1243 ;; This function uses a non-reentrant model
  1244 ;;
  1245                           
  1246                           	psect	text8
  1247  000ECA                     __ptext8:
  1248                           	opt callstack 0
  1249  000ECA                     _carcontrol_steering:
  1250                           	opt callstack 25
  1251                           
  1252                           ; BSR set to: 0
  1253                           ;incstack = 0
  1254                           ;carcontrol_steering@steering stored from wreg
  1255  000ECA  0100               	movlb	0	; () banked
  1256  000ECC  6F60               	movwf	carcontrol_steering@steering& (0+255),b
  1257                           
  1258                           ;car_ctrl.c: 106:     if (steering < servo_min) steering = servo_min;
  1259  000ECE  0100               	movlb	0	; () banked
  1260  000ED0  5160               	movf	carcontrol_steering@steering& (0+255),w,b
  1261  000ED2  0A80               	xorlw	128
  1262  000ED4  0F9E               	addlw	158
  1263  000ED6  B0D8               	btfsc	status,0,c
  1264  000ED8  D002               	goto	l2719
  1265                           
  1266                           ; BSR set to: 0
  1267  000EDA  0EE2               	movlw	226
  1268  000EDC  6F60               	movwf	carcontrol_steering@steering& (0+255),b
  1269  000EDE                     l2719:
  1270                           
  1271                           ; BSR set to: 0
  1272                           ;car_ctrl.c: 107:     if (steering > servo_max) steering = servo_max;
  1273  000EDE  5160               	movf	carcontrol_steering@steering& (0+255),w,b
  1274  000EE0  0A80               	xorlw	128
  1275  000EE2  0F63               	addlw	-157
  1276  000EE4  A0D8               	btfss	status,0,c
  1277  000EE6  D002               	goto	l2723
  1278                           
  1279                           ; BSR set to: 0
  1280  000EE8  0E1C               	movlw	28
  1281  000EEA  6F60               	movwf	carcontrol_steering@steering& (0+255),b
  1282  000EEC                     l2723:
  1283                           
  1284                           ; BSR set to: 0
  1285                           ;car_ctrl.c: 109:     steering = steering + servo_trim;
  1286  000EEC  5160               	movf	carcontrol_steering@steering& (0+255),w,b
  1287  000EEE  0FEF               	addlw	239
  1288  000EF0  6F60               	movwf	carcontrol_steering@steering& (0+255),b
  1289                           
  1290                           ; BSR set to: 0
  1291                           ;car_ctrl.c: 111:     carctl.servoHighTime = steering + 50;
  1292  000EF2  5160               	movf	carcontrol_steering@steering& (0+255),w,b
  1293  000EF4  0F32               	addlw	50
  1294  000EF6  6F8C               	movwf	(_carctl+5)& (0+255),b	;volatile
  1295                           
  1296                           ; BSR set to: 0
  1297  000EF8  0012               	return		;funcret
  1298  000EFA                     __end_of_carcontrol_steering:
  1299                           	opt callstack 0
  1300                           
  1301 ;; *************** function ___fltol *****************
  1302 ;; Defined at:
  1303 ;;		line 43 in file "/Applications/microchip/xc8/v2.05/pic/sources/c99/common/fltol.c"
  1304 ;; Parameters:    Size  Location     Type
  1305 ;;  f1              4    0[BANK0 ] void 
  1306 ;; Auto vars:     Size  Location     Type
  1307 ;;  exp1            1    9[BANK0 ] unsigned char 
  1308 ;;  sign1           1    8[BANK0 ] unsigned char 
  1309 ;; Return value:  Size  Location     Type
  1310 ;;                  4    0[BANK0 ] long 
  1311 ;; Registers used:
  1312 ;;		wreg, status,2, status,0
  1313 ;; Tracked objects:
  1314 ;;		On entry : 0/0
  1315 ;;		On exit  : 0/0
  1316 ;;		Unchanged: 0/0
  1317 ;; Data sizes:     COMRAM   BANK0   BANK1   BANK2   BANK3   BANK4   BANK5   BANK6   BANK7
  1318 ;;      Params:         0       4       0       0       0       0       0       0       0
  1319 ;;      Locals:         0       2       0       0       0       0       0       0       0
  1320 ;;      Temps:          0       4       0       0       0       0       0       0       0
  1321 ;;      Totals:         0      10       0       0       0       0       0       0       0
  1322 ;;Total ram usage:       10 bytes
  1323 ;; Hardware stack levels used:    1
  1324 ;; Hardware stack levels required when called:    5
  1325 ;; This function calls:
  1326 ;;		Nothing
  1327 ;; This function is called by:
  1328 ;;		_main
  1329 ;; This function uses a non-reentrant model
  1330 ;;
  1331                           
  1332                           	psect	text9
  1333  000A00                     __ptext9:
  1334                           	opt callstack 0
  1335  000A00                     ___fltol:
  1336                           	opt callstack 25
  1337                           
  1338                           ; BSR set to: 0
  1339                           ;incstack = 0
  1340  000A00  0100               	movlb	0	; () banked
  1341  000A02  3562               	rlcf	(___fltol@f1+2)& (0+255),w,b
  1342  000A04  3563               	rlcf	(___fltol@f1+3)& (0+255),w,b
  1343  000A06  6F69               	movwf	___fltol@exp1& (0+255),b
  1344  000A08  5169               	movf	___fltol@exp1& (0+255),w,b
  1345  000A0A  A4D8               	btfss	status,2,c
  1346  000A0C  D009               	goto	l3187
  1347  000A0E                     u2350:
  1348                           
  1349                           ; BSR set to: 0
  1350  000A0E  0E00               	movlw	0
  1351  000A10  6F60               	movwf	?___fltol& (0+255),b
  1352  000A12  0E00               	movlw	0
  1353  000A14  6F61               	movwf	(?___fltol+1)& (0+255),b
  1354  000A16  0E00               	movlw	0
  1355  000A18  6F62               	movwf	(?___fltol+2)& (0+255),b
  1356  000A1A  0E00               	movlw	0
  1357  000A1C  6F63               	movwf	(?___fltol+3)& (0+255),b
  1358  000A1E  0012               	return	
  1359  000A20                     l3187:
  1360                           
  1361                           ; BSR set to: 0
  1362  000A20  C060  F064         	movff	___fltol@f1,??___fltol
  1363  000A24  C061  F065         	movff	___fltol@f1+1,??___fltol+1
  1364  000A28  C062  F066         	movff	___fltol@f1+2,??___fltol+2
  1365  000A2C  C063  F067         	movff	___fltol@f1+3,??___fltol+3
  1366  000A30  0E20               	movlw	32
  1367  000A32  D005               	goto	u2360
  1368  000A34                     u2365:
  1369  000A34  90D8               	bcf	status,0,c
  1370  000A36  3367               	rrcf	(??___fltol+3)& (0+255),f,b
  1371  000A38  3366               	rrcf	(??___fltol+2)& (0+255),f,b
  1372  000A3A  3365               	rrcf	(??___fltol+1)& (0+255),f,b
  1373  000A3C  3364               	rrcf	??___fltol& (0+255),f,b
  1374  000A3E                     u2360:
  1375  000A3E  2EE8               	decfsz	wreg,f,c
  1376  000A40  D7F9               	goto	u2365
  1377  000A42  5164               	movf	??___fltol& (0+255),w,b
  1378  000A44  6F68               	movwf	___fltol@sign1& (0+255),b
  1379                           
  1380                           ; BSR set to: 0
  1381  000A46  8F62               	bsf	(___fltol@f1+2)& (0+255),7,b
  1382                           
  1383                           ; BSR set to: 0
  1384  000A48  0EFF               	movlw	255
  1385  000A4A  1760               	andwf	___fltol@f1& (0+255),f,b
  1386  000A4C  0EFF               	movlw	255
  1387  000A4E  1761               	andwf	(___fltol@f1+1)& (0+255),f,b
  1388  000A50  0EFF               	movlw	255
  1389  000A52  1762               	andwf	(___fltol@f1+2)& (0+255),f,b
  1390  000A54  0E00               	movlw	0
  1391  000A56  1763               	andwf	(___fltol@f1+3)& (0+255),f,b
  1392                           
  1393                           ; BSR set to: 0
  1394  000A58  0E96               	movlw	150
  1395  000A5A  5F69               	subwf	___fltol@exp1& (0+255),f,b
  1396                           
  1397                           ; BSR set to: 0
  1398  000A5C  AF69               	btfss	___fltol@exp1& (0+255),7,b
  1399  000A5E  D00D               	goto	l3207
  1400                           
  1401                           ; BSR set to: 0
  1402  000A60  5169               	movf	___fltol@exp1& (0+255),w,b
  1403  000A62  0A80               	xorlw	128
  1404  000A64  0F97               	addlw	151
  1405  000A66  A0D8               	btfss	status,0,c
  1406  000A68  D7D2               	goto	u2350
  1407  000A6A                     l3203:
  1408                           
  1409                           ; BSR set to: 0
  1410  000A6A  90D8               	bcf	status,0,c
  1411  000A6C  3363               	rrcf	(___fltol@f1+3)& (0+255),f,b
  1412  000A6E  3362               	rrcf	(___fltol@f1+2)& (0+255),f,b
  1413  000A70  3361               	rrcf	(___fltol@f1+1)& (0+255),f,b
  1414  000A72  3360               	rrcf	___fltol@f1& (0+255),f,b
  1415                           
  1416                           ; BSR set to: 0
  1417  000A74  3F69               	incfsz	___fltol@exp1& (0+255),f,b
  1418  000A76  D7F9               	goto	l3203
  1419  000A78  D00D               	goto	u2400
  1420  000A7A                     l3207:
  1421                           
  1422                           ; BSR set to: 0
  1423  000A7A  0E1F               	movlw	31
  1424  000A7C  6569               	cpfsgt	___fltol@exp1& (0+255),b
  1425  000A7E  D007               	goto	l3215
  1426  000A80  D7C6               	goto	u2350
  1427  000A82                     l3213:
  1428                           
  1429                           ; BSR set to: 0
  1430  000A82  90D8               	bcf	status,0,c
  1431  000A84  3760               	rlcf	___fltol@f1& (0+255),f,b
  1432  000A86  3761               	rlcf	(___fltol@f1+1)& (0+255),f,b
  1433  000A88  3762               	rlcf	(___fltol@f1+2)& (0+255),f,b
  1434  000A8A  3763               	rlcf	(___fltol@f1+3)& (0+255),f,b
  1435  000A8C  0769               	decf	___fltol@exp1& (0+255),f,b
  1436  000A8E                     l3215:
  1437                           
  1438                           ; BSR set to: 0
  1439  000A8E  5169               	movf	___fltol@exp1& (0+255),w,b
  1440  000A90  A4D8               	btfss	status,2,c
  1441  000A92  D7F7               	goto	l3213
  1442  000A94                     u2400:
  1443                           
  1444                           ; BSR set to: 0
  1445  000A94  5168               	movf	___fltol@sign1& (0+255),w,b
  1446  000A96  B4D8               	btfsc	status,2,c
  1447  000A98  D008               	goto	l3221
  1448                           
  1449                           ; BSR set to: 0
  1450  000A9A  1F63               	comf	(___fltol@f1+3)& (0+255),f,b
  1451  000A9C  1F62               	comf	(___fltol@f1+2)& (0+255),f,b
  1452  000A9E  1F61               	comf	(___fltol@f1+1)& (0+255),f,b
  1453  000AA0  6D60               	negf	___fltol@f1& (0+255),b
  1454  000AA2  0E00               	movlw	0
  1455  000AA4  2361               	addwfc	(___fltol@f1+1)& (0+255),f,b
  1456  000AA6  2362               	addwfc	(___fltol@f1+2)& (0+255),f,b
  1457  000AA8  2363               	addwfc	(___fltol@f1+3)& (0+255),f,b
  1458  000AAA                     l3221:
  1459                           
  1460                           ; BSR set to: 0
  1461  000AAA  C060  F060         	movff	___fltol@f1,?___fltol
  1462  000AAE  C061  F061         	movff	___fltol@f1+1,?___fltol+1
  1463  000AB2  C062  F062         	movff	___fltol@f1+2,?___fltol+2
  1464  000AB6  C063  F063         	movff	___fltol@f1+3,?___fltol+3
  1465                           
  1466                           ; BSR set to: 0
  1467  000ABA  0012               	return		;funcret
  1468  000ABC                     __end_of___fltol:
  1469                           	opt callstack 0
  1470                           
  1471 ;; *************** function ___fleq *****************
  1472 ;; Defined at:
  1473 ;;		line 4 in file "/Applications/microchip/xc8/v2.05/pic/sources/c99/common/fleq.c"
  1474 ;; Parameters:    Size  Location     Type
  1475 ;;  ff1             4    0[BANK0 ] long 
  1476 ;;  ff2             4    4[BANK0 ] long 
  1477 ;; Auto vars:     Size  Location     Type
  1478 ;;		None
  1479 ;; Return value:  Size  Location     Type
  1480 ;;		None               void
  1481 ;; Registers used:
  1482 ;;		wreg, status,2, status,0
  1483 ;; Tracked objects:
  1484 ;;		On entry : 0/0
  1485 ;;		On exit  : 0/0
  1486 ;;		Unchanged: 0/0
  1487 ;; Data sizes:     COMRAM   BANK0   BANK1   BANK2   BANK3   BANK4   BANK5   BANK6   BANK7
  1488 ;;      Params:         0       8       0       0       0       0       0       0       0
  1489 ;;      Locals:         0       0       0       0       0       0       0       0       0
  1490 ;;      Temps:          0       4       0       0       0       0       0       0       0
  1491 ;;      Totals:         0      12       0       0       0       0       0       0       0
  1492 ;;Total ram usage:       12 bytes
  1493 ;; Hardware stack levels used:    1
  1494 ;; Hardware stack levels required when called:    5
  1495 ;; This function calls:
  1496 ;;		Nothing
  1497 ;; This function is called by:
  1498 ;;		_main
  1499 ;; This function uses a non-reentrant model
  1500 ;;
  1501                           
  1502                           	psect	text10
  1503  000B56                     __ptext10:
  1504                           	opt callstack 0
  1505  000B56                     ___fleq:
  1506                           	opt callstack 25
  1507                           
  1508                           ; BSR set to: 0
  1509                           ;incstack = 0
  1510  000B56  0E00               	movlw	0
  1511  000B58  0100               	movlb	0	; () banked
  1512  000B5A  1560               	andwf	___fleq@ff1& (0+255),w,b
  1513  000B5C  6F68               	movwf	??___fleq& (0+255),b
  1514  000B5E  0E00               	movlw	0
  1515  000B60  1561               	andwf	(___fleq@ff1+1)& (0+255),w,b
  1516  000B62  6F69               	movwf	(??___fleq+1)& (0+255),b
  1517  000B64  0E80               	movlw	128
  1518  000B66  1562               	andwf	(___fleq@ff1+2)& (0+255),w,b
  1519  000B68  6F6A               	movwf	(??___fleq+2)& (0+255),b
  1520  000B6A  0E7F               	movlw	127
  1521  000B6C  1563               	andwf	(___fleq@ff1+3)& (0+255),w,b
  1522  000B6E  6F6B               	movwf	(??___fleq+3)& (0+255),b
  1523  000B70  5168               	movf	??___fleq& (0+255),w,b
  1524  000B72  1169               	iorwf	(??___fleq+1)& (0+255),w,b
  1525  000B74  116A               	iorwf	(??___fleq+2)& (0+255),w,b
  1526  000B76  116B               	iorwf	(??___fleq+3)& (0+255),w,b
  1527  000B78  A4D8               	btfss	status,2,c
  1528  000B7A  D008               	goto	l3169
  1529                           
  1530                           ; BSR set to: 0
  1531  000B7C  0E00               	movlw	0
  1532  000B7E  6F60               	movwf	___fleq@ff1& (0+255),b
  1533  000B80  0E00               	movlw	0
  1534  000B82  6F61               	movwf	(___fleq@ff1+1)& (0+255),b
  1535  000B84  0E00               	movlw	0
  1536  000B86  6F62               	movwf	(___fleq@ff1+2)& (0+255),b
  1537  000B88  0E00               	movlw	0
  1538  000B8A  6F63               	movwf	(___fleq@ff1+3)& (0+255),b
  1539  000B8C                     l3169:
  1540                           
  1541                           ; BSR set to: 0
  1542  000B8C  0E00               	movlw	0
  1543  000B8E  1564               	andwf	___fleq@ff2& (0+255),w,b
  1544  000B90  6F68               	movwf	??___fleq& (0+255),b
  1545  000B92  0E00               	movlw	0
  1546  000B94  1565               	andwf	(___fleq@ff2+1)& (0+255),w,b
  1547  000B96  6F69               	movwf	(??___fleq+1)& (0+255),b
  1548  000B98  0E80               	movlw	128
  1549  000B9A  1566               	andwf	(___fleq@ff2+2)& (0+255),w,b
  1550  000B9C  6F6A               	movwf	(??___fleq+2)& (0+255),b
  1551  000B9E  0E7F               	movlw	127
  1552  000BA0  1567               	andwf	(___fleq@ff2+3)& (0+255),w,b
  1553  000BA2  6F6B               	movwf	(??___fleq+3)& (0+255),b
  1554  000BA4  5168               	movf	??___fleq& (0+255),w,b
  1555  000BA6  1169               	iorwf	(??___fleq+1)& (0+255),w,b
  1556  000BA8  116A               	iorwf	(??___fleq+2)& (0+255),w,b
  1557  000BAA  116B               	iorwf	(??___fleq+3)& (0+255),w,b
  1558  000BAC  A4D8               	btfss	status,2,c
  1559  000BAE  D008               	goto	l3173
  1560                           
  1561                           ; BSR set to: 0
  1562  000BB0  0E00               	movlw	0
  1563  000BB2  6F64               	movwf	___fleq@ff2& (0+255),b
  1564  000BB4  0E00               	movlw	0
  1565  000BB6  6F65               	movwf	(___fleq@ff2+1)& (0+255),b
  1566  000BB8  0E00               	movlw	0
  1567  000BBA  6F66               	movwf	(___fleq@ff2+2)& (0+255),b
  1568  000BBC  0E00               	movlw	0
  1569  000BBE  6F67               	movwf	(___fleq@ff2+3)& (0+255),b
  1570  000BC0                     l3173:
  1571                           
  1572                           ; BSR set to: 0
  1573  000BC0  5164               	movf	___fleq@ff2& (0+255),w,b
  1574  000BC2  1960               	xorwf	___fleq@ff1& (0+255),w,b
  1575  000BC4  E10A               	bnz	u2340
  1576  000BC6  5165               	movf	(___fleq@ff2+1)& (0+255),w,b
  1577  000BC8  1961               	xorwf	(___fleq@ff1+1)& (0+255),w,b
  1578  000BCA  E107               	bnz	u2340
  1579  000BCC  5166               	movf	(___fleq@ff2+2)& (0+255),w,b
  1580  000BCE  1962               	xorwf	(___fleq@ff1+2)& (0+255),w,b
  1581  000BD0  E104               	bnz	u2340
  1582  000BD2  5167               	movf	(___fleq@ff2+3)& (0+255),w,b
  1583  000BD4  1963               	xorwf	(___fleq@ff1+3)& (0+255),w,b
  1584  000BD6  B4D8               	btfsc	status,2,c
  1585  000BD8  D002               	goto	l3177
  1586  000BDA                     u2340:
  1587                           
  1588                           ; BSR set to: 0
  1589  000BDA  90D8               	bcf	status,0,c
  1590  000BDC  0012               	return	
  1591  000BDE                     l3177:
  1592                           
  1593                           ; BSR set to: 0
  1594  000BDE  80D8               	bsf	status,0,c
  1595                           
  1596                           ; BSR set to: 0
  1597  000BE0  0012               	return		;funcret
  1598  000BE2                     __end_of___fleq:
  1599                           	opt callstack 0
  1600                           
  1601 ;; *************** function ___fladd *****************
  1602 ;; Defined at:
  1603 ;;		line 10 in file "/Applications/microchip/xc8/v2.05/pic/sources/c99/common/sprcadd.c"
  1604 ;; Parameters:    Size  Location     Type
  1605 ;;  b               4    0[BANK0 ] long 
  1606 ;;  a               4    4[BANK0 ] long 
  1607 ;; Auto vars:     Size  Location     Type
  1608 ;;  grs             1   15[BANK0 ] unsigned char 
  1609 ;;  bexp            1   14[BANK0 ] unsigned char 
  1610 ;;  aexp            1   13[BANK0 ] unsigned char 
  1611 ;;  signs           1   12[BANK0 ] unsigned char 
  1612 ;; Return value:  Size  Location     Type
  1613 ;;                  4    0[BANK0 ] unsigned char 
  1614 ;; Registers used:
  1615 ;;		wreg, status,2, status,0
  1616 ;; Tracked objects:
  1617 ;;		On entry : 0/0
  1618 ;;		On exit  : 0/0
  1619 ;;		Unchanged: 0/0
  1620 ;; Data sizes:     COMRAM   BANK0   BANK1   BANK2   BANK3   BANK4   BANK5   BANK6   BANK7
  1621 ;;      Params:         0       8       0       0       0       0       0       0       0
  1622 ;;      Locals:         0       4       0       0       0       0       0       0       0
  1623 ;;      Temps:          0       4       0       0       0       0       0       0       0
  1624 ;;      Totals:         0      16       0       0       0       0       0       0       0
  1625 ;;Total ram usage:       16 bytes
  1626 ;; Hardware stack levels used:    1
  1627 ;; Hardware stack levels required when called:    5
  1628 ;; This function calls:
  1629 ;;		Nothing
  1630 ;; This function is called by:
  1631 ;;		_main
  1632 ;; This function uses a non-reentrant model
  1633 ;;
  1634                           
  1635                           	psect	text11
  1636  0003FE                     __ptext11:
  1637                           	opt callstack 0
  1638  0003FE                     ___fladd:
  1639                           	opt callstack 25
  1640                           
  1641                           ; BSR set to: 0
  1642                           ;incstack = 0
  1643  0003FE  0100               	movlb	0	; () banked
  1644  000400  5163               	movf	(___fladd@b+3)& (0+255),w,b
  1645  000402  0B80               	andlw	128
  1646  000404  6F6C               	movwf	___fladd@signs& (0+255),b
  1647  000406  5163               	movf	(___fladd@b+3)& (0+255),w,b
  1648  000408  2563               	addwf	(___fladd@b+3)& (0+255),w,b
  1649  00040A  6F6E               	movwf	___fladd@bexp& (0+255),b
  1650                           
  1651                           ; BSR set to: 0
  1652  00040C  BF62               	btfsc	(___fladd@b+2)& (0+255),7,b
  1653                           
  1654                           ; BSR set to: 0
  1655  00040E  816E               	bsf	___fladd@bexp& (0+255),0,b
  1656                           
  1657                           ; BSR set to: 0
  1658  000410  516E               	movf	___fladd@bexp& (0+255),w,b
  1659  000412  B4D8               	btfsc	status,2,c
  1660  000414  D00D               	goto	l2979
  1661                           
  1662                           ; BSR set to: 0
  1663  000416  296E               	incf	___fladd@bexp& (0+255),w,b
  1664  000418  A4D8               	btfss	status,2,c
  1665  00041A  D008               	goto	l2975
  1666                           
  1667                           ; BSR set to: 0
  1668  00041C  0E00               	movlw	0
  1669  00041E  6F60               	movwf	___fladd@b& (0+255),b
  1670  000420  0E00               	movlw	0
  1671  000422  6F61               	movwf	(___fladd@b+1)& (0+255),b
  1672  000424  0E00               	movlw	0
  1673  000426  6F62               	movwf	(___fladd@b+2)& (0+255),b
  1674  000428  0E00               	movlw	0
  1675  00042A  6F63               	movwf	(___fladd@b+3)& (0+255),b
  1676  00042C                     l2975:
  1677                           
  1678                           ; BSR set to: 0
  1679  00042C  8F62               	bsf	(___fladd@b+2)& (0+255),7,b
  1680  00042E  D006               	goto	L1
  1681  000430                     l2979:
  1682                           
  1683                           ; BSR set to: 0
  1684  000430  0E00               	movlw	0
  1685  000432  6F60               	movwf	___fladd@b& (0+255),b
  1686  000434  0E00               	movlw	0
  1687  000436  6F61               	movwf	(___fladd@b+1)& (0+255),b
  1688  000438  0E00               	movlw	0
  1689  00043A  6F62               	movwf	(___fladd@b+2)& (0+255),b
  1690  00043C                     L1:
  1691  00043C  0E00               	movlw	0
  1692  00043E  6F63               	movwf	(___fladd@b+3)& (0+255),b
  1693                           
  1694                           ; BSR set to: 0
  1695  000440  5167               	movf	(___fladd@a+3)& (0+255),w,b
  1696  000442  0B80               	andlw	128
  1697  000444  6F6D               	movwf	___fladd@aexp& (0+255),b
  1698                           
  1699                           ; BSR set to: 0
  1700  000446  516C               	movf	___fladd@signs& (0+255),w,b
  1701  000448  196D               	xorwf	___fladd@aexp& (0+255),w,b
  1702  00044A  A4D8               	btfss	status,2,c
  1703                           
  1704                           ; BSR set to: 0
  1705  00044C  8D6C               	bsf	___fladd@signs& (0+255),6,b
  1706                           
  1707                           ; BSR set to: 0
  1708  00044E  5167               	movf	(___fladd@a+3)& (0+255),w,b
  1709  000450  2567               	addwf	(___fladd@a+3)& (0+255),w,b
  1710  000452  6F6D               	movwf	___fladd@aexp& (0+255),b
  1711                           
  1712                           ; BSR set to: 0
  1713  000454  BF66               	btfsc	(___fladd@a+2)& (0+255),7,b
  1714                           
  1715                           ; BSR set to: 0
  1716  000456  816D               	bsf	___fladd@aexp& (0+255),0,b
  1717                           
  1718                           ; BSR set to: 0
  1719  000458  516D               	movf	___fladd@aexp& (0+255),w,b
  1720  00045A  B4D8               	btfsc	status,2,c
  1721  00045C  D00D               	goto	l3003
  1722                           
  1723                           ; BSR set to: 0
  1724  00045E  296D               	incf	___fladd@aexp& (0+255),w,b
  1725  000460  A4D8               	btfss	status,2,c
  1726  000462  D008               	goto	l2999
  1727                           
  1728                           ; BSR set to: 0
  1729  000464  0E00               	movlw	0
  1730  000466  6F64               	movwf	___fladd@a& (0+255),b
  1731  000468  0E00               	movlw	0
  1732  00046A  6F65               	movwf	(___fladd@a+1)& (0+255),b
  1733  00046C  0E00               	movlw	0
  1734  00046E  6F66               	movwf	(___fladd@a+2)& (0+255),b
  1735  000470  0E00               	movlw	0
  1736  000472  6F67               	movwf	(___fladd@a+3)& (0+255),b
  1737  000474                     l2999:
  1738                           
  1739                           ; BSR set to: 0
  1740  000474  8F66               	bsf	(___fladd@a+2)& (0+255),7,b
  1741  000476  D006               	goto	L2
  1742  000478                     l3003:
  1743                           
  1744                           ; BSR set to: 0
  1745  000478  0E00               	movlw	0
  1746  00047A  6F64               	movwf	___fladd@a& (0+255),b
  1747  00047C  0E00               	movlw	0
  1748  00047E  6F65               	movwf	(___fladd@a+1)& (0+255),b
  1749  000480  0E00               	movlw	0
  1750  000482  6F66               	movwf	(___fladd@a+2)& (0+255),b
  1751  000484                     L2:
  1752  000484  0E00               	movlw	0
  1753  000486  6F67               	movwf	(___fladd@a+3)& (0+255),b
  1754                           
  1755                           ; BSR set to: 0
  1756  000488  516E               	movf	___fladd@bexp& (0+255),w,b
  1757  00048A  5D6D               	subwf	___fladd@aexp& (0+255),w,b
  1758  00048C  B0D8               	btfsc	status,0,c
  1759  00048E  D022               	goto	l3041
  1760                           
  1761                           ; BSR set to: 0
  1762  000490  AD6C               	btfss	___fladd@signs& (0+255),6,b
  1763  000492  D002               	goto	l3011
  1764                           
  1765                           ; BSR set to: 0
  1766  000494  0E80               	movlw	128
  1767  000496  1B6C               	xorwf	___fladd@signs& (0+255),f,b
  1768  000498                     l3011:
  1769                           
  1770                           ; BSR set to: 0
  1771  000498  C06E  F06F         	movff	___fladd@bexp,___fladd@grs
  1772                           
  1773                           ; BSR set to: 0
  1774  00049C  C06D  F06E         	movff	___fladd@aexp,___fladd@bexp
  1775                           
  1776                           ; BSR set to: 0
  1777  0004A0  C06F  F06D         	movff	___fladd@grs,___fladd@aexp
  1778                           
  1779                           ; BSR set to: 0
  1780  0004A4  C060  F06F         	movff	___fladd@b,___fladd@grs
  1781                           
  1782                           ; BSR set to: 0
  1783  0004A8  C064  F060         	movff	___fladd@a,___fladd@b
  1784                           
  1785                           ; BSR set to: 0
  1786  0004AC  C06F  F064         	movff	___fladd@grs,___fladd@a
  1787                           
  1788                           ; BSR set to: 0
  1789  0004B0  C061  F06F         	movff	___fladd@b+1,___fladd@grs
  1790                           
  1791                           ; BSR set to: 0
  1792  0004B4  C065  F061         	movff	___fladd@a+1,___fladd@b+1
  1793                           
  1794                           ; BSR set to: 0
  1795  0004B8  C06F  F065         	movff	___fladd@grs,___fladd@a+1
  1796                           
  1797                           ; BSR set to: 0
  1798  0004BC  C062  F06F         	movff	___fladd@b+2,___fladd@grs
  1799                           
  1800                           ; BSR set to: 0
  1801  0004C0  C066  F062         	movff	___fladd@a+2,___fladd@b+2
  1802                           
  1803                           ; BSR set to: 0
  1804  0004C4  C06F  F066         	movff	___fladd@grs,___fladd@a+2
  1805                           
  1806                           ; BSR set to: 0
  1807  0004C8  C063  F06F         	movff	___fladd@b+3,___fladd@grs
  1808                           
  1809                           ; BSR set to: 0
  1810  0004CC  C067  F063         	movff	___fladd@a+3,___fladd@b+3
  1811                           
  1812                           ; BSR set to: 0
  1813  0004D0  C06F  F067         	movff	___fladd@grs,___fladd@a+3
  1814  0004D4                     l3041:
  1815                           
  1816                           ; BSR set to: 0
  1817  0004D4  0E00               	movlw	0
  1818  0004D6  6F6F               	movwf	___fladd@grs& (0+255),b
  1819                           
  1820                           ; BSR set to: 0
  1821  0004D8  516E               	movf	___fladd@bexp& (0+255),w,b
  1822  0004DA  C06D  F068         	movff	___fladd@aexp,??___fladd
  1823  0004DE  6B69               	clrf	(??___fladd+1)& (0+255),b
  1824  0004E0  5F68               	subwf	??___fladd& (0+255),f,b
  1825  0004E2  0E00               	movlw	0
  1826  0004E4  5B69               	subwfb	(??___fladd+1)& (0+255),f,b
  1827  0004E6  BF69               	btfsc	(??___fladd+1)& (0+255),7,b
  1828  0004E8  D02C               	goto	l1219
  1829  0004EA  5169               	movf	(??___fladd+1)& (0+255),w,b
  1830  0004EC  E104               	bnz	u2020
  1831  0004EE  0E1A               	movlw	26
  1832  0004F0  5D68               	subwf	??___fladd& (0+255),w,b
  1833  0004F2  A0D8               	btfss	status,0,c
  1834  0004F4  D026               	goto	l1219
  1835  0004F6                     u2020:
  1836                           
  1837                           ; BSR set to: 0
  1838  0004F6  5160               	movf	___fladd@b& (0+255),w,b
  1839  0004F8  1161               	iorwf	(___fladd@b+1)& (0+255),w,b
  1840  0004FA  1162               	iorwf	(___fladd@b+2)& (0+255),w,b
  1841  0004FC  1163               	iorwf	(___fladd@b+3)& (0+255),w,b
  1842  0004FE  B4D8               	btfsc	status,2,c
  1843  000500  D002               	goto	u2030
  1844  000502  0E01               	movlw	1
  1845  000504  D001               	goto	u2040
  1846  000506                     u2030:
  1847  000506  0E00               	movlw	0
  1848  000508                     u2040:
  1849  000508  6F6F               	movwf	___fladd@grs& (0+255),b
  1850                           
  1851                           ; BSR set to: 0
  1852  00050A  0E00               	movlw	0
  1853  00050C  6F60               	movwf	___fladd@b& (0+255),b
  1854  00050E  0E00               	movlw	0
  1855  000510  6F61               	movwf	(___fladd@b+1)& (0+255),b
  1856  000512  0E00               	movlw	0
  1857  000514  6F62               	movwf	(___fladd@b+2)& (0+255),b
  1858  000516  0E00               	movlw	0
  1859  000518  6F63               	movwf	(___fladd@b+3)& (0+255),b
  1860                           
  1861                           ; BSR set to: 0
  1862  00051A  C06D  F06E         	movff	___fladd@aexp,___fladd@bexp
  1863  00051E  D015               	goto	u2070
  1864  000520                     l1220:
  1865                           
  1866                           ; BSR set to: 0
  1867  000520  A16F               	btfss	___fladd@grs& (0+255),0,b
  1868  000522  D005               	goto	l3053
  1869                           
  1870                           ; BSR set to: 0
  1871  000524  90D8               	bcf	status,0,c
  1872  000526  316F               	rrcf	___fladd@grs& (0+255),w,b
  1873  000528  0901               	iorlw	1
  1874  00052A  6F6F               	movwf	___fladd@grs& (0+255),b
  1875  00052C  D002               	goto	l3055
  1876  00052E                     l3053:
  1877                           
  1878                           ; BSR set to: 0
  1879  00052E  90D8               	bcf	status,0,c
  1880  000530  336F               	rrcf	___fladd@grs& (0+255),f,b
  1881  000532                     l3055:
  1882                           
  1883                           ; BSR set to: 0
  1884  000532  B160               	btfsc	___fladd@b& (0+255),0,b
  1885                           
  1886                           ; BSR set to: 0
  1887  000534  8F6F               	bsf	___fladd@grs& (0+255),7,b
  1888                           
  1889                           ; BSR set to: 0
  1890  000536  3563               	rlcf	(___fladd@b+3)& (0+255),w,b
  1891  000538  3363               	rrcf	(___fladd@b+3)& (0+255),f,b
  1892  00053A  3362               	rrcf	(___fladd@b+2)& (0+255),f,b
  1893  00053C  3361               	rrcf	(___fladd@b+1)& (0+255),f,b
  1894  00053E  3360               	rrcf	___fladd@b& (0+255),f,b
  1895                           
  1896                           ; BSR set to: 0
  1897  000540  2B6E               	incf	___fladd@bexp& (0+255),f,b
  1898  000542                     l1219:
  1899                           
  1900                           ; BSR set to: 0
  1901  000542  516D               	movf	___fladd@aexp& (0+255),w,b
  1902  000544  5D6E               	subwf	___fladd@bexp& (0+255),w,b
  1903  000546  A0D8               	btfss	status,0,c
  1904  000548  D7EB               	goto	l1220
  1905  00054A                     u2070:
  1906                           
  1907                           ; BSR set to: 0
  1908  00054A  BD6C               	btfsc	___fladd@signs& (0+255),6,b
  1909  00054C  D028               	goto	l3087
  1910                           
  1911                           ; BSR set to: 0
  1912  00054E  516E               	movf	___fladd@bexp& (0+255),w,b
  1913  000550  A4D8               	btfss	status,2,c
  1914  000552  D009               	goto	l3069
  1915                           
  1916                           ; BSR set to: 0
  1917  000554  0E00               	movlw	0
  1918  000556  6F60               	movwf	?___fladd& (0+255),b
  1919  000558  0E00               	movlw	0
  1920  00055A  6F61               	movwf	(?___fladd+1)& (0+255),b
  1921  00055C  0E00               	movlw	0
  1922  00055E  6F62               	movwf	(?___fladd+2)& (0+255),b
  1923  000560  0E00               	movlw	0
  1924  000562  6F63               	movwf	(?___fladd+3)& (0+255),b
  1925  000564  0012               	return	
  1926  000566                     l3069:
  1927                           
  1928                           ; BSR set to: 0
  1929  000566  5164               	movf	___fladd@a& (0+255),w,b
  1930  000568  2760               	addwf	___fladd@b& (0+255),f,b
  1931  00056A  5165               	movf	(___fladd@a+1)& (0+255),w,b
  1932  00056C  2361               	addwfc	(___fladd@b+1)& (0+255),f,b
  1933  00056E  5166               	movf	(___fladd@a+2)& (0+255),w,b
  1934  000570  2362               	addwfc	(___fladd@b+2)& (0+255),f,b
  1935  000572  5167               	movf	(___fladd@a+3)& (0+255),w,b
  1936  000574  2363               	addwfc	(___fladd@b+3)& (0+255),f,b
  1937                           
  1938                           ; BSR set to: 0
  1939  000576  A163               	btfss	(___fladd@b+3)& (0+255),0,b
  1940  000578  D071               	goto	u2200
  1941                           
  1942                           ; BSR set to: 0
  1943  00057A  A16F               	btfss	___fladd@grs& (0+255),0,b
  1944  00057C  D005               	goto	l3077
  1945                           
  1946                           ; BSR set to: 0
  1947  00057E  90D8               	bcf	status,0,c
  1948  000580  316F               	rrcf	___fladd@grs& (0+255),w,b
  1949  000582  0901               	iorlw	1
  1950  000584  6F6F               	movwf	___fladd@grs& (0+255),b
  1951  000586  D002               	goto	l3079
  1952  000588                     l3077:
  1953                           
  1954                           ; BSR set to: 0
  1955  000588  90D8               	bcf	status,0,c
  1956  00058A  336F               	rrcf	___fladd@grs& (0+255),f,b
  1957  00058C                     l3079:
  1958                           
  1959                           ; BSR set to: 0
  1960  00058C  B160               	btfsc	___fladd@b& (0+255),0,b
  1961                           
  1962                           ; BSR set to: 0
  1963  00058E  8F6F               	bsf	___fladd@grs& (0+255),7,b
  1964                           
  1965                           ; BSR set to: 0
  1966  000590  3563               	rlcf	(___fladd@b+3)& (0+255),w,b
  1967  000592  3363               	rrcf	(___fladd@b+3)& (0+255),f,b
  1968  000594  3362               	rrcf	(___fladd@b+2)& (0+255),f,b
  1969  000596  3361               	rrcf	(___fladd@b+1)& (0+255),f,b
  1970  000598  3360               	rrcf	___fladd@b& (0+255),f,b
  1971                           
  1972                           ; BSR set to: 0
  1973  00059A  2B6E               	incf	___fladd@bexp& (0+255),f,b
  1974  00059C  D05F               	goto	u2200
  1975  00059E                     l3087:
  1976                           
  1977                           ; BSR set to: 0
  1978  00059E  5164               	movf	___fladd@a& (0+255),w,b
  1979  0005A0  5D60               	subwf	___fladd@b& (0+255),w,b
  1980  0005A2  5165               	movf	(___fladd@a+1)& (0+255),w,b
  1981  0005A4  5961               	subwfb	(___fladd@b+1)& (0+255),w,b
  1982  0005A6  5166               	movf	(___fladd@a+2)& (0+255),w,b
  1983  0005A8  5962               	subwfb	(___fladd@b+2)& (0+255),w,b
  1984  0005AA  5163               	movf	(___fladd@b+3)& (0+255),w,b
  1985  0005AC  0A80               	xorlw	128
  1986  0005AE  6F68               	movwf	??___fladd& (0+255),b
  1987  0005B0  5167               	movf	(___fladd@a+3)& (0+255),w,b
  1988  0005B2  0A80               	xorlw	128
  1989  0005B4  5968               	subwfb	??___fladd& (0+255),w,b
  1990  0005B6  B0D8               	btfsc	status,0,c
  1991  0005B8  D025               	goto	l3097
  1992                           
  1993                           ; BSR set to: 0
  1994  0005BA  5160               	movf	___fladd@b& (0+255),w,b
  1995  0005BC  5D64               	subwf	___fladd@a& (0+255),w,b
  1996  0005BE  6F68               	movwf	??___fladd& (0+255),b
  1997  0005C0  5161               	movf	(___fladd@b+1)& (0+255),w,b
  1998  0005C2  5965               	subwfb	(___fladd@a+1)& (0+255),w,b
  1999  0005C4  6F69               	movwf	(??___fladd+1)& (0+255),b
  2000  0005C6  5162               	movf	(___fladd@b+2)& (0+255),w,b
  2001  0005C8  5966               	subwfb	(___fladd@a+2)& (0+255),w,b
  2002  0005CA  6F6A               	movwf	(??___fladd+2)& (0+255),b
  2003  0005CC  5163               	movf	(___fladd@b+3)& (0+255),w,b
  2004  0005CE  5967               	subwfb	(___fladd@a+3)& (0+255),w,b
  2005  0005D0  6F6B               	movwf	(??___fladd+3)& (0+255),b
  2006  0005D2  0EFF               	movlw	255
  2007  0005D4  2568               	addwf	??___fladd& (0+255),w,b
  2008  0005D6  6F60               	movwf	___fladd@b& (0+255),b
  2009  0005D8  0EFF               	movlw	255
  2010  0005DA  2169               	addwfc	(??___fladd+1)& (0+255),w,b
  2011  0005DC  6F61               	movwf	(___fladd@b+1)& (0+255),b
  2012  0005DE  0EFF               	movlw	255
  2013  0005E0  216A               	addwfc	(??___fladd+2)& (0+255),w,b
  2014  0005E2  6F62               	movwf	(___fladd@b+2)& (0+255),b
  2015  0005E4  0EFF               	movlw	255
  2016  0005E6  216B               	addwfc	(??___fladd+3)& (0+255),w,b
  2017  0005E8  6F63               	movwf	(___fladd@b+3)& (0+255),b
  2018  0005EA  0E80               	movlw	128
  2019  0005EC  1B6C               	xorwf	___fladd@signs& (0+255),f,b
  2020                           
  2021                           ; BSR set to: 0
  2022  0005EE  6D6F               	negf	___fladd@grs& (0+255),b
  2023                           
  2024                           ; BSR set to: 0
  2025  0005F0  516F               	movf	___fladd@grs& (0+255),w,b
  2026  0005F2  A4D8               	btfss	status,2,c
  2027  0005F4  D00F               	goto	l1235
  2028                           
  2029                           ; BSR set to: 0
  2030  0005F6  0E01               	movlw	1
  2031  0005F8  2760               	addwf	___fladd@b& (0+255),f,b
  2032  0005FA  0E00               	movlw	0
  2033  0005FC  2361               	addwfc	(___fladd@b+1)& (0+255),f,b
  2034  0005FE  2362               	addwfc	(___fladd@b+2)& (0+255),f,b
  2035  000600  2363               	addwfc	(___fladd@b+3)& (0+255),f,b
  2036  000602  D008               	goto	l1235
  2037  000604                     l3097:
  2038                           
  2039                           ; BSR set to: 0
  2040  000604  5164               	movf	___fladd@a& (0+255),w,b
  2041  000606  5F60               	subwf	___fladd@b& (0+255),f,b
  2042  000608  5165               	movf	(___fladd@a+1)& (0+255),w,b
  2043  00060A  5B61               	subwfb	(___fladd@b+1)& (0+255),f,b
  2044  00060C  5166               	movf	(___fladd@a+2)& (0+255),w,b
  2045  00060E  5B62               	subwfb	(___fladd@b+2)& (0+255),f,b
  2046  000610  5167               	movf	(___fladd@a+3)& (0+255),w,b
  2047  000612  5B63               	subwfb	(___fladd@b+3)& (0+255),f,b
  2048  000614                     l1235:
  2049                           
  2050                           ; BSR set to: 0
  2051  000614  5160               	movf	___fladd@b& (0+255),w,b
  2052  000616  1161               	iorwf	(___fladd@b+1)& (0+255),w,b
  2053  000618  1162               	iorwf	(___fladd@b+2)& (0+255),w,b
  2054  00061A  1163               	iorwf	(___fladd@b+3)& (0+255),w,b
  2055  00061C  A4D8               	btfss	status,2,c
  2056  00061E  D01C               	goto	l3121
  2057                           
  2058                           ; BSR set to: 0
  2059  000620  516F               	movf	___fladd@grs& (0+255),w,b
  2060  000622  A4D8               	btfss	status,2,c
  2061  000624  D019               	goto	l3121
  2062                           
  2063                           ; BSR set to: 0
  2064  000626  0E00               	movlw	0
  2065  000628  6F60               	movwf	?___fladd& (0+255),b
  2066  00062A  0E00               	movlw	0
  2067  00062C  6F61               	movwf	(?___fladd+1)& (0+255),b
  2068  00062E  0E00               	movlw	0
  2069  000630  6F62               	movwf	(?___fladd+2)& (0+255),b
  2070  000632  0E00               	movlw	0
  2071  000634  6F63               	movwf	(?___fladd+3)& (0+255),b
  2072  000636  0012               	return	
  2073  000638                     l3105:
  2074                           
  2075                           ; BSR set to: 0
  2076  000638  90D8               	bcf	status,0,c
  2077  00063A  3760               	rlcf	___fladd@b& (0+255),f,b
  2078  00063C  3761               	rlcf	(___fladd@b+1)& (0+255),f,b
  2079  00063E  3762               	rlcf	(___fladd@b+2)& (0+255),f,b
  2080  000640  3763               	rlcf	(___fladd@b+3)& (0+255),f,b
  2081                           
  2082                           ; BSR set to: 0
  2083  000642  BF6F               	btfsc	___fladd@grs& (0+255),7,b
  2084                           
  2085                           ; BSR set to: 0
  2086  000644  8160               	bsf	___fladd@b& (0+255),0,b
  2087                           
  2088                           ; BSR set to: 0
  2089  000646  A16F               	btfss	___fladd@grs& (0+255),0,b
  2090  000648  D002               	goto	l3115
  2091                           
  2092                           ; BSR set to: 0
  2093  00064A  80D8               	bsf	status,0,c
  2094  00064C  D001               	goto	L3
  2095  00064E                     l3115:
  2096                           
  2097                           ; BSR set to: 0
  2098  00064E  90D8               	bcf	status,0,c
  2099  000650                     L3:
  2100  000650  376F               	rlcf	___fladd@grs& (0+255),f,b
  2101                           
  2102                           ; BSR set to: 0
  2103  000652  516E               	movf	___fladd@bexp& (0+255),w,b
  2104  000654  A4D8               	btfss	status,2,c
  2105                           
  2106                           ; BSR set to: 0
  2107  000656  076E               	decf	___fladd@bexp& (0+255),f,b
  2108  000658                     l3121:
  2109                           
  2110                           ; BSR set to: 0
  2111  000658  AF62               	btfss	(___fladd@b+2)& (0+255),7,b
  2112  00065A  D7EE               	goto	l3105
  2113  00065C                     u2200:
  2114                           
  2115                           ; BSR set to: 0
  2116  00065C  0E00               	movlw	0
  2117  00065E  6F6D               	movwf	___fladd@aexp& (0+255),b
  2118                           
  2119                           ; BSR set to: 0
  2120  000660  AF6F               	btfss	___fladd@grs& (0+255),7,b
  2121  000662  D00B               	goto	l1244
  2122                           
  2123                           ; BSR set to: 0
  2124  000664  C06F  F068         	movff	___fladd@grs,??___fladd
  2125  000668  0E7F               	movlw	127
  2126  00066A  1768               	andwf	??___fladd& (0+255),f,b
  2127  00066C  B4D8               	btfsc	status,2,c
  2128  00066E  D003               	goto	l1245
  2129  000670                     u2220:
  2130                           
  2131                           ; BSR set to: 0
  2132  000670  0E01               	movlw	1
  2133  000672  6F6D               	movwf	___fladd@aexp& (0+255),b
  2134  000674  D002               	goto	l1244
  2135  000676                     l1245:
  2136                           
  2137                           ; BSR set to: 0
  2138  000676  B160               	btfsc	___fladd@b& (0+255),0,b
  2139  000678  D7FB               	goto	u2220
  2140  00067A                     l1244:
  2141                           
  2142                           ; BSR set to: 0
  2143  00067A  516D               	movf	___fladd@aexp& (0+255),w,b
  2144  00067C  B4D8               	btfsc	status,2,c
  2145  00067E  D020               	goto	l3141
  2146                           
  2147                           ; BSR set to: 0
  2148  000680  0E01               	movlw	1
  2149  000682  2760               	addwf	___fladd@b& (0+255),f,b
  2150  000684  0E00               	movlw	0
  2151  000686  2361               	addwfc	(___fladd@b+1)& (0+255),f,b
  2152  000688  2362               	addwfc	(___fladd@b+2)& (0+255),f,b
  2153  00068A  2363               	addwfc	(___fladd@b+3)& (0+255),f,b
  2154                           
  2155                           ; BSR set to: 0
  2156  00068C  A163               	btfss	(___fladd@b+3)& (0+255),0,b
  2157  00068E  D018               	goto	l3141
  2158                           
  2159                           ; BSR set to: 0
  2160  000690  C060  F068         	movff	___fladd@b,??___fladd
  2161  000694  C061  F069         	movff	___fladd@b+1,??___fladd+1
  2162  000698  C062  F06A         	movff	___fladd@b+2,??___fladd+2
  2163  00069C  C063  F06B         	movff	___fladd@b+3,??___fladd+3
  2164  0006A0  356B               	rlcf	(??___fladd+3)& (0+255),w,b
  2165  0006A2  336B               	rrcf	(??___fladd+3)& (0+255),f,b
  2166  0006A4  336A               	rrcf	(??___fladd+2)& (0+255),f,b
  2167  0006A6  3369               	rrcf	(??___fladd+1)& (0+255),f,b
  2168  0006A8  3368               	rrcf	??___fladd& (0+255),f,b
  2169  0006AA  C068  F060         	movff	??___fladd,___fladd@b
  2170  0006AE  C069  F061         	movff	??___fladd+1,___fladd@b+1
  2171  0006B2  C06A  F062         	movff	??___fladd+2,___fladd@b+2
  2172  0006B6  C06B  F063         	movff	??___fladd+3,___fladd@b+3
  2173  0006BA  296E               	incf	___fladd@bexp& (0+255),w,b
  2174  0006BC  A4D8               	btfss	status,2,c
  2175                           
  2176                           ; BSR set to: 0
  2177  0006BE  2B6E               	incf	___fladd@bexp& (0+255),f,b
  2178  0006C0                     l3141:
  2179                           
  2180                           ; BSR set to: 0
  2181  0006C0  296E               	incf	___fladd@bexp& (0+255),w,b
  2182  0006C2  B4D8               	btfsc	status,2,c
  2183  0006C4  D003               	goto	u2280
  2184                           
  2185                           ; BSR set to: 0
  2186  0006C6  516E               	movf	___fladd@bexp& (0+255),w,b
  2187  0006C8  A4D8               	btfss	status,2,c
  2188  0006CA  D00D               	goto	l3149
  2189  0006CC                     u2280:
  2190                           
  2191                           ; BSR set to: 0
  2192  0006CC  0E00               	movlw	0
  2193  0006CE  6F60               	movwf	___fladd@b& (0+255),b
  2194  0006D0  0E00               	movlw	0
  2195  0006D2  6F61               	movwf	(___fladd@b+1)& (0+255),b
  2196  0006D4  0E00               	movlw	0
  2197  0006D6  6F62               	movwf	(___fladd@b+2)& (0+255),b
  2198  0006D8  0E00               	movlw	0
  2199  0006DA  6F63               	movwf	(___fladd@b+3)& (0+255),b
  2200  0006DC  516E               	movf	___fladd@bexp& (0+255),w,b
  2201  0006DE  A4D8               	btfss	status,2,c
  2202  0006E0  D002               	goto	l3149
  2203                           
  2204                           ; BSR set to: 0
  2205  0006E2  0E00               	movlw	0
  2206  0006E4  6F6C               	movwf	___fladd@signs& (0+255),b
  2207  0006E6                     l3149:
  2208                           
  2209                           ; BSR set to: 0
  2210  0006E6  A16E               	btfss	___fladd@bexp& (0+255),0,b
  2211  0006E8  D002               	goto	l3153
  2212                           
  2213                           ; BSR set to: 0
  2214  0006EA  8F62               	bsf	(___fladd@b+2)& (0+255),7,b
  2215  0006EC  D001               	goto	l3155
  2216  0006EE                     l3153:
  2217                           
  2218                           ; BSR set to: 0
  2219  0006EE  9F62               	bcf	(___fladd@b+2)& (0+255),7,b
  2220  0006F0                     l3155:
  2221                           
  2222                           ; BSR set to: 0
  2223  0006F0  90D8               	bcf	status,0,c
  2224  0006F2  316E               	rrcf	___fladd@bexp& (0+255),w,b
  2225  0006F4  6F63               	movwf	(___fladd@b+3)& (0+255),b
  2226                           
  2227                           ; BSR set to: 0
  2228  0006F6  BF6C               	btfsc	___fladd@signs& (0+255),7,b
  2229                           
  2230                           ; BSR set to: 0
  2231  0006F8  8F63               	bsf	(___fladd@b+3)& (0+255),7,b
  2232                           
  2233                           ; BSR set to: 0
  2234  0006FA  C060  F060         	movff	___fladd@b,?___fladd
  2235  0006FE  C061  F061         	movff	___fladd@b+1,?___fladd+1
  2236  000702  C062  F062         	movff	___fladd@b+2,?___fladd+2
  2237  000706  C063  F063         	movff	___fladd@b+3,?___fladd+3
  2238                           
  2239                           ; BSR set to: 0
  2240  00070A  0012               	return		;funcret
  2241  00070C                     __end_of___fladd:
  2242                           	opt callstack 0
  2243                           
  2244 ;; *************** function _SYSTEM_Initialize *****************
  2245 ;; Defined at:
  2246 ;;		line 50 in file "mcc_generated_files/mcc.c"
  2247 ;; Parameters:    Size  Location     Type
  2248 ;;		None
  2249 ;; Auto vars:     Size  Location     Type
  2250 ;;		None
  2251 ;; Return value:  Size  Location     Type
  2252 ;;                  1    wreg      void 
  2253 ;; Registers used:
  2254 ;;		wreg, status,2, status,0, cstack
  2255 ;; Tracked objects:
  2256 ;;		On entry : 0/0
  2257 ;;		On exit  : 0/0
  2258 ;;		Unchanged: 0/0
  2259 ;; Data sizes:     COMRAM   BANK0   BANK1   BANK2   BANK3   BANK4   BANK5   BANK6   BANK7
  2260 ;;      Params:         0       0       0       0       0       0       0       0       0
  2261 ;;      Locals:         0       0       0       0       0       0       0       0       0
  2262 ;;      Temps:          0       0       0       0       0       0       0       0       0
  2263 ;;      Totals:         0       0       0       0       0       0       0       0       0
  2264 ;;Total ram usage:        0 bytes
  2265 ;; Hardware stack levels used:    1
  2266 ;; Hardware stack levels required when called:    7
  2267 ;; This function calls:
  2268 ;;		_CCP1_Initialize
  2269 ;;		_EUSART1_Initialize
  2270 ;;		_INTERRUPT_Initialize
  2271 ;;		_OSCILLATOR_Initialize
  2272 ;;		_PIN_MANAGER_Initialize
  2273 ;;		_PMD_Initialize
  2274 ;;		_TMR1_Initialize
  2275 ;;		_TMR2_Initialize
  2276 ;; This function is called by:
  2277 ;;		_main
  2278 ;; This function uses a non-reentrant model
  2279 ;;
  2280                           
  2281                           	psect	text12
  2282  00102E                     __ptext12:
  2283                           	opt callstack 0
  2284  00102E                     _SYSTEM_Initialize:
  2285                           	opt callstack 23
  2286                           
  2287                           ;mcc_generated_files/mcc.c: 52:     INTERRUPT_Initialize();
  2288                           
  2289                           ; BSR set to: 0
  2290                           ;incstack = 0
  2291  00102E  ECD0  F008         	call	_INTERRUPT_Initialize	;wreg free
  2292                           
  2293                           ;mcc_generated_files/mcc.c: 53:     PMD_Initialize();
  2294  001032  EC58  F008         	call	_PMD_Initialize	;wreg free
  2295                           
  2296                           ;mcc_generated_files/mcc.c: 54:     PIN_MANAGER_Initialize();
  2297  001036  EC34  F006         	call	_PIN_MANAGER_Initialize	;wreg free
  2298                           
  2299                           ;mcc_generated_files/mcc.c: 55:     OSCILLATOR_Initialize();
  2300  00103A  EC74  F008         	call	_OSCILLATOR_Initialize	;wreg free
  2301                           
  2302                           ;mcc_generated_files/mcc.c: 56:     CCP1_Initialize();
  2303  00103E  ECAC  F007         	call	_CCP1_Initialize	;wreg free
  2304                           
  2305                           ;mcc_generated_files/mcc.c: 57:     TMR2_Initialize();
  2306  001042  EC95  F007         	call	_TMR2_Initialize	;wreg free
  2307                           
  2308                           ;mcc_generated_files/mcc.c: 58:     TMR1_Initialize();
  2309  001046  EC9A  F006         	call	_TMR1_Initialize	;wreg free
  2310                           
  2311                           ;mcc_generated_files/mcc.c: 59:     EUSART1_Initialize();
  2312  00104A  ECF1  F005         	call	_EUSART1_Initialize	;wreg free
  2313  00104E  0012               	return		;funcret
  2314  001050                     __end_of_SYSTEM_Initialize:
  2315                           	opt callstack 0
  2316                           
  2317 ;; *************** function _TMR2_Initialize *****************
  2318 ;; Defined at:
  2319 ;;		line 64 in file "mcc_generated_files/tmr2.c"
  2320 ;; Parameters:    Size  Location     Type
  2321 ;;		None
  2322 ;; Auto vars:     Size  Location     Type
  2323 ;;		None
  2324 ;; Return value:  Size  Location     Type
  2325 ;;                  1    wreg      void 
  2326 ;; Registers used:
  2327 ;;		wreg, status,2, status,0, cstack
  2328 ;; Tracked objects:
  2329 ;;		On entry : 0/0
  2330 ;;		On exit  : 0/0
  2331 ;;		Unchanged: 0/0
  2332 ;; Data sizes:     COMRAM   BANK0   BANK1   BANK2   BANK3   BANK4   BANK5   BANK6   BANK7
  2333 ;;      Params:         0       0       0       0       0       0       0       0       0
  2334 ;;      Locals:         0       0       0       0       0       0       0       0       0
  2335 ;;      Temps:          0       0       0       0       0       0       0       0       0
  2336 ;;      Totals:         0       0       0       0       0       0       0       0       0
  2337 ;;Total ram usage:        0 bytes
  2338 ;; Hardware stack levels used:    1
  2339 ;; Hardware stack levels required when called:    6
  2340 ;; This function calls:
  2341 ;;		_TMR2_SetInterruptHandler
  2342 ;; This function is called by:
  2343 ;;		_SYSTEM_Initialize
  2344 ;; This function uses a non-reentrant model
  2345 ;;
  2346                           
  2347                           	psect	text13
  2348  000F2A                     __ptext13:
  2349                           	opt callstack 0
  2350  000F2A                     _TMR2_Initialize:
  2351                           	opt callstack 23
  2352                           
  2353                           ;mcc_generated_files/tmr2.c: 69:     T2CLKCON = 0x01;
  2354                           
  2355                           ;incstack = 0
  2356  000F2A  0E01               	movlw	1
  2357  000F2C  6EBE               	movwf	4030,c	;volatile
  2358                           
  2359                           ;mcc_generated_files/tmr2.c: 72:     T2HLT = 0x00;
  2360  000F2E  0E00               	movlw	0
  2361  000F30  6EBD               	movwf	4029,c	;volatile
  2362                           
  2363                           ;mcc_generated_files/tmr2.c: 75:     T2RST = 0x00;
  2364  000F32  0E00               	movlw	0
  2365  000F34  6EBF               	movwf	4031,c	;volatile
  2366                           
  2367                           ;mcc_generated_files/tmr2.c: 78:     T2PR = 0x9F;
  2368  000F36  0E9F               	movlw	159
  2369  000F38  6EBB               	movwf	4027,c	;volatile
  2370                           
  2371                           ;mcc_generated_files/tmr2.c: 81:     T2TMR = 0x00;
  2372  000F3A  0E00               	movlw	0
  2373  000F3C  6EBA               	movwf	4026,c	;volatile
  2374                           
  2375                           ;mcc_generated_files/tmr2.c: 84:     PIR4bits.TMR2IF = 0;
  2376  000F3E  010E               	movlb	14	; () banked
  2377  000F40  93C9               	bcf	201,1,b	;volatile
  2378                           
  2379                           ; BSR set to: 14
  2380                           ;mcc_generated_files/tmr2.c: 87:     PIE4bits.TMR2IE = 1;
  2381  000F42  83C1               	bsf	193,1,b	;volatile
  2382                           
  2383                           ; BSR set to: 14
  2384                           ;mcc_generated_files/tmr2.c: 90:     TMR2_SetInterruptHandler(TMR2_DefaultInterruptHandl
      +                          er);
  2385  000F44  0EAC               	movlw	low _TMR2_DefaultInterruptHandler
  2386  000F46  0100               	movlb	0	; () banked
  2387  000F48  6F60               	movwf	TMR2_SetInterruptHandler@InterruptHandler& (0+255),b
  2388  000F4A  0E11               	movlw	high _TMR2_DefaultInterruptHandler
  2389  000F4C  6F61               	movwf	(TMR2_SetInterruptHandler@InterruptHandler+1)& (0+255),b
  2390  000F4E  EC91  F008         	call	_TMR2_SetInterruptHandler	;wreg free
  2391                           
  2392                           ;mcc_generated_files/tmr2.c: 93:     T2CON = 0x80;
  2393  000F52  0E80               	movlw	128
  2394  000F54  6EBC               	movwf	4028,c	;volatile
  2395  000F56  0012               	return		;funcret
  2396  000F58                     __end_of_TMR2_Initialize:
  2397                           	opt callstack 0
  2398                           
  2399 ;; *************** function _TMR2_SetInterruptHandler *****************
  2400 ;; Defined at:
  2401 ;;		line 178 in file "mcc_generated_files/tmr2.c"
  2402 ;; Parameters:    Size  Location     Type
  2403 ;;  InterruptHan    2    0[BANK0 ] PTR FTN()void 
  2404 ;;		 -> carcontrol_ISR(1), TMR2_DefaultInterruptHandler(1), 
  2405 ;; Auto vars:     Size  Location     Type
  2406 ;;		None
  2407 ;; Return value:  Size  Location     Type
  2408 ;;                  1    wreg      void 
  2409 ;; Registers used:
  2410 ;;		wreg, status,2, status,0
  2411 ;; Tracked objects:
  2412 ;;		On entry : 0/0
  2413 ;;		On exit  : 0/0
  2414 ;;		Unchanged: 0/0
  2415 ;; Data sizes:     COMRAM   BANK0   BANK1   BANK2   BANK3   BANK4   BANK5   BANK6   BANK7
  2416 ;;      Params:         0       2       0       0       0       0       0       0       0
  2417 ;;      Locals:         0       0       0       0       0       0       0       0       0
  2418 ;;      Temps:          0       0       0       0       0       0       0       0       0
  2419 ;;      Totals:         0       2       0       0       0       0       0       0       0
  2420 ;;Total ram usage:        2 bytes
  2421 ;; Hardware stack levels used:    1
  2422 ;; Hardware stack levels required when called:    5
  2423 ;; This function calls:
  2424 ;;		Nothing
  2425 ;; This function is called by:
  2426 ;;		_TMR2_Initialize
  2427 ;;		_carcontrol_init
  2428 ;; This function uses a non-reentrant model
  2429 ;;
  2430                           
  2431                           	psect	text14
  2432  001122                     __ptext14:
  2433                           	opt callstack 0
  2434  001122                     _TMR2_SetInterruptHandler:
  2435                           	opt callstack 24
  2436                           
  2437                           ;mcc_generated_files/tmr2.c: 179:     TMR2_InterruptHandler = InterruptHandler;
  2438                           
  2439                           ;incstack = 0
  2440  001122  C060  F082         	movff	TMR2_SetInterruptHandler@InterruptHandler,_TMR2_InterruptHandler
  2441  001126  C061  F083         	movff	TMR2_SetInterruptHandler@InterruptHandler+1,_TMR2_InterruptHandler+1
  2442  00112A  0012               	return		;funcret
  2443  00112C                     __end_of_TMR2_SetInterruptHandler:
  2444                           	opt callstack 0
  2445                           
  2446 ;; *************** function _TMR1_Initialize *****************
  2447 ;; Defined at:
  2448 ;;		line 64 in file "mcc_generated_files/tmr1.c"
  2449 ;; Parameters:    Size  Location     Type
  2450 ;;		None
  2451 ;; Auto vars:     Size  Location     Type
  2452 ;;		None
  2453 ;; Return value:  Size  Location     Type
  2454 ;;                  1    wreg      void 
  2455 ;; Registers used:
  2456 ;;		wreg, status,2, status,0, cstack
  2457 ;; Tracked objects:
  2458 ;;		On entry : 0/0
  2459 ;;		On exit  : 0/0
  2460 ;;		Unchanged: 0/0
  2461 ;; Data sizes:     COMRAM   BANK0   BANK1   BANK2   BANK3   BANK4   BANK5   BANK6   BANK7
  2462 ;;      Params:         0       0       0       0       0       0       0       0       0
  2463 ;;      Locals:         0       0       0       0       0       0       0       0       0
  2464 ;;      Temps:          0       2       0       0       0       0       0       0       0
  2465 ;;      Totals:         0       2       0       0       0       0       0       0       0
  2466 ;;Total ram usage:        2 bytes
  2467 ;; Hardware stack levels used:    1
  2468 ;; Hardware stack levels required when called:    6
  2469 ;; This function calls:
  2470 ;;		_TMR1_SetInterruptHandler
  2471 ;; This function is called by:
  2472 ;;		_SYSTEM_Initialize
  2473 ;; This function uses a non-reentrant model
  2474 ;;
  2475                           
  2476                           	psect	text15
  2477  000D34                     __ptext15:
  2478                           	opt callstack 0
  2479  000D34                     _TMR1_Initialize:
  2480                           	opt callstack 23
  2481                           
  2482                           ;mcc_generated_files/tmr1.c: 69:     T1GCON = 0x00;
  2483                           
  2484                           ;incstack = 0
  2485  000D34  0E00               	movlw	0
  2486  000D36  6ECF               	movwf	4047,c	;volatile
  2487                           
  2488                           ;mcc_generated_files/tmr1.c: 72:     T1GATE = 0x00;
  2489  000D38  0E00               	movlw	0
  2490  000D3A  6ED0               	movwf	4048,c	;volatile
  2491                           
  2492                           ;mcc_generated_files/tmr1.c: 75:     T1CLK = 0x01;
  2493  000D3C  0E01               	movlw	1
  2494  000D3E  6ED1               	movwf	4049,c	;volatile
  2495                           
  2496                           ;mcc_generated_files/tmr1.c: 78:     TMR1H = 0x63;
  2497  000D40  0E63               	movlw	99
  2498  000D42  6ECD               	movwf	4045,c	;volatile
  2499                           
  2500                           ;mcc_generated_files/tmr1.c: 81:     TMR1L = 0xC0;
  2501  000D44  0EC0               	movlw	192
  2502  000D46  6ECC               	movwf	4044,c	;volatile
  2503                           
  2504                           ;mcc_generated_files/tmr1.c: 84:     timer1ReloadVal=(uint16_t)((TMR1H << 8) | TMR1L);
  2505  000D48  50CC               	movf	4044,w,c	;volatile
  2506  000D4A  CFCD F062          	movff	4045,??_TMR1_Initialize	;volatile
  2507  000D4E  0100               	movlb	0	; () banked
  2508  000D50  6B63               	clrf	(??_TMR1_Initialize+1)& (0+255),b
  2509  000D52  C062  F063         	movff	??_TMR1_Initialize,??_TMR1_Initialize+1
  2510  000D56  6B62               	clrf	??_TMR1_Initialize& (0+255),b
  2511  000D58  1162               	iorwf	??_TMR1_Initialize& (0+255),w,b
  2512  000D5A  6E56               	movwf	_timer1ReloadVal,c	;volatile
  2513  000D5C  5163               	movf	(??_TMR1_Initialize+1)& (0+255),w,b
  2514  000D5E  6E57               	movwf	_timer1ReloadVal+1,c	;volatile
  2515                           
  2516                           ; BSR set to: 0
  2517                           ;mcc_generated_files/tmr1.c: 87:     PIR4bits.TMR1IF = 0;
  2518  000D60  010E               	movlb	14	; () banked
  2519  000D62  91C9               	bcf	201,0,b	;volatile
  2520                           
  2521                           ; BSR set to: 14
  2522                           ;mcc_generated_files/tmr1.c: 90:     PIE4bits.TMR1IE = 1;
  2523  000D64  81C1               	bsf	193,0,b	;volatile
  2524                           
  2525                           ; BSR set to: 14
  2526                           ;mcc_generated_files/tmr1.c: 93:     TMR1_SetInterruptHandler(TMR1_DefaultInterruptHandl
      +                          er);
  2527  000D66  0EAE               	movlw	low _TMR1_DefaultInterruptHandler
  2528  000D68  0100               	movlb	0	; () banked
  2529  000D6A  6F60               	movwf	TMR1_SetInterruptHandler@InterruptHandler& (0+255),b
  2530  000D6C  0E11               	movlw	high _TMR1_DefaultInterruptHandler
  2531  000D6E  6F61               	movwf	(TMR1_SetInterruptHandler@InterruptHandler+1)& (0+255),b
  2532  000D70  EC96  F008         	call	_TMR1_SetInterruptHandler	;wreg free
  2533                           
  2534                           ;mcc_generated_files/tmr1.c: 96:     T1CON = 0x33;
  2535  000D74  0E33               	movlw	51
  2536  000D76  6ECE               	movwf	4046,c	;volatile
  2537  000D78  0012               	return		;funcret
  2538  000D7A                     __end_of_TMR1_Initialize:
  2539                           	opt callstack 0
  2540                           
  2541 ;; *************** function _TMR1_SetInterruptHandler *****************
  2542 ;; Defined at:
  2543 ;;		line 178 in file "mcc_generated_files/tmr1.c"
  2544 ;; Parameters:    Size  Location     Type
  2545 ;;  InterruptHan    2    0[BANK0 ] PTR FTN()void 
  2546 ;;		 -> ping_TMR1Overflow_isr(1), TMR1_DefaultInterruptHandler(1), 
  2547 ;; Auto vars:     Size  Location     Type
  2548 ;;		None
  2549 ;; Return value:  Size  Location     Type
  2550 ;;                  1    wreg      void 
  2551 ;; Registers used:
  2552 ;;		wreg, status,2, status,0
  2553 ;; Tracked objects:
  2554 ;;		On entry : 0/0
  2555 ;;		On exit  : 0/0
  2556 ;;		Unchanged: 0/0
  2557 ;; Data sizes:     COMRAM   BANK0   BANK1   BANK2   BANK3   BANK4   BANK5   BANK6   BANK7
  2558 ;;      Params:         0       2       0       0       0       0       0       0       0
  2559 ;;      Locals:         0       0       0       0       0       0       0       0       0
  2560 ;;      Temps:          0       0       0       0       0       0       0       0       0
  2561 ;;      Totals:         0       2       0       0       0       0       0       0       0
  2562 ;;Total ram usage:        2 bytes
  2563 ;; Hardware stack levels used:    1
  2564 ;; Hardware stack levels required when called:    5
  2565 ;; This function calls:
  2566 ;;		Nothing
  2567 ;; This function is called by:
  2568 ;;		_TMR1_Initialize
  2569 ;;		_ping_init
  2570 ;;		_ping_send
  2571 ;; This function uses a non-reentrant model
  2572 ;;
  2573                           
  2574                           	psect	text16
  2575  00112C                     __ptext16:
  2576                           	opt callstack 0
  2577  00112C                     _TMR1_SetInterruptHandler:
  2578                           	opt callstack 24
  2579                           
  2580                           ;mcc_generated_files/tmr1.c: 179:     TMR1_InterruptHandler = InterruptHandler;
  2581                           
  2582                           ;incstack = 0
  2583  00112C  C060  F054         	movff	TMR1_SetInterruptHandler@InterruptHandler,_TMR1_InterruptHandler
  2584  001130  C061  F055         	movff	TMR1_SetInterruptHandler@InterruptHandler+1,_TMR1_InterruptHandler+1
  2585  001134  0012               	return		;funcret
  2586  001136                     __end_of_TMR1_SetInterruptHandler:
  2587                           	opt callstack 0
  2588                           
  2589 ;; *************** function _PMD_Initialize *****************
  2590 ;; Defined at:
  2591 ;;		line 76 in file "mcc_generated_files/mcc.c"
  2592 ;; Parameters:    Size  Location     Type
  2593 ;;		None
  2594 ;; Auto vars:     Size  Location     Type
  2595 ;;		None
  2596 ;; Return value:  Size  Location     Type
  2597 ;;                  1    wreg      void 
  2598 ;; Registers used:
  2599 ;;		wreg, status,2
  2600 ;; Tracked objects:
  2601 ;;		On entry : 0/0
  2602 ;;		On exit  : 0/0
  2603 ;;		Unchanged: 0/0
  2604 ;; Data sizes:     COMRAM   BANK0   BANK1   BANK2   BANK3   BANK4   BANK5   BANK6   BANK7
  2605 ;;      Params:         0       0       0       0       0       0       0       0       0
  2606 ;;      Locals:         0       0       0       0       0       0       0       0       0
  2607 ;;      Temps:          0       0       0       0       0       0       0       0       0
  2608 ;;      Totals:         0       0       0       0       0       0       0       0       0
  2609 ;;Total ram usage:        0 bytes
  2610 ;; Hardware stack levels used:    1
  2611 ;; Hardware stack levels required when called:    5
  2612 ;; This function calls:
  2613 ;;		Nothing
  2614 ;; This function is called by:
  2615 ;;		_SYSTEM_Initialize
  2616 ;; This function uses a non-reentrant model
  2617 ;;
  2618                           
  2619                           	psect	text17
  2620  0010B0                     __ptext17:
  2621                           	opt callstack 0
  2622  0010B0                     _PMD_Initialize:
  2623                           	opt callstack 24
  2624                           
  2625                           ;mcc_generated_files/mcc.c: 79:     PMD0 = 0x00;
  2626                           
  2627                           ;incstack = 0
  2628  0010B0  0E00               	movlw	0
  2629  0010B2  010E               	movlb	14	; () banked
  2630  0010B4  6FDC               	movwf	220,b	;volatile
  2631                           
  2632                           ;mcc_generated_files/mcc.c: 81:     PMD1 = 0x00;
  2633  0010B6  0E00               	movlw	0
  2634  0010B8  6FDD               	movwf	221,b	;volatile
  2635                           
  2636                           ;mcc_generated_files/mcc.c: 83:     PMD2 = 0x00;
  2637  0010BA  0E00               	movlw	0
  2638  0010BC  6FDE               	movwf	222,b	;volatile
  2639                           
  2640                           ;mcc_generated_files/mcc.c: 85:     PMD3 = 0x00;
  2641  0010BE  0E00               	movlw	0
  2642  0010C0  6FDF               	movwf	223,b	;volatile
  2643                           
  2644                           ;mcc_generated_files/mcc.c: 87:     PMD4 = 0x00;
  2645  0010C2  0E00               	movlw	0
  2646  0010C4  6FE0               	movwf	224,b	;volatile
  2647                           
  2648                           ;mcc_generated_files/mcc.c: 89:     PMD5 = 0x00;
  2649  0010C6  0E00               	movlw	0
  2650  0010C8  6FE1               	movwf	225,b	;volatile
  2651                           
  2652                           ; BSR set to: 14
  2653  0010CA  0012               	return		;funcret
  2654  0010CC                     __end_of_PMD_Initialize:
  2655                           	opt callstack 0
  2656                           
  2657 ;; *************** function _PIN_MANAGER_Initialize *****************
  2658 ;; Defined at:
  2659 ;;		line 57 in file "mcc_generated_files/pin_manager.c"
  2660 ;; Parameters:    Size  Location     Type
  2661 ;;		None
  2662 ;; Auto vars:     Size  Location     Type
  2663 ;;		None
  2664 ;; Return value:  Size  Location     Type
  2665 ;;                  1    wreg      void 
  2666 ;; Registers used:
  2667 ;;		wreg, status,2, status,0, cstack
  2668 ;; Tracked objects:
  2669 ;;		On entry : 0/0
  2670 ;;		On exit  : 0/0
  2671 ;;		Unchanged: 0/0
  2672 ;; Data sizes:     COMRAM   BANK0   BANK1   BANK2   BANK3   BANK4   BANK5   BANK6   BANK7
  2673 ;;      Params:         0       0       0       0       0       0       0       0       0
  2674 ;;      Locals:         0       0       0       0       0       0       0       0       0
  2675 ;;      Temps:          0       0       0       0       0       0       0       0       0
  2676 ;;      Totals:         0       0       0       0       0       0       0       0       0
  2677 ;;Total ram usage:        0 bytes
  2678 ;; Hardware stack levels used:    1
  2679 ;; Hardware stack levels required when called:    6
  2680 ;; This function calls:
  2681 ;;		_IOCCF2_SetInterruptHandler
  2682 ;; This function is called by:
  2683 ;;		_SYSTEM_Initialize
  2684 ;; This function uses a non-reentrant model
  2685 ;;
  2686                           
  2687                           	psect	text18
  2688  000C68                     __ptext18:
  2689                           	opt callstack 0
  2690  000C68                     _PIN_MANAGER_Initialize:
  2691                           	opt callstack 23
  2692                           
  2693                           ;mcc_generated_files/pin_manager.c: 62:     LATA = 0x00;
  2694                           
  2695                           ; BSR set to: 14
  2696                           ;incstack = 0
  2697  000C68  0E00               	movlw	0
  2698  000C6A  6E82               	movwf	3970,c	;volatile
  2699                           
  2700                           ;mcc_generated_files/pin_manager.c: 63:     LATB = 0x00;
  2701  000C6C  0E00               	movlw	0
  2702  000C6E  6E83               	movwf	3971,c	;volatile
  2703                           
  2704                           ;mcc_generated_files/pin_manager.c: 64:     LATC = 0x00;
  2705  000C70  0E00               	movlw	0
  2706  000C72  6E84               	movwf	3972,c	;volatile
  2707                           
  2708                           ;mcc_generated_files/pin_manager.c: 69:     TRISA = 0xF0;
  2709  000C74  0EF0               	movlw	240
  2710  000C76  6E87               	movwf	3975,c	;volatile
  2711                           
  2712                           ;mcc_generated_files/pin_manager.c: 70:     TRISB = 0xFF;
  2713  000C78  6888               	setf	3976,c	;volatile
  2714                           
  2715                           ;mcc_generated_files/pin_manager.c: 71:     TRISC = 0x3D;
  2716  000C7A  0E3D               	movlw	61
  2717  000C7C  6E89               	movwf	3977,c	;volatile
  2718                           
  2719                           ;mcc_generated_files/pin_manager.c: 76:     ANSELC = 0x3B;
  2720  000C7E  0E3B               	movlw	59
  2721  000C80  010F               	movlb	15	; () banked
  2722  000C82  6F1C               	movwf	28,b	;volatile
  2723                           
  2724                           ; BSR set to: 15
  2725                           ;mcc_generated_files/pin_manager.c: 77:     ANSELB = 0xFF;
  2726  000C84  6914               	setf	20,b	;volatile
  2727                           
  2728                           ;mcc_generated_files/pin_manager.c: 78:     ANSELA = 0xFA;
  2729  000C86  0EFA               	movlw	250
  2730  000C88  6F0C               	movwf	12,b	;volatile
  2731                           
  2732                           ;mcc_generated_files/pin_manager.c: 83:     WPUE = 0x00;
  2733  000C8A  0E00               	movlw	0
  2734  000C8C  6F28               	movwf	40,b	;volatile
  2735                           
  2736                           ;mcc_generated_files/pin_manager.c: 84:     WPUB = 0x00;
  2737  000C8E  0E00               	movlw	0
  2738  000C90  6F13               	movwf	19,b	;volatile
  2739                           
  2740                           ;mcc_generated_files/pin_manager.c: 85:     WPUA = 0x00;
  2741  000C92  0E00               	movlw	0
  2742  000C94  6F0B               	movwf	11,b	;volatile
  2743                           
  2744                           ;mcc_generated_files/pin_manager.c: 86:     WPUC = 0x00;
  2745  000C96  0E00               	movlw	0
  2746  000C98  6F1B               	movwf	27,b	;volatile
  2747                           
  2748                           ;mcc_generated_files/pin_manager.c: 91:     ODCONA = 0x00;
  2749  000C9A  0E00               	movlw	0
  2750  000C9C  6F0A               	movwf	10,b	;volatile
  2751                           
  2752                           ;mcc_generated_files/pin_manager.c: 92:     ODCONB = 0x00;
  2753  000C9E  0E00               	movlw	0
  2754  000CA0  6F12               	movwf	18,b	;volatile
  2755                           
  2756                           ;mcc_generated_files/pin_manager.c: 93:     ODCONC = 0x00;
  2757  000CA2  0E00               	movlw	0
  2758  000CA4  6F1A               	movwf	26,b	;volatile
  2759                           
  2760                           ; BSR set to: 15
  2761                           ;mcc_generated_files/pin_manager.c: 98:     SLRCONA = 0xFF;
  2762  000CA6  6909               	setf	9,b	;volatile
  2763                           
  2764                           ; BSR set to: 15
  2765                           ;mcc_generated_files/pin_manager.c: 99:     SLRCONB = 0xFF;
  2766  000CA8  6911               	setf	17,b	;volatile
  2767                           
  2768                           ; BSR set to: 15
  2769                           ;mcc_generated_files/pin_manager.c: 100:     SLRCONC = 0xFF;
  2770  000CAA  6919               	setf	25,b	;volatile
  2771                           
  2772                           ; BSR set to: 15
  2773                           ;mcc_generated_files/pin_manager.c: 107:     IOCCFbits.IOCCF2 = 0;
  2774  000CAC  9515               	bcf	21,2,b	;volatile
  2775                           
  2776                           ; BSR set to: 15
  2777                           ;mcc_generated_files/pin_manager.c: 109:     IOCCNbits.IOCCN2 = 0;
  2778  000CAE  9516               	bcf	22,2,b	;volatile
  2779                           
  2780                           ; BSR set to: 15
  2781                           ;mcc_generated_files/pin_manager.c: 111:     IOCCPbits.IOCCP2 = 1;
  2782  000CB0  8517               	bsf	23,2,b	;volatile
  2783                           
  2784                           ; BSR set to: 15
  2785                           ;mcc_generated_files/pin_manager.c: 116:     IOCCF2_SetInterruptHandler(IOCCF2_DefaultIn
      +                          terruptHandler);
  2786  000CB2  0EB0               	movlw	low _IOCCF2_DefaultInterruptHandler
  2787  000CB4  0100               	movlb	0	; () banked
  2788  000CB6  6F60               	movwf	IOCCF2_SetInterruptHandler@InterruptHandler& (0+255),b
  2789  000CB8  0E11               	movlw	high _IOCCF2_DefaultInterruptHandler
  2790  000CBA  6F61               	movwf	(IOCCF2_SetInterruptHandler@InterruptHandler+1)& (0+255),b
  2791  000CBC  EC9B  F008         	call	_IOCCF2_SetInterruptHandler	;wreg free
  2792                           
  2793                           ;mcc_generated_files/pin_manager.c: 119:     PIE0bits.IOCIE = 1;
  2794  000CC0  010E               	movlb	14	; () banked
  2795  000CC2  89BD               	bsf	189,4,b	;volatile
  2796                           
  2797                           ; BSR set to: 14
  2798                           ;mcc_generated_files/pin_manager.c: 122:     CCP1PPS = 0x12;
  2799  000CC4  0E12               	movlw	18
  2800  000CC6  6FAA               	movwf	170,b	;volatile
  2801                           
  2802                           ; BSR set to: 14
  2803                           ;mcc_generated_files/pin_manager.c: 123:     RC6PPS = 0x09;
  2804  000CC8  0E09               	movlw	9
  2805  000CCA  6FF8               	movwf	248,b	;volatile
  2806                           
  2807                           ; BSR set to: 14
  2808  000CCC  0012               	return		;funcret
  2809  000CCE                     __end_of_PIN_MANAGER_Initialize:
  2810                           	opt callstack 0
  2811                           
  2812 ;; *************** function _IOCCF2_SetInterruptHandler *****************
  2813 ;; Defined at:
  2814 ;;		line 153 in file "mcc_generated_files/pin_manager.c"
  2815 ;; Parameters:    Size  Location     Type
  2816 ;;  InterruptHan    2    0[BANK0 ] PTR FTN()void 
  2817 ;;		 -> ping_RC2_went_HIGH(1), IOCCF2_DefaultInterruptHandler(1), 
  2818 ;; Auto vars:     Size  Location     Type
  2819 ;;		None
  2820 ;; Return value:  Size  Location     Type
  2821 ;;                  1    wreg      void 
  2822 ;; Registers used:
  2823 ;;		wreg, status,2, status,0
  2824 ;; Tracked objects:
  2825 ;;		On entry : 0/0
  2826 ;;		On exit  : 0/0
  2827 ;;		Unchanged: 0/0
  2828 ;; Data sizes:     COMRAM   BANK0   BANK1   BANK2   BANK3   BANK4   BANK5   BANK6   BANK7
  2829 ;;      Params:         0       2       0       0       0       0       0       0       0
  2830 ;;      Locals:         0       0       0       0       0       0       0       0       0
  2831 ;;      Temps:          0       0       0       0       0       0       0       0       0
  2832 ;;      Totals:         0       2       0       0       0       0       0       0       0
  2833 ;;Total ram usage:        2 bytes
  2834 ;; Hardware stack levels used:    1
  2835 ;; Hardware stack levels required when called:    5
  2836 ;; This function calls:
  2837 ;;		Nothing
  2838 ;; This function is called by:
  2839 ;;		_PIN_MANAGER_Initialize
  2840 ;;		_ping_init
  2841 ;; This function uses a non-reentrant model
  2842 ;;
  2843                           
  2844                           	psect	text19
  2845  001136                     __ptext19:
  2846                           	opt callstack 0
  2847  001136                     _IOCCF2_SetInterruptHandler:
  2848                           	opt callstack 24
  2849                           
  2850                           ;mcc_generated_files/pin_manager.c: 154:     IOCCF2_InterruptHandler = InterruptHandler;
  2851                           
  2852                           ; BSR set to: 14
  2853                           ;incstack = 0
  2854  001136  C060  F058         	movff	IOCCF2_SetInterruptHandler@InterruptHandler,_IOCCF2_InterruptHandler
  2855  00113A  C061  F059         	movff	IOCCF2_SetInterruptHandler@InterruptHandler+1,_IOCCF2_InterruptHandler+1
  2856  00113E  0012               	return		;funcret
  2857  001140                     __end_of_IOCCF2_SetInterruptHandler:
  2858                           	opt callstack 0
  2859                           
  2860 ;; *************** function _OSCILLATOR_Initialize *****************
  2861 ;; Defined at:
  2862 ;;		line 62 in file "mcc_generated_files/mcc.c"
  2863 ;; Parameters:    Size  Location     Type
  2864 ;;		None
  2865 ;; Auto vars:     Size  Location     Type
  2866 ;;		None
  2867 ;; Return value:  Size  Location     Type
  2868 ;;                  1    wreg      void 
  2869 ;; Registers used:
  2870 ;;		wreg, status,2
  2871 ;; Tracked objects:
  2872 ;;		On entry : 0/0
  2873 ;;		On exit  : 0/0
  2874 ;;		Unchanged: 0/0
  2875 ;; Data sizes:     COMRAM   BANK0   BANK1   BANK2   BANK3   BANK4   BANK5   BANK6   BANK7
  2876 ;;      Params:         0       0       0       0       0       0       0       0       0
  2877 ;;      Locals:         0       0       0       0       0       0       0       0       0
  2878 ;;      Temps:          0       0       0       0       0       0       0       0       0
  2879 ;;      Totals:         0       0       0       0       0       0       0       0       0
  2880 ;;Total ram usage:        0 bytes
  2881 ;; Hardware stack levels used:    1
  2882 ;; Hardware stack levels required when called:    5
  2883 ;; This function calls:
  2884 ;;		Nothing
  2885 ;; This function is called by:
  2886 ;;		_SYSTEM_Initialize
  2887 ;; This function uses a non-reentrant model
  2888 ;;
  2889                           
  2890                           	psect	text20
  2891  0010E8                     __ptext20:
  2892                           	opt callstack 0
  2893  0010E8                     _OSCILLATOR_Initialize:
  2894                           	opt callstack 24
  2895                           
  2896                           ;mcc_generated_files/mcc.c: 65:     OSCCON1 = 0x60;
  2897                           
  2898                           ;incstack = 0
  2899  0010E8  0E60               	movlw	96
  2900  0010EA  010E               	movlb	14	; () banked
  2901  0010EC  6FD3               	movwf	211,b	;volatile
  2902                           
  2903                           ;mcc_generated_files/mcc.c: 67:     OSCCON3 = 0x00;
  2904  0010EE  0E00               	movlw	0
  2905  0010F0  6FD5               	movwf	213,b	;volatile
  2906                           
  2907                           ;mcc_generated_files/mcc.c: 69:     OSCEN = 0x00;
  2908  0010F2  0E00               	movlw	0
  2909  0010F4  6FD7               	movwf	215,b	;volatile
  2910                           
  2911                           ;mcc_generated_files/mcc.c: 71:     OSCFRQ = 0x08;
  2912  0010F6  0E08               	movlw	8
  2913  0010F8  6FD9               	movwf	217,b	;volatile
  2914                           
  2915                           ;mcc_generated_files/mcc.c: 73:     OSCTUNE = 0x00;
  2916  0010FA  0E00               	movlw	0
  2917  0010FC  6FD8               	movwf	216,b	;volatile
  2918                           
  2919                           ; BSR set to: 14
  2920  0010FE  0012               	return		;funcret
  2921  001100                     __end_of_OSCILLATOR_Initialize:
  2922                           	opt callstack 0
  2923                           
  2924 ;; *************** function _INTERRUPT_Initialize *****************
  2925 ;; Defined at:
  2926 ;;		line 52 in file "mcc_generated_files/interrupt_manager.c"
  2927 ;; Parameters:    Size  Location     Type
  2928 ;;		None
  2929 ;; Auto vars:     Size  Location     Type
  2930 ;;		None
  2931 ;; Return value:  Size  Location     Type
  2932 ;;                  1    wreg      void 
  2933 ;; Registers used:
  2934 ;;		None
  2935 ;; Tracked objects:
  2936 ;;		On entry : 0/0
  2937 ;;		On exit  : 0/0
  2938 ;;		Unchanged: 0/0
  2939 ;; Data sizes:     COMRAM   BANK0   BANK1   BANK2   BANK3   BANK4   BANK5   BANK6   BANK7
  2940 ;;      Params:         0       0       0       0       0       0       0       0       0
  2941 ;;      Locals:         0       0       0       0       0       0       0       0       0
  2942 ;;      Temps:          0       0       0       0       0       0       0       0       0
  2943 ;;      Totals:         0       0       0       0       0       0       0       0       0
  2944 ;;Total ram usage:        0 bytes
  2945 ;; Hardware stack levels used:    1
  2946 ;; Hardware stack levels required when called:    5
  2947 ;; This function calls:
  2948 ;;		Nothing
  2949 ;; This function is called by:
  2950 ;;		_SYSTEM_Initialize
  2951 ;; This function uses a non-reentrant model
  2952 ;;
  2953                           
  2954                           	psect	text21
  2955  0011A0                     __ptext21:
  2956                           	opt callstack 0
  2957  0011A0                     _INTERRUPT_Initialize:
  2958                           	opt callstack 24
  2959                           
  2960                           ;mcc_generated_files/interrupt_manager.c: 55:     INTCONbits.IPEN = 0;
  2961                           
  2962                           ; BSR set to: 14
  2963                           ;incstack = 0
  2964  0011A0  9AF2               	bcf	4082,5,c	;volatile
  2965  0011A2  0012               	return		;funcret
  2966  0011A4                     __end_of_INTERRUPT_Initialize:
  2967                           	opt callstack 0
  2968                           
  2969 ;; *************** function _EUSART1_Initialize *****************
  2970 ;; Defined at:
  2971 ;;		line 85 in file "mcc_generated_files/eusart1.c"
  2972 ;; Parameters:    Size  Location     Type
  2973 ;;		None
  2974 ;; Auto vars:     Size  Location     Type
  2975 ;;		None
  2976 ;; Return value:  Size  Location     Type
  2977 ;;                  1    wreg      void 
  2978 ;; Registers used:
  2979 ;;		wreg, status,2, status,0, cstack
  2980 ;; Tracked objects:
  2981 ;;		On entry : 0/0
  2982 ;;		On exit  : 0/0
  2983 ;;		Unchanged: 0/0
  2984 ;; Data sizes:     COMRAM   BANK0   BANK1   BANK2   BANK3   BANK4   BANK5   BANK6   BANK7
  2985 ;;      Params:         0       0       0       0       0       0       0       0       0
  2986 ;;      Locals:         0       0       0       0       0       0       0       0       0
  2987 ;;      Temps:          0       0       0       0       0       0       0       0       0
  2988 ;;      Totals:         0       0       0       0       0       0       0       0       0
  2989 ;;Total ram usage:        0 bytes
  2990 ;; Hardware stack levels used:    1
  2991 ;; Hardware stack levels required when called:    6
  2992 ;; This function calls:
  2993 ;;		_EUSART1_SetErrorHandler
  2994 ;;		_EUSART1_SetFramingErrorHandler
  2995 ;;		_EUSART1_SetOverrunErrorHandler
  2996 ;;		_EUSART1_SetRxInterruptHandler
  2997 ;;		_EUSART1_SetTxInterruptHandler
  2998 ;; This function is called by:
  2999 ;;		_SYSTEM_Initialize
  3000 ;; This function uses a non-reentrant model
  3001 ;;
  3002                           
  3003                           	psect	text22
  3004  000BE2                     __ptext22:
  3005                           	opt callstack 0
  3006  000BE2                     _EUSART1_Initialize:
  3007                           	opt callstack 23
  3008                           
  3009                           ;mcc_generated_files/eusart1.c: 88:     PIE3bits.RC1IE = 0;
  3010                           
  3011                           ;incstack = 0
  3012  000BE2  010E               	movlb	14	; () banked
  3013  000BE4  9BC0               	bcf	192,5,b	;volatile
  3014                           
  3015                           ; BSR set to: 14
  3016                           ;mcc_generated_files/eusart1.c: 89:     EUSART1_SetRxInterruptHandler(EUSART1_Receive_IS
      +                          R);
  3017  000BE6  0EBC               	movlw	low _EUSART1_Receive_ISR
  3018  000BE8  0100               	movlb	0	; () banked
  3019  000BEA  6F60               	movwf	EUSART1_SetRxInterruptHandler@interruptHandler& (0+255),b
  3020  000BEC  0E0A               	movlw	high _EUSART1_Receive_ISR
  3021  000BEE  6F61               	movwf	(EUSART1_SetRxInterruptHandler@interruptHandler+1)& (0+255),b
  3022  000BF0  ECA5  F008         	call	_EUSART1_SetRxInterruptHandler	;wreg free
  3023                           
  3024                           ;mcc_generated_files/eusart1.c: 90:     PIE3bits.TX1IE = 0;
  3025  000BF4  010E               	movlb	14	; () banked
  3026  000BF6  99C0               	bcf	192,4,b	;volatile
  3027                           
  3028                           ;mcc_generated_files/eusart1.c: 91:     EUSART1_SetTxInterruptHandler(EUSART1_Transmit_I
      +                          SR);
  3029  000BF8  0E86               	movlw	low _EUSART1_Transmit_ISR
  3030  000BFA  0100               	movlb	0	; () banked
  3031  000BFC  6F60               	movwf	EUSART1_SetTxInterruptHandler@interruptHandler& (0+255),b
  3032  000BFE  0E0F               	movlw	high _EUSART1_Transmit_ISR
  3033  000C00  6F61               	movwf	(EUSART1_SetTxInterruptHandler@interruptHandler+1)& (0+255),b
  3034  000C02  ECA0  F008         	call	_EUSART1_SetTxInterruptHandler	;wreg free
  3035                           
  3036                           ;mcc_generated_files/eusart1.c: 95:     BAUD1CON = 0x08;
  3037  000C06  0E08               	movlw	8
  3038  000C08  6E9E               	movwf	3998,c	;volatile
  3039                           
  3040                           ;mcc_generated_files/eusart1.c: 98:     RC1STA = 0x80;
  3041  000C0A  0E80               	movlw	128
  3042  000C0C  6E9C               	movwf	3996,c	;volatile
  3043                           
  3044                           ;mcc_generated_files/eusart1.c: 101:     TX1STA = 0x24;
  3045  000C0E  0E24               	movlw	36
  3046  000C10  6E9D               	movwf	3997,c	;volatile
  3047                           
  3048                           ;mcc_generated_files/eusart1.c: 104:     SP1BRGL = 0x8A;
  3049  000C12  0E8A               	movlw	138
  3050  000C14  6E9A               	movwf	3994,c	;volatile
  3051                           
  3052                           ;mcc_generated_files/eusart1.c: 107:     SP1BRGH = 0x00;
  3053  000C16  0E00               	movlw	0
  3054  000C18  6E9B               	movwf	3995,c	;volatile
  3055                           
  3056                           ;mcc_generated_files/eusart1.c: 110:     EUSART1_SetFramingErrorHandler(EUSART1_DefaultF
      +                          ramingErrorHandler);
  3057  000C1A  0EB2               	movlw	low _EUSART1_DefaultFramingErrorHandler
  3058  000C1C  0100               	movlb	0	; () banked
  3059  000C1E  6F60               	movwf	EUSART1_SetFramingErrorHandler@interruptHandler& (0+255),b
  3060  000C20  0E11               	movlw	high _EUSART1_DefaultFramingErrorHandler
  3061  000C22  6F61               	movwf	(EUSART1_SetFramingErrorHandler@interruptHandler+1)& (0+255),b
  3062  000C24  ECAF  F008         	call	_EUSART1_SetFramingErrorHandler	;wreg free
  3063                           
  3064                           ;mcc_generated_files/eusart1.c: 111:     EUSART1_SetOverrunErrorHandler(EUSART1_DefaultO
      +                          verrunErrorHandler);
  3065  000C28  0E90               	movlw	low _EUSART1_DefaultOverrunErrorHandler
  3066  000C2A  0100               	movlb	0	; () banked
  3067  000C2C  6F60               	movwf	EUSART1_SetOverrunErrorHandler@interruptHandler& (0+255),b
  3068  000C2E  0E11               	movlw	high _EUSART1_DefaultOverrunErrorHandler
  3069  000C30  6F61               	movwf	(EUSART1_SetOverrunErrorHandler@interruptHandler+1)& (0+255),b
  3070  000C32  ECAA  F008         	call	_EUSART1_SetOverrunErrorHandler	;wreg free
  3071                           
  3072                           ;mcc_generated_files/eusart1.c: 112:     EUSART1_SetErrorHandler(EUSART1_DefaultErrorHan
      +                          dler);
  3073  000C36  0E96               	movlw	low _EUSART1_DefaultErrorHandler
  3074  000C38  0100               	movlb	0	; () banked
  3075  000C3A  6F60               	movwf	EUSART1_SetErrorHandler@interruptHandler& (0+255),b
  3076  000C3C  0E11               	movlw	high _EUSART1_DefaultErrorHandler
  3077  000C3E  6F61               	movwf	(EUSART1_SetErrorHandler@interruptHandler+1)& (0+255),b
  3078  000C40  ECB4  F008         	call	_EUSART1_SetErrorHandler	;wreg free
  3079                           
  3080                           ;mcc_generated_files/eusart1.c: 114:     eusart1RxLastError.status = 0;
  3081  000C44  0E00               	movlw	0
  3082  000C46  0100               	movlb	0	; () banked
  3083  000C48  6F8F               	movwf	_eusart1RxLastError& (0+255),b	;volatile
  3084                           
  3085                           ;mcc_generated_files/eusart1.c: 117:     eusart1TxHead = 0;
  3086  000C4A  0E00               	movlw	0
  3087  000C4C  6F92               	movwf	_eusart1TxHead& (0+255),b	;volatile
  3088                           
  3089                           ;mcc_generated_files/eusart1.c: 118:     eusart1TxTail = 0;
  3090  000C4E  0E00               	movlw	0
  3091  000C50  6F91               	movwf	_eusart1TxTail& (0+255),b	;volatile
  3092                           
  3093                           ;mcc_generated_files/eusart1.c: 119:     eusart1TxBufferRemaining = sizeof(eusart1TxBuff
      +                          er);
  3094  000C52  0E08               	movlw	8
  3095  000C54  6F86               	movwf	_eusart1TxBufferRemaining& (0+255),b	;volatile
  3096                           
  3097                           ;mcc_generated_files/eusart1.c: 121:     eusart1RxHead = 0;
  3098  000C56  0E00               	movlw	0
  3099  000C58  6F90               	movwf	_eusart1RxHead& (0+255),b	;volatile
  3100                           
  3101                           ;mcc_generated_files/eusart1.c: 122:     eusart1RxTail = 0;
  3102  000C5A  0E00               	movlw	0
  3103  000C5C  6E53               	movwf	_eusart1RxTail,c	;volatile
  3104                           
  3105                           ;mcc_generated_files/eusart1.c: 123:     eusart1RxCount = 0;
  3106  000C5E  0E00               	movlw	0
  3107  000C60  6E52               	movwf	_eusart1RxCount,c	;volatile
  3108                           
  3109                           ; BSR set to: 0
  3110                           ;mcc_generated_files/eusart1.c: 126:     PIE3bits.RC1IE = 1;
  3111  000C62  010E               	movlb	14	; () banked
  3112  000C64  8BC0               	bsf	192,5,b	;volatile
  3113                           
  3114                           ; BSR set to: 14
  3115  000C66  0012               	return		;funcret
  3116  000C68                     __end_of_EUSART1_Initialize:
  3117                           	opt callstack 0
  3118                           
  3119 ;; *************** function _EUSART1_SetTxInterruptHandler *****************
  3120 ;; Defined at:
  3121 ;;		line 282 in file "mcc_generated_files/eusart1.c"
  3122 ;; Parameters:    Size  Location     Type
  3123 ;;  interruptHan    2    0[BANK0 ] PTR FTN()void 
  3124 ;;		 -> EUSART1_Transmit_ISR(1), 
  3125 ;; Auto vars:     Size  Location     Type
  3126 ;;		None
  3127 ;; Return value:  Size  Location     Type
  3128 ;;                  1    wreg      void 
  3129 ;; Registers used:
  3130 ;;		wreg, status,2, status,0
  3131 ;; Tracked objects:
  3132 ;;		On entry : 0/0
  3133 ;;		On exit  : 0/0
  3134 ;;		Unchanged: 0/0
  3135 ;; Data sizes:     COMRAM   BANK0   BANK1   BANK2   BANK3   BANK4   BANK5   BANK6   BANK7
  3136 ;;      Params:         0       2       0       0       0       0       0       0       0
  3137 ;;      Locals:         0       0       0       0       0       0       0       0       0
  3138 ;;      Temps:          0       0       0       0       0       0       0       0       0
  3139 ;;      Totals:         0       2       0       0       0       0       0       0       0
  3140 ;;Total ram usage:        2 bytes
  3141 ;; Hardware stack levels used:    1
  3142 ;; Hardware stack levels required when called:    5
  3143 ;; This function calls:
  3144 ;;		Nothing
  3145 ;; This function is called by:
  3146 ;;		_EUSART1_Initialize
  3147 ;; This function uses a non-reentrant model
  3148 ;;
  3149                           
  3150                           	psect	text23
  3151  001140                     __ptext23:
  3152                           	opt callstack 0
  3153  001140                     _EUSART1_SetTxInterruptHandler:
  3154                           	opt callstack 23
  3155                           
  3156                           ;mcc_generated_files/eusart1.c: 283:     EUSART1_TxDefaultInterruptHandler = interruptHa
      +                          ndler;
  3157                           
  3158                           ; BSR set to: 14
  3159                           ;incstack = 0
  3160  001140  C060  F05A         	movff	EUSART1_SetTxInterruptHandler@interruptHandler,_EUSART1_TxDefaultInterruptHandler
  3161  001144  C061  F05B         	movff	EUSART1_SetTxInterruptHandler@interruptHandler+1,_EUSART1_TxDefaultInterruptHandl
      +                          er+1
  3162  001148  0012               	return		;funcret
  3163  00114A                     __end_of_EUSART1_SetTxInterruptHandler:
  3164                           	opt callstack 0
  3165                           
  3166 ;; *************** function _EUSART1_SetRxInterruptHandler *****************
  3167 ;; Defined at:
  3168 ;;		line 286 in file "mcc_generated_files/eusart1.c"
  3169 ;; Parameters:    Size  Location     Type
  3170 ;;  interruptHan    2    0[BANK0 ] PTR FTN()void 
  3171 ;;		 -> EUSART1_Receive_ISR(1), 
  3172 ;; Auto vars:     Size  Location     Type
  3173 ;;		None
  3174 ;; Return value:  Size  Location     Type
  3175 ;;                  1    wreg      void 
  3176 ;; Registers used:
  3177 ;;		wreg, status,2, status,0
  3178 ;; Tracked objects:
  3179 ;;		On entry : 0/0
  3180 ;;		On exit  : 0/0
  3181 ;;		Unchanged: 0/0
  3182 ;; Data sizes:     COMRAM   BANK0   BANK1   BANK2   BANK3   BANK4   BANK5   BANK6   BANK7
  3183 ;;      Params:         0       2       0       0       0       0       0       0       0
  3184 ;;      Locals:         0       0       0       0       0       0       0       0       0
  3185 ;;      Temps:          0       0       0       0       0       0       0       0       0
  3186 ;;      Totals:         0       2       0       0       0       0       0       0       0
  3187 ;;Total ram usage:        2 bytes
  3188 ;; Hardware stack levels used:    1
  3189 ;; Hardware stack levels required when called:    5
  3190 ;; This function calls:
  3191 ;;		Nothing
  3192 ;; This function is called by:
  3193 ;;		_EUSART1_Initialize
  3194 ;; This function uses a non-reentrant model
  3195 ;;
  3196                           
  3197                           	psect	text24
  3198  00114A                     __ptext24:
  3199                           	opt callstack 0
  3200  00114A                     _EUSART1_SetRxInterruptHandler:
  3201                           	opt callstack 23
  3202                           
  3203                           ;mcc_generated_files/eusart1.c: 287:     EUSART1_RxDefaultInterruptHandler = interruptHa
      +                          ndler;
  3204                           
  3205                           ;incstack = 0
  3206  00114A  C060  F084         	movff	EUSART1_SetRxInterruptHandler@interruptHandler,_EUSART1_RxDefaultInterruptHandler
  3207  00114E  C061  F085         	movff	EUSART1_SetRxInterruptHandler@interruptHandler+1,_EUSART1_RxDefaultInterruptHandl
      +                          er+1
  3208  001152  0012               	return		;funcret
  3209  001154                     __end_of_EUSART1_SetRxInterruptHandler:
  3210                           	opt callstack 0
  3211                           
  3212 ;; *************** function _EUSART1_SetOverrunErrorHandler *****************
  3213 ;; Defined at:
  3214 ;;		line 274 in file "mcc_generated_files/eusart1.c"
  3215 ;; Parameters:    Size  Location     Type
  3216 ;;  interruptHan    2    0[BANK0 ] PTR FTN()void 
  3217 ;;		 -> EUSART1_DefaultOverrunErrorHandler(1), 
  3218 ;; Auto vars:     Size  Location     Type
  3219 ;;		None
  3220 ;; Return value:  Size  Location     Type
  3221 ;;                  1    wreg      void 
  3222 ;; Registers used:
  3223 ;;		wreg, status,2, status,0
  3224 ;; Tracked objects:
  3225 ;;		On entry : 0/0
  3226 ;;		On exit  : 0/0
  3227 ;;		Unchanged: 0/0
  3228 ;; Data sizes:     COMRAM   BANK0   BANK1   BANK2   BANK3   BANK4   BANK5   BANK6   BANK7
  3229 ;;      Params:         0       2       0       0       0       0       0       0       0
  3230 ;;      Locals:         0       0       0       0       0       0       0       0       0
  3231 ;;      Temps:          0       0       0       0       0       0       0       0       0
  3232 ;;      Totals:         0       2       0       0       0       0       0       0       0
  3233 ;;Total ram usage:        2 bytes
  3234 ;; Hardware stack levels used:    1
  3235 ;; Hardware stack levels required when called:    5
  3236 ;; This function calls:
  3237 ;;		Nothing
  3238 ;; This function is called by:
  3239 ;;		_EUSART1_Initialize
  3240 ;; This function uses a non-reentrant model
  3241 ;;
  3242                           
  3243                           	psect	text25
  3244  001154                     __ptext25:
  3245                           	opt callstack 0
  3246  001154                     _EUSART1_SetOverrunErrorHandler:
  3247                           	opt callstack 23
  3248                           
  3249                           ;mcc_generated_files/eusart1.c: 275:     EUSART1_OverrunErrorHandler = interruptHandler;
  3250                           
  3251                           ;incstack = 0
  3252  001154  C060  F07C         	movff	EUSART1_SetOverrunErrorHandler@interruptHandler,_EUSART1_OverrunErrorHandler
  3253  001158  C061  F07D         	movff	EUSART1_SetOverrunErrorHandler@interruptHandler+1,_EUSART1_OverrunErrorHandler+1
  3254  00115C  0012               	return		;funcret
  3255  00115E                     __end_of_EUSART1_SetOverrunErrorHandler:
  3256                           	opt callstack 0
  3257                           
  3258 ;; *************** function _EUSART1_SetFramingErrorHandler *****************
  3259 ;; Defined at:
  3260 ;;		line 270 in file "mcc_generated_files/eusart1.c"
  3261 ;; Parameters:    Size  Location     Type
  3262 ;;  interruptHan    2    0[BANK0 ] PTR FTN()void 
  3263 ;;		 -> EUSART1_DefaultFramingErrorHandler(1), 
  3264 ;; Auto vars:     Size  Location     Type
  3265 ;;		None
  3266 ;; Return value:  Size  Location     Type
  3267 ;;                  1    wreg      void 
  3268 ;; Registers used:
  3269 ;;		wreg, status,2, status,0
  3270 ;; Tracked objects:
  3271 ;;		On entry : 0/0
  3272 ;;		On exit  : 0/0
  3273 ;;		Unchanged: 0/0
  3274 ;; Data sizes:     COMRAM   BANK0   BANK1   BANK2   BANK3   BANK4   BANK5   BANK6   BANK7
  3275 ;;      Params:         0       2       0       0       0       0       0       0       0
  3276 ;;      Locals:         0       0       0       0       0       0       0       0       0
  3277 ;;      Temps:          0       0       0       0       0       0       0       0       0
  3278 ;;      Totals:         0       2       0       0       0       0       0       0       0
  3279 ;;Total ram usage:        2 bytes
  3280 ;; Hardware stack levels used:    1
  3281 ;; Hardware stack levels required when called:    5
  3282 ;; This function calls:
  3283 ;;		Nothing
  3284 ;; This function is called by:
  3285 ;;		_EUSART1_Initialize
  3286 ;; This function uses a non-reentrant model
  3287 ;;
  3288                           
  3289                           	psect	text26
  3290  00115E                     __ptext26:
  3291                           	opt callstack 0
  3292  00115E                     _EUSART1_SetFramingErrorHandler:
  3293                           	opt callstack 23
  3294                           
  3295                           ;mcc_generated_files/eusart1.c: 271:     EUSART1_FramingErrorHandler = interruptHandler;
  3296                           
  3297                           ;incstack = 0
  3298  00115E  C060  F07E         	movff	EUSART1_SetFramingErrorHandler@interruptHandler,_EUSART1_FramingErrorHandler
  3299  001162  C061  F07F         	movff	EUSART1_SetFramingErrorHandler@interruptHandler+1,_EUSART1_FramingErrorHandler+1
  3300  001166  0012               	return		;funcret
  3301  001168                     __end_of_EUSART1_SetFramingErrorHandler:
  3302                           	opt callstack 0
  3303                           
  3304 ;; *************** function _EUSART1_SetErrorHandler *****************
  3305 ;; Defined at:
  3306 ;;		line 278 in file "mcc_generated_files/eusart1.c"
  3307 ;; Parameters:    Size  Location     Type
  3308 ;;  interruptHan    2    0[BANK0 ] PTR FTN()void 
  3309 ;;		 -> EUSART1_DefaultErrorHandler(1), 
  3310 ;; Auto vars:     Size  Location     Type
  3311 ;;		None
  3312 ;; Return value:  Size  Location     Type
  3313 ;;                  1    wreg      void 
  3314 ;; Registers used:
  3315 ;;		wreg, status,2, status,0
  3316 ;; Tracked objects:
  3317 ;;		On entry : 0/0
  3318 ;;		On exit  : 0/0
  3319 ;;		Unchanged: 0/0
  3320 ;; Data sizes:     COMRAM   BANK0   BANK1   BANK2   BANK3   BANK4   BANK5   BANK6   BANK7
  3321 ;;      Params:         0       2       0       0       0       0       0       0       0
  3322 ;;      Locals:         0       0       0       0       0       0       0       0       0
  3323 ;;      Temps:          0       0       0       0       0       0       0       0       0
  3324 ;;      Totals:         0       2       0       0       0       0       0       0       0
  3325 ;;Total ram usage:        2 bytes
  3326 ;; Hardware stack levels used:    1
  3327 ;; Hardware stack levels required when called:    5
  3328 ;; This function calls:
  3329 ;;		Nothing
  3330 ;; This function is called by:
  3331 ;;		_EUSART1_Initialize
  3332 ;; This function uses a non-reentrant model
  3333 ;;
  3334                           
  3335                           	psect	text27
  3336  001168                     __ptext27:
  3337                           	opt callstack 0
  3338  001168                     _EUSART1_SetErrorHandler:
  3339                           	opt callstack 23
  3340                           
  3341                           ;mcc_generated_files/eusart1.c: 279:     EUSART1_ErrorHandler = interruptHandler;
  3342                           
  3343                           ;incstack = 0
  3344  001168  C060  F07A         	movff	EUSART1_SetErrorHandler@interruptHandler,_EUSART1_ErrorHandler
  3345  00116C  C061  F07B         	movff	EUSART1_SetErrorHandler@interruptHandler+1,_EUSART1_ErrorHandler+1
  3346  001170  0012               	return		;funcret
  3347  001172                     __end_of_EUSART1_SetErrorHandler:
  3348                           	opt callstack 0
  3349                           
  3350 ;; *************** function _CCP1_Initialize *****************
  3351 ;; Defined at:
  3352 ;;		line 65 in file "mcc_generated_files/ccp1.c"
  3353 ;; Parameters:    Size  Location     Type
  3354 ;;		None
  3355 ;; Auto vars:     Size  Location     Type
  3356 ;;		None
  3357 ;; Return value:  Size  Location     Type
  3358 ;;                  1    wreg      void 
  3359 ;; Registers used:
  3360 ;;		wreg, status,2, status,0, cstack
  3361 ;; Tracked objects:
  3362 ;;		On entry : 0/0
  3363 ;;		On exit  : 0/0
  3364 ;;		Unchanged: 0/0
  3365 ;; Data sizes:     COMRAM   BANK0   BANK1   BANK2   BANK3   BANK4   BANK5   BANK6   BANK7
  3366 ;;      Params:         0       0       0       0       0       0       0       0       0
  3367 ;;      Locals:         0       0       0       0       0       0       0       0       0
  3368 ;;      Temps:          0       0       0       0       0       0       0       0       0
  3369 ;;      Totals:         0       0       0       0       0       0       0       0       0
  3370 ;;Total ram usage:        0 bytes
  3371 ;; Hardware stack levels used:    1
  3372 ;; Hardware stack levels required when called:    6
  3373 ;; This function calls:
  3374 ;;		_CCP1_SetCallBack
  3375 ;; This function is called by:
  3376 ;;		_SYSTEM_Initialize
  3377 ;; This function uses a non-reentrant model
  3378 ;;
  3379                           
  3380                           	psect	text28
  3381  000F58                     __ptext28:
  3382                           	opt callstack 0
  3383  000F58                     _CCP1_Initialize:
  3384                           	opt callstack 23
  3385                           
  3386                           ;mcc_generated_files/ccp1.c: 70:  CCP1CON = 0x84;
  3387                           
  3388                           ;incstack = 0
  3389  000F58  0E84               	movlw	132
  3390  000F5A  6EAB               	movwf	4011,c	;volatile
  3391                           
  3392                           ;mcc_generated_files/ccp1.c: 73:  CCP1CAP = 0x00;
  3393  000F5C  0E00               	movlw	0
  3394  000F5E  6EAC               	movwf	4012,c	;volatile
  3395                           
  3396                           ;mcc_generated_files/ccp1.c: 76:  CCPR1H = 0x00;
  3397  000F60  0E00               	movlw	0
  3398  000F62  6EAA               	movwf	4010,c	;volatile
  3399                           
  3400                           ;mcc_generated_files/ccp1.c: 79:  CCPR1L = 0x00;
  3401  000F64  0E00               	movlw	0
  3402  000F66  6EA9               	movwf	4009,c	;volatile
  3403                           
  3404                           ;mcc_generated_files/ccp1.c: 82:     CCP1_SetCallBack(CCP1_DefaultCallBack);
  3405  000F68  0EB4               	movlw	low _CCP1_DefaultCallBack
  3406  000F6A  0100               	movlb	0	; () banked
  3407  000F6C  6F60               	movwf	CCP1_SetCallBack@customCallBack& (0+255),b
  3408  000F6E  0E11               	movlw	high _CCP1_DefaultCallBack
  3409  000F70  6F61               	movwf	(CCP1_SetCallBack@customCallBack+1)& (0+255),b
  3410  000F72  ECB9  F008         	call	_CCP1_SetCallBack	;wreg free
  3411                           
  3412                           ;mcc_generated_files/ccp1.c: 85:  CCPTMRSbits.C1TSEL = 0x1;
  3413  000F76  50AD               	movf	4013,w,c	;volatile
  3414  000F78  0BFC               	andlw	-4
  3415  000F7A  0901               	iorlw	1
  3416  000F7C  6EAD               	movwf	4013,c	;volatile
  3417                           
  3418                           ;mcc_generated_files/ccp1.c: 88:     PIR6bits.CCP1IF = 0;
  3419  000F7E  010E               	movlb	14	; () banked
  3420  000F80  91CB               	bcf	203,0,b	;volatile
  3421                           
  3422                           ; BSR set to: 14
  3423                           ;mcc_generated_files/ccp1.c: 91:     PIE6bits.CCP1IE = 1;
  3424  000F82  81C3               	bsf	195,0,b	;volatile
  3425                           
  3426                           ; BSR set to: 14
  3427  000F84  0012               	return		;funcret
  3428  000F86                     __end_of_CCP1_Initialize:
  3429                           	opt callstack 0
  3430                           
  3431 ;; *************** function _CCP1_SetCallBack *****************
  3432 ;; Defined at:
  3433 ;;		line 109 in file "mcc_generated_files/ccp1.c"
  3434 ;; Parameters:    Size  Location     Type
  3435 ;;  customCallBa    2    0[BANK0 ] PTR FTN(unsigned short ,
  3436 ;;		 -> ping_CCP1_triggered(1), CCP1_DefaultCallBack(1), 
  3437 ;; Auto vars:     Size  Location     Type
  3438 ;;		None
  3439 ;; Return value:  Size  Location     Type
  3440 ;;                  1    wreg      void 
  3441 ;; Registers used:
  3442 ;;		wreg, status,2, status,0
  3443 ;; Tracked objects:
  3444 ;;		On entry : 0/0
  3445 ;;		On exit  : 0/0
  3446 ;;		Unchanged: 0/0
  3447 ;; Data sizes:     COMRAM   BANK0   BANK1   BANK2   BANK3   BANK4   BANK5   BANK6   BANK7
  3448 ;;      Params:         0       2       0       0       0       0       0       0       0
  3449 ;;      Locals:         0       0       0       0       0       0       0       0       0
  3450 ;;      Temps:          0       0       0       0       0       0       0       0       0
  3451 ;;      Totals:         0       2       0       0       0       0       0       0       0
  3452 ;;Total ram usage:        2 bytes
  3453 ;; Hardware stack levels used:    1
  3454 ;; Hardware stack levels required when called:    5
  3455 ;; This function calls:
  3456 ;;		Nothing
  3457 ;; This function is called by:
  3458 ;;		_CCP1_Initialize
  3459 ;;		_ping_init
  3460 ;; This function uses a non-reentrant model
  3461 ;;
  3462                           
  3463                           	psect	text29
  3464  001172                     __ptext29:
  3465                           	opt callstack 0
  3466  001172                     _CCP1_SetCallBack:
  3467                           	opt callstack 24
  3468                           
  3469                           ;mcc_generated_files/ccp1.c: 110:     CCP1_CallBack = customCallBack;
  3470                           
  3471                           ; BSR set to: 14
  3472                           ;incstack = 0
  3473  001172  C060  F080         	movff	CCP1_SetCallBack@customCallBack,_CCP1_CallBack
  3474  001176  C061  F081         	movff	CCP1_SetCallBack@customCallBack+1,_CCP1_CallBack+1
  3475  00117A  0012               	return		;funcret
  3476  00117C                     __end_of_CCP1_SetCallBack:
  3477                           	opt callstack 0
  3478                           
  3479 ;; *************** function _INTERRUPT_InterruptManager *****************
  3480 ;; Defined at:
  3481 ;;		line 58 in file "mcc_generated_files/interrupt_manager.c"
  3482 ;; Parameters:    Size  Location     Type
  3483 ;;		None
  3484 ;; Auto vars:     Size  Location     Type
  3485 ;;		None
  3486 ;; Return value:  Size  Location     Type
  3487 ;;                  1    wreg      void 
  3488 ;; Registers used:
  3489 ;;		wreg, fsr2l, fsr2h, status,2, status,0, pclath, tosl, prodl, prodh, cstack
  3490 ;; Tracked objects:
  3491 ;;		On entry : 0/0
  3492 ;;		On exit  : 0/0
  3493 ;;		Unchanged: 0/0
  3494 ;; Data sizes:     COMRAM   BANK0   BANK1   BANK2   BANK3   BANK4   BANK5   BANK6   BANK7
  3495 ;;      Params:         0       0       0       0       0       0       0       0       0
  3496 ;;      Locals:         0       0       0       0       0       0       0       0       0
  3497 ;;      Temps:          6       0       0       0       0       0       0       0       0
  3498 ;;      Totals:         6       0       0       0       0       0       0       0       0
  3499 ;;Total ram usage:        6 bytes
  3500 ;; Hardware stack levels used:    1
  3501 ;; Hardware stack levels required when called:    4
  3502 ;; This function calls:
  3503 ;;		Absolute function
  3504 ;;		_CCP1_CaptureISR
  3505 ;;		_EUSART1_Receive_ISR
  3506 ;;		_EUSART1_Transmit_ISR
  3507 ;;		_PIN_MANAGER_IOC
  3508 ;;		_TMR1_ISR
  3509 ;;		_TMR2_ISR
  3510 ;; This function is called by:
  3511 ;;		Interrupt level 2
  3512 ;; This function uses a non-reentrant model
  3513 ;;
  3514                           
  3515                           	psect	intcode
  3516  000008                     __pintcode:
  3517                           	opt callstack 0
  3518  000008                     _INTERRUPT_InterruptManager:
  3519                           	opt callstack 23
  3520                           
  3521                           ;incstack = 0
  3522  000008  825F               	bsf	btemp,1,c	;set compiler interrupt flag (level 2)
  3523  00000A  CFFA F02C          	movff	pclath,??_INTERRUPT_InterruptManager
  3524  00000E  CFFB F02D          	movff	pclatu,??_INTERRUPT_InterruptManager+1
  3525  000012  CFD9 F02E          	movff	fsr2l,??_INTERRUPT_InterruptManager+2
  3526  000016  CFDA F02F          	movff	fsr2h,??_INTERRUPT_InterruptManager+3
  3527  00001A  CFF3 F030          	movff	prodl,??_INTERRUPT_InterruptManager+4
  3528  00001E  CFF4 F031          	movff	prodh,??_INTERRUPT_InterruptManager+5
  3529                           
  3530                           ;mcc_generated_files/interrupt_manager.c: 61:     if(PIE0bits.IOCIE == 1 && PIR0bits.IOC
      +                          IF == 1)
  3531  000022  010E               	movlb	14	; () banked
  3532  000024  B9BD               	btfsc	189,4,b	;volatile
  3533                           
  3534                           ; BSR set to: 14
  3535  000026  A9C5               	btfss	197,4,b	;volatile
  3536  000028  D003               	goto	i2l245
  3537                           
  3538                           ; BSR set to: 14
  3539                           ;mcc_generated_files/interrupt_manager.c: 62:     {;mcc_generated_files/interrupt_manage
      +                          r.c: 63:         PIN_MANAGER_IOC();
  3540  00002A  EC8B  F008         	call	_PIN_MANAGER_IOC	;wreg free
  3541                           
  3542                           ;mcc_generated_files/interrupt_manager.c: 64:     }
  3543  00002E  D02E               	goto	i2l251
  3544  000030                     i2l245:
  3545                           
  3546                           ; BSR set to: 14
  3547  000030  ACF2               	btfss	4082,6,c	;volatile
  3548  000032  D02C               	goto	i2l251
  3549                           
  3550                           ; BSR set to: 14
  3551                           ;mcc_generated_files/interrupt_manager.c: 66:     {;mcc_generated_files/interrupt_manage
      +                          r.c: 67:         if(PIE3bits.TX1IE == 1 && PIR3bits.TX1IF == 1)
  3552  000034  B9C0               	btfsc	192,4,b	;volatile
  3553                           
  3554                           ; BSR set to: 14
  3555  000036  A9C8               	btfss	200,4,b	;volatile
  3556  000038  D008               	goto	i2l248
  3557                           
  3558                           ; BSR set to: 14
  3559                           ;mcc_generated_files/interrupt_manager.c: 68:         {;mcc_generated_files/interrupt_ma
      +                          nager.c: 69:             EUSART1_TxDefaultInterruptHandler();
  3560  00003A  D801               	call	i2u247_48
  3561  00003C  D027               	goto	i2l251
  3562  00003E                     i2u247_48:
  3563  00003E  0005               	push	
  3564  000040  6EFA               	movwf	pclath,c
  3565  000042  505A               	movf	_EUSART1_TxDefaultInterruptHandler,w,c
  3566  000044  6EFD               	movwf	tosl,c
  3567  000046  505B               	movf	_EUSART1_TxDefaultInterruptHandler+1,w,c
  3568  000048  D00B               	goto	L4
  3569  00004A                     i2l248:
  3570                           
  3571                           ; BSR set to: 14
  3572  00004A  BBC0               	btfsc	192,5,b	;volatile
  3573                           
  3574                           ; BSR set to: 14
  3575  00004C  ABC8               	btfss	200,5,b	;volatile
  3576  00004E  D00D               	goto	i2l250
  3577                           
  3578                           ; BSR set to: 14
  3579                           ;mcc_generated_files/interrupt_manager.c: 72:         {;mcc_generated_files/interrupt_ma
      +                          nager.c: 73:             EUSART1_RxDefaultInterruptHandler();
  3580  000050  D801               	call	i2u250_48
  3581  000052  D01C               	goto	i2l251
  3582  000054                     i2u250_48:
  3583  000054  0005               	push	
  3584  000056  0100               	movlb	0	; () banked
  3585  000058  6EFA               	movwf	pclath,c
  3586  00005A  5184               	movf	_EUSART1_RxDefaultInterruptHandler& (0+255),w,b
  3587  00005C  6EFD               	movwf	tosl,c
  3588  00005E  5185               	movf	(_EUSART1_RxDefaultInterruptHandler+1)& (0+255),w,b
  3589  000060                     L4:
  3590  000060  6EFE               	movwf	tosh,c
  3591  000062  50F8               	movf	tblptru,w,c
  3592  000064  6EFF               	movwf	tosu,c
  3593  000066  50FA               	movf	pclath,w,c
  3594  000068  0012               	return		;indir
  3595  00006A                     i2l250:
  3596                           
  3597                           ; BSR set to: 14
  3598  00006A  B3C1               	btfsc	193,1,b	;volatile
  3599                           
  3600                           ; BSR set to: 14
  3601  00006C  A3C9               	btfss	201,1,b	;volatile
  3602  00006E  D003               	goto	i2l252
  3603                           
  3604                           ; BSR set to: 14
  3605                           ;mcc_generated_files/interrupt_manager.c: 76:         {;mcc_generated_files/interrupt_ma
      +                          nager.c: 77:             TMR2_ISR();
  3606  000070  ECF1  F007         	call	_TMR2_ISR	;wreg free
  3607                           
  3608                           ;mcc_generated_files/interrupt_manager.c: 78:         }
  3609  000074  D00B               	goto	i2l251
  3610  000076                     i2l252:
  3611                           
  3612                           ; BSR set to: 14
  3613  000076  B1C1               	btfsc	193,0,b	;volatile
  3614                           
  3615                           ; BSR set to: 14
  3616  000078  A1C9               	btfss	201,0,b	;volatile
  3617  00007A  D003               	goto	i2l254
  3618                           
  3619                           ; BSR set to: 14
  3620                           ;mcc_generated_files/interrupt_manager.c: 80:         {;mcc_generated_files/interrupt_ma
      +                          nager.c: 81:             TMR1_ISR();
  3621  00007C  EC7D  F007         	call	_TMR1_ISR	;wreg free
  3622                           
  3623                           ;mcc_generated_files/interrupt_manager.c: 82:         }
  3624  000080  D005               	goto	i2l251
  3625  000082                     i2l254:
  3626                           
  3627                           ; BSR set to: 14
  3628  000082  B1C3               	btfsc	195,0,b	;volatile
  3629                           
  3630                           ; BSR set to: 14
  3631  000084  A1CB               	btfss	203,0,b	;volatile
  3632  000086  D002               	goto	i2l251
  3633                           
  3634                           ; BSR set to: 14
  3635                           ;mcc_generated_files/interrupt_manager.c: 84:         {;mcc_generated_files/interrupt_ma
      +                          nager.c: 85:             CCP1_CaptureISR();
  3636  000088  ECDA  F007         	call	_CCP1_CaptureISR	;wreg free
  3637  00008C                     i2l251:
  3638                           
  3639                           ; BSR set to: 14
  3640  00008C  C031  FFF4         	movff	??_INTERRUPT_InterruptManager+5,prodh
  3641  000090  C030  FFF3         	movff	??_INTERRUPT_InterruptManager+4,prodl
  3642  000094  C02F  FFDA         	movff	??_INTERRUPT_InterruptManager+3,fsr2h
  3643  000098  C02E  FFD9         	movff	??_INTERRUPT_InterruptManager+2,fsr2l
  3644  00009C  C02D  FFFB         	movff	??_INTERRUPT_InterruptManager+1,pclatu
  3645  0000A0  C02C  FFFA         	movff	??_INTERRUPT_InterruptManager,pclath
  3646  0000A4  925F               	bcf	btemp,1,c	;clear compiler interrupt flag (level 2)
  3647  0000A6  0011               	retfie		f
  3648  0000A8                     __end_of_INTERRUPT_InterruptManager:
  3649                           	opt callstack 0
  3650                           
  3651 ;; *************** function _TMR2_ISR *****************
  3652 ;; Defined at:
  3653 ;;		line 165 in file "mcc_generated_files/tmr2.c"
  3654 ;; Parameters:    Size  Location     Type
  3655 ;;		None
  3656 ;; Auto vars:     Size  Location     Type
  3657 ;;		None
  3658 ;; Return value:  Size  Location     Type
  3659 ;;                  1    wreg      void 
  3660 ;; Registers used:
  3661 ;;		wreg, status,2, status,0, pclath, tosl, cstack
  3662 ;; Tracked objects:
  3663 ;;		On entry : 0/0
  3664 ;;		On exit  : 0/0
  3665 ;;		Unchanged: 0/0
  3666 ;; Data sizes:     COMRAM   BANK0   BANK1   BANK2   BANK3   BANK4   BANK5   BANK6   BANK7
  3667 ;;      Params:         0       0       0       0       0       0       0       0       0
  3668 ;;      Locals:         0       0       0       0       0       0       0       0       0
  3669 ;;      Temps:          0       0       0       0       0       0       0       0       0
  3670 ;;      Totals:         0       0       0       0       0       0       0       0       0
  3671 ;;Total ram usage:        0 bytes
  3672 ;; Hardware stack levels used:    1
  3673 ;; Hardware stack levels required when called:    1
  3674 ;; This function calls:
  3675 ;;		Absolute function
  3676 ;;		_TMR2_DefaultInterruptHandler
  3677 ;;		_carcontrol_ISR
  3678 ;; This function is called by:
  3679 ;;		_INTERRUPT_InterruptManager
  3680 ;; This function uses a non-reentrant model
  3681 ;;
  3682                           
  3683                           	psect	text31
  3684  000FE2                     __ptext31:
  3685                           	opt callstack 0
  3686  000FE2                     _TMR2_ISR:
  3687                           	opt callstack 25
  3688                           
  3689                           ;mcc_generated_files/tmr2.c: 169:     PIR4bits.TMR2IF = 0;
  3690                           
  3691                           ;incstack = 0
  3692  000FE2  010E               	movlb	14	; () banked
  3693  000FE4  93C9               	bcf	201,1,b	;volatile
  3694                           
  3695                           ; BSR set to: 14
  3696                           ;mcc_generated_files/tmr2.c: 171:     if(TMR2_InterruptHandler)
  3697  000FE6  0100               	movlb	0	; () banked
  3698  000FE8  5182               	movf	_TMR2_InterruptHandler& (0+255),w,b
  3699  000FEA  1183               	iorwf	(_TMR2_InterruptHandler+1)& (0+255),w,b
  3700  000FEC  B4D8               	btfsc	status,2,c
  3701  000FEE  0012               	return	
  3702                           
  3703                           ; BSR set to: 0
  3704                           ;mcc_generated_files/tmr2.c: 172:     {;mcc_generated_files/tmr2.c: 173:         TMR2_In
      +                          terruptHandler();
  3705  000FF0  D801               	call	i2u174_48
  3706  000FF2  0012               	return	
  3707  000FF4                     i2u174_48:
  3708  000FF4  0005               	push	
  3709  000FF6  6EFA               	movwf	pclath,c
  3710  000FF8  5182               	movf	_TMR2_InterruptHandler& (0+255),w,b
  3711  000FFA  6EFD               	movwf	tosl,c
  3712  000FFC  5183               	movf	(_TMR2_InterruptHandler+1)& (0+255),w,b
  3713  000FFE  6EFE               	movwf	tosh,c
  3714  001000  50F8               	movf	tblptru,w,c
  3715  001002  6EFF               	movwf	tosu,c
  3716  001004  50FA               	movf	pclath,w,c
  3717  001006  0012               	return		;indir
  3718  001008                     __end_of_TMR2_ISR:
  3719                           	opt callstack 0
  3720                           
  3721 ;; *************** function _TMR2_DefaultInterruptHandler *****************
  3722 ;; Defined at:
  3723 ;;		line 182 in file "mcc_generated_files/tmr2.c"
  3724 ;; Parameters:    Size  Location     Type
  3725 ;;		None
  3726 ;; Auto vars:     Size  Location     Type
  3727 ;;		None
  3728 ;; Return value:  Size  Location     Type
  3729 ;;                  1    wreg      void 
  3730 ;; Registers used:
  3731 ;;		None
  3732 ;; Tracked objects:
  3733 ;;		On entry : 0/0
  3734 ;;		On exit  : 0/0
  3735 ;;		Unchanged: 0/0
  3736 ;; Data sizes:     COMRAM   BANK0   BANK1   BANK2   BANK3   BANK4   BANK5   BANK6   BANK7
  3737 ;;      Params:         0       0       0       0       0       0       0       0       0
  3738 ;;      Locals:         0       0       0       0       0       0       0       0       0
  3739 ;;      Temps:          0       0       0       0       0       0       0       0       0
  3740 ;;      Totals:         0       0       0       0       0       0       0       0       0
  3741 ;;Total ram usage:        0 bytes
  3742 ;; Hardware stack levels used:    1
  3743 ;; This function calls:
  3744 ;;		Nothing
  3745 ;; This function is called by:
  3746 ;;		_TMR2_Initialize
  3747 ;;		_TMR2_ISR
  3748 ;; This function uses a non-reentrant model
  3749 ;;
  3750                           
  3751                           	psect	text32
  3752  0011AC                     __ptext32:
  3753                           	opt callstack 0
  3754  0011AC                     _TMR2_DefaultInterruptHandler:
  3755                           	opt callstack 25
  3756                           
  3757                           ;incstack = 0
  3758  0011AC  0012               	return		;funcret
  3759  0011AE                     __end_of_TMR2_DefaultInterruptHandler:
  3760                           	opt callstack 0
  3761                           
  3762 ;; *************** function _carcontrol_ISR *****************
  3763 ;; Defined at:
  3764 ;;		line 41 in file "car_ctrl.c"
  3765 ;; Parameters:    Size  Location     Type
  3766 ;;		None
  3767 ;; Auto vars:     Size  Location     Type
  3768 ;;		None
  3769 ;; Return value:  Size  Location     Type
  3770 ;;                  1    wreg      void 
  3771 ;; Registers used:
  3772 ;;		wreg, status,2, status,0
  3773 ;; Tracked objects:
  3774 ;;		On entry : 0/0
  3775 ;;		On exit  : 0/0
  3776 ;;		Unchanged: 0/0
  3777 ;; Data sizes:     COMRAM   BANK0   BANK1   BANK2   BANK3   BANK4   BANK5   BANK6   BANK7
  3778 ;;      Params:         0       0       0       0       0       0       0       0       0
  3779 ;;      Locals:         0       0       0       0       0       0       0       0       0
  3780 ;;      Temps:          3       0       0       0       0       0       0       0       0
  3781 ;;      Totals:         3       0       0       0       0       0       0       0       0
  3782 ;;Total ram usage:        3 bytes
  3783 ;; Hardware stack levels used:    1
  3784 ;; This function calls:
  3785 ;;		Nothing
  3786 ;; This function is called by:
  3787 ;;		_carcontrol_init
  3788 ;;		_TMR2_ISR
  3789 ;; This function uses a non-reentrant model
  3790 ;;
  3791                           
  3792                           	psect	text33
  3793  00084C                     __ptext33:
  3794                           	opt callstack 0
  3795  00084C                     _carcontrol_ISR:
  3796                           	opt callstack 25
  3797                           
  3798                           ;car_ctrl.c: 43:     switch (carctl.state) {
  3799                           
  3800                           ;incstack = 0
  3801  00084C  D05C               	goto	i2l2777
  3802  00084E                     i2l2735:
  3803                           
  3804                           ; BSR set to: 0
  3805                           ;car_ctrl.c: 46:             carctl.state = state_high;
  3806  00084E  0E01               	movlw	1
  3807  000850  6F88               	movwf	(_carctl+1)& (0+255),b	;volatile
  3808                           
  3809                           ; BSR set to: 0
  3810  000852  8082               	bsf	3970,0,c	;volatile
  3811                           
  3812                           ; BSR set to: 0
  3813  000854  8282               	bsf	3970,1,c	;volatile
  3814                           
  3815                           ; BSR set to: 0
  3816                           ;car_ctrl.c: 49:             stateTime = 0;
  3817  000856  0E00               	movlw	0
  3818  000858  6F8E               	movwf	(_stateTime+1)& (0+255),b
  3819  00085A  0E00               	movlw	0
  3820  00085C  6F8D               	movwf	_stateTime& (0+255),b
  3821                           
  3822                           ;car_ctrl.c: 50:         break;
  3823  00085E  0012               	return	
  3824  000860                     i2l2741:
  3825                           
  3826                           ; BSR set to: 0
  3827                           ;car_ctrl.c: 52:             stateTime++;
  3828  000860  4B8D               	infsnz	_stateTime& (0+255),f,b
  3829  000862  2B8E               	incf	(_stateTime+1)& (0+255),f,b
  3830                           
  3831                           ; BSR set to: 0
  3832  000864  8082               	bsf	3970,0,c	;volatile
  3833                           
  3834                           ; BSR set to: 0
  3835  000866  8282               	bsf	3970,1,c	;volatile
  3836                           
  3837                           ; BSR set to: 0
  3838                           ;car_ctrl.c: 55:             if (stateTime >= 100) {
  3839  000868  BF8E               	btfsc	(_stateTime+1)& (0+255),7,b
  3840  00086A  0012               	return	
  3841  00086C  518E               	movf	(_stateTime+1)& (0+255),w,b
  3842  00086E  E104               	bnz	i2u167_40
  3843  000870  0E64               	movlw	100
  3844  000872  5D8D               	subwf	_stateTime& (0+255),w,b
  3845  000874  A0D8               	btfss	status,0,c
  3846  000876  0012               	return	
  3847  000878                     i2u167_40:
  3848                           
  3849                           ; BSR set to: 0
  3850                           ;car_ctrl.c: 57:                 carctl.state = state_vary;
  3851  000878  0E02               	movlw	2
  3852  00087A  6F88               	movwf	(_carctl+1)& (0+255),b	;volatile
  3853                           
  3854                           ;car_ctrl.c: 58:                 stateTime = 0;
  3855  00087C  0E00               	movlw	0
  3856  00087E  6F8E               	movwf	(_stateTime+1)& (0+255),b
  3857  000880  0E00               	movlw	0
  3858  000882  6F8D               	movwf	_stateTime& (0+255),b
  3859  000884  0012               	return	
  3860  000886                     i2l2751:
  3861                           
  3862                           ; BSR set to: 0
  3863                           ;car_ctrl.c: 62:             stateTime++;
  3864  000886  4B8D               	infsnz	_stateTime& (0+255),f,b
  3865  000888  2B8E               	incf	(_stateTime+1)& (0+255),f,b
  3866                           
  3867                           ; BSR set to: 0
  3868                           ;car_ctrl.c: 63:             if (stateTime > carctl.throttleHighTime) {
  3869  00088A  518B               	movf	(_carctl+4)& (0+255),w,b	;volatile
  3870  00088C  6E01               	movwf	??_carcontrol_ISR& (0+255),c
  3871  00088E  6A02               	clrf	(??_carcontrol_ISR+1)& (0+255),c
  3872  000890  518D               	movf	_stateTime& (0+255),w,b
  3873  000892  5C01               	subwf	??_carcontrol_ISR,w,c
  3874  000894  5002               	movf	??_carcontrol_ISR+1,w,c
  3875  000896  0A80               	xorlw	128
  3876  000898  6E03               	movwf	(??_carcontrol_ISR+2)& (0+255),c
  3877  00089A  518E               	movf	(_stateTime+1)& (0+255),w,b
  3878  00089C  0A80               	xorlw	128
  3879  00089E  5803               	subwfb	(??_carcontrol_ISR+2)& (0+255),w,c
  3880  0008A0  A0D8               	btfss	status,0,c
  3881                           
  3882                           ; BSR set to: 0
  3883                           
  3884                           ;car_ctrl.c: 64:                 do { LATAbits.LATA0 = 0; } while(0);
  3885  0008A2  9082               	bcf	3970,0,c	;volatile
  3886                           
  3887                           ; BSR set to: 0
  3888                           ;car_ctrl.c: 66:             if (stateTime > carctl.servoHighTime) {
  3889  0008A4  518C               	movf	(_carctl+5)& (0+255),w,b	;volatile
  3890  0008A6  6E01               	movwf	??_carcontrol_ISR& (0+255),c
  3891  0008A8  6A02               	clrf	(??_carcontrol_ISR+1)& (0+255),c
  3892  0008AA  518D               	movf	_stateTime& (0+255),w,b
  3893  0008AC  5C01               	subwf	??_carcontrol_ISR,w,c
  3894  0008AE  5002               	movf	??_carcontrol_ISR+1,w,c
  3895  0008B0  0A80               	xorlw	128
  3896  0008B2  6E03               	movwf	(??_carcontrol_ISR+2)& (0+255),c
  3897  0008B4  518E               	movf	(_stateTime+1)& (0+255),w,b
  3898  0008B6  0A80               	xorlw	128
  3899  0008B8  5803               	subwfb	(??_carcontrol_ISR+2)& (0+255),w,c
  3900  0008BA  A0D8               	btfss	status,0,c
  3901                           
  3902                           ; BSR set to: 0
  3903                           
  3904                           ;car_ctrl.c: 67:                 do { LATAbits.LATA1 = 0; } while(0);
  3905  0008BC  9282               	bcf	3970,1,c	;volatile
  3906                           
  3907                           ; BSR set to: 0
  3908                           ;car_ctrl.c: 69:             if (stateTime >= 100) {
  3909  0008BE  BF8E               	btfsc	(_stateTime+1)& (0+255),7,b
  3910  0008C0  0012               	return	
  3911  0008C2  518E               	movf	(_stateTime+1)& (0+255),w,b
  3912  0008C4  E104               	bnz	i2u170_40
  3913  0008C6  0E64               	movlw	100
  3914  0008C8  5D8D               	subwf	_stateTime& (0+255),w,b
  3915  0008CA  A0D8               	btfss	status,0,c
  3916  0008CC  0012               	return	
  3917  0008CE                     i2u170_40:
  3918                           
  3919                           ; BSR set to: 0
  3920                           ;car_ctrl.c: 70:                 carctl.state = state_low;
  3921  0008CE  0E03               	movlw	3
  3922  0008D0  6F88               	movwf	(_carctl+1)& (0+255),b	;volatile
  3923                           
  3924                           ;car_ctrl.c: 71:                 stateTime = 0;
  3925  0008D2  0E00               	movlw	0
  3926  0008D4  6F8E               	movwf	(_stateTime+1)& (0+255),b
  3927  0008D6  0E00               	movlw	0
  3928  0008D8  6F8D               	movwf	_stateTime& (0+255),b
  3929  0008DA  0012               	return	
  3930  0008DC                     i2l2761:
  3931                           
  3932                           ; BSR set to: 0
  3933                           ;car_ctrl.c: 75:             stateTime++;
  3934  0008DC  4B8D               	infsnz	_stateTime& (0+255),f,b
  3935  0008DE  2B8E               	incf	(_stateTime+1)& (0+255),f,b
  3936                           
  3937                           ; BSR set to: 0
  3938  0008E0  9082               	bcf	3970,0,c	;volatile
  3939                           
  3940                           ; BSR set to: 0
  3941  0008E2  9282               	bcf	3970,1,c	;volatile
  3942                           
  3943                           ; BSR set to: 0
  3944                           ;car_ctrl.c: 78:             if (stateTime >= 1800) {
  3945  0008E4  BF8E               	btfsc	(_stateTime+1)& (0+255),7,b
  3946  0008E6  0012               	return	
  3947  0008E8  0E08               	movlw	8
  3948  0008EA  5D8D               	subwf	_stateTime& (0+255),w,b
  3949  0008EC  0E07               	movlw	7
  3950  0008EE  598E               	subwfb	(_stateTime+1)& (0+255),w,b
  3951  0008F0  A0D8               	btfss	status,0,c
  3952  0008F2  0012               	return	
  3953                           
  3954                           ; BSR set to: 0
  3955                           ;car_ctrl.c: 79:                 carctl.state = state_high;
  3956  0008F4  0E01               	movlw	1
  3957  0008F6  6F88               	movwf	(_carctl+1)& (0+255),b	;volatile
  3958                           
  3959                           ;car_ctrl.c: 80:                 stateTime = 0;
  3960  0008F8  0E00               	movlw	0
  3961  0008FA  6F8E               	movwf	(_stateTime+1)& (0+255),b
  3962  0008FC  0E00               	movlw	0
  3963  0008FE  6F8D               	movwf	_stateTime& (0+255),b
  3964                           
  3965                           ; BSR set to: 0
  3966  000900  8082               	bsf	3970,0,c	;volatile
  3967                           
  3968                           ; BSR set to: 0
  3969  000902  9282               	bcf	3970,1,c	;volatile
  3970  000904  0012               	return	
  3971  000906                     i2l2777:
  3972  000906  0100               	movlb	0	; () banked
  3973  000908  5188               	movf	(_carctl+1)& (0+255),w,b	;volatile
  3974  00090A  6E01               	movwf	??_carcontrol_ISR& (0+255),c
  3975  00090C  6A02               	clrf	(??_carcontrol_ISR+1)& (0+255),c
  3976                           
  3977                           ; Switch on 2 bytes has been partitioned into a top level switch of size 1, and 1 sub-sw
      +                          itches
  3978                           ; Switch size 1, requested type "simple"
  3979                           ; Number of cases is 1, Range of values is 0 to 0
  3980                           ; switch strategies available:
  3981                           ; Name         Instructions Cycles
  3982                           ; simple_byte            4     3 (average)
  3983                           ;	Chosen strategy is simple_byte
  3984  00090E  5002               	movf	??_carcontrol_ISR+1,w,c
  3985  000910  0A00               	xorlw	0	; case 0
  3986  000912  A4D8               	btfss	status,2,c
  3987  000914  0012               	return	
  3988                           
  3989                           ; BSR set to: 0
  3990                           ; Switch size 1, requested type "simple"
  3991                           ; Number of cases is 4, Range of values is 0 to 3
  3992                           ; switch strategies available:
  3993                           ; Name         Instructions Cycles
  3994                           ; simple_byte           13     7 (average)
  3995                           ;	Chosen strategy is simple_byte
  3996  000916  5001               	movf	??_carcontrol_ISR,w,c
  3997  000918  0A00               	xorlw	0	; case 0
  3998  00091A  B4D8               	btfsc	status,2,c
  3999  00091C  D798               	goto	i2l2735
  4000  00091E  0A01               	xorlw	1	; case 1
  4001  000920  B4D8               	btfsc	status,2,c
  4002  000922  D79E               	goto	i2l2741
  4003  000924  0A03               	xorlw	3	; case 2
  4004  000926  B4D8               	btfsc	status,2,c
  4005  000928  D7AE               	goto	i2l2751
  4006  00092A  0A01               	xorlw	1	; case 3
  4007  00092C  A4D8               	btfss	status,2,c
  4008  00092E  0012               	return	
  4009  000930  D7D5               	goto	i2l2761
  4010  000932                     __end_of_carcontrol_ISR:
  4011                           	opt callstack 0
  4012                           
  4013 ;; *************** function _TMR1_ISR *****************
  4014 ;; Defined at:
  4015 ;;		line 164 in file "mcc_generated_files/tmr1.c"
  4016 ;; Parameters:    Size  Location     Type
  4017 ;;		None
  4018 ;; Auto vars:     Size  Location     Type
  4019 ;;		None
  4020 ;; Return value:  Size  Location     Type
  4021 ;;                  1    wreg      void 
  4022 ;; Registers used:
  4023 ;;		wreg, status,2, status,0, pclath, tosl, cstack
  4024 ;; Tracked objects:
  4025 ;;		On entry : 0/0
  4026 ;;		On exit  : 0/0
  4027 ;;		Unchanged: 0/0
  4028 ;; Data sizes:     COMRAM   BANK0   BANK1   BANK2   BANK3   BANK4   BANK5   BANK6   BANK7
  4029 ;;      Params:         0       0       0       0       0       0       0       0       0
  4030 ;;      Locals:         0       0       0       0       0       0       0       0       0
  4031 ;;      Temps:          0       0       0       0       0       0       0       0       0
  4032 ;;      Totals:         0       0       0       0       0       0       0       0       0
  4033 ;;Total ram usage:        0 bytes
  4034 ;; Hardware stack levels used:    1
  4035 ;; Hardware stack levels required when called:    2
  4036 ;; This function calls:
  4037 ;;		Absolute function
  4038 ;;		_TMR1_DefaultInterruptHandler
  4039 ;;		_ping_TMR1Overflow_isr
  4040 ;;		i2_TMR1_WriteTimer
  4041 ;; This function is called by:
  4042 ;;		_INTERRUPT_InterruptManager
  4043 ;; This function uses a non-reentrant model
  4044 ;;
  4045                           
  4046                           	psect	text34
  4047  000EFA                     __ptext34:
  4048                           	opt callstack 0
  4049  000EFA                     _TMR1_ISR:
  4050                           	opt callstack 24
  4051                           
  4052                           ;mcc_generated_files/tmr1.c: 168:     PIR4bits.TMR1IF = 0;
  4053                           
  4054                           ; BSR set to: 0
  4055                           ;incstack = 0
  4056  000EFA  010E               	movlb	14	; () banked
  4057  000EFC  91C9               	bcf	201,0,b	;volatile
  4058                           
  4059                           ; BSR set to: 14
  4060                           ;mcc_generated_files/tmr1.c: 169:     TMR1_WriteTimer(timer1ReloadVal);
  4061  000EFE  C056  F001         	movff	_timer1ReloadVal,i2TMR1_WriteTimer@timerVal	;volatile
  4062  000F02  C057  F002         	movff	_timer1ReloadVal+1,i2TMR1_WriteTimer@timerVal+1	;volatile
  4063  000F06  EC66  F008         	call	i2_TMR1_WriteTimer	;wreg free
  4064                           
  4065                           ;mcc_generated_files/tmr1.c: 171:     if(TMR1_InterruptHandler)
  4066  000F0A  5054               	movf	_TMR1_InterruptHandler,w,c
  4067  000F0C  1055               	iorwf	_TMR1_InterruptHandler+1,w,c
  4068  000F0E  B4D8               	btfsc	status,2,c
  4069  000F10  0012               	return	
  4070                           
  4071                           ;mcc_generated_files/tmr1.c: 172:     {;mcc_generated_files/tmr1.c: 173:         TMR1_In
      +                          terruptHandler();
  4072  000F12  D801               	call	i2u176_48
  4073  000F14  0012               	return	
  4074  000F16                     i2u176_48:
  4075  000F16  0005               	push	
  4076  000F18  6EFA               	movwf	pclath,c
  4077  000F1A  5054               	movf	_TMR1_InterruptHandler,w,c
  4078  000F1C  6EFD               	movwf	tosl,c
  4079  000F1E  5055               	movf	_TMR1_InterruptHandler+1,w,c
  4080  000F20  6EFE               	movwf	tosh,c
  4081  000F22  50F8               	movf	tblptru,w,c
  4082  000F24  6EFF               	movwf	tosu,c
  4083  000F26  50FA               	movf	pclath,w,c
  4084  000F28  0012               	return		;indir
  4085  000F2A                     __end_of_TMR1_ISR:
  4086                           	opt callstack 0
  4087                           
  4088 ;; *************** function _TMR1_DefaultInterruptHandler *****************
  4089 ;; Defined at:
  4090 ;;		line 182 in file "mcc_generated_files/tmr1.c"
  4091 ;; Parameters:    Size  Location     Type
  4092 ;;		None
  4093 ;; Auto vars:     Size  Location     Type
  4094 ;;		None
  4095 ;; Return value:  Size  Location     Type
  4096 ;;                  1    wreg      void 
  4097 ;; Registers used:
  4098 ;;		None
  4099 ;; Tracked objects:
  4100 ;;		On entry : 0/0
  4101 ;;		On exit  : 0/0
  4102 ;;		Unchanged: 0/0
  4103 ;; Data sizes:     COMRAM   BANK0   BANK1   BANK2   BANK3   BANK4   BANK5   BANK6   BANK7
  4104 ;;      Params:         0       0       0       0       0       0       0       0       0
  4105 ;;      Locals:         0       0       0       0       0       0       0       0       0
  4106 ;;      Temps:          0       0       0       0       0       0       0       0       0
  4107 ;;      Totals:         0       0       0       0       0       0       0       0       0
  4108 ;;Total ram usage:        0 bytes
  4109 ;; Hardware stack levels used:    1
  4110 ;; This function calls:
  4111 ;;		Nothing
  4112 ;; This function is called by:
  4113 ;;		_TMR1_Initialize
  4114 ;;		_ping_TMR1Overflow_isr
  4115 ;;		_ping_RC2_went_HIGH
  4116 ;;		_ping_init
  4117 ;;		_TMR1_ISR
  4118 ;; This function uses a non-reentrant model
  4119 ;;
  4120                           
  4121                           	psect	text35
  4122  0011AE                     __ptext35:
  4123                           	opt callstack 0
  4124  0011AE                     _TMR1_DefaultInterruptHandler:
  4125                           	opt callstack 25
  4126                           
  4127                           ;incstack = 0
  4128  0011AE  0012               	return		;funcret
  4129  0011B0                     __end_of_TMR1_DefaultInterruptHandler:
  4130                           	opt callstack 0
  4131                           
  4132 ;; *************** function _ping_TMR1Overflow_isr *****************
  4133 ;; Defined at:
  4134 ;;		line 54 in file "ping.c"
  4135 ;; Parameters:    Size  Location     Type
  4136 ;;		None
  4137 ;; Auto vars:     Size  Location     Type
  4138 ;;		None
  4139 ;; Return value:  Size  Location     Type
  4140 ;;                  1    wreg      void 
  4141 ;; Registers used:
  4142 ;;		wreg, status,2, status,0, cstack
  4143 ;; Tracked objects:
  4144 ;;		On entry : 0/0
  4145 ;;		On exit  : 0/0
  4146 ;;		Unchanged: 0/0
  4147 ;; Data sizes:     COMRAM   BANK0   BANK1   BANK2   BANK3   BANK4   BANK5   BANK6   BANK7
  4148 ;;      Params:         0       0       0       0       0       0       0       0       0
  4149 ;;      Locals:         0       0       0       0       0       0       0       0       0
  4150 ;;      Temps:          0       0       0       0       0       0       0       0       0
  4151 ;;      Totals:         0       0       0       0       0       0       0       0       0
  4152 ;;Total ram usage:        0 bytes
  4153 ;; Hardware stack levels used:    1
  4154 ;; Hardware stack levels required when called:    1
  4155 ;; This function calls:
  4156 ;;		i2_IOCCF2_SetInterruptHandler
  4157 ;;		i2_TMR1_SetInterruptHandler
  4158 ;; This function is called by:
  4159 ;;		_ping_send
  4160 ;;		_TMR1_ISR
  4161 ;; This function uses a non-reentrant model
  4162 ;;
  4163                           
  4164                           	psect	text36
  4165  001092                     __ptext36:
  4166                           	opt callstack 0
  4167  001092                     _ping_TMR1Overflow_isr:
  4168                           	opt callstack 24
  4169                           
  4170                           ;ping.c: 55:     TMR1_SetInterruptHandler(TMR1_DefaultInterruptHandler);
  4171                           
  4172                           ;incstack = 0
  4173  001092  0EAE               	movlw	low _TMR1_DefaultInterruptHandler
  4174  001094  6E01               	movwf	i2TMR1_SetInterruptHandler@InterruptHandler,c
  4175  001096  0E11               	movlw	high _TMR1_DefaultInterruptHandler
  4176  001098  6E02               	movwf	i2TMR1_SetInterruptHandler@InterruptHandler+1,c
  4177  00109A  ECBE  F008         	call	i2_TMR1_SetInterruptHandler	;wreg free
  4178  00109E  9484               	bcf	3972,2,c	;volatile
  4179  0010A0  8489               	bsf	3977,2,c	;volatile
  4180                           
  4181                           ;ping.c: 60:     IOCCF2_SetInterruptHandler(ping_RC2_went_HIGH);
  4182  0010A2  0E66               	movlw	low _ping_RC2_went_HIGH
  4183  0010A4  6E01               	movwf	i2IOCCF2_SetInterruptHandler@InterruptHandler,c
  4184  0010A6  0E0E               	movlw	high _ping_RC2_went_HIGH
  4185  0010A8  6E02               	movwf	i2IOCCF2_SetInterruptHandler@InterruptHandler+1,c
  4186  0010AA  ECC3  F008         	call	i2_IOCCF2_SetInterruptHandler	;wreg free
  4187  0010AE  0012               	return		;funcret
  4188  0010B0                     __end_of_ping_TMR1Overflow_isr:
  4189                           	opt callstack 0
  4190                           
  4191 ;; *************** function _PIN_MANAGER_IOC *****************
  4192 ;; Defined at:
  4193 ;;		line 126 in file "mcc_generated_files/pin_manager.c"
  4194 ;; Parameters:    Size  Location     Type
  4195 ;;		None
  4196 ;; Auto vars:     Size  Location     Type
  4197 ;;		None
  4198 ;; Return value:  Size  Location     Type
  4199 ;;                  1    wreg      void 
  4200 ;; Registers used:
  4201 ;;		wreg, status,2, status,0, pclath, tosl, cstack
  4202 ;; Tracked objects:
  4203 ;;		On entry : 0/0
  4204 ;;		On exit  : 0/0
  4205 ;;		Unchanged: 0/0
  4206 ;; Data sizes:     COMRAM   BANK0   BANK1   BANK2   BANK3   BANK4   BANK5   BANK6   BANK7
  4207 ;;      Params:         0       0       0       0       0       0       0       0       0
  4208 ;;      Locals:         0       0       0       0       0       0       0       0       0
  4209 ;;      Temps:          0       0       0       0       0       0       0       0       0
  4210 ;;      Totals:         0       0       0       0       0       0       0       0       0
  4211 ;;Total ram usage:        0 bytes
  4212 ;; Hardware stack levels used:    1
  4213 ;; Hardware stack levels required when called:    3
  4214 ;; This function calls:
  4215 ;;		_IOCCF2_ISR
  4216 ;; This function is called by:
  4217 ;;		_INTERRUPT_InterruptManager
  4218 ;; This function uses a non-reentrant model
  4219 ;;
  4220                           
  4221                           	psect	text37
  4222  001116                     __ptext37:
  4223                           	opt callstack 0
  4224  001116                     _PIN_MANAGER_IOC:
  4225                           	opt callstack 23
  4226                           
  4227                           ;mcc_generated_files/pin_manager.c: 129:     if(IOCCFbits.IOCCF2 == 1)
  4228                           
  4229                           ;incstack = 0
  4230  001116  010F               	movlb	15	; () banked
  4231  001118  A515               	btfss	21,2,b	;volatile
  4232  00111A  0012               	return	
  4233                           
  4234                           ; BSR set to: 15
  4235                           ;mcc_generated_files/pin_manager.c: 130:     {;mcc_generated_files/pin_manager.c: 131:  
      +                                 IOCCF2_ISR();
  4236  00111C  EC04  F008         	call	_IOCCF2_ISR	;wreg free
  4237  001120  0012               	return		;funcret
  4238  001122                     __end_of_PIN_MANAGER_IOC:
  4239                           	opt callstack 0
  4240                           
  4241 ;; *************** function _IOCCF2_ISR *****************
  4242 ;; Defined at:
  4243 ;;		line 138 in file "mcc_generated_files/pin_manager.c"
  4244 ;; Parameters:    Size  Location     Type
  4245 ;;		None
  4246 ;; Auto vars:     Size  Location     Type
  4247 ;;		None
  4248 ;; Return value:  Size  Location     Type
  4249 ;;                  1    wreg      void 
  4250 ;; Registers used:
  4251 ;;		wreg, status,2, status,0, pclath, tosl, cstack
  4252 ;; Tracked objects:
  4253 ;;		On entry : 0/0
  4254 ;;		On exit  : 0/0
  4255 ;;		Unchanged: 0/0
  4256 ;; Data sizes:     COMRAM   BANK0   BANK1   BANK2   BANK3   BANK4   BANK5   BANK6   BANK7
  4257 ;;      Params:         0       0       0       0       0       0       0       0       0
  4258 ;;      Locals:         0       0       0       0       0       0       0       0       0
  4259 ;;      Temps:          0       0       0       0       0       0       0       0       0
  4260 ;;      Totals:         0       0       0       0       0       0       0       0       0
  4261 ;;Total ram usage:        0 bytes
  4262 ;; Hardware stack levels used:    1
  4263 ;; Hardware stack levels required when called:    2
  4264 ;; This function calls:
  4265 ;;		Absolute function
  4266 ;;		_IOCCF2_DefaultInterruptHandler
  4267 ;;		_ping_RC2_went_HIGH
  4268 ;; This function is called by:
  4269 ;;		_PIN_MANAGER_IOC
  4270 ;; This function uses a non-reentrant model
  4271 ;;
  4272                           
  4273                           	psect	text38
  4274  001008                     __ptext38:
  4275                           	opt callstack 0
  4276  001008                     _IOCCF2_ISR:
  4277                           	opt callstack 23
  4278                           
  4279                           ;mcc_generated_files/pin_manager.c: 143:     if(IOCCF2_InterruptHandler)
  4280                           
  4281                           ;incstack = 0
  4282  001008  5058               	movf	_IOCCF2_InterruptHandler,w,c
  4283  00100A  1059               	iorwf	_IOCCF2_InterruptHandler+1,w,c
  4284  00100C  B4D8               	btfsc	status,2,c
  4285  00100E  D00C               	goto	i2u162_49
  4286                           
  4287                           ;mcc_generated_files/pin_manager.c: 144:     {;mcc_generated_files/pin_manager.c: 145:  
      +                                 IOCCF2_InterruptHandler();
  4288  001010  D801               	call	i2u162_48
  4289  001012  D00A               	goto	i2u162_49
  4290  001014                     i2u162_48:
  4291  001014  0005               	push	
  4292  001016  6EFA               	movwf	pclath,c
  4293  001018  5058               	movf	_IOCCF2_InterruptHandler,w,c
  4294  00101A  6EFD               	movwf	tosl,c
  4295  00101C  5059               	movf	_IOCCF2_InterruptHandler+1,w,c
  4296  00101E  6EFE               	movwf	tosh,c
  4297  001020  50F8               	movf	tblptru,w,c
  4298  001022  6EFF               	movwf	tosu,c
  4299  001024  50FA               	movf	pclath,w,c
  4300  001026  0012               	return		;indir
  4301  001028                     i2u162_49:
  4302                           
  4303                           ;mcc_generated_files/pin_manager.c: 147:     IOCCFbits.IOCCF2 = 0;
  4304  001028  010F               	movlb	15	; () banked
  4305  00102A  9515               	bcf	21,2,b	;volatile
  4306                           
  4307                           ; BSR set to: 15
  4308  00102C  0012               	return		;funcret
  4309  00102E                     __end_of_IOCCF2_ISR:
  4310                           	opt callstack 0
  4311                           
  4312 ;; *************** function _IOCCF2_DefaultInterruptHandler *****************
  4313 ;; Defined at:
  4314 ;;		line 160 in file "mcc_generated_files/pin_manager.c"
  4315 ;; Parameters:    Size  Location     Type
  4316 ;;		None
  4317 ;; Auto vars:     Size  Location     Type
  4318 ;;		None
  4319 ;; Return value:  Size  Location     Type
  4320 ;;                  1    wreg      void 
  4321 ;; Registers used:
  4322 ;;		None
  4323 ;; Tracked objects:
  4324 ;;		On entry : 0/0
  4325 ;;		On exit  : 0/0
  4326 ;;		Unchanged: 0/0
  4327 ;; Data sizes:     COMRAM   BANK0   BANK1   BANK2   BANK3   BANK4   BANK5   BANK6   BANK7
  4328 ;;      Params:         0       0       0       0       0       0       0       0       0
  4329 ;;      Locals:         0       0       0       0       0       0       0       0       0
  4330 ;;      Temps:          0       0       0       0       0       0       0       0       0
  4331 ;;      Totals:         0       0       0       0       0       0       0       0       0
  4332 ;;Total ram usage:        0 bytes
  4333 ;; Hardware stack levels used:    1
  4334 ;; This function calls:
  4335 ;;		Nothing
  4336 ;; This function is called by:
  4337 ;;		_PIN_MANAGER_Initialize
  4338 ;;		_ping_RC2_went_HIGH
  4339 ;;		_ping_init
  4340 ;;		_IOCCF2_ISR
  4341 ;; This function uses a non-reentrant model
  4342 ;;
  4343                           
  4344                           	psect	text39
  4345  0011B0                     __ptext39:
  4346                           	opt callstack 0
  4347  0011B0                     _IOCCF2_DefaultInterruptHandler:
  4348                           	opt callstack 24
  4349                           
  4350                           ; BSR set to: 15
  4351                           ;incstack = 0
  4352  0011B0  0012               	return		;funcret
  4353  0011B2                     __end_of_IOCCF2_DefaultInterruptHandler:
  4354                           	opt callstack 0
  4355                           
  4356 ;; *************** function _ping_RC2_went_HIGH *****************
  4357 ;; Defined at:
  4358 ;;		line 66 in file "ping.c"
  4359 ;; Parameters:    Size  Location     Type
  4360 ;;		None
  4361 ;; Auto vars:     Size  Location     Type
  4362 ;;		None
  4363 ;; Return value:  Size  Location     Type
  4364 ;;                  1    wreg      void 
  4365 ;; Registers used:
  4366 ;;		wreg, status,2, status,0, cstack
  4367 ;; Tracked objects:
  4368 ;;		On entry : 0/0
  4369 ;;		On exit  : 0/0
  4370 ;;		Unchanged: 0/0
  4371 ;; Data sizes:     COMRAM   BANK0   BANK1   BANK2   BANK3   BANK4   BANK5   BANK6   BANK7
  4372 ;;      Params:         0       0       0       0       0       0       0       0       0
  4373 ;;      Locals:         0       0       0       0       0       0       0       0       0
  4374 ;;      Temps:          0       0       0       0       0       0       0       0       0
  4375 ;;      Totals:         0       0       0       0       0       0       0       0       0
  4376 ;;Total ram usage:        0 bytes
  4377 ;; Hardware stack levels used:    1
  4378 ;; Hardware stack levels required when called:    1
  4379 ;; This function calls:
  4380 ;;		i2_IOCCF2_SetInterruptHandler
  4381 ;;		i2_TMR1_SetInterruptHandler
  4382 ;;		i2_TMR1_StartTimer
  4383 ;;		i2_TMR1_WriteTimer
  4384 ;; This function is called by:
  4385 ;;		_ping_TMR1Overflow_isr
  4386 ;;		_IOCCF2_ISR
  4387 ;; This function uses a non-reentrant model
  4388 ;;
  4389                           
  4390                           	psect	text40
  4391  000E66                     __ptext40:
  4392                           	opt callstack 0
  4393  000E66                     _ping_RC2_went_HIGH:
  4394                           	opt callstack 23
  4395                           
  4396                           ;ping.c: 67:     IOCCF2_SetInterruptHandler(IOCCF2_DefaultInterruptHandler);
  4397                           
  4398                           ;incstack = 0
  4399  000E66  0EB0               	movlw	low _IOCCF2_DefaultInterruptHandler
  4400  000E68  6E01               	movwf	i2IOCCF2_SetInterruptHandler@InterruptHandler,c
  4401  000E6A  0E11               	movlw	high _IOCCF2_DefaultInterruptHandler
  4402  000E6C  6E02               	movwf	i2IOCCF2_SetInterruptHandler@InterruptHandler+1,c
  4403  000E6E  ECC3  F008         	call	i2_IOCCF2_SetInterruptHandler	;wreg free
  4404                           
  4405                           ;ping.c: 68:     TMR1_SetInterruptHandler(TMR1_DefaultInterruptHandler);
  4406  000E72  0EAE               	movlw	low _TMR1_DefaultInterruptHandler
  4407  000E74  6E01               	movwf	i2TMR1_SetInterruptHandler@InterruptHandler,c
  4408  000E76  0E11               	movlw	high _TMR1_DefaultInterruptHandler
  4409  000E78  6E02               	movwf	i2TMR1_SetInterruptHandler@InterruptHandler+1,c
  4410  000E7A  ECBE  F008         	call	i2_TMR1_SetInterruptHandler	;wreg free
  4411                           
  4412                           ;ping.c: 70:     TMR1_WriteTimer(0);
  4413  000E7E  0E00               	movlw	0
  4414  000E80  6E02               	movwf	i2TMR1_WriteTimer@timerVal+1,c
  4415  000E82  0E00               	movlw	0
  4416  000E84  6E01               	movwf	i2TMR1_WriteTimer@timerVal,c
  4417  000E86  EC66  F008         	call	i2_TMR1_WriteTimer	;wreg free
  4418                           
  4419                           ;ping.c: 71:     TMR1_StartTimer();
  4420  000E8A  ECD2  F008         	call	i2_TMR1_StartTimer	;wreg free
  4421  000E8E  8482               	bsf	3970,2,c	;volatile
  4422                           
  4423                           ;ping.c: 74:     PIR6 = 0;
  4424  000E90  0E00               	movlw	0
  4425  000E92  010E               	movlb	14	; () banked
  4426  000E94  6FCB               	movwf	203,b	;volatile
  4427                           
  4428                           ; BSR set to: 14
  4429                           ;ping.c: 75:     PIE6bits.CCP1IE = 1;
  4430  000E96  81C3               	bsf	195,0,b	;volatile
  4431                           
  4432                           ; BSR set to: 14
  4433  000E98  0012               	return		;funcret
  4434  000E9A                     __end_of_ping_RC2_went_HIGH:
  4435                           	opt callstack 0
  4436                           
  4437 ;; *************** function i2_TMR1_WriteTimer *****************
  4438 ;; Defined at:
  4439 ;;		line 127 in file "mcc_generated_files/tmr1.c"
  4440 ;; Parameters:    Size  Location     Type
  4441 ;;  timerVal        2    0[COMRAM] unsigned short 
  4442 ;; Auto vars:     Size  Location     Type
  4443 ;;		None
  4444 ;; Return value:  Size  Location     Type
  4445 ;;                  1    wreg      void 
  4446 ;; Registers used:
  4447 ;;		wreg, status,2
  4448 ;; Tracked objects:
  4449 ;;		On entry : 0/0
  4450 ;;		On exit  : 0/0
  4451 ;;		Unchanged: 0/0
  4452 ;; Data sizes:     COMRAM   BANK0   BANK1   BANK2   BANK3   BANK4   BANK5   BANK6   BANK7
  4453 ;;      Params:         2       0       0       0       0       0       0       0       0
  4454 ;;      Locals:         0       0       0       0       0       0       0       0       0
  4455 ;;      Temps:          0       0       0       0       0       0       0       0       0
  4456 ;;      Totals:         2       0       0       0       0       0       0       0       0
  4457 ;;Total ram usage:        2 bytes
  4458 ;; Hardware stack levels used:    1
  4459 ;; This function calls:
  4460 ;;		Nothing
  4461 ;; This function is called by:
  4462 ;;		_TMR1_ISR
  4463 ;;		_ping_RC2_went_HIGH
  4464 ;; This function uses a non-reentrant model
  4465 ;;
  4466                           
  4467                           	psect	text41
  4468  0010CC                     __ptext41:
  4469                           	opt callstack 0
  4470  0010CC                     i2_TMR1_WriteTimer:
  4471                           	opt callstack 25
  4472                           
  4473                           ;mcc_generated_files/tmr1.c: 127: void TMR1_WriteTimer(uint16_t timerVal);mcc_generated_
      +                          files/tmr1.c: 128: {;mcc_generated_files/tmr1.c: 129:     if (T1CONbits.nT1SYNC == 1)
  4474                           
  4475                           ; BSR set to: 14
  4476                           ;incstack = 0
  4477  0010CC  A4CE               	btfss	4046,2,c	;volatile
  4478  0010CE  D007               	goto	i2l2379
  4479                           
  4480                           ;mcc_generated_files/tmr1.c: 130:     {;mcc_generated_files/tmr1.c: 132:         T1CONbi
      +                          ts.TMR1ON = 0;
  4481  0010D0  90CE               	bcf	4046,0,c	;volatile
  4482                           
  4483                           ;mcc_generated_files/tmr1.c: 135:         TMR1H = (timerVal >> 8);
  4484  0010D2  5002               	movf	i2TMR1_WriteTimer@timerVal+1,w,c
  4485  0010D4  6ECD               	movwf	4045,c	;volatile
  4486                           
  4487                           ;mcc_generated_files/tmr1.c: 136:         TMR1L = timerVal;
  4488  0010D6  C001  FFCC         	movff	i2TMR1_WriteTimer@timerVal,4044	;volatile
  4489                           
  4490                           ;mcc_generated_files/tmr1.c: 139:         T1CONbits.TMR1ON =1;
  4491  0010DA  80CE               	bsf	4046,0,c	;volatile
  4492                           
  4493                           ;mcc_generated_files/tmr1.c: 140:     }
  4494  0010DC  0012               	return	
  4495  0010DE                     i2l2379:
  4496                           
  4497                           ;mcc_generated_files/tmr1.c: 142:     {;mcc_generated_files/tmr1.c: 144:         TMR1H =
      +                           (timerVal >> 8);
  4498  0010DE  5002               	movf	i2TMR1_WriteTimer@timerVal+1,w,c
  4499  0010E0  6ECD               	movwf	4045,c	;volatile
  4500                           
  4501                           ;mcc_generated_files/tmr1.c: 145:         TMR1L = timerVal;
  4502  0010E2  C001  FFCC         	movff	i2TMR1_WriteTimer@timerVal,4044	;volatile
  4503  0010E6  0012               	return		;funcret
  4504  0010E8                     __end_ofi2_TMR1_WriteTimer:
  4505                           	opt callstack 0
  4506                           
  4507 ;; *************** function i2_TMR1_StartTimer *****************
  4508 ;; Defined at:
  4509 ;;		line 99 in file "mcc_generated_files/tmr1.c"
  4510 ;; Parameters:    Size  Location     Type
  4511 ;;		None
  4512 ;; Auto vars:     Size  Location     Type
  4513 ;;		None
  4514 ;; Return value:  Size  Location     Type
  4515 ;;                  1    wreg      void 
  4516 ;; Registers used:
  4517 ;;		None
  4518 ;; Tracked objects:
  4519 ;;		On entry : 0/0
  4520 ;;		On exit  : 0/0
  4521 ;;		Unchanged: 0/0
  4522 ;; Data sizes:     COMRAM   BANK0   BANK1   BANK2   BANK3   BANK4   BANK5   BANK6   BANK7
  4523 ;;      Params:         0       0       0       0       0       0       0       0       0
  4524 ;;      Locals:         0       0       0       0       0       0       0       0       0
  4525 ;;      Temps:          0       0       0       0       0       0       0       0       0
  4526 ;;      Totals:         0       0       0       0       0       0       0       0       0
  4527 ;;Total ram usage:        0 bytes
  4528 ;; Hardware stack levels used:    1
  4529 ;; This function calls:
  4530 ;;		Nothing
  4531 ;; This function is called by:
  4532 ;;		_ping_RC2_went_HIGH
  4533 ;; This function uses a non-reentrant model
  4534 ;;
  4535                           
  4536                           	psect	text42
  4537  0011A4                     __ptext42:
  4538                           	opt callstack 0
  4539  0011A4                     i2_TMR1_StartTimer:
  4540                           	opt callstack 23
  4541                           
  4542                           ;mcc_generated_files/tmr1.c: 102:     T1CONbits.TMR1ON = 1;
  4543                           
  4544                           ;incstack = 0
  4545  0011A4  80CE               	bsf	4046,0,c	;volatile
  4546  0011A6  0012               	return		;funcret
  4547  0011A8                     __end_ofi2_TMR1_StartTimer:
  4548                           	opt callstack 0
  4549                           
  4550 ;; *************** function i2_TMR1_SetInterruptHandler *****************
  4551 ;; Defined at:
  4552 ;;		line 178 in file "mcc_generated_files/tmr1.c"
  4553 ;; Parameters:    Size  Location     Type
  4554 ;;  InterruptHan    2    0[COMRAM] PTR FTN()void 
  4555 ;;		 -> ping_TMR1Overflow_isr(1), TMR1_DefaultInterruptHandler(1), 
  4556 ;; Auto vars:     Size  Location     Type
  4557 ;;		None
  4558 ;; Return value:  Size  Location     Type
  4559 ;;                  1    wreg      void 
  4560 ;; Registers used:
  4561 ;;		wreg, status,2, status,0
  4562 ;; Tracked objects:
  4563 ;;		On entry : 0/0
  4564 ;;		On exit  : 0/0
  4565 ;;		Unchanged: 0/0
  4566 ;; Data sizes:     COMRAM   BANK0   BANK1   BANK2   BANK3   BANK4   BANK5   BANK6   BANK7
  4567 ;;      Params:         2       0       0       0       0       0       0       0       0
  4568 ;;      Locals:         0       0       0       0       0       0       0       0       0
  4569 ;;      Temps:          0       0       0       0       0       0       0       0       0
  4570 ;;      Totals:         2       0       0       0       0       0       0       0       0
  4571 ;;Total ram usage:        2 bytes
  4572 ;; Hardware stack levels used:    1
  4573 ;; This function calls:
  4574 ;;		Nothing
  4575 ;; This function is called by:
  4576 ;;		_ping_TMR1Overflow_isr
  4577 ;;		_ping_RC2_went_HIGH
  4578 ;; This function uses a non-reentrant model
  4579 ;;
  4580                           
  4581                           	psect	text43
  4582  00117C                     __ptext43:
  4583                           	opt callstack 0
  4584  00117C                     i2_TMR1_SetInterruptHandler:
  4585                           	opt callstack 24
  4586                           
  4587                           ;mcc_generated_files/tmr1.c: 179:     TMR1_InterruptHandler = InterruptHandler;
  4588                           
  4589                           ;incstack = 0
  4590  00117C  C001  F054         	movff	i2TMR1_SetInterruptHandler@InterruptHandler,_TMR1_InterruptHandler
  4591  001180  C002  F055         	movff	i2TMR1_SetInterruptHandler@InterruptHandler+1,_TMR1_InterruptHandler+1
  4592  001184  0012               	return		;funcret
  4593  001186                     __end_ofi2_TMR1_SetInterruptHandler:
  4594                           	opt callstack 0
  4595                           
  4596 ;; *************** function i2_IOCCF2_SetInterruptHandler *****************
  4597 ;; Defined at:
  4598 ;;		line 153 in file "mcc_generated_files/pin_manager.c"
  4599 ;; Parameters:    Size  Location     Type
  4600 ;;  InterruptHan    2    0[COMRAM] PTR FTN()void 
  4601 ;;		 -> ping_RC2_went_HIGH(1), IOCCF2_DefaultInterruptHandler(1), 
  4602 ;; Auto vars:     Size  Location     Type
  4603 ;;		None
  4604 ;; Return value:  Size  Location     Type
  4605 ;;                  1    wreg      void 
  4606 ;; Registers used:
  4607 ;;		wreg, status,2, status,0
  4608 ;; Tracked objects:
  4609 ;;		On entry : 0/0
  4610 ;;		On exit  : 0/0
  4611 ;;		Unchanged: 0/0
  4612 ;; Data sizes:     COMRAM   BANK0   BANK1   BANK2   BANK3   BANK4   BANK5   BANK6   BANK7
  4613 ;;      Params:         2       0       0       0       0       0       0       0       0
  4614 ;;      Locals:         0       0       0       0       0       0       0       0       0
  4615 ;;      Temps:          0       0       0       0       0       0       0       0       0
  4616 ;;      Totals:         2       0       0       0       0       0       0       0       0
  4617 ;;Total ram usage:        2 bytes
  4618 ;; Hardware stack levels used:    1
  4619 ;; This function calls:
  4620 ;;		Nothing
  4621 ;; This function is called by:
  4622 ;;		_ping_TMR1Overflow_isr
  4623 ;;		_ping_RC2_went_HIGH
  4624 ;; This function uses a non-reentrant model
  4625 ;;
  4626                           
  4627                           	psect	text44
  4628  001186                     __ptext44:
  4629                           	opt callstack 0
  4630  001186                     i2_IOCCF2_SetInterruptHandler:
  4631                           	opt callstack 24
  4632                           
  4633                           ;mcc_generated_files/pin_manager.c: 154:     IOCCF2_InterruptHandler = InterruptHandler;
  4634                           
  4635                           ;incstack = 0
  4636  001186  C001  F058         	movff	i2IOCCF2_SetInterruptHandler@InterruptHandler,_IOCCF2_InterruptHandler
  4637  00118A  C002  F059         	movff	i2IOCCF2_SetInterruptHandler@InterruptHandler+1,_IOCCF2_InterruptHandler+1
  4638  00118E  0012               	return		;funcret
  4639  001190                     __end_ofi2_IOCCF2_SetInterruptHandler:
  4640                           	opt callstack 0
  4641                           
  4642 ;; *************** function _EUSART1_Transmit_ISR *****************
  4643 ;; Defined at:
  4644 ;;		line 203 in file "mcc_generated_files/eusart1.c"
  4645 ;; Parameters:    Size  Location     Type
  4646 ;;		None
  4647 ;; Auto vars:     Size  Location     Type
  4648 ;;		None
  4649 ;; Return value:  Size  Location     Type
  4650 ;;                  1    wreg      void 
  4651 ;; Registers used:
  4652 ;;		wreg, fsr2l, fsr2h, status,2, status,0
  4653 ;; Tracked objects:
  4654 ;;		On entry : 0/0
  4655 ;;		On exit  : 0/0
  4656 ;;		Unchanged: 0/0
  4657 ;; Data sizes:     COMRAM   BANK0   BANK1   BANK2   BANK3   BANK4   BANK5   BANK6   BANK7
  4658 ;;      Params:         0       0       0       0       0       0       0       0       0
  4659 ;;      Locals:         0       0       0       0       0       0       0       0       0
  4660 ;;      Temps:          0       0       0       0       0       0       0       0       0
  4661 ;;      Totals:         0       0       0       0       0       0       0       0       0
  4662 ;;Total ram usage:        0 bytes
  4663 ;; Hardware stack levels used:    1
  4664 ;; This function calls:
  4665 ;;		Nothing
  4666 ;; This function is called by:
  4667 ;;		_EUSART1_Initialize
  4668 ;;		_INTERRUPT_InterruptManager
  4669 ;; This function uses a non-reentrant model
  4670 ;;
  4671                           
  4672                           	psect	text45
  4673  000F86                     __ptext45:
  4674                           	opt callstack 0
  4675  000F86                     _EUSART1_Transmit_ISR:
  4676                           	opt callstack 26
  4677                           
  4678                           ;mcc_generated_files/eusart1.c: 207:     if(sizeof(eusart1TxBuffer) > eusart1TxBufferRem
      +                          aining)
  4679                           
  4680                           ;incstack = 0
  4681  000F86  0E08               	movlw	8
  4682  000F88  0100               	movlb	0	; () banked
  4683  000F8A  6186               	cpfslt	_eusart1TxBufferRemaining& (0+255),b	;volatile
  4684  000F8C  D010               	goto	i2l463
  4685                           
  4686                           ; BSR set to: 0
  4687                           ;mcc_generated_files/eusart1.c: 208:     {;mcc_generated_files/eusart1.c: 209:         T
      +                          X1REG = eusart1TxBuffer[eusart1TxTail++];
  4688  000F8E  0E4A               	movlw	low _eusart1TxBuffer
  4689  000F90  2591               	addwf	_eusart1TxTail& (0+255),w,b	;volatile
  4690  000F92  6ED9               	movwf	fsr2l,c
  4691  000F94  6ADA               	clrf	fsr2h,c
  4692  000F96  0E00               	movlw	high _eusart1TxBuffer
  4693  000F98  22DA               	addwfc	fsr2h,f,c
  4694  000F9A  50DF               	movf	indf2,w,c
  4695  000F9C  6E99               	movwf	3993,c	;volatile
  4696                           
  4697                           ; BSR set to: 0
  4698  000F9E  2B91               	incf	_eusart1TxTail& (0+255),f,b	;volatile
  4699                           
  4700                           ; BSR set to: 0
  4701                           ;mcc_generated_files/eusart1.c: 210:         if(sizeof(eusart1TxBuffer) <= eusart1TxTail
      +                          )
  4702  000FA0  0E07               	movlw	7
  4703  000FA2  6591               	cpfsgt	_eusart1TxTail& (0+255),b	;volatile
  4704  000FA4  D002               	goto	i2l2891
  4705                           
  4706                           ; BSR set to: 0
  4707                           ;mcc_generated_files/eusart1.c: 211:         {;mcc_generated_files/eusart1.c: 212:      
      +                                 eusart1TxTail = 0;
  4708  000FA6  0E00               	movlw	0
  4709  000FA8  6F91               	movwf	_eusart1TxTail& (0+255),b	;volatile
  4710  000FAA                     i2l2891:
  4711                           
  4712                           ; BSR set to: 0
  4713                           ;mcc_generated_files/eusart1.c: 214:         eusart1TxBufferRemaining++;
  4714  000FAA  2B86               	incf	_eusart1TxBufferRemaining& (0+255),f,b	;volatile
  4715                           
  4716                           ;mcc_generated_files/eusart1.c: 215:     }
  4717  000FAC  0012               	return	
  4718  000FAE                     i2l463:
  4719                           
  4720                           ; BSR set to: 0
  4721                           ;mcc_generated_files/eusart1.c: 217:     {;mcc_generated_files/eusart1.c: 218:         P
      +                          IE3bits.TX1IE = 0;
  4722  000FAE  010E               	movlb	14	; () banked
  4723  000FB0  99C0               	bcf	192,4,b	;volatile
  4724  000FB2  0012               	return		;funcret
  4725  000FB4                     __end_of_EUSART1_Transmit_ISR:
  4726                           	opt callstack 0
  4727                           
  4728 ;; *************** function _EUSART1_Receive_ISR *****************
  4729 ;; Defined at:
  4730 ;;		line 222 in file "mcc_generated_files/eusart1.c"
  4731 ;; Parameters:    Size  Location     Type
  4732 ;;		None
  4733 ;; Auto vars:     Size  Location     Type
  4734 ;;		None
  4735 ;; Return value:  Size  Location     Type
  4736 ;;                  1    wreg      void 
  4737 ;; Registers used:
  4738 ;;		wreg, fsr2l, fsr2h, status,2, status,0, pclath, tosl, cstack
  4739 ;; Tracked objects:
  4740 ;;		On entry : 0/0
  4741 ;;		On exit  : 0/0
  4742 ;;		Unchanged: 0/0
  4743 ;; Data sizes:     COMRAM   BANK0   BANK1   BANK2   BANK3   BANK4   BANK5   BANK6   BANK7
  4744 ;;      Params:         0       0       0       0       0       0       0       0       0
  4745 ;;      Locals:         0       0       0       0       0       0       0       0       0
  4746 ;;      Temps:          0       0       0       0       0       0       0       0       0
  4747 ;;      Totals:         0       0       0       0       0       0       0       0       0
  4748 ;;Total ram usage:        0 bytes
  4749 ;; Hardware stack levels used:    1
  4750 ;; Hardware stack levels required when called:    2
  4751 ;; This function calls:
  4752 ;;		Absolute function
  4753 ;;		_EUSART1_DefaultErrorHandler
  4754 ;;		_EUSART1_DefaultFramingErrorHandler
  4755 ;;		_EUSART1_DefaultOverrunErrorHandler
  4756 ;;		_EUSART1_RxDataHandler
  4757 ;; This function is called by:
  4758 ;;		_EUSART1_Initialize
  4759 ;;		_INTERRUPT_InterruptManager
  4760 ;; This function uses a non-reentrant model
  4761 ;;
  4762                           
  4763                           	psect	text46
  4764  000ABC                     __ptext46:
  4765                           	opt callstack 0
  4766  000ABC                     _EUSART1_Receive_ISR:
  4767                           	opt callstack 24
  4768                           
  4769                           ;mcc_generated_files/eusart1.c: 225:     eusart1RxStatusBuffer[eusart1RxHead].status = 0
      +                          ;
  4770                           
  4771                           ;incstack = 0
  4772  000ABC  0E3A               	movlw	low _eusart1RxStatusBuffer
  4773  000ABE  0100               	movlb	0	; () banked
  4774  000AC0  2590               	addwf	_eusart1RxHead& (0+255),w,b	;volatile
  4775  000AC2  6ED9               	movwf	fsr2l,c
  4776  000AC4  6ADA               	clrf	fsr2h,c
  4777  000AC6  0E00               	movlw	high _eusart1RxStatusBuffer
  4778  000AC8  22DA               	addwfc	fsr2h,f,c
  4779  000ACA  0E00               	movlw	0
  4780  000ACC  6EDF               	movwf	indf2,c
  4781                           
  4782                           ; BSR set to: 0
  4783                           ;mcc_generated_files/eusart1.c: 227:     if(RC1STAbits.FERR){
  4784  000ACE  A49C               	btfss	3996,2,c	;volatile
  4785  000AD0  D013               	goto	i2u186_49
  4786                           
  4787                           ; BSR set to: 0
  4788                           ;mcc_generated_files/eusart1.c: 228:         eusart1RxStatusBuffer[eusart1RxHead].ferr =
      +                           1;
  4789  000AD2  0E3A               	movlw	low _eusart1RxStatusBuffer
  4790  000AD4  2590               	addwf	_eusart1RxHead& (0+255),w,b	;volatile
  4791  000AD6  6ED9               	movwf	fsr2l,c
  4792  000AD8  6ADA               	clrf	fsr2h,c
  4793  000ADA  0E00               	movlw	high _eusart1RxStatusBuffer
  4794  000ADC  22DA               	addwfc	fsr2h,f,c
  4795  000ADE  82DF               	bsf	indf2,1,c
  4796                           
  4797                           ; BSR set to: 0
  4798                           ;mcc_generated_files/eusart1.c: 229:         EUSART1_FramingErrorHandler();
  4799  000AE0  D801               	call	i2u186_48
  4800  000AE2  D00A               	goto	i2u186_49
  4801  000AE4                     i2u186_48:
  4802  000AE4  0005               	push	
  4803  000AE6  6EFA               	movwf	pclath,c
  4804  000AE8  517E               	movf	_EUSART1_FramingErrorHandler& (0+255),w,b
  4805  000AEA  6EFD               	movwf	tosl,c
  4806  000AEC  517F               	movf	(_EUSART1_FramingErrorHandler+1)& (0+255),w,b
  4807  000AEE  6EFE               	movwf	tosh,c
  4808  000AF0  50F8               	movf	tblptru,w,c
  4809  000AF2  6EFF               	movwf	tosu,c
  4810  000AF4  50FA               	movf	pclath,w,c
  4811  000AF6  0012               	return		;indir
  4812  000AF8                     i2u186_49:
  4813                           
  4814                           ;mcc_generated_files/eusart1.c: 232:     if(RC1STAbits.OERR){
  4815  000AF8  A29C               	btfss	3996,1,c	;volatile
  4816  000AFA  D014               	goto	i2u188_49
  4817                           
  4818                           ;mcc_generated_files/eusart1.c: 233:         eusart1RxStatusBuffer[eusart1RxHead].oerr =
      +                           1;
  4819  000AFC  0E3A               	movlw	low _eusart1RxStatusBuffer
  4820  000AFE  0100               	movlb	0	; () banked
  4821  000B00  2590               	addwf	_eusart1RxHead& (0+255),w,b	;volatile
  4822  000B02  6ED9               	movwf	fsr2l,c
  4823  000B04  6ADA               	clrf	fsr2h,c
  4824  000B06  0E00               	movlw	high _eusart1RxStatusBuffer
  4825  000B08  22DA               	addwfc	fsr2h,f,c
  4826  000B0A  84DF               	bsf	indf2,2,c
  4827                           
  4828                           ; BSR set to: 0
  4829                           ;mcc_generated_files/eusart1.c: 234:         EUSART1_OverrunErrorHandler();
  4830  000B0C  D801               	call	i2u188_48
  4831  000B0E  D00A               	goto	i2u188_49
  4832  000B10                     i2u188_48:
  4833  000B10  0005               	push	
  4834  000B12  6EFA               	movwf	pclath,c
  4835  000B14  517C               	movf	_EUSART1_OverrunErrorHandler& (0+255),w,b
  4836  000B16  6EFD               	movwf	tosl,c
  4837  000B18  517D               	movf	(_EUSART1_OverrunErrorHandler+1)& (0+255),w,b
  4838  000B1A  6EFE               	movwf	tosh,c
  4839  000B1C  50F8               	movf	tblptru,w,c
  4840  000B1E  6EFF               	movwf	tosu,c
  4841  000B20  50FA               	movf	pclath,w,c
  4842  000B22  0012               	return		;indir
  4843  000B24                     i2u188_49:
  4844                           
  4845                           ;mcc_generated_files/eusart1.c: 237:     if(eusart1RxStatusBuffer[eusart1RxHead].status)
      +                          {
  4846  000B24  0E3A               	movlw	low _eusart1RxStatusBuffer
  4847  000B26  0100               	movlb	0	; () banked
  4848  000B28  2590               	addwf	_eusart1RxHead& (0+255),w,b	;volatile
  4849  000B2A  6ED9               	movwf	fsr2l,c
  4850  000B2C  6ADA               	clrf	fsr2h,c
  4851  000B2E  0E00               	movlw	high _eusart1RxStatusBuffer
  4852  000B30  22DA               	addwfc	fsr2h,f,c
  4853  000B32  50DF               	movf	indf2,w,c
  4854  000B34  B4D8               	btfsc	status,2,c
  4855  000B36  D00C               	goto	i2l2911
  4856                           
  4857                           ; BSR set to: 0
  4858                           ;mcc_generated_files/eusart1.c: 238:         EUSART1_ErrorHandler();
  4859  000B38  D801               	call	i2u190_48
  4860  000B3A  0012               	return	
  4861  000B3C                     i2u190_48:
  4862  000B3C  0005               	push	
  4863  000B3E  6EFA               	movwf	pclath,c
  4864  000B40  517A               	movf	_EUSART1_ErrorHandler& (0+255),w,b
  4865  000B42  6EFD               	movwf	tosl,c
  4866  000B44  517B               	movf	(_EUSART1_ErrorHandler+1)& (0+255),w,b
  4867  000B46  6EFE               	movwf	tosh,c
  4868  000B48  50F8               	movf	tblptru,w,c
  4869  000B4A  6EFF               	movwf	tosu,c
  4870  000B4C  50FA               	movf	pclath,w,c
  4871  000B4E  0012               	return		;indir
  4872  000B50                     i2l2911:
  4873                           
  4874                           ; BSR set to: 0
  4875                           ;mcc_generated_files/eusart1.c: 240:         EUSART1_RxDataHandler();
  4876  000B50  EC28  F008         	call	_EUSART1_RxDataHandler	;wreg free
  4877  000B54  0012               	return		;funcret
  4878  000B56                     __end_of_EUSART1_Receive_ISR:
  4879                           	opt callstack 0
  4880                           
  4881 ;; *************** function _EUSART1_DefaultOverrunErrorHandler *****************
  4882 ;; Defined at:
  4883 ;;		line 258 in file "mcc_generated_files/eusart1.c"
  4884 ;; Parameters:    Size  Location     Type
  4885 ;;		None
  4886 ;; Auto vars:     Size  Location     Type
  4887 ;;		None
  4888 ;; Return value:  Size  Location     Type
  4889 ;;                  1    wreg      void 
  4890 ;; Registers used:
  4891 ;;		None
  4892 ;; Tracked objects:
  4893 ;;		On entry : 0/0
  4894 ;;		On exit  : 0/0
  4895 ;;		Unchanged: 0/0
  4896 ;; Data sizes:     COMRAM   BANK0   BANK1   BANK2   BANK3   BANK4   BANK5   BANK6   BANK7
  4897 ;;      Params:         0       0       0       0       0       0       0       0       0
  4898 ;;      Locals:         0       0       0       0       0       0       0       0       0
  4899 ;;      Temps:          0       0       0       0       0       0       0       0       0
  4900 ;;      Totals:         0       0       0       0       0       0       0       0       0
  4901 ;;Total ram usage:        0 bytes
  4902 ;; Hardware stack levels used:    1
  4903 ;; This function calls:
  4904 ;;		Nothing
  4905 ;; This function is called by:
  4906 ;;		_EUSART1_Initialize
  4907 ;;		_EUSART1_Receive_ISR
  4908 ;; This function uses a non-reentrant model
  4909 ;;
  4910                           
  4911                           	psect	text47
  4912  001190                     __ptext47:
  4913                           	opt callstack 0
  4914  001190                     _EUSART1_DefaultOverrunErrorHandler:
  4915                           	opt callstack 25
  4916                           
  4917                           ;mcc_generated_files/eusart1.c: 261:     RC1STAbits.CREN = 0;
  4918                           
  4919                           ;incstack = 0
  4920  001190  989C               	bcf	3996,4,c	;volatile
  4921                           
  4922                           ;mcc_generated_files/eusart1.c: 262:     RC1STAbits.CREN = 1;
  4923  001192  889C               	bsf	3996,4,c	;volatile
  4924  001194  0012               	return		;funcret
  4925  001196                     __end_of_EUSART1_DefaultOverrunErrorHandler:
  4926                           	opt callstack 0
  4927                           
  4928 ;; *************** function _EUSART1_DefaultFramingErrorHandler *****************
  4929 ;; Defined at:
  4930 ;;		line 256 in file "mcc_generated_files/eusart1.c"
  4931 ;; Parameters:    Size  Location     Type
  4932 ;;		None
  4933 ;; Auto vars:     Size  Location     Type
  4934 ;;		None
  4935 ;; Return value:  Size  Location     Type
  4936 ;;                  1    wreg      void 
  4937 ;; Registers used:
  4938 ;;		None
  4939 ;; Tracked objects:
  4940 ;;		On entry : 0/0
  4941 ;;		On exit  : 0/0
  4942 ;;		Unchanged: 0/0
  4943 ;; Data sizes:     COMRAM   BANK0   BANK1   BANK2   BANK3   BANK4   BANK5   BANK6   BANK7
  4944 ;;      Params:         0       0       0       0       0       0       0       0       0
  4945 ;;      Locals:         0       0       0       0       0       0       0       0       0
  4946 ;;      Temps:          0       0       0       0       0       0       0       0       0
  4947 ;;      Totals:         0       0       0       0       0       0       0       0       0
  4948 ;;Total ram usage:        0 bytes
  4949 ;; Hardware stack levels used:    1
  4950 ;; This function calls:
  4951 ;;		Nothing
  4952 ;; This function is called by:
  4953 ;;		_EUSART1_Initialize
  4954 ;;		_EUSART1_Receive_ISR
  4955 ;; This function uses a non-reentrant model
  4956 ;;
  4957                           
  4958                           	psect	text48
  4959  0011B2                     __ptext48:
  4960                           	opt callstack 0
  4961  0011B2                     _EUSART1_DefaultFramingErrorHandler:
  4962                           	opt callstack 25
  4963                           
  4964                           ;incstack = 0
  4965  0011B2  0012               	return		;funcret
  4966  0011B4                     __end_of_EUSART1_DefaultFramingErrorHandler:
  4967                           	opt callstack 0
  4968                           
  4969 ;; *************** function _EUSART1_DefaultErrorHandler *****************
  4970 ;; Defined at:
  4971 ;;		line 266 in file "mcc_generated_files/eusart1.c"
  4972 ;; Parameters:    Size  Location     Type
  4973 ;;		None
  4974 ;; Auto vars:     Size  Location     Type
  4975 ;;		None
  4976 ;; Return value:  Size  Location     Type
  4977 ;;                  1    wreg      void 
  4978 ;; Registers used:
  4979 ;;		wreg, fsr2l, fsr2h, status,2, status,0, cstack
  4980 ;; Tracked objects:
  4981 ;;		On entry : 0/0
  4982 ;;		On exit  : 0/0
  4983 ;;		Unchanged: 0/0
  4984 ;; Data sizes:     COMRAM   BANK0   BANK1   BANK2   BANK3   BANK4   BANK5   BANK6   BANK7
  4985 ;;      Params:         0       0       0       0       0       0       0       0       0
  4986 ;;      Locals:         0       0       0       0       0       0       0       0       0
  4987 ;;      Temps:          0       0       0       0       0       0       0       0       0
  4988 ;;      Totals:         0       0       0       0       0       0       0       0       0
  4989 ;;Total ram usage:        0 bytes
  4990 ;; Hardware stack levels used:    1
  4991 ;; Hardware stack levels required when called:    1
  4992 ;; This function calls:
  4993 ;;		_EUSART1_RxDataHandler
  4994 ;; This function is called by:
  4995 ;;		_EUSART1_Initialize
  4996 ;;		_EUSART1_Receive_ISR
  4997 ;; This function uses a non-reentrant model
  4998 ;;
  4999                           
  5000                           	psect	text49
  5001  001196                     __ptext49:
  5002                           	opt callstack 0
  5003  001196                     _EUSART1_DefaultErrorHandler:
  5004                           	opt callstack 24
  5005                           
  5006                           ;mcc_generated_files/eusart1.c: 267:     EUSART1_RxDataHandler();
  5007                           
  5008                           ;incstack = 0
  5009  001196  EC28  F008         	call	_EUSART1_RxDataHandler	;wreg free
  5010  00119A  0012               	return		;funcret
  5011  00119C                     __end_of_EUSART1_DefaultErrorHandler:
  5012                           	opt callstack 0
  5013                           
  5014 ;; *************** function _EUSART1_RxDataHandler *****************
  5015 ;; Defined at:
  5016 ;;		line 246 in file "mcc_generated_files/eusart1.c"
  5017 ;; Parameters:    Size  Location     Type
  5018 ;;		None
  5019 ;; Auto vars:     Size  Location     Type
  5020 ;;		None
  5021 ;; Return value:  Size  Location     Type
  5022 ;;                  1    wreg      void 
  5023 ;; Registers used:
  5024 ;;		wreg, fsr2l, fsr2h, status,2, status,0
  5025 ;; Tracked objects:
  5026 ;;		On entry : 0/0
  5027 ;;		On exit  : 0/0
  5028 ;;		Unchanged: 0/0
  5029 ;; Data sizes:     COMRAM   BANK0   BANK1   BANK2   BANK3   BANK4   BANK5   BANK6   BANK7
  5030 ;;      Params:         0       0       0       0       0       0       0       0       0
  5031 ;;      Locals:         0       0       0       0       0       0       0       0       0
  5032 ;;      Temps:          0       0       0       0       0       0       0       0       0
  5033 ;;      Totals:         0       0       0       0       0       0       0       0       0
  5034 ;;Total ram usage:        0 bytes
  5035 ;; Hardware stack levels used:    1
  5036 ;; This function calls:
  5037 ;;		Nothing
  5038 ;; This function is called by:
  5039 ;;		_EUSART1_Receive_ISR
  5040 ;;		_EUSART1_DefaultErrorHandler
  5041 ;; This function uses a non-reentrant model
  5042 ;;
  5043                           
  5044                           	psect	text50
  5045  001050                     __ptext50:
  5046                           	opt callstack 0
  5047  001050                     _EUSART1_RxDataHandler:
  5048                           	opt callstack 25
  5049                           
  5050                           ;mcc_generated_files/eusart1.c: 248:     eusart1RxBuffer[eusart1RxHead++] = RC1REG;
  5051                           
  5052                           ;incstack = 0
  5053  001050  0E42               	movlw	low _eusart1RxBuffer
  5054  001052  0100               	movlb	0	; () banked
  5055  001054  2590               	addwf	_eusart1RxHead& (0+255),w,b	;volatile
  5056  001056  6ED9               	movwf	fsr2l,c
  5057  001058  6ADA               	clrf	fsr2h,c
  5058  00105A  0E00               	movlw	high _eusart1RxBuffer
  5059  00105C  22DA               	addwfc	fsr2h,f,c
  5060  00105E  CF98 FFDF          	movff	3992,indf2	;volatile
  5061                           
  5062                           ; BSR set to: 0
  5063  001062  2B90               	incf	_eusart1RxHead& (0+255),f,b	;volatile
  5064                           
  5065                           ; BSR set to: 0
  5066                           ;mcc_generated_files/eusart1.c: 249:     if(sizeof(eusart1RxBuffer) <= eusart1RxHead)
  5067  001064  0E07               	movlw	7
  5068  001066  6590               	cpfsgt	_eusart1RxHead& (0+255),b	;volatile
  5069  001068  D002               	goto	i2l2411
  5070                           
  5071                           ; BSR set to: 0
  5072                           ;mcc_generated_files/eusart1.c: 250:     {;mcc_generated_files/eusart1.c: 251:         e
      +                          usart1RxHead = 0;
  5073  00106A  0E00               	movlw	0
  5074  00106C  6F90               	movwf	_eusart1RxHead& (0+255),b	;volatile
  5075  00106E                     i2l2411:
  5076                           
  5077                           ; BSR set to: 0
  5078                           ;mcc_generated_files/eusart1.c: 253:     eusart1RxCount++;
  5079  00106E  2A52               	incf	_eusart1RxCount,f,c	;volatile
  5080                           
  5081                           ; BSR set to: 0
  5082  001070  0012               	return		;funcret
  5083  001072                     __end_of_EUSART1_RxDataHandler:
  5084                           	opt callstack 0
  5085                           
  5086 ;; *************** function _CCP1_CaptureISR *****************
  5087 ;; Defined at:
  5088 ;;		line 94 in file "mcc_generated_files/ccp1.c"
  5089 ;; Parameters:    Size  Location     Type
  5090 ;;		None
  5091 ;; Auto vars:     Size  Location     Type
  5092 ;;  module          2   41[COMRAM] struct CCPR1Reg_tag
  5093 ;; Return value:  Size  Location     Type
  5094 ;;                  1    wreg      void 
  5095 ;; Registers used:
  5096 ;;		wreg, status,2, status,0, pclath, tosl, prodl, prodh, cstack
  5097 ;; Tracked objects:
  5098 ;;		On entry : 0/0
  5099 ;;		On exit  : 0/0
  5100 ;;		Unchanged: 0/0
  5101 ;; Data sizes:     COMRAM   BANK0   BANK1   BANK2   BANK3   BANK4   BANK5   BANK6   BANK7
  5102 ;;      Params:         0       0       0       0       0       0       0       0       0
  5103 ;;      Locals:         2       0       0       0       0       0       0       0       0
  5104 ;;      Temps:          0       0       0       0       0       0       0       0       0
  5105 ;;      Totals:         2       0       0       0       0       0       0       0       0
  5106 ;;Total ram usage:        2 bytes
  5107 ;; Hardware stack levels used:    1
  5108 ;; Hardware stack levels required when called:    2
  5109 ;; This function calls:
  5110 ;;		Absolute function
  5111 ;;		_CCP1_DefaultCallBack
  5112 ;;		_ping_CCP1_triggered
  5113 ;; This function is called by:
  5114 ;;		_INTERRUPT_InterruptManager
  5115 ;; This function uses a non-reentrant model
  5116 ;;
  5117                           
  5118                           	psect	text51
  5119  000FB4                     __ptext51:
  5120                           	opt callstack 0
  5121  000FB4                     _CCP1_CaptureISR:
  5122                           	opt callstack 24
  5123                           
  5124                           ;mcc_generated_files/ccp1.c: 96:     CCP1_PERIOD_REG_T module;;mcc_generated_files/ccp1.
      +                          c: 99:     PIR6bits.CCP1IF = 0;
  5125                           
  5126                           ; BSR set to: 0
  5127                           ;incstack = 0
  5128  000FB4  010E               	movlb	14	; () banked
  5129  000FB6  91CB               	bcf	203,0,b	;volatile
  5130                           
  5131                           ;mcc_generated_files/ccp1.c: 102:     module.ccpr1l = CCPR1L;
  5132  000FB8  CFA9 F02A          	movff	4009,CCP1_CaptureISR@module	;volatile
  5133                           
  5134                           ;mcc_generated_files/ccp1.c: 103:     module.ccpr1h = CCPR1H;
  5135  000FBC  CFAA F02B          	movff	4010,CCP1_CaptureISR@module+1	;volatile
  5136                           
  5137                           ; BSR set to: 14
  5138                           ;mcc_generated_files/ccp1.c: 106:     CCP1_CallBack(module.ccpr1_16Bit);
  5139  000FC0  C02A  F028         	movff	CCP1_CaptureISR@module,ping_CCP1_triggered@timeOfFlight
  5140  000FC4  C02B  F029         	movff	CCP1_CaptureISR@module+1,ping_CCP1_triggered@timeOfFlight+1
  5141  000FC8  D801               	call	i2u177_48
  5142  000FCA  0012               	return	
  5143  000FCC                     i2u177_48:
  5144  000FCC  0005               	push	
  5145  000FCE  0100               	movlb	0	; () banked
  5146  000FD0  6EFA               	movwf	pclath,c
  5147  000FD2  5180               	movf	_CCP1_CallBack& (0+255),w,b
  5148  000FD4  6EFD               	movwf	tosl,c
  5149  000FD6  5181               	movf	(_CCP1_CallBack+1)& (0+255),w,b
  5150  000FD8  6EFE               	movwf	tosh,c
  5151  000FDA  50F8               	movf	tblptru,w,c
  5152  000FDC  6EFF               	movwf	tosu,c
  5153  000FDE  50FA               	movf	pclath,w,c
  5154  000FE0  0012               	return		;indir
  5155  000FE2                     __end_of_CCP1_CaptureISR:
  5156                           	opt callstack 0
  5157                           
  5158 ;; *************** function _CCP1_DefaultCallBack *****************
  5159 ;; Defined at:
  5160 ;;		line 60 in file "mcc_generated_files/ccp1.c"
  5161 ;; Parameters:    Size  Location     Type
  5162 ;;  capturedValu    2   39[COMRAM] unsigned short 
  5163 ;; Auto vars:     Size  Location     Type
  5164 ;;		None
  5165 ;; Return value:  Size  Location     Type
  5166 ;;                  1    wreg      void 
  5167 ;; Registers used:
  5168 ;;		None
  5169 ;; Tracked objects:
  5170 ;;		On entry : 0/0
  5171 ;;		On exit  : 0/0
  5172 ;;		Unchanged: 0/0
  5173 ;; Data sizes:     COMRAM   BANK0   BANK1   BANK2   BANK3   BANK4   BANK5   BANK6   BANK7
  5174 ;;      Params:         2       0       0       0       0       0       0       0       0
  5175 ;;      Locals:         0       0       0       0       0       0       0       0       0
  5176 ;;      Temps:          0       0       0       0       0       0       0       0       0
  5177 ;;      Totals:         2       0       0       0       0       0       0       0       0
  5178 ;;Total ram usage:        2 bytes
  5179 ;; Hardware stack levels used:    1
  5180 ;; This function calls:
  5181 ;;		Nothing
  5182 ;; This function is called by:
  5183 ;;		_CCP1_Initialize
  5184 ;;		_CCP1_CaptureISR
  5185 ;; This function uses a non-reentrant model
  5186 ;;
  5187                           
  5188                           	psect	text52
  5189  0011B4                     __ptext52:
  5190                           	opt callstack 0
  5191  0011B4                     _CCP1_DefaultCallBack:
  5192                           	opt callstack 25
  5193                           
  5194                           ;incstack = 0
  5195  0011B4  0012               	return		;funcret
  5196  0011B6                     __end_of_CCP1_DefaultCallBack:
  5197                           	opt callstack 0
  5198                           
  5199 ;; *************** function _ping_CCP1_triggered *****************
  5200 ;; Defined at:
  5201 ;;		line 83 in file "ping.c"
  5202 ;; Parameters:    Size  Location     Type
  5203 ;;  timeOfFlight    2   39[COMRAM] unsigned short 
  5204 ;; Auto vars:     Size  Location     Type
  5205 ;;		None
  5206 ;; Return value:  Size  Location     Type
  5207 ;;                  1    wreg      void 
  5208 ;; Registers used:
  5209 ;;		wreg, status,2, status,0, prodl, prodh, cstack
  5210 ;; Tracked objects:
  5211 ;;		On entry : 0/0
  5212 ;;		On exit  : 0/0
  5213 ;;		Unchanged: 0/0
  5214 ;; Data sizes:     COMRAM   BANK0   BANK1   BANK2   BANK3   BANK4   BANK5   BANK6   BANK7
  5215 ;;      Params:         2       0       0       0       0       0       0       0       0
  5216 ;;      Locals:         0       0       0       0       0       0       0       0       0
  5217 ;;      Temps:          0       0       0       0       0       0       0       0       0
  5218 ;;      Totals:         2       0       0       0       0       0       0       0       0
  5219 ;;Total ram usage:        2 bytes
  5220 ;; Hardware stack levels used:    1
  5221 ;; Hardware stack levels required when called:    1
  5222 ;; This function calls:
  5223 ;;		___flmul
  5224 ;;		___xxtofl
  5225 ;; This function is called by:
  5226 ;;		_ping_init
  5227 ;;		_CCP1_CaptureISR
  5228 ;; This function uses a non-reentrant model
  5229 ;;
  5230                           
  5231                           	psect	text53
  5232  000CCE                     __ptext53:
  5233                           	opt callstack 0
  5234  000CCE                     _ping_CCP1_triggered:
  5235                           	opt callstack 24
  5236                           
  5237                           ;ping.c: 84:     status.tof = timeOfFlight;
  5238                           
  5239                           ;incstack = 0
  5240  000CCE  C028  F038         	movff	ping_CCP1_triggered@timeOfFlight,_status+6	;volatile
  5241  000CD2  C029  F039         	movff	ping_CCP1_triggered@timeOfFlight+1,_status+7	;volatile
  5242                           
  5243                           ;ping.c: 85:     status.pingStarted = 0;
  5244  000CD6  0E00               	movlw	0
  5245  000CD8  6E37               	movwf	_status+5,c	;volatile
  5246                           
  5247                           ;ping.c: 86:     status.readReady = 1;
  5248  000CDA  0E01               	movlw	1
  5249  000CDC  6E32               	movwf	_status,c	;volatile
  5250                           
  5251                           ;ping.c: 87:     PIE6bits.CCP1IE = 0;
  5252  000CDE  010E               	movlb	14	; () banked
  5253  000CE0  91C3               	bcf	195,0,b	;volatile
  5254                           
  5255                           ; BSR set to: 14
  5256  000CE2  9482               	bcf	3970,2,c	;volatile
  5257                           
  5258                           ; BSR set to: 14
  5259                           ;ping.c: 89:     status.measurment = 0.017 * timeOfFlight;
  5260  000CE4  C028  F001         	movff	ping_CCP1_triggered@timeOfFlight,___xxtofl@val
  5261  000CE8  C029  F002         	movff	ping_CCP1_triggered@timeOfFlight+1,___xxtofl@val+1
  5262  000CEC  6A03               	clrf	___xxtofl@val+2,c
  5263  000CEE  6A04               	clrf	___xxtofl@val+3,c
  5264  000CF0  0E00               	movlw	0
  5265  000CF2  EC86  F003         	call	___xxtofl
  5266  000CF6  C001  F00F         	movff	?___xxtofl,___flmul@b
  5267  000CFA  C002  F010         	movff	?___xxtofl+1,___flmul@b+1
  5268  000CFE  C003  F011         	movff	?___xxtofl+2,___flmul@b+2
  5269  000D02  C004  F012         	movff	?___xxtofl+3,___flmul@b+3
  5270  000D06  0E96               	movlw	150
  5271  000D08  6E13               	movwf	___flmul@a,c
  5272  000D0A  0E43               	movlw	67
  5273  000D0C  6E14               	movwf	___flmul@a+1,c
  5274  000D0E  0E8B               	movlw	139
  5275  000D10  6E15               	movwf	___flmul@a+2,c
  5276  000D12  0E3C               	movlw	60
  5277  000D14  6E16               	movwf	___flmul@a+3,c
  5278  000D16  EC56  F000         	call	___flmul	;wreg free
  5279  000D1A  C00F  F033         	movff	?___flmul,_status+1	;volatile
  5280  000D1E  C010  F034         	movff	?___flmul+1,_status+2	;volatile
  5281  000D22  C011  F035         	movff	?___flmul+2,_status+3	;volatile
  5282  000D26  C012  F036         	movff	?___flmul+3,_status+4	;volatile
  5283                           
  5284                           ;ping.c: 90:     status.readReady = 1;
  5285  000D2A  0E01               	movlw	1
  5286  000D2C  6E32               	movwf	_status,c	;volatile
  5287                           
  5288                           ;ping.c: 91:     status.pingStarted = 0;
  5289  000D2E  0E00               	movlw	0
  5290  000D30  6E37               	movwf	_status+5,c	;volatile
  5291  000D32  0012               	return		;funcret
  5292  000D34                     __end_of_ping_CCP1_triggered:
  5293                           	opt callstack 0
  5294                           
  5295 ;; *************** function ___xxtofl *****************
  5296 ;; Defined at:
  5297 ;;		line 10 in file "/Applications/microchip/xc8/v2.05/pic/sources/c99/common/xxtofl.c"
  5298 ;; Parameters:    Size  Location     Type
  5299 ;;  sign            1    wreg     unsigned char 
  5300 ;;  val             4    0[COMRAM] long 
  5301 ;; Auto vars:     Size  Location     Type
  5302 ;;  sign            1    8[COMRAM] unsigned char 
  5303 ;;  arg             4   10[COMRAM] unsigned long 
  5304 ;;  exp             1    9[COMRAM] unsigned char 
  5305 ;; Return value:  Size  Location     Type
  5306 ;;                  4    0[COMRAM] unsigned char 
  5307 ;; Registers used:
  5308 ;;		wreg, status,2, status,0
  5309 ;; Tracked objects:
  5310 ;;		On entry : 0/0
  5311 ;;		On exit  : 0/0
  5312 ;;		Unchanged: 0/0
  5313 ;; Data sizes:     COMRAM   BANK0   BANK1   BANK2   BANK3   BANK4   BANK5   BANK6   BANK7
  5314 ;;      Params:         4       0       0       0       0       0       0       0       0
  5315 ;;      Locals:         6       0       0       0       0       0       0       0       0
  5316 ;;      Temps:          4       0       0       0       0       0       0       0       0
  5317 ;;      Totals:        14       0       0       0       0       0       0       0       0
  5318 ;;Total ram usage:       14 bytes
  5319 ;; Hardware stack levels used:    1
  5320 ;; This function calls:
  5321 ;;		Nothing
  5322 ;; This function is called by:
  5323 ;;		_ping_CCP1_triggered
  5324 ;; This function uses a non-reentrant model
  5325 ;;
  5326                           
  5327                           	psect	text54
  5328  00070C                     __ptext54:
  5329                           	opt callstack 0
  5330  00070C                     ___xxtofl:
  5331                           	opt callstack 24
  5332                           
  5333                           ;incstack = 0
  5334                           ;___xxtofl@sign stored from wreg
  5335  00070C  6E09               	movwf	___xxtofl@sign,c
  5336  00070E  5009               	movf	___xxtofl@sign,w,c
  5337  000710  A4D8               	btfss	status,2,c
  5338  000712  AE04               	btfss	___xxtofl@val+3,7,c
  5339  000714  D01A               	goto	i2l1345
  5340  000716  C001  F005         	movff	___xxtofl@val,??___xxtofl
  5341  00071A  C002  F006         	movff	___xxtofl@val+1,??___xxtofl+1
  5342  00071E  C003  F007         	movff	___xxtofl@val+2,??___xxtofl+2
  5343  000722  C004  F008         	movff	___xxtofl@val+3,??___xxtofl+3
  5344  000726  1E05               	comf	??___xxtofl,f,c
  5345  000728  1E06               	comf	??___xxtofl+1,f,c
  5346  00072A  1E07               	comf	??___xxtofl+2,f,c
  5347  00072C  1E08               	comf	??___xxtofl+3,f,c
  5348  00072E  2A05               	incf	??___xxtofl,f,c
  5349  000730  0E00               	movlw	0
  5350  000732  2206               	addwfc	??___xxtofl+1,f,c
  5351  000734  2207               	addwfc	??___xxtofl+2,f,c
  5352  000736  2208               	addwfc	??___xxtofl+3,f,c
  5353  000738  C005  F00B         	movff	??___xxtofl,___xxtofl@arg
  5354  00073C  C006  F00C         	movff	??___xxtofl+1,___xxtofl@arg+1
  5355  000740  C007  F00D         	movff	??___xxtofl+2,___xxtofl@arg+2
  5356  000744  C008  F00E         	movff	??___xxtofl+3,___xxtofl@arg+3
  5357  000748  D008               	goto	i2l2561
  5358  00074A                     i2l1345:
  5359  00074A  C001  F00B         	movff	___xxtofl@val,___xxtofl@arg
  5360  00074E  C002  F00C         	movff	___xxtofl@val+1,___xxtofl@arg+1
  5361  000752  C003  F00D         	movff	___xxtofl@val+2,___xxtofl@arg+2
  5362  000756  C004  F00E         	movff	___xxtofl@val+3,___xxtofl@arg+3
  5363  00075A                     i2l2561:
  5364  00075A  5001               	movf	___xxtofl@val,w,c
  5365  00075C  1002               	iorwf	___xxtofl@val+1,w,c
  5366  00075E  1003               	iorwf	___xxtofl@val+2,w,c
  5367  000760  1004               	iorwf	___xxtofl@val+3,w,c
  5368  000762  A4D8               	btfss	status,2,c
  5369  000764  D009               	goto	i2l2567
  5370  000766  0E00               	movlw	0
  5371  000768  6E01               	movwf	?___xxtofl,c
  5372  00076A  0E00               	movlw	0
  5373  00076C  6E02               	movwf	?___xxtofl+1,c
  5374  00076E  0E00               	movlw	0
  5375  000770  6E03               	movwf	?___xxtofl+2,c
  5376  000772  0E00               	movlw	0
  5377  000774  6E04               	movwf	?___xxtofl+3,c
  5378  000776  0012               	return	
  5379  000778                     i2l2567:
  5380  000778  0E96               	movlw	150
  5381  00077A  6E0A               	movwf	___xxtofl@exp,c
  5382  00077C  D006               	goto	i2l2571
  5383  00077E                     i2l2569:
  5384  00077E  2A0A               	incf	___xxtofl@exp,f,c
  5385  000780  90D8               	bcf	status,0,c
  5386  000782  320E               	rrcf	___xxtofl@arg+3,f,c
  5387  000784  320D               	rrcf	___xxtofl@arg+2,f,c
  5388  000786  320C               	rrcf	___xxtofl@arg+1,f,c
  5389  000788  320B               	rrcf	___xxtofl@arg,f,c
  5390  00078A                     i2l2571:
  5391  00078A  0E00               	movlw	0
  5392  00078C  140B               	andwf	___xxtofl@arg,w,c
  5393  00078E  6E05               	movwf	??___xxtofl& (0+255),c
  5394  000790  0E00               	movlw	0
  5395  000792  140C               	andwf	___xxtofl@arg+1,w,c
  5396  000794  6E06               	movwf	(??___xxtofl+1)& (0+255),c
  5397  000796  0E00               	movlw	0
  5398  000798  140D               	andwf	___xxtofl@arg+2,w,c
  5399  00079A  6E07               	movwf	(??___xxtofl+2)& (0+255),c
  5400  00079C  0EFE               	movlw	254
  5401  00079E  140E               	andwf	___xxtofl@arg+3,w,c
  5402  0007A0  6E08               	movwf	(??___xxtofl+3)& (0+255),c
  5403  0007A2  5005               	movf	??___xxtofl,w,c
  5404  0007A4  1006               	iorwf	??___xxtofl+1,w,c
  5405  0007A6  1007               	iorwf	??___xxtofl+2,w,c
  5406  0007A8  1008               	iorwf	??___xxtofl+3,w,c
  5407  0007AA  B4D8               	btfsc	status,2,c
  5408  0007AC  D00D               	goto	i2l1352
  5409  0007AE  D7E7               	goto	i2l2569
  5410  0007B0                     i2l2573:
  5411  0007B0  2A0A               	incf	___xxtofl@exp,f,c
  5412  0007B2  0E01               	movlw	1
  5413  0007B4  260B               	addwf	___xxtofl@arg,f,c
  5414  0007B6  0E00               	movlw	0
  5415  0007B8  220C               	addwfc	___xxtofl@arg+1,f,c
  5416  0007BA  220D               	addwfc	___xxtofl@arg+2,f,c
  5417  0007BC  220E               	addwfc	___xxtofl@arg+3,f,c
  5418  0007BE  90D8               	bcf	status,0,c
  5419  0007C0  320E               	rrcf	___xxtofl@arg+3,f,c
  5420  0007C2  320D               	rrcf	___xxtofl@arg+2,f,c
  5421  0007C4  320C               	rrcf	___xxtofl@arg+1,f,c
  5422  0007C6  320B               	rrcf	___xxtofl@arg,f,c
  5423  0007C8                     i2l1352:
  5424  0007C8  0E00               	movlw	0
  5425  0007CA  140B               	andwf	___xxtofl@arg,w,c
  5426  0007CC  6E05               	movwf	??___xxtofl& (0+255),c
  5427  0007CE  0E00               	movlw	0
  5428  0007D0  140C               	andwf	___xxtofl@arg+1,w,c
  5429  0007D2  6E06               	movwf	(??___xxtofl+1)& (0+255),c
  5430  0007D4  0E00               	movlw	0
  5431  0007D6  140D               	andwf	___xxtofl@arg+2,w,c
  5432  0007D8  6E07               	movwf	(??___xxtofl+2)& (0+255),c
  5433  0007DA  0EFF               	movlw	255
  5434  0007DC  140E               	andwf	___xxtofl@arg+3,w,c
  5435  0007DE  6E08               	movwf	(??___xxtofl+3)& (0+255),c
  5436  0007E0  5005               	movf	??___xxtofl,w,c
  5437  0007E2  1006               	iorwf	??___xxtofl+1,w,c
  5438  0007E4  1007               	iorwf	??___xxtofl+2,w,c
  5439  0007E6  1008               	iorwf	??___xxtofl+3,w,c
  5440  0007E8  B4D8               	btfsc	status,2,c
  5441  0007EA  D007               	goto	i2l2581
  5442  0007EC  D7E1               	goto	i2l2573
  5443  0007EE                     i2l2579:
  5444  0007EE  060A               	decf	___xxtofl@exp,f,c
  5445  0007F0  90D8               	bcf	status,0,c
  5446  0007F2  360B               	rlcf	___xxtofl@arg,f,c
  5447  0007F4  360C               	rlcf	___xxtofl@arg+1,f,c
  5448  0007F6  360D               	rlcf	___xxtofl@arg+2,f,c
  5449  0007F8  360E               	rlcf	___xxtofl@arg+3,f,c
  5450  0007FA                     i2l2581:
  5451  0007FA  BE0D               	btfsc	___xxtofl@arg+2,7,c
  5452  0007FC  D003               	goto	i2u157_40
  5453  0007FE  0E02               	movlw	2
  5454  000800  600A               	cpfslt	___xxtofl@exp,c
  5455  000802  D7F5               	goto	i2l2579
  5456  000804                     i2u157_40:
  5457  000804  A00A               	btfss	___xxtofl@exp,0,c
  5458  000806  9E0D               	bcf	___xxtofl@arg+2,7,c
  5459  000808  90D8               	bcf	status,0,c
  5460  00080A  320A               	rrcf	___xxtofl@exp,f,c
  5461  00080C  C00A  F005         	movff	___xxtofl@exp,??___xxtofl
  5462  000810  6A06               	clrf	(??___xxtofl+1)& (0+255),c
  5463  000812  6A07               	clrf	(??___xxtofl+2)& (0+255),c
  5464  000814  6A08               	clrf	(??___xxtofl+3)& (0+255),c
  5465  000816  C005  F008         	movff	??___xxtofl,??___xxtofl+3
  5466  00081A  6A07               	clrf	??___xxtofl+2,c
  5467  00081C  6A06               	clrf	??___xxtofl+1,c
  5468  00081E  6A05               	clrf	??___xxtofl,c
  5469  000820  5005               	movf	??___xxtofl,w,c
  5470  000822  120B               	iorwf	___xxtofl@arg,f,c
  5471  000824  5006               	movf	??___xxtofl+1,w,c
  5472  000826  120C               	iorwf	___xxtofl@arg+1,f,c
  5473  000828  5007               	movf	??___xxtofl+2,w,c
  5474  00082A  120D               	iorwf	___xxtofl@arg+2,f,c
  5475  00082C  5008               	movf	??___xxtofl+3,w,c
  5476  00082E  120E               	iorwf	___xxtofl@arg+3,f,c
  5477  000830  5009               	movf	___xxtofl@sign,w,c
  5478  000832  A4D8               	btfss	status,2,c
  5479  000834  AE04               	btfss	___xxtofl@val+3,7,c
  5480  000836  D001               	goto	i2l2597
  5481  000838  8E0E               	bsf	___xxtofl@arg+3,7,c
  5482  00083A                     i2l2597:
  5483  00083A  C00B  F001         	movff	___xxtofl@arg,?___xxtofl
  5484  00083E  C00C  F002         	movff	___xxtofl@arg+1,?___xxtofl+1
  5485  000842  C00D  F003         	movff	___xxtofl@arg+2,?___xxtofl+2
  5486  000846  C00E  F004         	movff	___xxtofl@arg+3,?___xxtofl+3
  5487  00084A  0012               	return		;funcret
  5488  00084C                     __end_of___xxtofl:
  5489                           	opt callstack 0
  5490                           
  5491 ;; *************** function ___flmul *****************
  5492 ;; Defined at:
  5493 ;;		line 8 in file "/Applications/microchip/xc8/v2.05/pic/sources/c99/common/sprcmul.c"
  5494 ;; Parameters:    Size  Location     Type
  5495 ;;  b               4   14[COMRAM] unsigned char 
  5496 ;;  a               4   18[COMRAM] unsigned char 
  5497 ;; Auto vars:     Size  Location     Type
  5498 ;;  prod            4   33[COMRAM] struct .
  5499 ;;  grs             4   27[COMRAM] unsigned long 
  5500 ;;  temp            2   37[COMRAM] struct .
  5501 ;;  bexp            1   32[COMRAM] unsigned char 
  5502 ;;  aexp            1   31[COMRAM] unsigned char 
  5503 ;;  sign            1   26[COMRAM] unsigned char 
  5504 ;; Return value:  Size  Location     Type
  5505 ;;                  4   14[COMRAM] unsigned char 
  5506 ;; Registers used:
  5507 ;;		wreg, status,2, status,0, prodl, prodh
  5508 ;; Tracked objects:
  5509 ;;		On entry : 0/0
  5510 ;;		On exit  : 0/0
  5511 ;;		Unchanged: 0/0
  5512 ;; Data sizes:     COMRAM   BANK0   BANK1   BANK2   BANK3   BANK4   BANK5   BANK6   BANK7
  5513 ;;      Params:         8       0       0       0       0       0       0       0       0
  5514 ;;      Locals:        13       0       0       0       0       0       0       0       0
  5515 ;;      Temps:          4       0       0       0       0       0       0       0       0
  5516 ;;      Totals:        25       0       0       0       0       0       0       0       0
  5517 ;;Total ram usage:       25 bytes
  5518 ;; Hardware stack levels used:    1
  5519 ;; This function calls:
  5520 ;;		Nothing
  5521 ;; This function is called by:
  5522 ;;		_ping_CCP1_triggered
  5523 ;; This function uses a non-reentrant model
  5524 ;;
  5525                           
  5526                           	psect	text55
  5527  0000AC                     __ptext55:
  5528                           	opt callstack 0
  5529  0000AC                     ___flmul:
  5530                           	opt callstack 24
  5531                           
  5532                           ;incstack = 0
  5533  0000AC  5012               	movf	___flmul@b+3,w,c
  5534  0000AE  0B80               	andlw	128
  5535  0000B0  6E1B               	movwf	___flmul@sign,c
  5536  0000B2  5012               	movf	___flmul@b+3,w,c
  5537  0000B4  2412               	addwf	___flmul@b+3,w,c
  5538  0000B6  6E21               	movwf	___flmul@bexp,c
  5539  0000B8  BE11               	btfsc	___flmul@b+2,7,c
  5540  0000BA  8021               	bsf	___flmul@bexp,0,c
  5541  0000BC  5021               	movf	___flmul@bexp,w,c
  5542  0000BE  B4D8               	btfsc	status,2,c
  5543  0000C0  D00D               	goto	i2l2439
  5544  0000C2  2821               	incf	___flmul@bexp,w,c
  5545  0000C4  A4D8               	btfss	status,2,c
  5546  0000C6  D008               	goto	i2l2437
  5547  0000C8  0E00               	movlw	0
  5548  0000CA  6E0F               	movwf	___flmul@b,c
  5549  0000CC  0E00               	movlw	0
  5550  0000CE  6E10               	movwf	___flmul@b+1,c
  5551  0000D0  0E00               	movlw	0
  5552  0000D2  6E11               	movwf	___flmul@b+2,c
  5553  0000D4  0E00               	movlw	0
  5554  0000D6  6E12               	movwf	___flmul@b+3,c
  5555  0000D8                     i2l2437:
  5556  0000D8  8E11               	bsf	___flmul@b+2,7,c
  5557  0000DA  D008               	goto	i2l2441
  5558  0000DC                     i2l2439:
  5559  0000DC  0E00               	movlw	0
  5560  0000DE  6E0F               	movwf	___flmul@b,c
  5561  0000E0  0E00               	movlw	0
  5562  0000E2  6E10               	movwf	___flmul@b+1,c
  5563  0000E4  0E00               	movlw	0
  5564  0000E6  6E11               	movwf	___flmul@b+2,c
  5565  0000E8  0E00               	movlw	0
  5566  0000EA  6E12               	movwf	___flmul@b+3,c
  5567  0000EC                     i2l2441:
  5568  0000EC  5016               	movf	___flmul@a+3,w,c
  5569  0000EE  0B80               	andlw	128
  5570  0000F0  1A1B               	xorwf	___flmul@sign,f,c
  5571  0000F2  5016               	movf	___flmul@a+3,w,c
  5572  0000F4  2416               	addwf	___flmul@a+3,w,c
  5573  0000F6  6E20               	movwf	___flmul@aexp,c
  5574  0000F8  BE15               	btfsc	___flmul@a+2,7,c
  5575  0000FA  8020               	bsf	___flmul@aexp,0,c
  5576  0000FC  5020               	movf	___flmul@aexp,w,c
  5577  0000FE  B4D8               	btfsc	status,2,c
  5578  000100  D00D               	goto	i2l2457
  5579  000102  2820               	incf	___flmul@aexp,w,c
  5580  000104  A4D8               	btfss	status,2,c
  5581  000106  D008               	goto	i2l2455
  5582  000108  0E00               	movlw	0
  5583  00010A  6E13               	movwf	___flmul@a,c
  5584  00010C  0E00               	movlw	0
  5585  00010E  6E14               	movwf	___flmul@a+1,c
  5586  000110  0E00               	movlw	0
  5587  000112  6E15               	movwf	___flmul@a+2,c
  5588  000114  0E00               	movlw	0
  5589  000116  6E16               	movwf	___flmul@a+3,c
  5590  000118                     i2l2455:
  5591  000118  8E15               	bsf	___flmul@a+2,7,c
  5592  00011A  D008               	goto	i2l1304
  5593  00011C                     i2l2457:
  5594  00011C  0E00               	movlw	0
  5595  00011E  6E13               	movwf	___flmul@a,c
  5596  000120  0E00               	movlw	0
  5597  000122  6E14               	movwf	___flmul@a+1,c
  5598  000124  0E00               	movlw	0
  5599  000126  6E15               	movwf	___flmul@a+2,c
  5600  000128  0E00               	movlw	0
  5601  00012A  6E16               	movwf	___flmul@a+3,c
  5602  00012C                     i2l1304:
  5603  00012C  5020               	movf	___flmul@aexp,w,c
  5604  00012E  B4D8               	btfsc	status,2,c
  5605  000130  D003               	goto	i2u139_40
  5606  000132  5021               	movf	___flmul@bexp,w,c
  5607  000134  A4D8               	btfss	status,2,c
  5608  000136  D009               	goto	i2l2465
  5609  000138                     i2u139_40:
  5610  000138  0E00               	movlw	0
  5611  00013A  6E0F               	movwf	?___flmul,c
  5612  00013C  0E00               	movlw	0
  5613  00013E  6E10               	movwf	?___flmul+1,c
  5614  000140  0E00               	movlw	0
  5615  000142  6E11               	movwf	?___flmul+2,c
  5616  000144  0E00               	movlw	0
  5617  000146  6E12               	movwf	?___flmul+3,c
  5618  000148  0012               	return	
  5619  00014A                     i2l2465:
  5620  00014A  5015               	movf	___flmul@a+2,w,c
  5621  00014C  020F               	mulwf	___flmul@b,c
  5622  00014E  CFF3 F026          	movff	prodl,___flmul@temp
  5623  000152  CFF4 F027          	movff	prodh,___flmul@temp+1
  5624  000156  5026               	movf	___flmul@temp,w,c
  5625  000158  6E1C               	movwf	___flmul@grs,c
  5626  00015A  6A1D               	clrf	___flmul@grs+1,c
  5627  00015C  6A1E               	clrf	___flmul@grs+2,c
  5628  00015E  6A1F               	clrf	___flmul@grs+3,c
  5629  000160  5027               	movf	___flmul@temp+1,w,c
  5630  000162  6E22               	movwf	___flmul@prod,c
  5631  000164  6A23               	clrf	___flmul@prod+1,c
  5632  000166  6A24               	clrf	___flmul@prod+2,c
  5633  000168  6A25               	clrf	___flmul@prod+3,c
  5634  00016A  5014               	movf	___flmul@a+1,w,c
  5635  00016C  0210               	mulwf	___flmul@b+1,c
  5636  00016E  CFF3 F026          	movff	prodl,___flmul@temp
  5637  000172  CFF4 F027          	movff	prodh,___flmul@temp+1
  5638  000176  5026               	movf	___flmul@temp,w,c
  5639  000178  261C               	addwf	___flmul@grs,f,c
  5640  00017A  0E00               	movlw	0
  5641  00017C  221D               	addwfc	___flmul@grs+1,f,c
  5642  00017E  221E               	addwfc	___flmul@grs+2,f,c
  5643  000180  221F               	addwfc	___flmul@grs+3,f,c
  5644  000182  5027               	movf	___flmul@temp+1,w,c
  5645  000184  2622               	addwf	___flmul@prod,f,c
  5646  000186  0E00               	movlw	0
  5647  000188  2223               	addwfc	___flmul@prod+1,f,c
  5648  00018A  2224               	addwfc	___flmul@prod+2,f,c
  5649  00018C  2225               	addwfc	___flmul@prod+3,f,c
  5650  00018E  5013               	movf	___flmul@a,w,c
  5651  000190  0211               	mulwf	___flmul@b+2,c
  5652  000192  CFF3 F026          	movff	prodl,___flmul@temp
  5653  000196  CFF4 F027          	movff	prodh,___flmul@temp+1
  5654  00019A  5026               	movf	___flmul@temp,w,c
  5655  00019C  261C               	addwf	___flmul@grs,f,c
  5656  00019E  0E00               	movlw	0
  5657  0001A0  221D               	addwfc	___flmul@grs+1,f,c
  5658  0001A2  221E               	addwfc	___flmul@grs+2,f,c
  5659  0001A4  221F               	addwfc	___flmul@grs+3,f,c
  5660  0001A6  5027               	movf	___flmul@temp+1,w,c
  5661  0001A8  2622               	addwf	___flmul@prod,f,c
  5662  0001AA  0E00               	movlw	0
  5663  0001AC  2223               	addwfc	___flmul@prod+1,f,c
  5664  0001AE  2224               	addwfc	___flmul@prod+2,f,c
  5665  0001B0  2225               	addwfc	___flmul@prod+3,f,c
  5666  0001B2  C01E  F01F         	movff	___flmul@grs+2,___flmul@grs+3
  5667  0001B6  C01D  F01E         	movff	___flmul@grs+1,___flmul@grs+2
  5668  0001BA  C01C  F01D         	movff	___flmul@grs,___flmul@grs+1
  5669  0001BE  6A1C               	clrf	___flmul@grs,c
  5670  0001C0  5013               	movf	___flmul@a,w,c
  5671  0001C2  0210               	mulwf	___flmul@b+1,c
  5672  0001C4  CFF3 F026          	movff	prodl,___flmul@temp
  5673  0001C8  CFF4 F027          	movff	prodh,___flmul@temp+1
  5674  0001CC  5026               	movf	___flmul@temp,w,c
  5675  0001CE  261C               	addwf	___flmul@grs,f,c
  5676  0001D0  5027               	movf	___flmul@temp+1,w,c
  5677  0001D2  221D               	addwfc	___flmul@grs+1,f,c
  5678  0001D4  0E00               	movlw	0
  5679  0001D6  221E               	addwfc	___flmul@grs+2,f,c
  5680  0001D8  0E00               	movlw	0
  5681  0001DA  221F               	addwfc	___flmul@grs+3,f,c
  5682  0001DC  5014               	movf	___flmul@a+1,w,c
  5683  0001DE  020F               	mulwf	___flmul@b,c
  5684  0001E0  CFF3 F026          	movff	prodl,___flmul@temp
  5685  0001E4  CFF4 F027          	movff	prodh,___flmul@temp+1
  5686  0001E8  5026               	movf	___flmul@temp,w,c
  5687  0001EA  261C               	addwf	___flmul@grs,f,c
  5688  0001EC  5027               	movf	___flmul@temp+1,w,c
  5689  0001EE  221D               	addwfc	___flmul@grs+1,f,c
  5690  0001F0  0E00               	movlw	0
  5691  0001F2  221E               	addwfc	___flmul@grs+2,f,c
  5692  0001F4  0E00               	movlw	0
  5693  0001F6  221F               	addwfc	___flmul@grs+3,f,c
  5694  0001F8  C01E  F01F         	movff	___flmul@grs+2,___flmul@grs+3
  5695  0001FC  C01D  F01E         	movff	___flmul@grs+1,___flmul@grs+2
  5696  000200  C01C  F01D         	movff	___flmul@grs,___flmul@grs+1
  5697  000204  6A1C               	clrf	___flmul@grs,c
  5698  000206  5013               	movf	___flmul@a,w,c
  5699  000208  020F               	mulwf	___flmul@b,c
  5700  00020A  CFF3 F026          	movff	prodl,___flmul@temp
  5701  00020E  CFF4 F027          	movff	prodh,___flmul@temp+1
  5702  000212  5026               	movf	___flmul@temp,w,c
  5703  000214  261C               	addwf	___flmul@grs,f,c
  5704  000216  5027               	movf	___flmul@temp+1,w,c
  5705  000218  221D               	addwfc	___flmul@grs+1,f,c
  5706  00021A  0E00               	movlw	0
  5707  00021C  221E               	addwfc	___flmul@grs+2,f,c
  5708  00021E  0E00               	movlw	0
  5709  000220  221F               	addwfc	___flmul@grs+3,f,c
  5710  000222  5015               	movf	___flmul@a+2,w,c
  5711  000224  0210               	mulwf	___flmul@b+1,c
  5712  000226  CFF3 F026          	movff	prodl,___flmul@temp
  5713  00022A  CFF4 F027          	movff	prodh,___flmul@temp+1
  5714  00022E  5026               	movf	___flmul@temp,w,c
  5715  000230  2622               	addwf	___flmul@prod,f,c
  5716  000232  5027               	movf	___flmul@temp+1,w,c
  5717  000234  2223               	addwfc	___flmul@prod+1,f,c
  5718  000236  0E00               	movlw	0
  5719  000238  2224               	addwfc	___flmul@prod+2,f,c
  5720  00023A  0E00               	movlw	0
  5721  00023C  2225               	addwfc	___flmul@prod+3,f,c
  5722  00023E  5014               	movf	___flmul@a+1,w,c
  5723  000240  0211               	mulwf	___flmul@b+2,c
  5724  000242  CFF3 F026          	movff	prodl,___flmul@temp
  5725  000246  CFF4 F027          	movff	prodh,___flmul@temp+1
  5726  00024A  5026               	movf	___flmul@temp,w,c
  5727  00024C  2622               	addwf	___flmul@prod,f,c
  5728  00024E  5027               	movf	___flmul@temp+1,w,c
  5729  000250  2223               	addwfc	___flmul@prod+1,f,c
  5730  000252  0E00               	movlw	0
  5731  000254  2224               	addwfc	___flmul@prod+2,f,c
  5732  000256  0E00               	movlw	0
  5733  000258  2225               	addwfc	___flmul@prod+3,f,c
  5734  00025A  5015               	movf	___flmul@a+2,w,c
  5735  00025C  0211               	mulwf	___flmul@b+2,c
  5736  00025E  CFF3 F026          	movff	prodl,___flmul@temp
  5737  000262  CFF4 F027          	movff	prodh,___flmul@temp+1
  5738  000266  5026               	movf	___flmul@temp,w,c
  5739  000268  6E17               	movwf	??___flmul& (0+255),c
  5740  00026A  5027               	movf	___flmul@temp+1,w,c
  5741  00026C  6E18               	movwf	(??___flmul+1)& (0+255),c
  5742  00026E  6A19               	clrf	(??___flmul+2)& (0+255),c
  5743  000270  6A1A               	clrf	(??___flmul+3)& (0+255),c
  5744  000272  C019  F01A         	movff	??___flmul+2,??___flmul+3
  5745  000276  C018  F019         	movff	??___flmul+1,??___flmul+2
  5746  00027A  C017  F018         	movff	??___flmul,??___flmul+1
  5747  00027E  6A17               	clrf	??___flmul,c
  5748  000280  5017               	movf	??___flmul,w,c
  5749  000282  2622               	addwf	___flmul@prod,f,c
  5750  000284  5018               	movf	??___flmul+1,w,c
  5751  000286  2223               	addwfc	___flmul@prod+1,f,c
  5752  000288  5019               	movf	??___flmul+2,w,c
  5753  00028A  2224               	addwfc	___flmul@prod+2,f,c
  5754  00028C  501A               	movf	??___flmul+3,w,c
  5755  00028E  2225               	addwfc	___flmul@prod+3,f,c
  5756  000290  C01C  F017         	movff	___flmul@grs,??___flmul
  5757  000294  C01D  F018         	movff	___flmul@grs+1,??___flmul+1
  5758  000298  C01E  F019         	movff	___flmul@grs+2,??___flmul+2
  5759  00029C  C01F  F01A         	movff	___flmul@grs+3,??___flmul+3
  5760  0002A0  0E19               	movlw	25
  5761  0002A2  D005               	goto	i2u140_40
  5762  0002A4                     i2u140_45:
  5763  0002A4  90D8               	bcf	status,0,c
  5764  0002A6  321A               	rrcf	??___flmul+3,f,c
  5765  0002A8  3219               	rrcf	??___flmul+2,f,c
  5766  0002AA  3218               	rrcf	??___flmul+1,f,c
  5767  0002AC  3217               	rrcf	??___flmul,f,c
  5768  0002AE                     i2u140_40:
  5769  0002AE  2EE8               	decfsz	wreg,f,c
  5770  0002B0  D7F9               	goto	i2u140_45
  5771  0002B2  5017               	movf	??___flmul,w,c
  5772  0002B4  2622               	addwf	___flmul@prod,f,c
  5773  0002B6  5018               	movf	??___flmul+1,w,c
  5774  0002B8  2223               	addwfc	___flmul@prod+1,f,c
  5775  0002BA  5019               	movf	??___flmul+2,w,c
  5776  0002BC  2224               	addwfc	___flmul@prod+2,f,c
  5777  0002BE  501A               	movf	??___flmul+3,w,c
  5778  0002C0  2225               	addwfc	___flmul@prod+3,f,c
  5779  0002C2  C01E  F01F         	movff	___flmul@grs+2,___flmul@grs+3
  5780  0002C6  C01D  F01E         	movff	___flmul@grs+1,___flmul@grs+2
  5781  0002CA  C01C  F01D         	movff	___flmul@grs,___flmul@grs+1
  5782  0002CE  6A1C               	clrf	___flmul@grs,c
  5783  0002D0  5020               	movf	___flmul@aexp,w,c
  5784  0002D2  C021  F017         	movff	___flmul@bexp,??___flmul
  5785  0002D6  6A18               	clrf	(??___flmul+1)& (0+255),c
  5786  0002D8  2617               	addwf	??___flmul,f,c
  5787  0002DA  0E00               	movlw	0
  5788  0002DC  2218               	addwfc	??___flmul+1,f,c
  5789  0002DE  0E82               	movlw	130
  5790  0002E0  2417               	addwf	??___flmul,w,c
  5791  0002E2  6E26               	movwf	___flmul@temp,c
  5792  0002E4  0EFF               	movlw	255
  5793  0002E6  2018               	addwfc	??___flmul+1,w,c
  5794  0002E8  6E27               	movwf	___flmul@temp+1,c
  5795  0002EA  D00F               	goto	i2l2513
  5796  0002EC                     i2l2507:
  5797  0002EC  90D8               	bcf	status,0,c
  5798  0002EE  3622               	rlcf	___flmul@prod,f,c
  5799  0002F0  3623               	rlcf	___flmul@prod+1,f,c
  5800  0002F2  3624               	rlcf	___flmul@prod+2,f,c
  5801  0002F4  3625               	rlcf	___flmul@prod+3,f,c
  5802  0002F6  BE1F               	btfsc	___flmul@grs+3,7,c
  5803  0002F8  8022               	bsf	___flmul@prod,0,c
  5804  0002FA  90D8               	bcf	status,0,c
  5805  0002FC  361C               	rlcf	___flmul@grs,f,c
  5806  0002FE  361D               	rlcf	___flmul@grs+1,f,c
  5807  000300  361E               	rlcf	___flmul@grs+2,f,c
  5808  000302  361F               	rlcf	___flmul@grs+3,f,c
  5809  000304  0626               	decf	___flmul@temp,f,c
  5810  000306  A0D8               	btfss	status,0,c
  5811  000308  0627               	decf	___flmul@temp+1,f,c
  5812  00030A                     i2l2513:
  5813  00030A  AE24               	btfss	___flmul@prod+2,7,c
  5814  00030C  D7EF               	goto	i2l2507
  5815  00030E  0E00               	movlw	0
  5816  000310  6E20               	movwf	___flmul@aexp,c
  5817  000312  AE1F               	btfss	___flmul@grs+3,7,c
  5818  000314  D017               	goto	i2l1313
  5819  000316  0EFF               	movlw	255
  5820  000318  141C               	andwf	___flmul@grs,w,c
  5821  00031A  6E17               	movwf	??___flmul& (0+255),c
  5822  00031C  0EFF               	movlw	255
  5823  00031E  141D               	andwf	___flmul@grs+1,w,c
  5824  000320  6E18               	movwf	(??___flmul+1)& (0+255),c
  5825  000322  0EFF               	movlw	255
  5826  000324  141E               	andwf	___flmul@grs+2,w,c
  5827  000326  6E19               	movwf	(??___flmul+2)& (0+255),c
  5828  000328  0E7F               	movlw	127
  5829  00032A  141F               	andwf	___flmul@grs+3,w,c
  5830  00032C  6E1A               	movwf	(??___flmul+3)& (0+255),c
  5831  00032E  5017               	movf	??___flmul,w,c
  5832  000330  1018               	iorwf	??___flmul+1,w,c
  5833  000332  1019               	iorwf	??___flmul+2,w,c
  5834  000334  101A               	iorwf	??___flmul+3,w,c
  5835  000336  B4D8               	btfsc	status,2,c
  5836  000338  D003               	goto	i2l1314
  5837  00033A                     i2u144_40:
  5838  00033A  0E01               	movlw	1
  5839  00033C  6E20               	movwf	___flmul@aexp,c
  5840  00033E  D002               	goto	i2l1313
  5841  000340                     i2l1314:
  5842  000340  B022               	btfsc	___flmul@prod,0,c
  5843  000342  D7FB               	goto	i2u144_40
  5844  000344                     i2l1313:
  5845  000344  5020               	movf	___flmul@aexp,w,c
  5846  000346  B4D8               	btfsc	status,2,c
  5847  000348  D01F               	goto	i2l2533
  5848  00034A  0E01               	movlw	1
  5849  00034C  2622               	addwf	___flmul@prod,f,c
  5850  00034E  0E00               	movlw	0
  5851  000350  2223               	addwfc	___flmul@prod+1,f,c
  5852  000352  2224               	addwfc	___flmul@prod+2,f,c
  5853  000354  2225               	addwfc	___flmul@prod+3,f,c
  5854  000356  A025               	btfss	___flmul@prod+3,0,c
  5855  000358  D017               	goto	i2l2533
  5856  00035A  C022  F017         	movff	___flmul@prod,??___flmul
  5857  00035E  C023  F018         	movff	___flmul@prod+1,??___flmul+1
  5858  000362  C024  F019         	movff	___flmul@prod+2,??___flmul+2
  5859  000366  C025  F01A         	movff	___flmul@prod+3,??___flmul+3
  5860  00036A  341A               	rlcf	??___flmul+3,w,c
  5861  00036C  321A               	rrcf	??___flmul+3,f,c
  5862  00036E  3219               	rrcf	??___flmul+2,f,c
  5863  000370  3218               	rrcf	??___flmul+1,f,c
  5864  000372  3217               	rrcf	??___flmul,f,c
  5865  000374  C017  F022         	movff	??___flmul,___flmul@prod
  5866  000378  C018  F023         	movff	??___flmul+1,___flmul@prod+1
  5867  00037C  C019  F024         	movff	??___flmul+2,___flmul@prod+2
  5868  000380  C01A  F025         	movff	??___flmul+3,___flmul@prod+3
  5869  000384  4A26               	infsnz	___flmul@temp,f,c
  5870  000386  2A27               	incf	___flmul@temp+1,f,c
  5871  000388                     i2l2533:
  5872  000388  BE27               	btfsc	___flmul@temp+1,7,c
  5873  00038A  D00D               	goto	i2l2537
  5874  00038C  5027               	movf	___flmul@temp+1,w,c
  5875  00038E  E103               	bnz	i2u148_40
  5876  000390  2826               	incf	___flmul@temp,w,c
  5877  000392  A0D8               	btfss	status,0,c
  5878  000394  D008               	goto	i2l2537
  5879  000396                     i2u148_40:
  5880  000396  0E00               	movlw	0
  5881  000398  6E22               	movwf	___flmul@prod,c
  5882  00039A  0E00               	movlw	0
  5883  00039C  6E23               	movwf	___flmul@prod+1,c
  5884  00039E  0E80               	movlw	128
  5885  0003A0  6E24               	movwf	___flmul@prod+2,c
  5886  0003A2  0E7F               	movlw	127
  5887  0003A4  D020               	goto	L5
  5888  0003A6                     i2l2537:
  5889  0003A6  BE27               	btfsc	___flmul@temp+1,7,c
  5890  0003A8  D005               	goto	i2u149_40
  5891  0003AA  5027               	movf	___flmul@temp+1,w,c
  5892  0003AC  E10E               	bnz	i2l1321
  5893  0003AE  0426               	decf	___flmul@temp,w,c
  5894  0003B0  B0D8               	btfsc	status,0,c
  5895  0003B2  D00B               	goto	i2l1321
  5896  0003B4                     i2u149_40:
  5897  0003B4  0E00               	movlw	0
  5898  0003B6  6E22               	movwf	___flmul@prod,c
  5899  0003B8  0E00               	movlw	0
  5900  0003BA  6E23               	movwf	___flmul@prod+1,c
  5901  0003BC  0E00               	movlw	0
  5902  0003BE  6E24               	movwf	___flmul@prod+2,c
  5903  0003C0  0E00               	movlw	0
  5904  0003C2  6E25               	movwf	___flmul@prod+3,c
  5905  0003C4  0E00               	movlw	0
  5906  0003C6  6E1B               	movwf	___flmul@sign,c
  5907  0003C8  D00F               	goto	i2l2549
  5908  0003CA                     i2l1321:
  5909  0003CA  C026  F021         	movff	___flmul@temp,___flmul@bexp
  5910  0003CE  0EFF               	movlw	255
  5911  0003D0  1622               	andwf	___flmul@prod,f,c
  5912  0003D2  0EFF               	movlw	255
  5913  0003D4  1623               	andwf	___flmul@prod+1,f,c
  5914  0003D6  0E7F               	movlw	127
  5915  0003D8  1624               	andwf	___flmul@prod+2,f,c
  5916  0003DA  0E00               	movlw	0
  5917  0003DC  1625               	andwf	___flmul@prod+3,f,c
  5918  0003DE  B021               	btfsc	___flmul@bexp,0,c
  5919  0003E0  8E24               	bsf	___flmul@prod+2,7,c
  5920  0003E2  90D8               	bcf	status,0,c
  5921  0003E4  3021               	rrcf	___flmul@bexp,w,c
  5922  0003E6                     L5:
  5923  0003E6  6E25               	movwf	___flmul@prod+3,c
  5924  0003E8                     i2l2549:
  5925  0003E8  501B               	movf	___flmul@sign,w,c
  5926  0003EA  1225               	iorwf	___flmul@prod+3,f,c
  5927  0003EC  C022  F00F         	movff	___flmul@prod,?___flmul
  5928  0003F0  C023  F010         	movff	___flmul@prod+1,?___flmul+1
  5929  0003F4  C024  F011         	movff	___flmul@prod+2,?___flmul+2
  5930  0003F8  C025  F012         	movff	___flmul@prod+3,?___flmul+3
  5931  0003FC  0012               	return		;funcret
  5932  0003FE                     __end_of___flmul:
  5933                           	opt callstack 0
  5934  0000                     
  5935                           	psect	text56
  5936  000000                     __ptext56:
  5937                           	opt callstack 0
  5938                           
  5939                           	psect	rparam
  5940  0000                     
  5941                           	psect	temp
  5942  00005F                     btemp:
  5943                           	opt callstack 0
  5944  00005F                     	ds	1
  5945  0000                     int$flags	set	btemp
  5946  0000                     wtemp8	set	btemp+1
  5947  0000                     ttemp5	set	btemp+1
  5948  0000                     ttemp6	set	btemp+4
  5949  0000                     ttemp7	set	btemp+8
  5950                           tosu	equ	0xFFF
  5951                           tosh	equ	0xFFE
  5952                           tosl	equ	0xFFD
  5953                           stkptr	equ	0xFFC
  5954                           pclatu	equ	0xFFB
  5955                           pclath	equ	0xFFA
  5956                           pcl	equ	0xFF9
  5957                           tblptru	equ	0xFF8
  5958                           tblptrh	equ	0xFF7
  5959                           tblptrl	equ	0xFF6
  5960                           tablat	equ	0xFF5
  5961                           prodh	equ	0xFF4
  5962                           prodl	equ	0xFF3
  5963                           indf0	equ	0xFEF
  5964                           postinc0	equ	0xFEE
  5965                           postdec0	equ	0xFED
  5966                           preinc0	equ	0xFEC
  5967                           plusw0	equ	0xFEB
  5968                           fsr0h	equ	0xFEA
  5969                           fsr0l	equ	0xFE9
  5970                           wreg	equ	0xFE8
  5971                           indf1	equ	0xFE7
  5972                           postinc1	equ	0xFE6
  5973                           postdec1	equ	0xFE5
  5974                           preinc1	equ	0xFE4
  5975                           plusw1	equ	0xFE3
  5976                           fsr1h	equ	0xFE2
  5977                           fsr1l	equ	0xFE1
  5978                           bsr	equ	0xFE0
  5979                           indf2	equ	0xFDF
  5980                           postinc2	equ	0xFDE
  5981                           postdec2	equ	0xFDD
  5982                           preinc2	equ	0xFDC
  5983                           plusw2	equ	0xFDB
  5984                           fsr2h	equ	0xFDA
  5985                           fsr2l	equ	0xFD9
  5986                           status	equ	0xFD8


Data Sizes:
    Strings     0
    Constant    0
    Data        3
    BSS         46
    Persistent  21
    Stack       0

Auto Spaces:
    Space          Size  Autos    Used
    COMRAM           94     49      94
    BANK0           160     26      51
    BANK1           256      0       0
    BANK2           256      0       0
    BANK3           256      0       0
    BANK4           256      0       0
    BANK5           256      0       0
    BANK6           256      0       0
    BANK7           256      0       0

Pointer List with Targets:

    EUSART1_SetRxInterruptHandler@interruptHandler	PTR FTN()void  size(2) Largest target is 1
		 -> EUSART1_Receive_ISR(), 

    EUSART1_SetTxInterruptHandler@interruptHandler	PTR FTN()void  size(2) Largest target is 1
		 -> EUSART1_Transmit_ISR(), 

    EUSART1_SetErrorHandler@interruptHandler	PTR FTN()void  size(2) Largest target is 1
		 -> EUSART1_DefaultErrorHandler(), 

    EUSART1_SetOverrunErrorHandler@interruptHandler	PTR FTN()void  size(2) Largest target is 1
		 -> EUSART1_DefaultOverrunErrorHandler(), 

    EUSART1_SetFramingErrorHandler@interruptHandler	PTR FTN()void  size(2) Largest target is 1
		 -> EUSART1_DefaultFramingErrorHandler(), 

    EUSART1_ErrorHandler	PTR FTN()void  size(2) Largest target is 1
		 -> EUSART1_DefaultErrorHandler(), Absolute function(), 

    EUSART1_OverrunErrorHandler	PTR FTN()void  size(2) Largest target is 1
		 -> EUSART1_DefaultOverrunErrorHandler(), Absolute function(), 

    EUSART1_FramingErrorHandler	PTR FTN()void  size(2) Largest target is 1
		 -> EUSART1_DefaultFramingErrorHandler(), Absolute function(), 

    TMR1_SetInterruptHandler@InterruptHandler	PTR FTN()void  size(2) Largest target is 1
		 -> ping_TMR1Overflow_isr(), TMR1_DefaultInterruptHandler(), 

    TMR1_InterruptHandler	PTR FTN()void  size(2) Largest target is 1
		 -> ping_TMR1Overflow_isr(), TMR1_DefaultInterruptHandler(), Absolute function(), 

    CCP1_SetCallBack@customCallBack	PTR FTN(unsigned short ,)void  size(2) Largest target is 1
		 -> ping_CCP1_triggered(), CCP1_DefaultCallBack(), 

    CCP1_CallBack	PTR FTN(unsigned short ,)void  size(2) Largest target is 1
		 -> ping_CCP1_triggered(), CCP1_DefaultCallBack(), Absolute function(), 

    EUSART1_RxDefaultInterruptHandler	PTR FTN()void  size(2) Largest target is 1
		 -> EUSART1_Receive_ISR(), Absolute function(), 

    EUSART1_TxDefaultInterruptHandler	PTR FTN()void  size(2) Largest target is 1
		 -> EUSART1_Transmit_ISR(), Absolute function(), 

    TMR2_SetInterruptHandler@InterruptHandler	PTR FTN()void  size(2) Largest target is 1
		 -> carcontrol_ISR(), TMR2_DefaultInterruptHandler(), 

    TMR2_InterruptHandler	PTR FTN()void  size(2) Largest target is 1
		 -> carcontrol_ISR(), TMR2_DefaultInterruptHandler(), Absolute function(), 

    IOCCF2_SetInterruptHandler@InterruptHandler	PTR FTN()void  size(2) Largest target is 1
		 -> ping_RC2_went_HIGH(), IOCCF2_DefaultInterruptHandler(), 

    IOCCF2_InterruptHandler	PTR FTN()void  size(2) Largest target is 1
		 -> ping_RC2_went_HIGH(), Absolute function(), IOCCF2_DefaultInterruptHandler(), 


Critical Paths under _main in COMRAM

    None.

Critical Paths under _INTERRUPT_InterruptManager in COMRAM

    _INTERRUPT_InterruptManager->_CCP1_CaptureISR
    _TMR2_ISR->_carcontrol_ISR
    _TMR1_ISR->i2_TMR1_WriteTimer
    _ping_TMR1Overflow_isr->i2_IOCCF2_SetInterruptHandler
    _ping_TMR1Overflow_isr->i2_TMR1_SetInterruptHandler
    _ping_RC2_went_HIGH->i2_IOCCF2_SetInterruptHandler
    _ping_RC2_went_HIGH->i2_TMR1_SetInterruptHandler
    _ping_RC2_went_HIGH->i2_TMR1_WriteTimer
    _CCP1_CaptureISR->_CCP1_DefaultCallBack
    _CCP1_CaptureISR->_ping_CCP1_triggered
    _ping_CCP1_triggered->___flmul
    ___flmul->___xxtofl

Critical Paths under _main in BANK0

    _main->___fladd
    _ping_send->_TMR1_SetInterruptHandler
    _ping_send->_TMR1_WriteTimer
    _ping_init->_CCP1_SetCallBack
    _ping_init->_IOCCF2_SetInterruptHandler
    _ping_init->_TMR1_SetInterruptHandler
    _carcontrol_init->_TMR2_SetInterruptHandler
    _SYSTEM_Initialize->_TMR1_Initialize
    _TMR2_Initialize->_TMR2_SetInterruptHandler
    _TMR1_Initialize->_TMR1_SetInterruptHandler
    _PIN_MANAGER_Initialize->_IOCCF2_SetInterruptHandler
    _EUSART1_Initialize->_EUSART1_SetErrorHandler
    _EUSART1_Initialize->_EUSART1_SetFramingErrorHandler
    _EUSART1_Initialize->_EUSART1_SetOverrunErrorHandler
    _EUSART1_Initialize->_EUSART1_SetRxInterruptHandler
    _EUSART1_Initialize->_EUSART1_SetTxInterruptHandler
    _CCP1_Initialize->_CCP1_SetCallBack

Critical Paths under _INTERRUPT_InterruptManager in BANK0

    None.

Critical Paths under _main in BANK1

    None.

Critical Paths under _INTERRUPT_InterruptManager in BANK1

    None.

Critical Paths under _main in BANK2

    None.

Critical Paths under _INTERRUPT_InterruptManager in BANK2

    None.

Critical Paths under _main in BANK3

    None.

Critical Paths under _INTERRUPT_InterruptManager in BANK3

    None.

Critical Paths under _main in BANK4

    None.

Critical Paths under _INTERRUPT_InterruptManager in BANK4

    None.

Critical Paths under _main in BANK5

    None.

Critical Paths under _INTERRUPT_InterruptManager in BANK5

    None.

Critical Paths under _main in BANK6

    None.

Critical Paths under _INTERRUPT_InterruptManager in BANK6

    None.

Critical Paths under _main in BANK7

    None.

Critical Paths under _INTERRUPT_InterruptManager in BANK7

    None.

Call Graph Tables:

 ---------------------------------------------------------------------------------
 (Depth) Function   	        Calls       Base Space   Used Autos Params    Refs
 ---------------------------------------------------------------------------------
 (0) _main                                                10    10      0    6607
                                             16 BANK0     10    10      0
                  _SYSTEM_Initialize
                            ___fladd
                             ___fleq
                            ___fltol
                    _carcontrol_init
                _carcontrol_steering
                           _ping_get
                          _ping_init
                          _ping_send
 ---------------------------------------------------------------------------------
 (1) _ping_send                                            0     0      0     690
           _TMR1_SetInterruptHandler
                    _TMR1_StartTimer
                    _TMR1_WriteTimer
 ---------------------------------------------------------------------------------
 (2) _TMR1_WriteTimer                                      2     0      2     340
                                              0 BANK0      2     0      2
 ---------------------------------------------------------------------------------
 (2) _TMR1_StartTimer                                      0     0      0       0
 ---------------------------------------------------------------------------------
 (1) _ping_init                                            0     0      0     798
                   _CCP1_SetCallBack
         _IOCCF2_SetInterruptHandler
           _TMR1_SetInterruptHandler
 ---------------------------------------------------------------------------------
 (1) _ping_get                                             4     0      4       0
                                              0 BANK0      4     0      4
 ---------------------------------------------------------------------------------
 (1) _carcontrol_init                                      0     0      0     310
           _TMR2_SetInterruptHandler
                _carcontrol_steering
                _carcontrol_throttle
 ---------------------------------------------------------------------------------
 (2) _carcontrol_throttle                                  1     1      0      45
                                              0 BANK0      1     1      0
 ---------------------------------------------------------------------------------
 (1) _carcontrol_steering                                  1     1      0      91
                                              0 BANK0      1     1      0
 ---------------------------------------------------------------------------------
 (1) ___fltol                                             10     6      4     305
                                              0 BANK0     10     6      4
 ---------------------------------------------------------------------------------
 (1) ___fleq                                              12     4      8     494
                                              0 BANK0     12     4      8
 ---------------------------------------------------------------------------------
 (1) ___fladd                                             16     8      8    2388
                                              0 BANK0     16     8      8
 ---------------------------------------------------------------------------------
 (1) _SYSTEM_Initialize                                    0     0      0    1462
                    _CCP1_Initialize
                 _EUSART1_Initialize
               _INTERRUPT_Initialize
              _OSCILLATOR_Initialize
             _PIN_MANAGER_Initialize
                     _PMD_Initialize
                    _TMR1_Initialize
                    _TMR2_Initialize
 ---------------------------------------------------------------------------------
 (2) _TMR2_Initialize                                      0     0      0     174
           _TMR2_SetInterruptHandler
 ---------------------------------------------------------------------------------
 (2) _TMR2_SetInterruptHandler                             2     0      2     174
                                              0 BANK0      2     0      2
 ---------------------------------------------------------------------------------
 (2) _TMR1_Initialize                                      2     2      0     350
                                              2 BANK0      2     2      0
           _TMR1_SetInterruptHandler
 ---------------------------------------------------------------------------------
 (2) _TMR1_SetInterruptHandler                             2     0      2     350
                                              0 BANK0      2     0      2
 ---------------------------------------------------------------------------------
 (2) _PMD_Initialize                                       0     0      0       0
 ---------------------------------------------------------------------------------
 (2) _PIN_MANAGER_Initialize                               0     0      0     274
         _IOCCF2_SetInterruptHandler
 ---------------------------------------------------------------------------------
 (2) _IOCCF2_SetInterruptHandler                           2     0      2     274
                                              0 BANK0      2     0      2
 ---------------------------------------------------------------------------------
 (2) _OSCILLATOR_Initialize                                0     0      0       0
 ---------------------------------------------------------------------------------
 (2) _INTERRUPT_Initialize                                 0     0      0       0
 ---------------------------------------------------------------------------------
 (2) _EUSART1_Initialize                                   0     0      0     490
            _EUSART1_SetErrorHandler
     _EUSART1_SetFramingErrorHandler
     _EUSART1_SetOverrunErrorHandler
      _EUSART1_SetRxInterruptHandler
      _EUSART1_SetTxInterruptHandler
 ---------------------------------------------------------------------------------
 (3) _EUSART1_SetTxInterruptHandler                        2     0      2      98
                                              0 BANK0      2     0      2
 ---------------------------------------------------------------------------------
 (3) _EUSART1_SetRxInterruptHandler                        2     0      2      98
                                              0 BANK0      2     0      2
 ---------------------------------------------------------------------------------
 (3) _EUSART1_SetOverrunErrorHandler                       2     0      2      98
                                              0 BANK0      2     0      2
 ---------------------------------------------------------------------------------
 (3) _EUSART1_SetFramingErrorHandler                       2     0      2      98
                                              0 BANK0      2     0      2
 ---------------------------------------------------------------------------------
 (3) _EUSART1_SetErrorHandler                              2     0      2      98
                                              0 BANK0      2     0      2
 ---------------------------------------------------------------------------------
 (2) _CCP1_Initialize                                      0     0      0     174
                   _CCP1_SetCallBack
 ---------------------------------------------------------------------------------
 (2) _CCP1_SetCallBack                                     2     0      2     174
                                              0 BANK0      2     0      2
 ---------------------------------------------------------------------------------
 Estimated maximum stack depth 3
 ---------------------------------------------------------------------------------
 (Depth) Function   	        Calls       Base Space   Used Autos Params    Refs
 ---------------------------------------------------------------------------------
 (4) _INTERRUPT_InterruptManager                           6     6      0    2862
                                             43 COMRAM     6     6      0
                   Absolute function *
                    _CCP1_CaptureISR
                _EUSART1_Receive_ISR *
               _EUSART1_Transmit_ISR *
                    _PIN_MANAGER_IOC
                           _TMR1_ISR
                           _TMR2_ISR
 ---------------------------------------------------------------------------------
 (5) _TMR2_ISR                                             0     0      0       0
                   Absolute function *
       _TMR2_DefaultInterruptHandler *
                     _carcontrol_ISR *
 ---------------------------------------------------------------------------------
 (6) _carcontrol_ISR                                       3     3      0       0
                                              0 COMRAM     3     3      0
 ---------------------------------------------------------------------------------
 (6) _TMR2_DefaultInterruptHandler                         0     0      0       0
 ---------------------------------------------------------------------------------
 (5) _TMR1_ISR                                             0     0      0     288
                   Absolute function *
       _TMR1_DefaultInterruptHandler *
              _ping_TMR1Overflow_isr *
                  i2_TMR1_WriteTimer
 ---------------------------------------------------------------------------------
 (6) _ping_TMR1Overflow_isr                                0     0      0     148
       i2_IOCCF2_SetInterruptHandler
         i2_TMR1_SetInterruptHandler
 ---------------------------------------------------------------------------------
 (6) _TMR1_DefaultInterruptHandler                         0     0      0       0
 ---------------------------------------------------------------------------------
 (5) _PIN_MANAGER_IOC                                      0     0      0     288
                         _IOCCF2_ISR
 ---------------------------------------------------------------------------------
 (6) _IOCCF2_ISR                                           0     0      0     288
                   Absolute function *
     _IOCCF2_DefaultInterruptHandler *
                 _ping_RC2_went_HIGH *
 ---------------------------------------------------------------------------------
 (7) _ping_RC2_went_HIGH                                   0     0      0     288
       i2_IOCCF2_SetInterruptHandler
         i2_TMR1_SetInterruptHandler
                  i2_TMR1_StartTimer
                  i2_TMR1_WriteTimer
 ---------------------------------------------------------------------------------
 (6) i2_TMR1_WriteTimer                                    2     0      2     140
                                              0 COMRAM     2     0      2
 ---------------------------------------------------------------------------------
 (8) i2_TMR1_StartTimer                                    0     0      0       0
 ---------------------------------------------------------------------------------
 (7) i2_TMR1_SetInterruptHandler                           2     0      2      74
                                              0 COMRAM     2     0      2
 ---------------------------------------------------------------------------------
 (7) i2_IOCCF2_SetInterruptHandler                         2     0      2      74
                                              0 COMRAM     2     0      2
 ---------------------------------------------------------------------------------
 (7) _IOCCF2_DefaultInterruptHandler                       0     0      0       0
 ---------------------------------------------------------------------------------
 (5) _EUSART1_Transmit_ISR                                 0     0      0       0
 ---------------------------------------------------------------------------------
 (5) _EUSART1_Receive_ISR                                  0     0      0       0
                   Absolute function *
        _EUSART1_DefaultErrorHandler *
 _EUSART1_DefaultFramingErrorHandler *
 _EUSART1_DefaultOverrunErrorHandler *
              _EUSART1_RxDataHandler
 ---------------------------------------------------------------------------------
 (6) _EUSART1_DefaultOverrunErrorHandler                   0     0      0       0
 ---------------------------------------------------------------------------------
 (6) _EUSART1_DefaultFramingErrorHandler                   0     0      0       0
 ---------------------------------------------------------------------------------
 (6) _EUSART1_DefaultErrorHandler                          0     0      0       0
              _EUSART1_RxDataHandler
 ---------------------------------------------------------------------------------
 (6) _EUSART1_RxDataHandler                                0     0      0       0
 ---------------------------------------------------------------------------------
 (5) _CCP1_CaptureISR                                      2     2      0    2286
                                             41 COMRAM     2     2      0
                   Absolute function *
               _CCP1_DefaultCallBack *
                _ping_CCP1_triggered *
 ---------------------------------------------------------------------------------
 (6) _ping_CCP1_triggered                                  2     0      2    2239
                                             39 COMRAM     2     0      2
                            ___flmul
                           ___xxtofl
 ---------------------------------------------------------------------------------
 (7) ___xxtofl                                            14    10      4     398
                                              0 COMRAM    14    10      4
 ---------------------------------------------------------------------------------
 (7) ___flmul                                             25    17      8    1744
                                             14 COMRAM    25    17      8
                           ___xxtofl (ARG)
 ---------------------------------------------------------------------------------
 (6) _CCP1_DefaultCallBack                                 2     0      2       0
                                             39 COMRAM     2     0      2
 ---------------------------------------------------------------------------------
 (6) Absolute function(Fake)                               0     0      0       0
 ---------------------------------------------------------------------------------
 Estimated maximum stack depth 8
 ---------------------------------------------------------------------------------

 Call Graph Graphs:

 _main (ROOT)
   _SYSTEM_Initialize
     _CCP1_Initialize
       _CCP1_SetCallBack
     _EUSART1_Initialize
       _EUSART1_SetErrorHandler
       _EUSART1_SetFramingErrorHandler
       _EUSART1_SetOverrunErrorHandler
       _EUSART1_SetRxInterruptHandler
       _EUSART1_SetTxInterruptHandler
     _INTERRUPT_Initialize
     _OSCILLATOR_Initialize
     _PIN_MANAGER_Initialize
       _IOCCF2_SetInterruptHandler
     _PMD_Initialize
     _TMR1_Initialize
       _TMR1_SetInterruptHandler
     _TMR2_Initialize
       _TMR2_SetInterruptHandler
   ___fladd
   ___fleq
   ___fltol
   _carcontrol_init
     _TMR2_SetInterruptHandler
     _carcontrol_steering
     _carcontrol_throttle
   _carcontrol_steering
   _ping_get
   _ping_init
     _CCP1_SetCallBack
     _IOCCF2_SetInterruptHandler
     _TMR1_SetInterruptHandler
   _ping_send
     _TMR1_SetInterruptHandler
     _TMR1_StartTimer
     _TMR1_WriteTimer

 _INTERRUPT_InterruptManager (ROOT)
   Absolute function(Fake) *
   _CCP1_CaptureISR *
     Absolute function(Fake) *
     _CCP1_DefaultCallBack *
     _ping_CCP1_triggered *
       ___flmul
         ___xxtofl (ARG)
       ___xxtofl
   _EUSART1_Receive_ISR *
     Absolute function(Fake) *
     _EUSART1_DefaultErrorHandler *
       _EUSART1_RxDataHandler
     _EUSART1_DefaultFramingErrorHandler *
     _EUSART1_DefaultOverrunErrorHandler *
     _EUSART1_RxDataHandler *
   _EUSART1_Transmit_ISR *
   _PIN_MANAGER_IOC *
     _IOCCF2_ISR
       Absolute function(Fake) *
       _IOCCF2_DefaultInterruptHandler *
       _ping_RC2_went_HIGH *
         i2_IOCCF2_SetInterruptHandler
         i2_TMR1_SetInterruptHandler
         i2_TMR1_StartTimer
         i2_TMR1_WriteTimer
   _TMR1_ISR *
     Absolute function(Fake) *
     _TMR1_DefaultInterruptHandler *
     _ping_TMR1Overflow_isr *
       i2_IOCCF2_SetInterruptHandler
       i2_TMR1_SetInterruptHandler
     i2_TMR1_WriteTimer *
   _TMR2_ISR *
     Absolute function(Fake) *
     _TMR2_DefaultInterruptHandler *
     _carcontrol_ISR *

 Address spaces:
Name               Size   Autos  Total    Cost      Usage
BIGRAM             7FF      0       0      21        0.0%
EEDATA             100      0       0       0        0.0%
BITBANK7           100      0       0      19        0.0%
BANK7              100      0       0      20        0.0%
BITBANK6           100      0       0      16        0.0%
BANK6              100      0       0      17        0.0%
BITBANK5           100      0       0      14        0.0%
BANK5              100      0       0      15        0.0%
BITBANK4           100      0       0      12        0.0%
BANK4              100      0       0      13        0.0%
BITBANK3           100      0       0      10        0.0%
BANK3              100      0       0      11        0.0%
BITBANK2           100      0       0       8        0.0%
BANK2              100      0       0       9        0.0%
BITBANK1           100      0       0       6        0.0%
BANK1              100      0       0       7        0.0%
BITBANK0            A0      0       0       4        0.0%
BANK0               A0     1A      33       5       31.9%
BITCOMRAM           5E      0       0       0        0.0%
COMRAM              5E     31      5E       1      100.0%
BITSFR_2             0      0       0     200        0.0%
SFR_2                0      0       0     200        0.0%
BITSFR_1             0      0       0     200        0.0%
SFR_1                0      0       0     200        0.0%
BITSFR               0      0       0     200        0.0%
SFR                  0      0       0     200        0.0%
STACK                0      0       0       2        0.0%
NULL                 0      0       0       0        0.0%
ABS                  0      0      91      18        0.0%
DATA                 0      0      91       3        0.0%
CODE                 0      0       0       0        0.0%


Microchip Technology PIC18 Macro Assembler V2.05 build -831301201 
Symbol Table                                                                                   Sun Apr 14 00:40:29 2019

              __end_of_TMR2_SetInterruptHandler 112C                        _eusart1TxBufferRemaining 0086  
                             ??_carcontrol_init 0062                                     __CFG_CP$OFF 000000  
                           _carcontrol_throttle 1100                             _carcontrol_steering 0ECA  
                       __end_of_CCP1_Initialize 0F86                                     __CFG_LVP$ON 000000  
                                           _PR2 000FBB                                    __CFG_CPD$OFF 000000  
                               _timer1ReloadVal 0056                         __size_of_PMD_Initialize 001C  
                               _TMR2_Initialize 0F2A                                             tosl 000FFD  
                                           wreg 000FE8                ??_IOCCF2_DefaultInterruptHandler 0001  
               ?_IOCCF2_DefaultInterruptHandler 0001                                    ___flmul@aexp 0020  
                                  ___flmul@bexp 0021                                    ___flmul@sign 001B  
                                  ___flmul@temp 0026                                    ___flmul@prod 0022  
                   carcontrol_steering@steering 0060                                    __CFG_ZCD$OFF 000000  
                                  ___fltol@exp1 0069                                            l1220 0520  
                                          l1235 0614                                            l1219 0542  
                                          l3011 0498                                            l3003 0478  
                                          l1244 067A                                            l1245 0676  
                                          l3105 0638                                            l3121 0658  
                                          l3041 04D4                                            l3115 064E  
                                          l3203 0A6A                                            l3141 06C0  
                                          l3053 052E                                            l3221 0AAA  
                                          l3213 0A82                                            l3055 0532  
                                          l3215 0A8E                                            l3207 0A7A  
                                          l3153 06EE                                            l3155 06F0  
                                          l3149 06E6                                            l3077 0588  
                                          l3069 0566                                            l3173 0BC0  
                                          l3079 058C                                            l3087 059E  
                                          l3271 096A                                            l3097 0604  
                                          l3177 0BDE                                            l3169 0B8C  
                                          l3273 096E                                            l3187 0A20  
                                          l2723 0EEC                                            l2731 1110  
                                          l2707 1086                                            l2719 0EDE  
                                          l2975 042C                                            l2959 0EB6  
                                          l2979 0430                                            l2999 0474  
                                          u2020 04F6                                            u2030 0506  
                                          u2200 065C                                            u2040 0508  
                                          u2220 0670                                            _LATA 000F82  
                                          u2070 054A                                            _LATB 000F83  
                                          _LATC 000F84                                            u2400 0A94  
                                          u2340 0BDA                                            u2350 0A0E  
                                          u2280 06CC                                            u2360 0A3E  
                                          _T2PR 000FBB                                            u2365 0A34  
                                          u2607 0DFC                                            u2587 094E  
                                          _PMD0 000EDC                                            u2597 0964  
                                          _PMD1 000EDD                                            _PMD2 000EDE  
                                          _PMD3 000EDF                                            _PMD4 000EE0  
                                          _PMD5 000EE1                                            _PIR6 000ECB  
                                          _TMR2 000FBA                                            _WPUA 000F0B  
                                          _WPUB 000F13                                            _WPUC 000F1B  
                                          _WPUE 000F28                            ?_carcontrol_throttle 0001  
                          ?_carcontrol_steering 0001                                   __CFG_FCMEN$ON 000000  
                                          _main 0932                                            fsr2h 000FDA  
                                          indf2 000FDF                                            fsr2l 000FD9  
                                          btemp 005F                                            prodh 000FF4  
                                          prodl 000FF3                                            start 00A8  
                      __end_of_CCP1_SetCallBack 117C                      ??_TMR1_SetInterruptHandler 0062  
                                 __CFG_CSWEN$ON 000000                                    ___param_bank 000000  
                              ?_CCP1_CaptureISR 0001                                   __CFG_SCANE$ON 000000  
                __size_of_OSCILLATOR_Initialize 0018                   __end_of_OSCILLATOR_Initialize 1100  
                           __size_of_IOCCF2_ISR 0026                           _eusart1RxStatusBuffer 003A  
                                 ___fltol@sign1 0068                                 __end_of___fladd 070C  
                                         ?_main 0001                                   __CFG_WDTE$OFF 000000  
                               __end_of___flmul 03FE                                 __end_of___fltol 0ABC  
                               _TMR1_StartTimer 119C                                           _T1CLK 000FD1  
                                         _T1CON 000FCE                                           _T2CON 000FBC  
                                         _T2HLT 000FBD                                  __CFG_DEBUG$OFF 000000  
                                         _T2TMR 000FBA                                           _T2RST 000FBF  
                                         i2l250 006A                                           i2l251 008C  
                                         i2l252 0076                                           i2l245 0030  
                                         i2l254 0082                                           i2l248 004A  
                                         i2l463 0FAE                                           _OSCEN 000ED7  
                                         _TMR1H 000FCD                                           _TMR1L 000FCC  
                                         _TRISA 000F87                                           _TRISB 000F88  
                                         _TRISC 000F89                                   __CFG_WRT0$OFF 000000  
                                 __CFG_WRT1$OFF 000000                                   __CFG_WRT2$OFF 000000  
                                 __CFG_WRT3$OFF 000000                            _EUSART1_Transmit_ISR 0F86  
                                __CFG_EBTR0$OFF 000000                                  __CFG_EBTR1$OFF 000000  
                                __CFG_EBTR2$OFF 000000                                  __CFG_EBTR3$OFF 000000  
                              __end_of_TMR1_ISR 0F2A                                __end_of_TMR2_ISR 1008  
                                 __CFG_WRTB$OFF 000000                                   __CFG_WRTC$OFF 000000  
                                 __CFG_WRTD$OFF 000000                                  __CFG_EBTRB$OFF 000000  
                       __end_of_PIN_MANAGER_IOC 1122                              __CFG_MCLRE$EXTMCLR 000000  
                       __end_of_TMR1_Initialize 0D7A                           ??_carcontrol_throttle 0060  
                         ??_carcontrol_steering 0060                                           pclath 000FFA  
                                         tablat 000FF5                                           ttemp5 0060  
                                         ttemp6 0063                                           ttemp7 0067  
                                         status 000FD8                                           wtemp8 0060  
                                _carcontrol_ISR 084C      __end_of_EUSART1_DefaultFramingErrorHandler 11B4  
   __size_of_EUSART1_DefaultFramingErrorHandler 0002            ??_EUSART1_DefaultFramingErrorHandler 0001  
           ?_EUSART1_DefaultFramingErrorHandler 0001              _EUSART1_DefaultFramingErrorHandler 11B2  
                               _TMR1_WriteTimer 1072                                 __initialization 0D7A  
                    __end_of_EUSART1_Initialize 0C68                                    __end_of_main 0A00  
                       __end_of_TMR2_Initialize 0F58                     ?_INTERRUPT_InterruptManager 0001  
                      _TMR2_SetInterruptHandler 1122                                          ??_main 0070  
                              ?_CCP1_Initialize 0001                                   __activetblptr 000002  
                       _IOCCF2_InterruptHandler 0058                           ?_EUSART1_Transmit_ISR 0001  
                                        _CCPR1H 000FAA                                          _CCPR1L 000FA9  
                                        _ANSELA 000F0C                                          _ANSELB 000F14  
                                        _ANSELC 000F1C                                          _T1GATE 000FD0  
                                        _T1GCON 000FCF                                          _RC1REG 000F98  
                 __size_of_CCP1_DefaultCallBack 0002                                          _RC1STA 000F9C  
                       TMR1_WriteTimer@timerVal 0060                                          _ODCONA 000F0A  
                                        _ODCONB 000F12                                          _ODCONC 000F1A  
                                        _RC6PPS 000EF8                          __end_of_carcontrol_ISR 0932  
                                        i2l1304 012C                                          i2l1321 03CA  
                                        i2l1313 0344                                          i2l1314 0340  
                                        i2l1352 07C8                                          i2l1345 074A  
                                __CFG_WDTCCS$SC 000000                                          i2l2411 106E  
                                        i2l2513 030A                                          i2l2441 00EC  
                                        i2l2507 02EC                                          i2l2533 0388  
                                        i2l2437 00D8                                          i2l2455 0118  
                                        i2l2439 00DC                                          i2l2537 03A6  
                                        i2l2465 014A                                          i2l2457 011C  
                                        i2l2561 075A                                          i2l2571 078A  
                                        i2l2379 10DE                                          i2l2549 03E8  
                                        i2l2581 07FA                                          i2l2573 07B0  
                                        i2l2741 0860                                          i2l2567 0778  
                                        i2l2911 0B50                                          i2l2751 0886  
                                        i2l2735 084E                                          i2l2569 077E  
                                        i2l2761 08DC                                          i2l2579 07EE  
                                        i2l2597 083A                                          i2l2777 0906  
                                        i2l2891 0FAA                                          _OSCFRQ 000ED9  
                                        _TX1REG 000F99                                          _TX1STA 000F9D  
                              __end_of___xxtofl 084C                                   _CCP1_CallBack 0080  
                                __CFG_PWRTE$OFF 000000                                  __CFG_XINST$OFF 000000  
          __end_of_TMR1_DefaultInterruptHandler 11B0           __size_of_TMR1_DefaultInterruptHandler 0002  
                  _TMR1_DefaultInterruptHandler 11AE                                          ___fleq 0B56  
                       __end_of_TMR1_StartTimer 11A0                                       ??___fladd 0068  
                                __CFG_STVREN$ON 000000                                       ??___flmul 0017  
                                        _carctl 0087                                       ??___fltol 0064  
                      ?_EUSART1_SetErrorHandler 0060                                          clear_0 0D9E  
                                        clear_1 0DAA                ??_EUSART1_SetOverrunErrorHandler 0062  
               ?_EUSART1_SetOverrunErrorHandler 0060                                          _status 0032  
                              __end_of_ping_get 0ECA                     __end_of_ping_CCP1_triggered 0D34  
                                _PMD_Initialize 10B0                                    __pdataCOMRAM 005C  
                                        tblptrh 000FF7                                          tblptrl 000FF6  
                                        tblptru 000FF8                         ??_ping_TMR1Overflow_isr 0003  
    i2TMR1_SetInterruptHandler@InterruptHandler 0001    i2IOCCF2_SetInterruptHandler@InterruptHandler 0001  
      TMR1_SetInterruptHandler@InterruptHandler 0060        TMR2_SetInterruptHandler@InterruptHandler 0060  
    IOCCF2_SetInterruptHandler@InterruptHandler 0060                                ?_PIN_MANAGER_IOC 0001  
                       __end_of_TMR1_WriteTimer 1092                                 _eusart1RxBuffer 0042  
                 __size_of_INTERRUPT_Initialize 0004                                    ??_IOCCF2_ISR 0003  
                               _eusart1TxBuffer 004A                     __size_of_ping_RC2_went_HIGH 0034  
                              ?_TMR1_Initialize 0001                                 ?_carcontrol_ISR 0001  
                                  ___xxtofl@arg 000B                                    ___xxtofl@exp 000A  
                             _SYSTEM_Initialize 102E                                    ___xxtofl@val 0001  
                                    ___fleq@ff1 0060                                      ___fleq@ff2 0064  
                               _carcontrol_init 0E32                                      __accesstop 0060  
                       __end_of__initialization 0DB0                              ?_SYSTEM_Initialize 0001  
                                 ___rparam_used 000001                                      ___fltol@f1 0060  
                __size_of_EUSART1_RxDataHandler 0022                   __end_of_EUSART1_RxDataHandler 1072  
                                __pcstackCOMRAM 0001                             ??_SYSTEM_Initialize 0064  
                                     ?_TMR1_ISR 0001                                       ?_TMR2_ISR 0001  
                 ?_TMR1_DefaultInterruptHandler 0001                                ?_TMR2_Initialize 0001  
                        __end_of_PMD_Initialize 10CC                              __end_of_IOCCF2_ISR 102E  
                        ??_EUSART1_Transmit_ISR 0001                     __end_of_EUSART1_Receive_ISR 0B56  
                     __end_of_SYSTEM_Initialize 1050                                   _eusart1RxHead 0090  
                                 _eusart1TxHead 0092                                   _eusart1RxTail 0053  
                                    __pbssBANK0 0087                                   _eusart1TxTail 0091  
             _EUSART1_TxDefaultInterruptHandler 005A                 ??_EUSART1_SetRxInterruptHandler 0062  
                                    __pnvCOMRAM 0054          __end_of_IOCCF2_DefaultInterruptHandler 11B2  
       __size_of_IOCCF2_DefaultInterruptHandler 0002                  _IOCCF2_DefaultInterruptHandler 11B0  
               __end_of_EUSART1_SetErrorHandler 1172                               ?_CCP1_SetCallBack 0060  
                                       ?___fleq 0060                                ?_TMR1_StartTimer 0001  
                                    ??_TMR1_ISR 0003                                 __CFG_PPS1WAY$ON 000000  
                                    ??_TMR2_ISR 0004                              ??_CCP1_SetCallBack 0062  
                            __size_of_ping_init 003C                              __size_of_ping_send 0038  
                                       _CCP1CAP 000FAC                                         _CCP1CON 000FAB  
                                       _CCP1PPS 000EAA                                 ?_PMD_Initialize 0001  
        __end_of_EUSART1_SetFramingErrorHandler 1168         __size_of_EUSART1_SetFramingErrorHandler 000A  
                _EUSART1_SetFramingErrorHandler 115E                    ??i2_TMR1_SetInterruptHandler 0003  
                                     ?___xxtofl 0001                    ?_EUSART1_DefaultErrorHandler 0001  
                                       _SP1BRGH 000F9B                                         _SP1BRGL 000F9A  
                                       _OSCCON1 000ED3                                         _OSCCON3 000ED5  
                       __end_of_carcontrol_init 0E66                                         _OSCTUNE 000ED8  
                                       _SLRCONA 000F09                                         _SLRCONB 000F11  
                                       _SLRCONC 000F19                                ?_TMR1_WriteTimer 0060  
             CCP1_DefaultCallBack@capturedValue 0028                                       ?_ping_get 0060  
                                       __Hparam 0000                                         __Lparam 0000  
                    ??_TMR2_SetInterruptHandler 0062                      __CFG_RSTOSC$HFINTOSC_64MHZ 000000  
           __size_ofi2_TMR1_SetInterruptHandler 000A                                 __size_of___fleq 008C  
                                       ___fladd 03FE                                         ___flmul 00AC  
                                       ___fltol 0A00                                         __pcinit 0D7A  
                                       __ramtop 0800                                         __ptext0 0932  
                                       __ptext1 0DFA                                         __ptext2 1072  
                                       __ptext3 119C                                         __ptext4 0DBE  
                                       __ptext5 0E9A                                         __ptext6 0E32  
                                       __ptext7 1100                                         __ptext8 0ECA  
                                       __ptext9 0A00                        __size_of_CCP1_CaptureISR 002E  
                ??_TMR1_DefaultInterruptHandler 0001                                       _T1CONbits 000FCE  
                         _OSCILLATOR_Initialize 10E8                                       _T2CONbits 000FBC  
                                    ??___xxtofl 0005               __size_of_TMR1_SetInterruptHandler 000A  
                            _EUSART1_Initialize 0BE2                     __end_of_carcontrol_throttle 1116  
                      ??_PIN_MANAGER_Initialize 0062                       ?_TMR1_SetInterruptHandler 0060  
                   __end_of_carcontrol_steering 0EFA                                       _T2HLTbits 000FBD  
                                     _IOCCFbits 000F15                                       _IOCCNbits 000F16  
                                     _IOCCPbits 000F17                   ??_EUSART1_DefaultErrorHandler 0001  
                                       main@dis 0076                      __size_of_SYSTEM_Initialize 0022  
                          end_of_initialization 0DB0                               __end_of_ping_init 0DFA  
                                     _T2RSTbits 000FBF                               __end_of_ping_send 0E32  
                           ?_EUSART1_Initialize 0001                                   __Lmediumconst 0000  
                   _EUSART1_OverrunErrorHandler 007C                                      ??_ping_get 0064  
         __end_of_EUSART1_SetRxInterruptHandler 1154          __size_of_EUSART1_SetRxInterruptHandler 000A  
                 _EUSART1_SetRxInterruptHandler 114A                                         postinc0 000FEE  
                  __end_of_CCP1_DefaultCallBack 11B6                            ??_EUSART1_Initialize 0062  
                         __CFG_WDTCPS$WDTCPS_31 000000                                      _servo_trim 005E  
                                   ___fladd@grs 006F                                   ___xxtofl@sign 0009  
                                     _TRISCbits 000F89                                ??_carcontrol_ISR 0001  
                              ?_carcontrol_init 0001                __size_of_EUSART1_SetErrorHandler 000A  
                      __size_of_CCP1_Initialize 002E                    ??_IOCCF2_SetInterruptHandler 0062  
                              __CFG_FEXTOSC$OFF 000000                  __size_of_ping_TMR1Overflow_isr 001E  
                 __end_of_ping_TMR1Overflow_isr 10B0                                     ___flmul@grs 001C  
          __size_of_EUSART1_DefaultErrorHandler 0006                    __end_of_INTERRUPT_Initialize 11A4  
          __end_of_TMR2_DefaultInterruptHandler 11AE           __size_of_TMR2_DefaultInterruptHandler 0002  
                  _TMR2_DefaultInterruptHandler 11AC                                  __end_of___fleq 0BE2  
                     i2TMR1_WriteTimer@timerVal 0001                                   __pidataCOMRAM 11A8  
                             __size_of_TMR1_ISR 0030                               __size_of_TMR2_ISR 0026  
            __end_ofi2_TMR1_SetInterruptHandler 1186                      i2_TMR1_SetInterruptHandler 117C  
                        ?_OSCILLATOR_Initialize 0001             __size_of_IOCCF2_SetInterruptHandler 000A  
                           start_initialization 0D7A                 __size_of_PIN_MANAGER_Initialize 0066  
                    __end_of_ping_RC2_went_HIGH 0E9A                               ??_CCP1_CaptureISR 002A  
 EUSART1_SetRxInterruptHandler@interruptHandler 0060   EUSART1_SetTxInterruptHandler@interruptHandler 0060  
                  __size_of_ping_CCP1_triggered 0066                        __size_of_PIN_MANAGER_IOC 000C  
                              __CFG_LPBOREN$OFF 000000                        __size_of_TMR1_Initialize 0046  
                                      ??___fleq 0068                                ??_PMD_Initialize 0060  
                         _EUSART1_RxDataHandler 1050                                     _CCPTMRSbits 000FAD  
                ?_EUSART1_SetRxInterruptHandler 0060                   ?_TMR2_DefaultInterruptHandler 0001  
                                _eusart1RxCount 0052                           CCP1_CaptureISR@module 002A  
                                     ___fladd@a 0064                                       ___fladd@b 0060  
          __end_ofi2_IOCCF2_SetInterruptHandler 1190           __size_ofi2_IOCCF2_SetInterruptHandler 000A  
                  i2_IOCCF2_SetInterruptHandler 1186                                       ___flmul@a 0013  
                                     ___flmul@b 000F                                     __pbssCOMRAM 0032  
                     __size_of_CCP1_SetCallBack 000A               _EUSART1_RxDefaultInterruptHandler 0084  
                 __size_of_EUSART1_Transmit_ISR 002E                                   __pcstackBANK0 0060  
                      __size_of_TMR2_Initialize 002E                               __size_of___xxtofl 0140  
                          _CCP1_DefaultCallBack 11B4                 ??_EUSART1_SetTxInterruptHandler 0062  
              ??_EUSART1_SetFramingErrorHandler 0062                 ?_EUSART1_SetFramingErrorHandler 0060  
                  __size_of_EUSART1_Receive_ISR 009A                               ??_CCP1_Initialize 0062  
                                     __pnvBANK0 007A                          _PIN_MANAGER_Initialize 0C68  
                                     __pintcode 0008                               __size_of_ping_get 0030  
              __end_of_TMR1_SetInterruptHandler 1136                                        ?___fladd 0060  
                                      ?___flmul 000F                                        ?___fltol 0060  
                  ??_INTERRUPT_InterruptManager 002C                                        _BAUD1CON 000F9E  
                      __size_of_TMR1_StartTimer 0004      __end_of_EUSART1_DefaultOverrunErrorHandler 1196  
   __size_of_EUSART1_DefaultOverrunErrorHandler 0006            ??_EUSART1_DefaultOverrunErrorHandler 0001  
           ?_EUSART1_DefaultOverrunErrorHandler 0001              _EUSART1_DefaultOverrunErrorHandler 1190  
                          _EUSART1_ErrorHandler 007A                         _EUSART1_SetErrorHandler 1168  
            __end_of_IOCCF2_SetInterruptHandler 1140                   ?i2_IOCCF2_SetInterruptHandler 0001  
                    _IOCCF2_SetInterruptHandler 1136                                        _T2CLKCON 000FBE  
                         ?_CCP1_DefaultCallBack 0028                            _INTERRUPT_Initialize 11A0  
                                      _LATAbits 000F82         EUSART1_SetErrorHandler@interruptHandler 0060  
                                      _LATCbits 000F84                                       _ping_init 0DBE  
                                      _PIE0bits 000EBD                                       _ping_send 0DFA  
                                      _PIE3bits 000EC0                                        _PIE4bits 000EC1  
                                      _PIE6bits 000EC3                        __size_of_TMR1_WriteTimer 0020  
                                      i2u140_40 02AE                                        i2u140_45 02A4  
           __size_of_INTERRUPT_InterruptManager 00A0                                        i2u144_40 033A  
                                      i2u170_40 08CE                                        i2u139_40 0138  
                                      i2u162_48 1014                                        i2u250_48 0054  
                                      i2u162_49 1028                                        i2u148_40 0396  
                                      i2u149_40 03B4                                        i2u157_40 0804  
                                      i2u190_48 0B3C                                        i2u167_40 0878  
                                      i2u174_48 0FF4                                        _PIR0bits 000EC5  
                                      i2u247_48 003E                                        i2u176_48 0F16  
                                      i2u177_48 0FCC                                        i2u186_48 0AE4  
                                      i2u186_49 0AF8                                        i2u188_48 0B10  
                                      i2u188_49 0B24                                        _PIR3bits 000EC8  
                                      _PIR4bits 000EC9                                        _PIR6bits 000ECB  
                        ?_EUSART1_RxDataHandler 0001                                        _TMR1_ISR 0EFA  
                                      _TMR2_ISR 0FE2                                       _servo_max 005C  
                                     _servo_min 005D                               ??_PIN_MANAGER_IOC 0003  
                             ??_TMR1_Initialize 0062                                       _stateTime 008D  
                                     main@angle 0072                               i2_TMR1_StartTimer 11A4  
                ??_TMR2_DefaultInterruptHandler 0001               __size_of_TMR2_SetInterruptHandler 000A  
                     ?_TMR2_SetInterruptHandler 0060                              ?i2_TMR1_StartTimer 0001  
                         ?_INTERRUPT_Initialize 0001                    __size_of_carcontrol_throttle 0016  
                  __size_of_carcontrol_steering 0030                               ??_TMR2_Initialize 0062  
                           ??i2_TMR1_StartTimer 0001                                      ?_ping_init 0001  
                                    ?_ping_send 0001           __end_of_EUSART1_SetTxInterruptHandler 114A  
        __size_of_EUSART1_SetTxInterruptHandler 000A                   _EUSART1_SetTxInterruptHandler 1140  
                                      __Hrparam 0000                               i2_TMR1_WriteTimer 10CC  
                                      __Lrparam 0000                              __CFG_BOREN$SBORDIS 000000  
                            ?i2_TMR1_WriteTimer 0001                         ??_OSCILLATOR_Initialize 0060  
                           _ping_CCP1_triggered 0CCE                                __size_of___fladd 030E  
                              __size_of___flmul 0352                                __size_of___fltol 00BC  
                   __size_of_EUSART1_Initialize 0086                                 _CCP1_CaptureISR 0FB4  
                   ?i2_TMR1_SetInterruptHandler 0001                        _TMR1_SetInterruptHandler 112C  
                     __end_ofi2_TMR1_StartTimer 11A8                             ??i2_TMR1_WriteTimer 0003  
                         _TMR1_InterruptHandler 0054                       ??_EUSART1_SetErrorHandler 0062  
           __end_of_EUSART1_DefaultErrorHandler 119C                     _EUSART1_DefaultErrorHandler 1196  
                                      ___xxtofl 070C                                _CCP1_SetCallBack 1172  
                CCP1_SetCallBack@customCallBack 0060                                        __ptext10 0B56  
                                      __ptext11 03FE                                        __ptext20 10E8  
                                      __ptext12 102E                                        __ptext21 11A0  
                                      __ptext13 0F2A                                      _T1GCONbits 000FCF  
                                      __ptext22 0BE2                                        __ptext14 1122  
                                      __ptext31 0FE2                                        __ptext23 1140  
                                      __ptext15 0D34                                        __ptext40 0E66  
                                      __ptext32 11AC                                        __ptext24 114A  
                                      __ptext16 112C                                        __ptext41 10CC  
                                      __ptext33 084C                                        __ptext25 1154  
                                      __ptext17 10B0                                        __ptext50 1050  
                                      __ptext42 11A4                                        __ptext34 0EFA  
                                      __ptext26 115E                                        __ptext18 0C68  
                                      __ptext51 0FB4                                        __ptext43 117C  
                                      __ptext35 11AE                                        __ptext27 1168  
                                      __ptext19 1136                                        __ptext52 11B4  
                                      __ptext44 1186                                        __ptext36 1092  
                                      __ptext28 0F58                                        __ptext53 0CCE  
                                      __ptext45 0F86                                        __ptext37 1116  
                                      __ptext29 1172                                        __ptext54 070C  
                                      __ptext46 0ABC                                        __ptext38 1008  
                                      __ptext55 00AC                                        __ptext47 1190  
                                      __ptext39 11B0                                        __ptext56 0000  
                                      __ptext48 11B2                                        __ptext49 1196  
                        ??_CCP1_DefaultCallBack 002A                            ?_ping_CCP1_triggered 0028  
                             ??_TMR1_StartTimer 0060                                      _IOCCF2_ISR 1008  
                ??i2_IOCCF2_SetInterruptHandler 0003                                   __size_of_main 00CE  
                         _ping_TMR1Overflow_isr 1092                        __size_of_carcontrol_init 0034  
                     __end_ofi2_TMR1_WriteTimer 10E8                            __CFG_WDTCWS$WDTCWS_7 000000  
                                      _ping_get 0E9A                              __CFG_BORV$VBOR_190 000000  
                            _ping_RC2_went_HIGH 0E66                                      _RC1STAbits 000F9C  
EUSART1_SetOverrunErrorHandler@interruptHandler 0060                 ping_CCP1_triggered@timeOfFlight 0028  
                                      int$flags 005F              __end_of_INTERRUPT_InterruptManager 00A8  
                    _INTERRUPT_InterruptManager 0008                             ?_ping_RC2_went_HIGH 0001  
                             ??_TMR1_WriteTimer 0062                     _EUSART1_FramingErrorHandler 007E  
                           _EUSART1_Receive_ISR 0ABC                                      _INTCONbits 000FF2  
                               _CCP1_Initialize 0F58                          ??_INTERRUPT_Initialize 0060  
                         ??_ping_CCP1_triggered 002A                            ??_ping_RC2_went_HIGH 0003  
                                      intlevel2 0000                            ?_EUSART1_Receive_ISR 0001  
                       ?_PIN_MANAGER_Initialize 0001                               __CFG_CLKOUTEN$OFF 000000  
                                   ??_ping_init 0062          __end_of_EUSART1_SetOverrunErrorHandler 115E  
       __size_of_EUSART1_SetOverrunErrorHandler 000A                  _EUSART1_SetOverrunErrorHandler 1154  
                       __size_of_carcontrol_ISR 00E6                                     ??_ping_send 0062  
                  __end_of_EUSART1_Transmit_ISR 0FB4                         __end_of_CCP1_CaptureISR 0FE2  
EUSART1_SetFramingErrorHandler@interruptHandler 0060                  ?_EUSART1_SetTxInterruptHandler 0060  
                            _eusart1RxLastError 008F                     carcontrol_throttle@throttle 0060  
                    __size_ofi2_TMR1_StartTimer 0004                     ?_IOCCF2_SetInterruptHandler 0060  
                                    _TX1STAbits 000F9D                                   ___fladd@signs 006C  
                                   ?_IOCCF2_ISR 0001                           ??_EUSART1_Receive_ISR 0001  
                __end_of_PIN_MANAGER_Initialize 0CCE                          ?_ping_TMR1Overflow_isr 0001  
                                  ___fladd@aexp 006D                                    ___fladd@bexp 006E  
                               _PIN_MANAGER_IOC 1116                           _TMR2_InterruptHandler 0082  
                    __size_ofi2_TMR1_WriteTimer 001C                         ??_EUSART1_RxDataHandler 0001  
                               _TMR1_Initialize 0D34  
