

Microchip MPLAB XC8 Assembler V2.05 build -831301201 
                                                                                               Thu Apr 11 23:00:20 2019

Microchip MPLAB XC8 C Compiler v2.05 (Free license) build 20181220022703 Og1 
     1                           	processor	18F25Q10
     2                           	fnconf	rparam,??,?,0
     3                           	opt	pw 120
     4                           	opt	flic
     5                           	psect	idataCOMRAM,global,class=CODE,delta=1,noexec
     6                           	psect	nvCOMRAM,global,class=COMRAM,space=1,delta=1,noexec
     7                           	psect	cinit,global,reloc=2,class=CODE,delta=1
     8                           	psect	bssCOMRAM,global,class=COMRAM,space=1,delta=1,noexec
     9                           	psect	dataCOMRAM,global,class=COMRAM,space=1,delta=1,noexec
    10                           	psect	cstackCOMRAM,global,class=COMRAM,space=1,delta=1,noexec
    11                           	psect	text0,global,reloc=2,class=CODE,delta=1
    12                           	psect	text1,global,reloc=2,class=CODE,delta=1
    13                           	psect	text2,global,reloc=2,class=CODE,delta=1
    14                           	psect	text3,global,reloc=2,class=CODE,delta=1
    15                           	psect	text4,global,reloc=2,class=CODE,delta=1
    16                           	psect	text5,global,reloc=2,class=CODE,delta=1
    17                           	psect	text6,global,reloc=2,class=CODE,delta=1
    18                           	psect	text7,global,reloc=2,class=CODE,delta=1
    19                           	psect	text8,global,reloc=2,class=CODE,delta=1
    20                           	psect	text9,global,reloc=2,class=CODE,delta=1
    21                           	psect	text10,global,reloc=2,class=CODE,delta=1
    22                           	psect	text11,global,reloc=2,class=CODE,delta=1
    23                           	psect	text12,global,reloc=2,class=CODE,delta=1
    24                           	psect	text13,global,reloc=2,class=CODE,delta=1
    25                           	psect	text14,global,reloc=2,class=CODE,delta=1
    26                           	psect	text15,global,reloc=2,class=CODE,delta=1
    27                           	psect	text16,global,reloc=2,class=CODE,delta=1
    28                           	psect	text17,global,reloc=2,class=CODE,delta=1
    29                           	psect	text18,global,reloc=2,class=CODE,delta=1
    30                           	psect	text19,global,reloc=2,class=CODE,delta=1
    31                           	psect	text20,global,reloc=2,class=CODE,delta=1
    32                           	psect	text21,global,reloc=2,class=CODE,delta=1
    33                           	psect	text22,global,reloc=2,class=CODE,delta=1
    34                           	psect	text23,global,reloc=2,class=CODE,delta=1
    35                           	psect	text24,global,reloc=2,class=CODE,delta=1
    36                           	psect	text25,global,reloc=2,class=CODE,delta=1
    37                           	psect	intcode,global,reloc=2,class=CODE,delta=1
    38                           	psect	text27,global,reloc=2,class=CODE,delta=1
    39                           	psect	text28,global,reloc=2,class=CODE,delta=1
    40                           	psect	text29,global,reloc=2,class=CODE,delta=1
    41                           	psect	text30,global,reloc=2,class=CODE,delta=1
    42                           	psect	text31,global,reloc=2,class=CODE,delta=1
    43                           	psect	text32,global,reloc=2,class=CODE,delta=1
    44                           	psect	text33,global,reloc=2,class=CODE,delta=1
    45                           	psect	text34,global,reloc=2,class=CODE,delta=1
    46                           	psect	text35,global,reloc=2,class=CODE,delta=1
    47                           	psect	text36,global,reloc=2,class=CODE,delta=1
    48                           	psect	text37,global,reloc=2,class=CODE,delta=1
    49                           	psect	text38,global,reloc=2,class=CODE,delta=1
    50                           	psect	text39,global,reloc=2,class=CODE,delta=1
    51                           	psect	text40,global,reloc=2,class=CODE,delta=1
    52                           	psect	text41,global,reloc=2,class=CODE,delta=1
    53                           	psect	text42,global,reloc=2,class=CODE,delta=1
    54                           	psect	text43,global,reloc=2,class=CODE,delta=1
    55                           	psect	text44,global,reloc=2,class=CODE,delta=1
    56                           	psect	text45,global,reloc=2,class=CODE,delta=1
    57                           	psect	text46,global,reloc=2,class=CODE,delta=1
    58                           	psect	text47,global,reloc=2,class=CODE,delta=1
    59                           	psect	text48,global,reloc=2,class=CODE,delta=1
    60                           	psect	text49,global,reloc=2,class=CODE,delta=1
    61                           	psect	intsave_regs,global,class=BIGRAM,space=1,delta=1,noexec
    62                           	psect	text50,global,reloc=2,class=CODE,delta=1
    63                           	psect	rparam,global,class=COMRAM,space=1,delta=1,noexec
    64                           	psect	temp,global,ovrld,common,class=COMRAM,space=1,delta=1
    65  0000                     
    66                           ; Version 2.05
    67                           ; Generated 20/12/2018 GMT
    68                           ; 
    69                           ; Copyright © 2018, Microchip Technology Inc. and its subsidiaries ("Microchip")
    70                           ; All rights reserved.
    71                           ; 
    72                           ; This software is developed by Microchip Technology Inc. and its subsidiaries ("Microch
      +                          ip").
    73                           ; 
    74                           ; Redistribution and use in source and binary forms, with or without modification, are
    75                           ; permitted provided that the following conditions are met:
    76                           ; 
    77                           ;     1. Redistributions of source code must retain the above copyright notice, this lis
      +                          t of
    78                           ;        conditions and the following disclaimer.
    79                           ; 
    80                           ;     2. Redistributions in binary form must reproduce the above copyright notice, this 
      +                          list
    81                           ;        of conditions and the following disclaimer in the documentation and/or other
    82                           ;        materials provided with the distribution.
    83                           ; 
    84                           ;     3. Microchip's name may not be used to endorse or promote products derived from th
      +                          is
    85                           ;        software without specific prior written permission.
    86                           ; 
    87                           ; THIS SOFTWARE IS PROVIDED BY MICROCHIP "AS IS" AND ANY EXPRESS OR IMPLIED WARRANTIES,
    88                           ; INCLUDING, BUT NOT LIMITED TO, THE IMPLIED WARRANTIES OF MERCHANTABILITY AND FITNESS F
      +                          OR
    89                           ; PURPOSE ARE DISCLAIMED.  IN NO EVENT SHALL MICROCHIP BE LIABLE FOR ANY DIRECT, INDIREC
      +                          T,
    90                           ; INCIDENTAL, SPECIAL, EXEMPLARY, OR CONSEQUENTIAL DAMAGES (INCLUDING BUT NOT LIMITED TO
    91                           ; PROCUREMENT OF SUBSTITUTE GOODS OR SERVICES; LOSS OF USE, DATA OR PROFITS; OR BUSINESS
    92                           ; INTERRUPTION) HOWSOEVER CAUSED AND ON ANY THEORY OF LIABILITY, WHETHER IN CONTRACT, ST
      +                          RICT
    93                           ; LIABILITY, OR TORT (INCLUDING NEGLIGENCE OR OTHERWISE) ARISING IN ANY WAY OUT OF THE U
      +                          SE OF
    94                           ; THIS SOFTWARE, EVEN IF ADVISED OF THE POSSIBILITY OF SUCH DAMAGE.
    95                           ; 
    96                           ; 
    97                           ; Code-generator required, PIC18F25Q10 Definitions
    98                           ; 
    99                           ; SFR Addresses
   100  0000                     
   101                           	psect	idataCOMRAM
   102  000762                     __pidataCOMRAM:
   103                           	opt callstack 0
   104                           
   105                           ;initializer for _servo_max
   106  000762  1C                 	db	28
   107                           
   108                           ;initializer for _servo_min
   109  000763  E2                 	db	226
   110                           
   111                           ;initializer for _servo_trim
   112  000764  EF                 	db	239
   113                           
   114                           	psect	nvCOMRAM
   115  00002F                     __pnvCOMRAM:
   116                           	opt callstack 0
   117  00002F                     _EUSART1_ErrorHandler:
   118                           	opt callstack 0
   119  00002F                     	ds	2
   120  000031                     _EUSART1_OverrunErrorHandler:
   121                           	opt callstack 0
   122  000031                     	ds	2
   123  000033                     _EUSART1_FramingErrorHandler:
   124                           	opt callstack 0
   125  000033                     	ds	2
   126  000035                     _TMR1_InterruptHandler:
   127                           	opt callstack 0
   128  000035                     	ds	2
   129  000037                     _timer1ReloadVal:
   130                           	opt callstack 0
   131  000037                     	ds	2
   132  000039                     _CCP1_CallBack:
   133                           	opt callstack 0
   134  000039                     	ds	2
   135  00003B                     _TMR2_InterruptHandler:
   136                           	opt callstack 0
   137  00003B                     	ds	2
   138  00003D                     _IOCCF2_InterruptHandler:
   139                           	opt callstack 0
   140  00003D                     	ds	2
   141  00003F                     _EUSART1_RxDefaultInterruptHandler:
   142                           	opt callstack 0
   143  00003F                     	ds	2
   144  000041                     _EUSART1_TxDefaultInterruptHandler:
   145                           	opt callstack 0
   146  000041                     	ds	2
   147  000043                     _eusart1TxBufferRemaining:
   148                           	opt callstack 0
   149  000043                     	ds	1
   150  0000                     _PIR6bits	set	3787
   151  0000                     _PIE6bits	set	3779
   152  0000                     _PIR3bits	set	3784
   153  0000                     _PIE3bits	set	3776
   154  0000                     _PIR0bits	set	3781
   155  0000                     _PIE4bits	set	3777
   156  0000                     _PIR4bits	set	3785
   157  0000                     _RC6PPS	set	3832
   158  0000                     _CCP1PPS	set	3754
   159  0000                     _PIE0bits	set	3773
   160  0000                     _PMD5	set	3809
   161  0000                     _PMD4	set	3808
   162  0000                     _PMD3	set	3807
   163  0000                     _PMD2	set	3806
   164  0000                     _PMD1	set	3805
   165  0000                     _PMD0	set	3804
   166  0000                     _OSCTUNE	set	3800
   167  0000                     _OSCFRQ	set	3801
   168  0000                     _OSCEN	set	3799
   169  0000                     _OSCCON3	set	3797
   170  0000                     _OSCCON1	set	3795
   171  0000                     _IOCCPbits	set	3863
   172  0000                     _IOCCNbits	set	3862
   173  0000                     _IOCCFbits	set	3861
   174  0000                     _SLRCONC	set	3865
   175  0000                     _SLRCONB	set	3857
   176  0000                     _SLRCONA	set	3849
   177  0000                     _ODCONC	set	3866
   178  0000                     _ODCONB	set	3858
   179  0000                     _ODCONA	set	3850
   180  0000                     _WPUC	set	3867
   181  0000                     _WPUA	set	3851
   182  0000                     _WPUB	set	3859
   183  0000                     _WPUE	set	3880
   184  0000                     _ANSELA	set	3852
   185  0000                     _ANSELB	set	3860
   186  0000                     _ANSELC	set	3868
   187  0000                     _TRISCbits	set	3977
   188  0000                     _LATCbits	set	3972
   189  0000                     _LATAbits	set	3970
   190  0000                     _RC1REG	set	3992
   191  0000                     _RC1STAbits	set	3996
   192  0000                     _TX1REG	set	3993
   193  0000                     _TX1STAbits	set	3997
   194  0000                     _SP1BRGH	set	3995
   195  0000                     _SP1BRGL	set	3994
   196  0000                     _TX1STA	set	3997
   197  0000                     _RC1STA	set	3996
   198  0000                     _BAUD1CON	set	3998
   199  0000                     _T1GCONbits	set	4047
   200  0000                     _T1CONbits	set	4046
   201  0000                     _T1CON	set	4046
   202  0000                     _TMR1L	set	4044
   203  0000                     _TMR1H	set	4045
   204  0000                     _T1CLK	set	4049
   205  0000                     _T1GATE	set	4048
   206  0000                     _T1GCON	set	4047
   207  0000                     _CCPTMRSbits	set	4013
   208  0000                     _CCPR1L	set	4009
   209  0000                     _CCPR1H	set	4010
   210  0000                     _CCP1CAP	set	4012
   211  0000                     _CCP1CON	set	4011
   212  0000                     _INTCONbits	set	4082
   213  0000                     _PR2	set	4027
   214  0000                     _TMR2	set	4026
   215  0000                     _T2CONbits	set	4028
   216  0000                     _T2RSTbits	set	4031
   217  0000                     _T2HLTbits	set	4029
   218  0000                     _T2CON	set	4028
   219  0000                     _T2TMR	set	4026
   220  0000                     _T2PR	set	4027
   221  0000                     _T2RST	set	4031
   222  0000                     _T2HLT	set	4029
   223  0000                     _T2CLKCON	set	4030
   224  0000                     _TRISC	set	3977
   225  0000                     _TRISB	set	3976
   226  0000                     _TRISA	set	3975
   227  0000                     _LATC	set	3972
   228  0000                     _LATB	set	3971
   229  0000                     _LATA	set	3970
   230                           
   231                           ; #config settings
   232  0000                     
   233                           	psect	cinit
   234  00038C                     __pcinit:
   235                           	opt callstack 0
   236  00038C                     start_initialization:
   237                           	opt callstack 0
   238  00038C                     __initialization:
   239                           	opt callstack 0
   240                           
   241                           ; Initialize objects allocated to COMRAM (3 bytes)
   242                           ; load TBLPTR registers with __pidataCOMRAM
   243  00038C  0E62               	movlw	low __pidataCOMRAM
   244  00038E  6EF6               	movwf	tblptrl,c
   245  000390  0E07               	movlw	high __pidataCOMRAM
   246  000392  6EF7               	movwf	tblptrh,c
   247  000394  0E00               	movlw	low (__pidataCOMRAM shr (0+16))
   248  000396  6EF8               	movwf	tblptru,c
   249  000398  0009               	tblrd		*+	;fetch initializer
   250  00039A  CFF5 F052          	movff	tablat,__pdataCOMRAM
   251  00039E  0009               	tblrd		*+	;fetch initializer
   252  0003A0  CFF5 F053          	movff	tablat,__pdataCOMRAM+1
   253  0003A4  0009               	tblrd		*+	;fetch initializer
   254  0003A6  CFF5 F054          	movff	tablat,__pdataCOMRAM+2
   255                           
   256                           ; Clear objects allocated to COMRAM (46 bytes)
   257  0003AA  EE00  F001         	lfsr	0,__pbssCOMRAM
   258  0003AE  0E2E               	movlw	46
   259  0003B0                     clear_0:
   260  0003B0  6AEE               	clrf	postinc0,c
   261  0003B2  06E8               	decf	wreg,f,c
   262  0003B4  E1FD               	bnz	clear_0
   263  0003B6                     end_of_initialization:
   264                           	opt callstack 0
   265  0003B6                     __end_of__initialization:
   266                           	opt callstack 0
   267  0003B6  9055               	bcf	int$flags,0,c	;clear compiler interrupt flag (level 1)
   268  0003B8  9255               	bcf	int$flags,1,c	;clear compiler interrupt flag (level 2)
   269  0003BA  0E00               	movlw	low (__Lmediumconst shr (0+16))
   270  0003BC  6EF8               	movwf	tblptru,c
   271  0003BE  0100               	movlb	0
   272  0003C0  EF78  F001         	goto	_main	;jump to C main() function
   273                           
   274                           	psect	bssCOMRAM
   275  000001                     __pbssCOMRAM:
   276                           	opt callstack 0
   277  000001                     _status:
   278                           	opt callstack 0
   279  000001                     	ds	8
   280  000009                     _eusart1RxStatusBuffer:
   281                           	opt callstack 0
   282  000009                     	ds	8
   283  000011                     _eusart1RxBuffer:
   284                           	opt callstack 0
   285  000011                     	ds	8
   286  000019                     _eusart1TxBuffer:
   287                           	opt callstack 0
   288  000019                     	ds	8
   289  000021                     _carctl:
   290                           	opt callstack 0
   291  000021                     	ds	6
   292  000027                     _stateTime:
   293                           	opt callstack 0
   294  000027                     	ds	2
   295  000029                     _eusart1RxLastError:
   296                           	opt callstack 0
   297  000029                     	ds	1
   298  00002A                     _eusart1RxCount:
   299                           	opt callstack 0
   300  00002A                     	ds	1
   301  00002B                     _eusart1RxTail:
   302                           	opt callstack 0
   303  00002B                     	ds	1
   304  00002C                     _eusart1RxHead:
   305                           	opt callstack 0
   306  00002C                     	ds	1
   307  00002D                     _eusart1TxTail:
   308                           	opt callstack 0
   309  00002D                     	ds	1
   310  00002E                     _eusart1TxHead:
   311                           	opt callstack 0
   312  00002E                     	ds	1
   313                           
   314                           	psect	dataCOMRAM
   315  000052                     __pdataCOMRAM:
   316                           	opt callstack 0
   317  000052                     _servo_max:
   318                           	opt callstack 0
   319  000052                     	ds	1
   320  000053                     _servo_min:
   321                           	opt callstack 0
   322  000053                     	ds	1
   323  000054                     _servo_trim:
   324                           	opt callstack 0
   325  000054                     	ds	1
   326                           
   327                           	psect	cstackCOMRAM
   328  000044                     __pcstackCOMRAM:
   329                           	opt callstack 0
   330  000044                     ??_carcontrol_ISR:
   331  000044                     ping_CCP1_triggered@timeOfFlight:
   332                           	opt callstack 0
   333  000044                     i2IOCCF2_SetInterruptHandler@InterruptHandler:
   334                           	opt callstack 0
   335  000044                     i2TMR1_WriteTimer@timerVal:
   336                           	opt callstack 0
   337  000044                     i2TMR1_SetInterruptHandler@InterruptHandler:
   338                           	opt callstack 0
   339                           
   340                           ; 2 bytes @ 0x0
   341  000044                     	ds	2
   342  000046                     CCP1_CaptureISR@module:
   343                           	opt callstack 0
   344                           
   345                           ; 2 bytes @ 0x2
   346  000046                     	ds	1
   347  000047                     
   348                           ; 1 bytes @ 0x3
   349  000047                     	ds	1
   350  000048                     ??_INTERRUPT_InterruptManager:
   351                           
   352                           ; 1 bytes @ 0x4
   353  000048                     	ds	4
   354  00004C                     carcontrol_steering@steering:
   355                           	opt callstack 0
   356  00004C                     carcontrol_throttle@throttle:
   357                           	opt callstack 0
   358  00004C                     IOCCF2_SetInterruptHandler@InterruptHandler:
   359                           	opt callstack 0
   360  00004C                     TMR2_SetInterruptHandler@InterruptHandler:
   361                           	opt callstack 0
   362  00004C                     CCP1_SetCallBack@customCallBack:
   363                           	opt callstack 0
   364  00004C                     TMR1_WriteTimer@timerVal:
   365                           	opt callstack 0
   366  00004C                     TMR1_SetInterruptHandler@InterruptHandler:
   367                           	opt callstack 0
   368  00004C                     EUSART1_SetFramingErrorHandler@interruptHandler:
   369                           	opt callstack 0
   370  00004C                     EUSART1_SetOverrunErrorHandler@interruptHandler:
   371                           	opt callstack 0
   372  00004C                     EUSART1_SetErrorHandler@interruptHandler:
   373                           	opt callstack 0
   374  00004C                     EUSART1_SetTxInterruptHandler@interruptHandler:
   375                           	opt callstack 0
   376  00004C                     EUSART1_SetRxInterruptHandler@interruptHandler:
   377                           	opt callstack 0
   378                           
   379                           ; 2 bytes @ 0x8
   380  00004C                     	ds	2
   381  00004E                     ??_TMR1_Initialize:
   382  00004E                     
   383                           ; 1 bytes @ 0xA
   384  00004E                     	ds	2
   385  000050                     ??_main:
   386                           
   387                           ; 1 bytes @ 0xC
   388  000050                     	ds	2
   389                           
   390 ;;
   391 ;;Main: autosize = 0, tempsize = 2, incstack = 0, save=0
   392 ;;
   393 ;; *************** function _main *****************
   394 ;; Defined at:
   395 ;;		line 51 in file "main.c"
   396 ;; Parameters:    Size  Location     Type
   397 ;;		None
   398 ;; Auto vars:     Size  Location     Type
   399 ;;		None
   400 ;; Return value:  Size  Location     Type
   401 ;;                  1    wreg      void 
   402 ;; Registers used:
   403 ;;		wreg, status,2, status,0, cstack
   404 ;; Tracked objects:
   405 ;;		On entry : 0/0
   406 ;;		On exit  : 0/0
   407 ;;		Unchanged: 0/0
   408 ;; Data sizes:     COMRAM   BANK0   BANK1   BANK2   BANK3   BANK4   BANK5   BANK6   BANK7
   409 ;;      Params:         0       0       0       0       0       0       0       0       0
   410 ;;      Locals:         0       0       0       0       0       0       0       0       0
   411 ;;      Temps:          2       0       0       0       0       0       0       0       0
   412 ;;      Totals:         2       0       0       0       0       0       0       0       0
   413 ;;Total ram usage:        2 bytes
   414 ;; Hardware stack levels required when called:    8
   415 ;; This function calls:
   416 ;;		_SYSTEM_Initialize
   417 ;;		_carcontrol_init
   418 ;;		_carcontrol_steering
   419 ;;		_ping_init
   420 ;;		_ping_send
   421 ;; This function is called by:
   422 ;;		Startup code after reset
   423 ;; This function uses a non-reentrant model
   424 ;;
   425                           
   426                           	psect	text0
   427  0002F0                     __ptext0:
   428                           	opt callstack 0
   429  0002F0                     _main:
   430                           	opt callstack 23
   431                           
   432                           ;main.c: 54:     SYSTEM_Initialize();
   433                           
   434                           ;incstack = 0
   435  0002F0  ECED  F002         	call	_SYSTEM_Initialize	;wreg free
   436                           
   437                           ;main.c: 61:     (INTCONbits.GIE = 1);
   438  0002F4  8EF2               	bsf	4082,7,c	;volatile
   439                           
   440                           ;main.c: 67:     (INTCONbits.PEIE = 1);
   441  0002F6  8CF2               	bsf	4082,6,c	;volatile
   442                           
   443                           ;main.c: 72:     carcontrol_init();
   444  0002F8  EC2D  F002         	call	_carcontrol_init	;wreg free
   445                           
   446                           ;main.c: 73:     ping_init();
   447  0002FC  ECE2  F001         	call	_ping_init	;wreg free
   448                           
   449                           ;main.c: 74:     _delay((unsigned long)((1000)*(64000000/4000.0)));
   450  000300  0E52               	movlw	82
   451  000302  6E51               	movwf	(??_main+1)& (0+255),c
   452  000304  0E2B               	movlw	43
   453  000306  6E50               	movwf	??_main& (0+255),c
   454  000308  0E00               	movlw	0
   455  00030A                     u757:
   456  00030A  2EE8               	decfsz	wreg,f,c
   457  00030C  D7FE               	bra	u757
   458  00030E  2E50               	decfsz	??_main& (0+255),f,c
   459  000310  D7FC               	bra	u757
   460  000312  2E51               	decfsz	(??_main+1)& (0+255),f,c
   461  000314  D7FA               	bra	u757
   462  000316  D000               	nop2	
   463                           
   464                           ;main.c: 76:     carcontrol_steering(0);
   465  000318  0E00               	movlw	0
   466  00031A  EC5A  F002         	call	_carcontrol_steering
   467                           
   468                           ;main.c: 78:     _delay((unsigned long)((10)*(64000000/4000000.0)));
   469  00031E  0E35               	movlw	53
   470  000320                     u767:
   471  000320  2EE8               	decfsz	wreg,f,c
   472  000322  D7FE               	bra	u767
   473  000324  F000               	nop	
   474  000326                     l2157:
   475                           
   476                           ;main.c: 81:     {;main.c: 82:         ping_send();
   477  000326  EC44  F002         	call	_ping_send	;wreg free
   478                           
   479                           ;main.c: 84:         _delay((unsigned long)((350)*(64000000/4000.0)));
   480  00032A  0E1D               	movlw	29
   481  00032C  6E51               	movwf	(??_main+1)& (0+255),c
   482  00032E  0E69               	movlw	105
   483  000330  6E50               	movwf	??_main& (0+255),c
   484  000332  0EA5               	movlw	165
   485  000334                     u777:
   486  000334  2EE8               	decfsz	wreg,f,c
   487  000336  D7FE               	bra	u777
   488  000338  2E50               	decfsz	??_main& (0+255),f,c
   489  00033A  D7FC               	bra	u777
   490  00033C  2E51               	decfsz	(??_main+1)& (0+255),f,c
   491  00033E  D7FA               	bra	u777
   492  000340  F000               	nop	
   493                           
   494                           ;main.c: 88:         carcontrol_steering(0);
   495  000342  0E00               	movlw	0
   496  000344  EC5A  F002         	call	_carcontrol_steering
   497  000348  D7EE               	goto	l2157
   498  00034A                     __end_of_main:
   499                           	opt callstack 0
   500                           
   501 ;; *************** function _ping_send *****************
   502 ;; Defined at:
   503 ;;		line 109 in file "ping.c"
   504 ;; Parameters:    Size  Location     Type
   505 ;;		None
   506 ;; Auto vars:     Size  Location     Type
   507 ;;		None
   508 ;; Return value:  Size  Location     Type
   509 ;;                  1    wreg      void 
   510 ;; Registers used:
   511 ;;		wreg, status,2, status,0, cstack
   512 ;; Tracked objects:
   513 ;;		On entry : 0/0
   514 ;;		On exit  : 0/0
   515 ;;		Unchanged: 0/0
   516 ;; Data sizes:     COMRAM   BANK0   BANK1   BANK2   BANK3   BANK4   BANK5   BANK6   BANK7
   517 ;;      Params:         0       0       0       0       0       0       0       0       0
   518 ;;      Locals:         0       0       0       0       0       0       0       0       0
   519 ;;      Temps:          0       0       0       0       0       0       0       0       0
   520 ;;      Totals:         0       0       0       0       0       0       0       0       0
   521 ;;Total ram usage:        0 bytes
   522 ;; Hardware stack levels used:    1
   523 ;; Hardware stack levels required when called:    6
   524 ;; This function calls:
   525 ;;		_TMR1_SetInterruptHandler
   526 ;;		_TMR1_StartTimer
   527 ;;		_TMR1_WriteTimer
   528 ;; This function is called by:
   529 ;;		_main
   530 ;; This function uses a non-reentrant model
   531 ;;
   532                           
   533                           	psect	text1
   534  000488                     __ptext1:
   535                           	opt callstack 0
   536  000488                     _ping_send:
   537                           	opt callstack 24
   538                           
   539                           ;ping.c: 110:     _delay((unsigned long)((10)*(64000000/4000000.0)));
   540                           
   541                           ;incstack = 0
   542  000488  0E35               	movlw	53
   543  00048A                     u787:
   544  00048A  2EE8               	decfsz	wreg,f,c
   545  00048C  D7FE               	bra	u787
   546  00048E  F000               	nop	
   547                           
   548                           ;ping.c: 111:     if (!status.pingStarted) {
   549  000490  5006               	movf	_status+5,w,c	;volatile
   550  000492  A4D8               	btfss	status,2,c
   551  000494  0012               	return	
   552                           
   553                           ;ping.c: 114:         TMR1_SetInterruptHandler(ping_TMR1Overflow_isr);
   554  000496  0E1C               	movlw	low _ping_TMR1Overflow_isr
   555  000498  6E4C               	movwf	TMR1_SetInterruptHandler@InterruptHandler,c
   556  00049A  0E06               	movlw	high _ping_TMR1Overflow_isr
   557  00049C  6E4D               	movwf	TMR1_SetInterruptHandler@InterruptHandler+1,c
   558  00049E  EC73  F003         	call	_TMR1_SetInterruptHandler	;wreg free
   559                           
   560                           ;ping.c: 115:         TMR1_WriteTimer(0xFFFC);
   561  0004A2  0EFF               	movlw	255
   562  0004A4  6E4D               	movwf	TMR1_WriteTimer@timerVal+1,c
   563  0004A6  0EFC               	movlw	252
   564  0004A8  6E4C               	movwf	TMR1_WriteTimer@timerVal,c
   565  0004AA  EC1D  F003         	call	_TMR1_WriteTimer	;wreg free
   566                           
   567                           ;ping.c: 116:         TMR1_StartTimer();
   568  0004AE  ECAB  F003         	call	_TMR1_StartTimer	;wreg free
   569  0004B2  0012               	return		;funcret
   570  0004B4                     __end_of_ping_send:
   571                           	opt callstack 0
   572                           
   573 ;; *************** function _TMR1_WriteTimer *****************
   574 ;; Defined at:
   575 ;;		line 127 in file "mcc_generated_files/tmr1.c"
   576 ;; Parameters:    Size  Location     Type
   577 ;;  timerVal        2    8[COMRAM] unsigned short 
   578 ;; Auto vars:     Size  Location     Type
   579 ;;		None
   580 ;; Return value:  Size  Location     Type
   581 ;;                  1    wreg      void 
   582 ;; Registers used:
   583 ;;		wreg, status,2
   584 ;; Tracked objects:
   585 ;;		On entry : 0/0
   586 ;;		On exit  : 0/0
   587 ;;		Unchanged: 0/0
   588 ;; Data sizes:     COMRAM   BANK0   BANK1   BANK2   BANK3   BANK4   BANK5   BANK6   BANK7
   589 ;;      Params:         2       0       0       0       0       0       0       0       0
   590 ;;      Locals:         0       0       0       0       0       0       0       0       0
   591 ;;      Temps:          0       0       0       0       0       0       0       0       0
   592 ;;      Totals:         2       0       0       0       0       0       0       0       0
   593 ;;Total ram usage:        2 bytes
   594 ;; Hardware stack levels used:    1
   595 ;; Hardware stack levels required when called:    5
   596 ;; This function calls:
   597 ;;		Nothing
   598 ;; This function is called by:
   599 ;;		_ping_send
   600 ;;		_TMR1_Reload
   601 ;; This function uses a non-reentrant model
   602 ;;
   603                           
   604                           	psect	text2
   605  00063A                     __ptext2:
   606                           	opt callstack 0
   607  00063A                     _TMR1_WriteTimer:
   608                           	opt callstack 24
   609                           
   610                           ;mcc_generated_files/tmr1.c: 127: void TMR1_WriteTimer(uint16_t timerVal);mcc_generated_
      +                          files/tmr1.c: 128: {;mcc_generated_files/tmr1.c: 129:     if (T1CONbits.nT1SYNC == 1)
   611                           
   612                           ;incstack = 0
   613  00063A  A4CE               	btfss	4046,2,c	;volatile
   614  00063C  D007               	goto	l2041
   615                           
   616                           ;mcc_generated_files/tmr1.c: 130:     {;mcc_generated_files/tmr1.c: 132:         T1CONbi
      +                          ts.TMR1ON = 0;
   617  00063E  90CE               	bcf	4046,0,c	;volatile
   618                           
   619                           ;mcc_generated_files/tmr1.c: 135:         TMR1H = (timerVal >> 8);
   620  000640  504D               	movf	TMR1_WriteTimer@timerVal+1,w,c
   621  000642  6ECD               	movwf	4045,c	;volatile
   622                           
   623                           ;mcc_generated_files/tmr1.c: 136:         TMR1L = timerVal;
   624  000644  C04C  FFCC         	movff	TMR1_WriteTimer@timerVal,4044	;volatile
   625                           
   626                           ;mcc_generated_files/tmr1.c: 139:         T1CONbits.TMR1ON =1;
   627  000648  80CE               	bsf	4046,0,c	;volatile
   628                           
   629                           ;mcc_generated_files/tmr1.c: 140:     }
   630  00064A  0012               	return	
   631  00064C                     l2041:
   632                           
   633                           ;mcc_generated_files/tmr1.c: 142:     {;mcc_generated_files/tmr1.c: 144:         TMR1H =
      +                           (timerVal >> 8);
   634  00064C  504D               	movf	TMR1_WriteTimer@timerVal+1,w,c
   635  00064E  6ECD               	movwf	4045,c	;volatile
   636                           
   637                           ;mcc_generated_files/tmr1.c: 145:         TMR1L = timerVal;
   638  000650  C04C  FFCC         	movff	TMR1_WriteTimer@timerVal,4044	;volatile
   639  000654  0012               	return		;funcret
   640  000656                     __end_of_TMR1_WriteTimer:
   641                           	opt callstack 0
   642                           
   643 ;; *************** function _TMR1_StartTimer *****************
   644 ;; Defined at:
   645 ;;		line 99 in file "mcc_generated_files/tmr1.c"
   646 ;; Parameters:    Size  Location     Type
   647 ;;		None
   648 ;; Auto vars:     Size  Location     Type
   649 ;;		None
   650 ;; Return value:  Size  Location     Type
   651 ;;                  1    wreg      void 
   652 ;; Registers used:
   653 ;;		None
   654 ;; Tracked objects:
   655 ;;		On entry : 0/0
   656 ;;		On exit  : 0/0
   657 ;;		Unchanged: 0/0
   658 ;; Data sizes:     COMRAM   BANK0   BANK1   BANK2   BANK3   BANK4   BANK5   BANK6   BANK7
   659 ;;      Params:         0       0       0       0       0       0       0       0       0
   660 ;;      Locals:         0       0       0       0       0       0       0       0       0
   661 ;;      Temps:          0       0       0       0       0       0       0       0       0
   662 ;;      Totals:         0       0       0       0       0       0       0       0       0
   663 ;;Total ram usage:        0 bytes
   664 ;; Hardware stack levels used:    1
   665 ;; Hardware stack levels required when called:    5
   666 ;; This function calls:
   667 ;;		Nothing
   668 ;; This function is called by:
   669 ;;		_ping_send
   670 ;; This function uses a non-reentrant model
   671 ;;
   672                           
   673                           	psect	text3
   674  000756                     __ptext3:
   675                           	opt callstack 0
   676  000756                     _TMR1_StartTimer:
   677                           	opt callstack 24
   678                           
   679                           ;mcc_generated_files/tmr1.c: 102:     T1CONbits.TMR1ON = 1;
   680                           
   681                           ;incstack = 0
   682  000756  80CE               	bsf	4046,0,c	;volatile
   683  000758  0012               	return		;funcret
   684  00075A                     __end_of_TMR1_StartTimer:
   685                           	opt callstack 0
   686                           
   687 ;; *************** function _ping_init *****************
   688 ;; Defined at:
   689 ;;		line 94 in file "ping.c"
   690 ;; Parameters:    Size  Location     Type
   691 ;;		None
   692 ;; Auto vars:     Size  Location     Type
   693 ;;		None
   694 ;; Return value:  Size  Location     Type
   695 ;;                  1    wreg      void 
   696 ;; Registers used:
   697 ;;		wreg, status,2, status,0, cstack
   698 ;; Tracked objects:
   699 ;;		On entry : 0/0
   700 ;;		On exit  : 0/0
   701 ;;		Unchanged: 0/0
   702 ;; Data sizes:     COMRAM   BANK0   BANK1   BANK2   BANK3   BANK4   BANK5   BANK6   BANK7
   703 ;;      Params:         0       0       0       0       0       0       0       0       0
   704 ;;      Locals:         0       0       0       0       0       0       0       0       0
   705 ;;      Temps:          0       0       0       0       0       0       0       0       0
   706 ;;      Totals:         0       0       0       0       0       0       0       0       0
   707 ;;Total ram usage:        0 bytes
   708 ;; Hardware stack levels used:    1
   709 ;; Hardware stack levels required when called:    6
   710 ;; This function calls:
   711 ;;		_CCP1_SetCallBack
   712 ;;		_IOCCF2_SetInterruptHandler
   713 ;;		_TMR1_SetInterruptHandler
   714 ;; This function is called by:
   715 ;;		_main
   716 ;; This function uses a non-reentrant model
   717 ;;
   718                           
   719                           	psect	text4
   720  0003C4                     __ptext4:
   721                           	opt callstack 0
   722  0003C4                     _ping_init:
   723                           	opt callstack 24
   724                           
   725                           ;incstack = 0
   726                           ;ping.c: 95:     do { LATCbits.LATC1 = 1; } while(0);
   727  0003C4  8284               	bsf	3972,1,c	;volatile
   728                           
   729                           ;ping.c: 96:     status.readReady = 0;
   730  0003C6  0E00               	movlw	0
   731  0003C8  6E01               	movwf	_status,c	;volatile
   732                           
   733                           ;ping.c: 97:     status.pingStarted = 0;
   734  0003CA  0E00               	movlw	0
   735  0003CC  6E06               	movwf	_status+5,c	;volatile
   736                           
   737                           ;ping.c: 98:     PIE6bits.CCP1IE = 0;
   738  0003CE  010E               	movlb	14	; () banked
   739  0003D0  91C3               	bcf	195,0,b	;volatile
   740                           
   741                           ; BSR set to: 14
   742                           ;ping.c: 99:     TMR1_SetInterruptHandler(TMR1_DefaultInterruptHandler);
   743  0003D2  0E68               	movlw	low _TMR1_DefaultInterruptHandler
   744  0003D4  6E4C               	movwf	TMR1_SetInterruptHandler@InterruptHandler,c
   745  0003D6  0E07               	movlw	high _TMR1_DefaultInterruptHandler
   746  0003D8  6E4D               	movwf	TMR1_SetInterruptHandler@InterruptHandler+1,c
   747  0003DA  EC73  F003         	call	_TMR1_SetInterruptHandler	;wreg free
   748                           
   749                           ;ping.c: 100:     IOCCF2_SetInterruptHandler(IOCCF2_DefaultInterruptHandler);
   750  0003DE  0E6A               	movlw	low _IOCCF2_DefaultInterruptHandler
   751  0003E0  6E4C               	movwf	IOCCF2_SetInterruptHandler@InterruptHandler,c
   752  0003E2  0E07               	movlw	high _IOCCF2_DefaultInterruptHandler
   753  0003E4  6E4D               	movwf	IOCCF2_SetInterruptHandler@InterruptHandler+1,c
   754  0003E6  EC78  F003         	call	_IOCCF2_SetInterruptHandler	;wreg free
   755                           
   756                           ;ping.c: 101:     CCP1_SetCallBack(ping_CCP1_triggered);
   757  0003EA  0EA6               	movlw	low _ping_CCP1_triggered
   758  0003EC  6E4C               	movwf	CCP1_SetCallBack@customCallBack,c
   759  0003EE  0E06               	movlw	high _ping_CCP1_triggered
   760  0003F0  6E4D               	movwf	CCP1_SetCallBack@customCallBack+1,c
   761  0003F2  EC96  F003         	call	_CCP1_SetCallBack	;wreg free
   762  0003F6  9284               	bcf	3972,1,c	;volatile
   763  0003F8  0012               	return		;funcret
   764  0003FA                     __end_of_ping_init:
   765                           	opt callstack 0
   766                           
   767 ;; *************** function _carcontrol_init *****************
   768 ;; Defined at:
   769 ;;		line 27 in file "car_ctrl.c"
   770 ;; Parameters:    Size  Location     Type
   771 ;;		None
   772 ;; Auto vars:     Size  Location     Type
   773 ;;		None
   774 ;; Return value:  Size  Location     Type
   775 ;;                  1    wreg      void 
   776 ;; Registers used:
   777 ;;		wreg, status,2, status,0, cstack
   778 ;; Tracked objects:
   779 ;;		On entry : 0/0
   780 ;;		On exit  : 0/0
   781 ;;		Unchanged: 0/0
   782 ;; Data sizes:     COMRAM   BANK0   BANK1   BANK2   BANK3   BANK4   BANK5   BANK6   BANK7
   783 ;;      Params:         0       0       0       0       0       0       0       0       0
   784 ;;      Locals:         0       0       0       0       0       0       0       0       0
   785 ;;      Temps:          0       0       0       0       0       0       0       0       0
   786 ;;      Totals:         0       0       0       0       0       0       0       0       0
   787 ;;Total ram usage:        0 bytes
   788 ;; Hardware stack levels used:    1
   789 ;; Hardware stack levels required when called:    6
   790 ;; This function calls:
   791 ;;		_TMR2_SetInterruptHandler
   792 ;;		_carcontrol_steering
   793 ;;		_carcontrol_throttle
   794 ;; This function is called by:
   795 ;;		_main
   796 ;; This function uses a non-reentrant model
   797 ;;
   798                           
   799                           	psect	text5
   800  00045A                     __ptext5:
   801                           	opt callstack 0
   802  00045A                     _carcontrol_init:
   803                           	opt callstack 24
   804                           
   805                           ;car_ctrl.c: 28:     carctl.state = state_unset;
   806                           
   807                           ;incstack = 0
   808  00045A  0E00               	movlw	0
   809  00045C  6E22               	movwf	_carctl+1,c	;volatile
   810                           
   811                           ;car_ctrl.c: 29:     carcontrol_throttle(0);
   812  00045E  0E00               	movlw	0
   813  000460  EC5F  F003         	call	_carcontrol_throttle
   814                           
   815                           ;car_ctrl.c: 30:     carcontrol_steering(0);
   816  000464  0E00               	movlw	0
   817  000466  EC5A  F002         	call	_carcontrol_steering
   818                           
   819                           ;car_ctrl.c: 31:     carctl.servoHighTime = 50;
   820  00046A  0E32               	movlw	50
   821  00046C  6E26               	movwf	_carctl+5,c	;volatile
   822                           
   823                           ;car_ctrl.c: 33:     TMR2_SetInterruptHandler(carcontrol_ISR);
   824  00046E  0E9A               	movlw	low _carcontrol_ISR
   825  000470  6E4C               	movwf	TMR2_SetInterruptHandler@InterruptHandler,c
   826  000472  0E00               	movlw	high _carcontrol_ISR
   827  000474  6E4D               	movwf	TMR2_SetInterruptHandler@InterruptHandler+1,c
   828  000476  EC6E  F003         	call	_TMR2_SetInterruptHandler	;wreg free
   829                           
   830                           ;car_ctrl.c: 34:     stateTime = 0;
   831  00047A  0E00               	movlw	0
   832  00047C  6E28               	movwf	_stateTime+1,c
   833  00047E  0E00               	movlw	0
   834  000480  6E27               	movwf	_stateTime,c
   835                           
   836                           ;car_ctrl.c: 35:     carctl.initialized = 1;
   837  000482  0E01               	movlw	1
   838  000484  6E21               	movwf	_carctl,c	;volatile
   839  000486  0012               	return		;funcret
   840  000488                     __end_of_carcontrol_init:
   841                           	opt callstack 0
   842                           
   843 ;; *************** function _carcontrol_throttle *****************
   844 ;; Defined at:
   845 ;;		line 118 in file "car_ctrl.c"
   846 ;; Parameters:    Size  Location     Type
   847 ;;  throttle        1    wreg     unsigned char 
   848 ;; Auto vars:     Size  Location     Type
   849 ;;  throttle        1    8[COMRAM] unsigned char 
   850 ;; Return value:  Size  Location     Type
   851 ;;                  1    wreg      void 
   852 ;; Registers used:
   853 ;;		wreg, status,2, status,0
   854 ;; Tracked objects:
   855 ;;		On entry : 0/0
   856 ;;		On exit  : 0/0
   857 ;;		Unchanged: 0/0
   858 ;; Data sizes:     COMRAM   BANK0   BANK1   BANK2   BANK3   BANK4   BANK5   BANK6   BANK7
   859 ;;      Params:         0       0       0       0       0       0       0       0       0
   860 ;;      Locals:         1       0       0       0       0       0       0       0       0
   861 ;;      Temps:          0       0       0       0       0       0       0       0       0
   862 ;;      Totals:         1       0       0       0       0       0       0       0       0
   863 ;;Total ram usage:        1 bytes
   864 ;; Hardware stack levels used:    1
   865 ;; Hardware stack levels required when called:    5
   866 ;; This function calls:
   867 ;;		Nothing
   868 ;; This function is called by:
   869 ;;		_carcontrol_init
   870 ;; This function uses a non-reentrant model
   871 ;;
   872                           
   873                           	psect	text6
   874  0006BE                     __ptext6:
   875                           	opt callstack 0
   876  0006BE                     _carcontrol_throttle:
   877                           	opt callstack 24
   878                           
   879                           ;incstack = 0
   880                           ;carcontrol_throttle@throttle stored from wreg
   881  0006BE  6E4C               	movwf	carcontrol_throttle@throttle,c
   882                           
   883                           ;car_ctrl.c: 120:     if (throttle > 100) throttle = 100;
   884  0006C0  0E64               	movlw	100
   885  0006C2  644C               	cpfsgt	carcontrol_throttle@throttle,c
   886  0006C4  D002               	goto	l1541
   887  0006C6  0E64               	movlw	100
   888  0006C8  6E4C               	movwf	carcontrol_throttle@throttle,c
   889  0006CA                     l1541:
   890                           
   891                           ;car_ctrl.c: 121:     carctl.throttleHighTime = throttle;
   892  0006CA  C04C  F025         	movff	carcontrol_throttle@throttle,_carctl+4	;volatile
   893  0006CE  0012               	return		;funcret
   894  0006D0                     __end_of_carcontrol_throttle:
   895                           	opt callstack 0
   896                           
   897 ;; *************** function _carcontrol_steering *****************
   898 ;; Defined at:
   899 ;;		line 93 in file "car_ctrl.c"
   900 ;; Parameters:    Size  Location     Type
   901 ;;  steering        1    wreg     char 
   902 ;; Auto vars:     Size  Location     Type
   903 ;;  steering        1    8[COMRAM] char 
   904 ;; Return value:  Size  Location     Type
   905 ;;                  1    wreg      void 
   906 ;; Registers used:
   907 ;;		wreg, status,2, status,0
   908 ;; Tracked objects:
   909 ;;		On entry : 0/0
   910 ;;		On exit  : 0/0
   911 ;;		Unchanged: 0/0
   912 ;; Data sizes:     COMRAM   BANK0   BANK1   BANK2   BANK3   BANK4   BANK5   BANK6   BANK7
   913 ;;      Params:         0       0       0       0       0       0       0       0       0
   914 ;;      Locals:         1       0       0       0       0       0       0       0       0
   915 ;;      Temps:          0       0       0       0       0       0       0       0       0
   916 ;;      Totals:         1       0       0       0       0       0       0       0       0
   917 ;;Total ram usage:        1 bytes
   918 ;; Hardware stack levels used:    1
   919 ;; Hardware stack levels required when called:    5
   920 ;; This function calls:
   921 ;;		Nothing
   922 ;; This function is called by:
   923 ;;		_main
   924 ;;		_carcontrol_init
   925 ;; This function uses a non-reentrant model
   926 ;;
   927                           
   928                           	psect	text7
   929  0004B4                     __ptext7:
   930                           	opt callstack 0
   931  0004B4                     _carcontrol_steering:
   932                           	opt callstack 25
   933                           
   934                           ;incstack = 0
   935                           ;carcontrol_steering@steering stored from wreg
   936  0004B4  6E4C               	movwf	carcontrol_steering@steering,c
   937                           
   938                           ;car_ctrl.c: 106:     if (steering < servo_min) steering = servo_min;
   939  0004B6  504C               	movf	carcontrol_steering@steering,w,c
   940  0004B8  0A80               	xorlw	128
   941  0004BA  0F9E               	addlw	158
   942  0004BC  B0D8               	btfsc	status,0,c
   943  0004BE  D002               	goto	l1529
   944  0004C0  0EE2               	movlw	226
   945  0004C2  6E4C               	movwf	carcontrol_steering@steering,c
   946  0004C4                     l1529:
   947                           
   948                           ;car_ctrl.c: 107:     if (steering > servo_max) steering = servo_max;
   949  0004C4  504C               	movf	carcontrol_steering@steering,w,c
   950  0004C6  0A80               	xorlw	128
   951  0004C8  0F63               	addlw	-157
   952  0004CA  A0D8               	btfss	status,0,c
   953  0004CC  D002               	goto	l1533
   954  0004CE  0E1C               	movlw	28
   955  0004D0  6E4C               	movwf	carcontrol_steering@steering,c
   956  0004D2                     l1533:
   957                           
   958                           ;car_ctrl.c: 109:     steering = steering + servo_trim;
   959  0004D2  504C               	movf	carcontrol_steering@steering,w,c
   960  0004D4  0FEF               	addlw	239
   961  0004D6  6E4C               	movwf	carcontrol_steering@steering,c
   962                           
   963                           ;car_ctrl.c: 111:     carctl.servoHighTime = steering + 50;
   964  0004D8  504C               	movf	carcontrol_steering@steering,w,c
   965  0004DA  0F32               	addlw	50
   966  0004DC  6E26               	movwf	_carctl+5,c	;volatile
   967  0004DE  0012               	return		;funcret
   968  0004E0                     __end_of_carcontrol_steering:
   969                           	opt callstack 0
   970                           
   971 ;; *************** function _SYSTEM_Initialize *****************
   972 ;; Defined at:
   973 ;;		line 50 in file "mcc_generated_files/mcc.c"
   974 ;; Parameters:    Size  Location     Type
   975 ;;		None
   976 ;; Auto vars:     Size  Location     Type
   977 ;;		None
   978 ;; Return value:  Size  Location     Type
   979 ;;                  1    wreg      void 
   980 ;; Registers used:
   981 ;;		wreg, status,2, status,0, cstack
   982 ;; Tracked objects:
   983 ;;		On entry : 0/0
   984 ;;		On exit  : 0/0
   985 ;;		Unchanged: 0/0
   986 ;; Data sizes:     COMRAM   BANK0   BANK1   BANK2   BANK3   BANK4   BANK5   BANK6   BANK7
   987 ;;      Params:         0       0       0       0       0       0       0       0       0
   988 ;;      Locals:         0       0       0       0       0       0       0       0       0
   989 ;;      Temps:          0       0       0       0       0       0       0       0       0
   990 ;;      Totals:         0       0       0       0       0       0       0       0       0
   991 ;;Total ram usage:        0 bytes
   992 ;; Hardware stack levels used:    1
   993 ;; Hardware stack levels required when called:    7
   994 ;; This function calls:
   995 ;;		_CCP1_Initialize
   996 ;;		_EUSART1_Initialize
   997 ;;		_INTERRUPT_Initialize
   998 ;;		_OSCILLATOR_Initialize
   999 ;;		_PIN_MANAGER_Initialize
  1000 ;;		_PMD_Initialize
  1001 ;;		_TMR1_Initialize
  1002 ;;		_TMR2_Initialize
  1003 ;; This function is called by:
  1004 ;;		_main
  1005 ;; This function uses a non-reentrant model
  1006 ;;
  1007                           
  1008                           	psect	text8
  1009  0005DA                     __ptext8:
  1010                           	opt callstack 0
  1011  0005DA                     _SYSTEM_Initialize:
  1012                           	opt callstack 23
  1013                           
  1014                           ;mcc_generated_files/mcc.c: 52:     INTERRUPT_Initialize();
  1015                           
  1016                           ;incstack = 0
  1017  0005DA  ECAD  F003         	call	_INTERRUPT_Initialize	;wreg free
  1018                           
  1019                           ;mcc_generated_files/mcc.c: 53:     PMD_Initialize();
  1020  0005DE  EC2B  F003         	call	_PMD_Initialize	;wreg free
  1021                           
  1022                           ;mcc_generated_files/mcc.c: 54:     PIN_MANAGER_Initialize();
  1023  0005E2  EC46  F001         	call	_PIN_MANAGER_Initialize	;wreg free
  1024                           
  1025                           ;mcc_generated_files/mcc.c: 55:     OSCILLATOR_Initialize();
  1026  0005E6  EC47  F003         	call	_OSCILLATOR_Initialize	;wreg free
  1027                           
  1028                           ;mcc_generated_files/mcc.c: 56:     CCP1_Initialize();
  1029  0005EA  EC86  F002         	call	_CCP1_Initialize	;wreg free
  1030                           
  1031                           ;mcc_generated_files/mcc.c: 57:     TMR2_Initialize();
  1032  0005EE  EC70  F002         	call	_TMR2_Initialize	;wreg free
  1033                           
  1034                           ;mcc_generated_files/mcc.c: 58:     TMR1_Initialize();
  1035  0005F2  ECA5  F001         	call	_TMR1_Initialize	;wreg free
  1036                           
  1037                           ;mcc_generated_files/mcc.c: 59:     EUSART1_Initialize();
  1038  0005F6  EC09  F001         	call	_EUSART1_Initialize	;wreg free
  1039  0005FA  0012               	return		;funcret
  1040  0005FC                     __end_of_SYSTEM_Initialize:
  1041                           	opt callstack 0
  1042                           
  1043 ;; *************** function _TMR2_Initialize *****************
  1044 ;; Defined at:
  1045 ;;		line 64 in file "mcc_generated_files/tmr2.c"
  1046 ;; Parameters:    Size  Location     Type
  1047 ;;		None
  1048 ;; Auto vars:     Size  Location     Type
  1049 ;;		None
  1050 ;; Return value:  Size  Location     Type
  1051 ;;                  1    wreg      void 
  1052 ;; Registers used:
  1053 ;;		wreg, status,2, status,0, cstack
  1054 ;; Tracked objects:
  1055 ;;		On entry : 0/0
  1056 ;;		On exit  : 0/0
  1057 ;;		Unchanged: 0/0
  1058 ;; Data sizes:     COMRAM   BANK0   BANK1   BANK2   BANK3   BANK4   BANK5   BANK6   BANK7
  1059 ;;      Params:         0       0       0       0       0       0       0       0       0
  1060 ;;      Locals:         0       0       0       0       0       0       0       0       0
  1061 ;;      Temps:          0       0       0       0       0       0       0       0       0
  1062 ;;      Totals:         0       0       0       0       0       0       0       0       0
  1063 ;;Total ram usage:        0 bytes
  1064 ;; Hardware stack levels used:    1
  1065 ;; Hardware stack levels required when called:    6
  1066 ;; This function calls:
  1067 ;;		_TMR2_SetInterruptHandler
  1068 ;; This function is called by:
  1069 ;;		_SYSTEM_Initialize
  1070 ;; This function uses a non-reentrant model
  1071 ;;
  1072                           
  1073                           	psect	text9
  1074  0004E0                     __ptext9:
  1075                           	opt callstack 0
  1076  0004E0                     _TMR2_Initialize:
  1077                           	opt callstack 23
  1078                           
  1079                           ;mcc_generated_files/tmr2.c: 69:     T2CLKCON = 0x01;
  1080                           
  1081                           ;incstack = 0
  1082  0004E0  0E01               	movlw	1
  1083  0004E2  6EBE               	movwf	4030,c	;volatile
  1084                           
  1085                           ;mcc_generated_files/tmr2.c: 72:     T2HLT = 0x00;
  1086  0004E4  0E00               	movlw	0
  1087  0004E6  6EBD               	movwf	4029,c	;volatile
  1088                           
  1089                           ;mcc_generated_files/tmr2.c: 75:     T2RST = 0x00;
  1090  0004E8  0E00               	movlw	0
  1091  0004EA  6EBF               	movwf	4031,c	;volatile
  1092                           
  1093                           ;mcc_generated_files/tmr2.c: 78:     T2PR = 0x9F;
  1094  0004EC  0E9F               	movlw	159
  1095  0004EE  6EBB               	movwf	4027,c	;volatile
  1096                           
  1097                           ;mcc_generated_files/tmr2.c: 81:     T2TMR = 0x00;
  1098  0004F0  0E00               	movlw	0
  1099  0004F2  6EBA               	movwf	4026,c	;volatile
  1100                           
  1101                           ;mcc_generated_files/tmr2.c: 84:     PIR4bits.TMR2IF = 0;
  1102  0004F4  010E               	movlb	14	; () banked
  1103  0004F6  93C9               	bcf	201,1,b	;volatile
  1104                           
  1105                           ; BSR set to: 14
  1106                           ;mcc_generated_files/tmr2.c: 87:     PIE4bits.TMR2IE = 1;
  1107  0004F8  83C1               	bsf	193,1,b	;volatile
  1108                           
  1109                           ; BSR set to: 14
  1110                           ;mcc_generated_files/tmr2.c: 90:     TMR2_SetInterruptHandler(TMR2_DefaultInterruptHandl
      +                          er);
  1111  0004FA  0E66               	movlw	low _TMR2_DefaultInterruptHandler
  1112  0004FC  6E4C               	movwf	TMR2_SetInterruptHandler@InterruptHandler,c
  1113  0004FE  0E07               	movlw	high _TMR2_DefaultInterruptHandler
  1114  000500  6E4D               	movwf	TMR2_SetInterruptHandler@InterruptHandler+1,c
  1115  000502  EC6E  F003         	call	_TMR2_SetInterruptHandler	;wreg free
  1116                           
  1117                           ;mcc_generated_files/tmr2.c: 93:     T2CON = 0x80;
  1118  000506  0E80               	movlw	128
  1119  000508  6EBC               	movwf	4028,c	;volatile
  1120  00050A  0012               	return		;funcret
  1121  00050C                     __end_of_TMR2_Initialize:
  1122                           	opt callstack 0
  1123                           
  1124 ;; *************** function _TMR2_SetInterruptHandler *****************
  1125 ;; Defined at:
  1126 ;;		line 178 in file "mcc_generated_files/tmr2.c"
  1127 ;; Parameters:    Size  Location     Type
  1128 ;;  InterruptHan    2    8[COMRAM] PTR FTN()void 
  1129 ;;		 -> carcontrol_ISR(1), TMR2_DefaultInterruptHandler(1), 
  1130 ;; Auto vars:     Size  Location     Type
  1131 ;;		None
  1132 ;; Return value:  Size  Location     Type
  1133 ;;                  1    wreg      void 
  1134 ;; Registers used:
  1135 ;;		wreg, status,2, status,0
  1136 ;; Tracked objects:
  1137 ;;		On entry : 0/0
  1138 ;;		On exit  : 0/0
  1139 ;;		Unchanged: 0/0
  1140 ;; Data sizes:     COMRAM   BANK0   BANK1   BANK2   BANK3   BANK4   BANK5   BANK6   BANK7
  1141 ;;      Params:         2       0       0       0       0       0       0       0       0
  1142 ;;      Locals:         0       0       0       0       0       0       0       0       0
  1143 ;;      Temps:          0       0       0       0       0       0       0       0       0
  1144 ;;      Totals:         2       0       0       0       0       0       0       0       0
  1145 ;;Total ram usage:        2 bytes
  1146 ;; Hardware stack levels used:    1
  1147 ;; Hardware stack levels required when called:    5
  1148 ;; This function calls:
  1149 ;;		Nothing
  1150 ;; This function is called by:
  1151 ;;		_TMR2_Initialize
  1152 ;;		_carcontrol_init
  1153 ;; This function uses a non-reentrant model
  1154 ;;
  1155                           
  1156                           	psect	text10
  1157  0006DC                     __ptext10:
  1158                           	opt callstack 0
  1159  0006DC                     _TMR2_SetInterruptHandler:
  1160                           	opt callstack 24
  1161                           
  1162                           ;mcc_generated_files/tmr2.c: 179:     TMR2_InterruptHandler = InterruptHandler;
  1163                           
  1164                           ;incstack = 0
  1165  0006DC  C04C  F03B         	movff	TMR2_SetInterruptHandler@InterruptHandler,_TMR2_InterruptHandler
  1166  0006E0  C04D  F03C         	movff	TMR2_SetInterruptHandler@InterruptHandler+1,_TMR2_InterruptHandler+1
  1167  0006E4  0012               	return		;funcret
  1168  0006E6                     __end_of_TMR2_SetInterruptHandler:
  1169                           	opt callstack 0
  1170                           
  1171 ;; *************** function _TMR1_Initialize *****************
  1172 ;; Defined at:
  1173 ;;		line 64 in file "mcc_generated_files/tmr1.c"
  1174 ;; Parameters:    Size  Location     Type
  1175 ;;		None
  1176 ;; Auto vars:     Size  Location     Type
  1177 ;;		None
  1178 ;; Return value:  Size  Location     Type
  1179 ;;                  1    wreg      void 
  1180 ;; Registers used:
  1181 ;;		wreg, status,2, status,0, cstack
  1182 ;; Tracked objects:
  1183 ;;		On entry : 0/0
  1184 ;;		On exit  : 0/0
  1185 ;;		Unchanged: 0/0
  1186 ;; Data sizes:     COMRAM   BANK0   BANK1   BANK2   BANK3   BANK4   BANK5   BANK6   BANK7
  1187 ;;      Params:         0       0       0       0       0       0       0       0       0
  1188 ;;      Locals:         0       0       0       0       0       0       0       0       0
  1189 ;;      Temps:          2       0       0       0       0       0       0       0       0
  1190 ;;      Totals:         2       0       0       0       0       0       0       0       0
  1191 ;;Total ram usage:        2 bytes
  1192 ;; Hardware stack levels used:    1
  1193 ;; Hardware stack levels required when called:    6
  1194 ;; This function calls:
  1195 ;;		_TMR1_SetInterruptHandler
  1196 ;; This function is called by:
  1197 ;;		_SYSTEM_Initialize
  1198 ;; This function uses a non-reentrant model
  1199 ;;
  1200                           
  1201                           	psect	text11
  1202  00034A                     __ptext11:
  1203                           	opt callstack 0
  1204  00034A                     _TMR1_Initialize:
  1205                           	opt callstack 23
  1206                           
  1207                           ;mcc_generated_files/tmr1.c: 69:     T1GCON = 0x00;
  1208                           
  1209                           ;incstack = 0
  1210  00034A  0E00               	movlw	0
  1211  00034C  6ECF               	movwf	4047,c	;volatile
  1212                           
  1213                           ;mcc_generated_files/tmr1.c: 72:     T1GATE = 0x00;
  1214  00034E  0E00               	movlw	0
  1215  000350  6ED0               	movwf	4048,c	;volatile
  1216                           
  1217                           ;mcc_generated_files/tmr1.c: 75:     T1CLK = 0x01;
  1218  000352  0E01               	movlw	1
  1219  000354  6ED1               	movwf	4049,c	;volatile
  1220                           
  1221                           ;mcc_generated_files/tmr1.c: 78:     TMR1H = 0x63;
  1222  000356  0E63               	movlw	99
  1223  000358  6ECD               	movwf	4045,c	;volatile
  1224                           
  1225                           ;mcc_generated_files/tmr1.c: 81:     TMR1L = 0xC0;
  1226  00035A  0EC0               	movlw	192
  1227  00035C  6ECC               	movwf	4044,c	;volatile
  1228                           
  1229                           ;mcc_generated_files/tmr1.c: 84:     timer1ReloadVal=(uint16_t)((TMR1H << 8) | TMR1L);
  1230  00035E  50CC               	movf	4044,w,c	;volatile
  1231  000360  CFCD F04E          	movff	4045,??_TMR1_Initialize	;volatile
  1232  000364  6A4F               	clrf	(??_TMR1_Initialize+1)& (0+255),c
  1233  000366  C04E  F04F         	movff	??_TMR1_Initialize,??_TMR1_Initialize+1
  1234  00036A  6A4E               	clrf	??_TMR1_Initialize,c
  1235  00036C  104E               	iorwf	??_TMR1_Initialize,w,c
  1236  00036E  6E37               	movwf	_timer1ReloadVal,c	;volatile
  1237  000370  504F               	movf	??_TMR1_Initialize+1,w,c
  1238  000372  6E38               	movwf	_timer1ReloadVal+1,c	;volatile
  1239                           
  1240                           ;mcc_generated_files/tmr1.c: 87:     PIR4bits.TMR1IF = 0;
  1241  000374  010E               	movlb	14	; () banked
  1242  000376  91C9               	bcf	201,0,b	;volatile
  1243                           
  1244                           ; BSR set to: 14
  1245                           ;mcc_generated_files/tmr1.c: 90:     PIE4bits.TMR1IE = 1;
  1246  000378  81C1               	bsf	193,0,b	;volatile
  1247                           
  1248                           ; BSR set to: 14
  1249                           ;mcc_generated_files/tmr1.c: 93:     TMR1_SetInterruptHandler(TMR1_DefaultInterruptHandl
      +                          er);
  1250  00037A  0E68               	movlw	low _TMR1_DefaultInterruptHandler
  1251  00037C  6E4C               	movwf	TMR1_SetInterruptHandler@InterruptHandler,c
  1252  00037E  0E07               	movlw	high _TMR1_DefaultInterruptHandler
  1253  000380  6E4D               	movwf	TMR1_SetInterruptHandler@InterruptHandler+1,c
  1254  000382  EC73  F003         	call	_TMR1_SetInterruptHandler	;wreg free
  1255                           
  1256                           ;mcc_generated_files/tmr1.c: 96:     T1CON = 0x33;
  1257  000386  0E33               	movlw	51
  1258  000388  6ECE               	movwf	4046,c	;volatile
  1259  00038A  0012               	return		;funcret
  1260  00038C                     __end_of_TMR1_Initialize:
  1261                           	opt callstack 0
  1262                           
  1263 ;; *************** function _TMR1_SetInterruptHandler *****************
  1264 ;; Defined at:
  1265 ;;		line 178 in file "mcc_generated_files/tmr1.c"
  1266 ;; Parameters:    Size  Location     Type
  1267 ;;  InterruptHan    2    8[COMRAM] PTR FTN()void 
  1268 ;;		 -> ping_TMR1Overflow_isr(1), TMR1_DefaultInterruptHandler(1), 
  1269 ;; Auto vars:     Size  Location     Type
  1270 ;;		None
  1271 ;; Return value:  Size  Location     Type
  1272 ;;                  1    wreg      void 
  1273 ;; Registers used:
  1274 ;;		wreg, status,2, status,0
  1275 ;; Tracked objects:
  1276 ;;		On entry : 0/0
  1277 ;;		On exit  : 0/0
  1278 ;;		Unchanged: 0/0
  1279 ;; Data sizes:     COMRAM   BANK0   BANK1   BANK2   BANK3   BANK4   BANK5   BANK6   BANK7
  1280 ;;      Params:         2       0       0       0       0       0       0       0       0
  1281 ;;      Locals:         0       0       0       0       0       0       0       0       0
  1282 ;;      Temps:          0       0       0       0       0       0       0       0       0
  1283 ;;      Totals:         2       0       0       0       0       0       0       0       0
  1284 ;;Total ram usage:        2 bytes
  1285 ;; Hardware stack levels used:    1
  1286 ;; Hardware stack levels required when called:    5
  1287 ;; This function calls:
  1288 ;;		Nothing
  1289 ;; This function is called by:
  1290 ;;		_TMR1_Initialize
  1291 ;;		_ping_init
  1292 ;;		_ping_send
  1293 ;; This function uses a non-reentrant model
  1294 ;;
  1295                           
  1296                           	psect	text12
  1297  0006E6                     __ptext12:
  1298                           	opt callstack 0
  1299  0006E6                     _TMR1_SetInterruptHandler:
  1300                           	opt callstack 24
  1301                           
  1302                           ;mcc_generated_files/tmr1.c: 179:     TMR1_InterruptHandler = InterruptHandler;
  1303                           
  1304                           ;incstack = 0
  1305  0006E6  C04C  F035         	movff	TMR1_SetInterruptHandler@InterruptHandler,_TMR1_InterruptHandler
  1306  0006EA  C04D  F036         	movff	TMR1_SetInterruptHandler@InterruptHandler+1,_TMR1_InterruptHandler+1
  1307  0006EE  0012               	return		;funcret
  1308  0006F0                     __end_of_TMR1_SetInterruptHandler:
  1309                           	opt callstack 0
  1310                           
  1311 ;; *************** function _PMD_Initialize *****************
  1312 ;; Defined at:
  1313 ;;		line 76 in file "mcc_generated_files/mcc.c"
  1314 ;; Parameters:    Size  Location     Type
  1315 ;;		None
  1316 ;; Auto vars:     Size  Location     Type
  1317 ;;		None
  1318 ;; Return value:  Size  Location     Type
  1319 ;;                  1    wreg      void 
  1320 ;; Registers used:
  1321 ;;		wreg, status,2
  1322 ;; Tracked objects:
  1323 ;;		On entry : 0/0
  1324 ;;		On exit  : 0/0
  1325 ;;		Unchanged: 0/0
  1326 ;; Data sizes:     COMRAM   BANK0   BANK1   BANK2   BANK3   BANK4   BANK5   BANK6   BANK7
  1327 ;;      Params:         0       0       0       0       0       0       0       0       0
  1328 ;;      Locals:         0       0       0       0       0       0       0       0       0
  1329 ;;      Temps:          0       0       0       0       0       0       0       0       0
  1330 ;;      Totals:         0       0       0       0       0       0       0       0       0
  1331 ;;Total ram usage:        0 bytes
  1332 ;; Hardware stack levels used:    1
  1333 ;; Hardware stack levels required when called:    5
  1334 ;; This function calls:
  1335 ;;		Nothing
  1336 ;; This function is called by:
  1337 ;;		_SYSTEM_Initialize
  1338 ;; This function uses a non-reentrant model
  1339 ;;
  1340                           
  1341                           	psect	text13
  1342  000656                     __ptext13:
  1343                           	opt callstack 0
  1344  000656                     _PMD_Initialize:
  1345                           	opt callstack 24
  1346                           
  1347                           ;mcc_generated_files/mcc.c: 79:     PMD0 = 0x00;
  1348                           
  1349                           ;incstack = 0
  1350  000656  0E00               	movlw	0
  1351  000658  010E               	movlb	14	; () banked
  1352  00065A  6FDC               	movwf	220,b	;volatile
  1353                           
  1354                           ;mcc_generated_files/mcc.c: 81:     PMD1 = 0x00;
  1355  00065C  0E00               	movlw	0
  1356  00065E  6FDD               	movwf	221,b	;volatile
  1357                           
  1358                           ;mcc_generated_files/mcc.c: 83:     PMD2 = 0x00;
  1359  000660  0E00               	movlw	0
  1360  000662  6FDE               	movwf	222,b	;volatile
  1361                           
  1362                           ;mcc_generated_files/mcc.c: 85:     PMD3 = 0x00;
  1363  000664  0E00               	movlw	0
  1364  000666  6FDF               	movwf	223,b	;volatile
  1365                           
  1366                           ;mcc_generated_files/mcc.c: 87:     PMD4 = 0x00;
  1367  000668  0E00               	movlw	0
  1368  00066A  6FE0               	movwf	224,b	;volatile
  1369                           
  1370                           ;mcc_generated_files/mcc.c: 89:     PMD5 = 0x00;
  1371  00066C  0E00               	movlw	0
  1372  00066E  6FE1               	movwf	225,b	;volatile
  1373                           
  1374                           ; BSR set to: 14
  1375  000670  0012               	return		;funcret
  1376  000672                     __end_of_PMD_Initialize:
  1377                           	opt callstack 0
  1378                           
  1379 ;; *************** function _PIN_MANAGER_Initialize *****************
  1380 ;; Defined at:
  1381 ;;		line 57 in file "mcc_generated_files/pin_manager.c"
  1382 ;; Parameters:    Size  Location     Type
  1383 ;;		None
  1384 ;; Auto vars:     Size  Location     Type
  1385 ;;		None
  1386 ;; Return value:  Size  Location     Type
  1387 ;;                  1    wreg      void 
  1388 ;; Registers used:
  1389 ;;		wreg, status,2, status,0, cstack
  1390 ;; Tracked objects:
  1391 ;;		On entry : 0/0
  1392 ;;		On exit  : 0/0
  1393 ;;		Unchanged: 0/0
  1394 ;; Data sizes:     COMRAM   BANK0   BANK1   BANK2   BANK3   BANK4   BANK5   BANK6   BANK7
  1395 ;;      Params:         0       0       0       0       0       0       0       0       0
  1396 ;;      Locals:         0       0       0       0       0       0       0       0       0
  1397 ;;      Temps:          0       0       0       0       0       0       0       0       0
  1398 ;;      Totals:         0       0       0       0       0       0       0       0       0
  1399 ;;Total ram usage:        0 bytes
  1400 ;; Hardware stack levels used:    1
  1401 ;; Hardware stack levels required when called:    6
  1402 ;; This function calls:
  1403 ;;		_IOCCF2_SetInterruptHandler
  1404 ;; This function is called by:
  1405 ;;		_SYSTEM_Initialize
  1406 ;; This function uses a non-reentrant model
  1407 ;;
  1408                           
  1409                           	psect	text14
  1410  00028C                     __ptext14:
  1411                           	opt callstack 0
  1412  00028C                     _PIN_MANAGER_Initialize:
  1413                           	opt callstack 23
  1414                           
  1415                           ;mcc_generated_files/pin_manager.c: 62:     LATA = 0x00;
  1416                           
  1417                           ; BSR set to: 14
  1418                           ;incstack = 0
  1419  00028C  0E00               	movlw	0
  1420  00028E  6E82               	movwf	3970,c	;volatile
  1421                           
  1422                           ;mcc_generated_files/pin_manager.c: 63:     LATB = 0x00;
  1423  000290  0E00               	movlw	0
  1424  000292  6E83               	movwf	3971,c	;volatile
  1425                           
  1426                           ;mcc_generated_files/pin_manager.c: 64:     LATC = 0x00;
  1427  000294  0E00               	movlw	0
  1428  000296  6E84               	movwf	3972,c	;volatile
  1429                           
  1430                           ;mcc_generated_files/pin_manager.c: 69:     TRISA = 0xF0;
  1431  000298  0EF0               	movlw	240
  1432  00029A  6E87               	movwf	3975,c	;volatile
  1433                           
  1434                           ;mcc_generated_files/pin_manager.c: 70:     TRISB = 0xFF;
  1435  00029C  6888               	setf	3976,c	;volatile
  1436                           
  1437                           ;mcc_generated_files/pin_manager.c: 71:     TRISC = 0x3D;
  1438  00029E  0E3D               	movlw	61
  1439  0002A0  6E89               	movwf	3977,c	;volatile
  1440                           
  1441                           ;mcc_generated_files/pin_manager.c: 76:     ANSELC = 0x3B;
  1442  0002A2  0E3B               	movlw	59
  1443  0002A4  010F               	movlb	15	; () banked
  1444  0002A6  6F1C               	movwf	28,b	;volatile
  1445                           
  1446                           ; BSR set to: 15
  1447                           ;mcc_generated_files/pin_manager.c: 77:     ANSELB = 0xFF;
  1448  0002A8  6914               	setf	20,b	;volatile
  1449                           
  1450                           ;mcc_generated_files/pin_manager.c: 78:     ANSELA = 0xFA;
  1451  0002AA  0EFA               	movlw	250
  1452  0002AC  6F0C               	movwf	12,b	;volatile
  1453                           
  1454                           ;mcc_generated_files/pin_manager.c: 83:     WPUE = 0x00;
  1455  0002AE  0E00               	movlw	0
  1456  0002B0  6F28               	movwf	40,b	;volatile
  1457                           
  1458                           ;mcc_generated_files/pin_manager.c: 84:     WPUB = 0x00;
  1459  0002B2  0E00               	movlw	0
  1460  0002B4  6F13               	movwf	19,b	;volatile
  1461                           
  1462                           ;mcc_generated_files/pin_manager.c: 85:     WPUA = 0x00;
  1463  0002B6  0E00               	movlw	0
  1464  0002B8  6F0B               	movwf	11,b	;volatile
  1465                           
  1466                           ;mcc_generated_files/pin_manager.c: 86:     WPUC = 0x00;
  1467  0002BA  0E00               	movlw	0
  1468  0002BC  6F1B               	movwf	27,b	;volatile
  1469                           
  1470                           ;mcc_generated_files/pin_manager.c: 91:     ODCONA = 0x00;
  1471  0002BE  0E00               	movlw	0
  1472  0002C0  6F0A               	movwf	10,b	;volatile
  1473                           
  1474                           ;mcc_generated_files/pin_manager.c: 92:     ODCONB = 0x00;
  1475  0002C2  0E00               	movlw	0
  1476  0002C4  6F12               	movwf	18,b	;volatile
  1477                           
  1478                           ;mcc_generated_files/pin_manager.c: 93:     ODCONC = 0x00;
  1479  0002C6  0E00               	movlw	0
  1480  0002C8  6F1A               	movwf	26,b	;volatile
  1481                           
  1482                           ; BSR set to: 15
  1483                           ;mcc_generated_files/pin_manager.c: 98:     SLRCONA = 0xFF;
  1484  0002CA  6909               	setf	9,b	;volatile
  1485                           
  1486                           ; BSR set to: 15
  1487                           ;mcc_generated_files/pin_manager.c: 99:     SLRCONB = 0xFF;
  1488  0002CC  6911               	setf	17,b	;volatile
  1489                           
  1490                           ; BSR set to: 15
  1491                           ;mcc_generated_files/pin_manager.c: 100:     SLRCONC = 0xFF;
  1492  0002CE  6919               	setf	25,b	;volatile
  1493                           
  1494                           ; BSR set to: 15
  1495                           ;mcc_generated_files/pin_manager.c: 107:     IOCCFbits.IOCCF2 = 0;
  1496  0002D0  9515               	bcf	21,2,b	;volatile
  1497                           
  1498                           ; BSR set to: 15
  1499                           ;mcc_generated_files/pin_manager.c: 109:     IOCCNbits.IOCCN2 = 0;
  1500  0002D2  9516               	bcf	22,2,b	;volatile
  1501                           
  1502                           ; BSR set to: 15
  1503                           ;mcc_generated_files/pin_manager.c: 111:     IOCCPbits.IOCCP2 = 1;
  1504  0002D4  8517               	bsf	23,2,b	;volatile
  1505                           
  1506                           ; BSR set to: 15
  1507                           ;mcc_generated_files/pin_manager.c: 116:     IOCCF2_SetInterruptHandler(IOCCF2_DefaultIn
      +                          terruptHandler);
  1508  0002D6  0E6A               	movlw	low _IOCCF2_DefaultInterruptHandler
  1509  0002D8  6E4C               	movwf	IOCCF2_SetInterruptHandler@InterruptHandler,c
  1510  0002DA  0E07               	movlw	high _IOCCF2_DefaultInterruptHandler
  1511  0002DC  6E4D               	movwf	IOCCF2_SetInterruptHandler@InterruptHandler+1,c
  1512  0002DE  EC78  F003         	call	_IOCCF2_SetInterruptHandler	;wreg free
  1513                           
  1514                           ;mcc_generated_files/pin_manager.c: 119:     PIE0bits.IOCIE = 1;
  1515  0002E2  010E               	movlb	14	; () banked
  1516  0002E4  89BD               	bsf	189,4,b	;volatile
  1517                           
  1518                           ; BSR set to: 14
  1519                           ;mcc_generated_files/pin_manager.c: 122:     CCP1PPS = 0x12;
  1520  0002E6  0E12               	movlw	18
  1521  0002E8  6FAA               	movwf	170,b	;volatile
  1522                           
  1523                           ; BSR set to: 14
  1524                           ;mcc_generated_files/pin_manager.c: 123:     RC6PPS = 0x09;
  1525  0002EA  0E09               	movlw	9
  1526  0002EC  6FF8               	movwf	248,b	;volatile
  1527                           
  1528                           ; BSR set to: 14
  1529  0002EE  0012               	return		;funcret
  1530  0002F0                     __end_of_PIN_MANAGER_Initialize:
  1531                           	opt callstack 0
  1532                           
  1533 ;; *************** function _IOCCF2_SetInterruptHandler *****************
  1534 ;; Defined at:
  1535 ;;		line 153 in file "mcc_generated_files/pin_manager.c"
  1536 ;; Parameters:    Size  Location     Type
  1537 ;;  InterruptHan    2    8[COMRAM] PTR FTN()void 
  1538 ;;		 -> ping_RC2_went_HIGH(1), IOCCF2_DefaultInterruptHandler(1), 
  1539 ;; Auto vars:     Size  Location     Type
  1540 ;;		None
  1541 ;; Return value:  Size  Location     Type
  1542 ;;                  1    wreg      void 
  1543 ;; Registers used:
  1544 ;;		wreg, status,2, status,0
  1545 ;; Tracked objects:
  1546 ;;		On entry : 0/0
  1547 ;;		On exit  : 0/0
  1548 ;;		Unchanged: 0/0
  1549 ;; Data sizes:     COMRAM   BANK0   BANK1   BANK2   BANK3   BANK4   BANK5   BANK6   BANK7
  1550 ;;      Params:         2       0       0       0       0       0       0       0       0
  1551 ;;      Locals:         0       0       0       0       0       0       0       0       0
  1552 ;;      Temps:          0       0       0       0       0       0       0       0       0
  1553 ;;      Totals:         2       0       0       0       0       0       0       0       0
  1554 ;;Total ram usage:        2 bytes
  1555 ;; Hardware stack levels used:    1
  1556 ;; Hardware stack levels required when called:    5
  1557 ;; This function calls:
  1558 ;;		Nothing
  1559 ;; This function is called by:
  1560 ;;		_PIN_MANAGER_Initialize
  1561 ;;		_ping_init
  1562 ;; This function uses a non-reentrant model
  1563 ;;
  1564                           
  1565                           	psect	text15
  1566  0006F0                     __ptext15:
  1567                           	opt callstack 0
  1568  0006F0                     _IOCCF2_SetInterruptHandler:
  1569                           	opt callstack 24
  1570                           
  1571                           ;mcc_generated_files/pin_manager.c: 154:     IOCCF2_InterruptHandler = InterruptHandler;
  1572                           
  1573                           ; BSR set to: 14
  1574                           ;incstack = 0
  1575  0006F0  C04C  F03D         	movff	IOCCF2_SetInterruptHandler@InterruptHandler,_IOCCF2_InterruptHandler
  1576  0006F4  C04D  F03E         	movff	IOCCF2_SetInterruptHandler@InterruptHandler+1,_IOCCF2_InterruptHandler+1
  1577  0006F8  0012               	return		;funcret
  1578  0006FA                     __end_of_IOCCF2_SetInterruptHandler:
  1579                           	opt callstack 0
  1580                           
  1581 ;; *************** function _OSCILLATOR_Initialize *****************
  1582 ;; Defined at:
  1583 ;;		line 62 in file "mcc_generated_files/mcc.c"
  1584 ;; Parameters:    Size  Location     Type
  1585 ;;		None
  1586 ;; Auto vars:     Size  Location     Type
  1587 ;;		None
  1588 ;; Return value:  Size  Location     Type
  1589 ;;                  1    wreg      void 
  1590 ;; Registers used:
  1591 ;;		wreg, status,2
  1592 ;; Tracked objects:
  1593 ;;		On entry : 0/0
  1594 ;;		On exit  : 0/0
  1595 ;;		Unchanged: 0/0
  1596 ;; Data sizes:     COMRAM   BANK0   BANK1   BANK2   BANK3   BANK4   BANK5   BANK6   BANK7
  1597 ;;      Params:         0       0       0       0       0       0       0       0       0
  1598 ;;      Locals:         0       0       0       0       0       0       0       0       0
  1599 ;;      Temps:          0       0       0       0       0       0       0       0       0
  1600 ;;      Totals:         0       0       0       0       0       0       0       0       0
  1601 ;;Total ram usage:        0 bytes
  1602 ;; Hardware stack levels used:    1
  1603 ;; Hardware stack levels required when called:    5
  1604 ;; This function calls:
  1605 ;;		Nothing
  1606 ;; This function is called by:
  1607 ;;		_SYSTEM_Initialize
  1608 ;; This function uses a non-reentrant model
  1609 ;;
  1610                           
  1611                           	psect	text16
  1612  00068E                     __ptext16:
  1613                           	opt callstack 0
  1614  00068E                     _OSCILLATOR_Initialize:
  1615                           	opt callstack 24
  1616                           
  1617                           ;mcc_generated_files/mcc.c: 65:     OSCCON1 = 0x60;
  1618                           
  1619                           ;incstack = 0
  1620  00068E  0E60               	movlw	96
  1621  000690  010E               	movlb	14	; () banked
  1622  000692  6FD3               	movwf	211,b	;volatile
  1623                           
  1624                           ;mcc_generated_files/mcc.c: 67:     OSCCON3 = 0x00;
  1625  000694  0E00               	movlw	0
  1626  000696  6FD5               	movwf	213,b	;volatile
  1627                           
  1628                           ;mcc_generated_files/mcc.c: 69:     OSCEN = 0x00;
  1629  000698  0E00               	movlw	0
  1630  00069A  6FD7               	movwf	215,b	;volatile
  1631                           
  1632                           ;mcc_generated_files/mcc.c: 71:     OSCFRQ = 0x08;
  1633  00069C  0E08               	movlw	8
  1634  00069E  6FD9               	movwf	217,b	;volatile
  1635                           
  1636                           ;mcc_generated_files/mcc.c: 73:     OSCTUNE = 0x00;
  1637  0006A0  0E00               	movlw	0
  1638  0006A2  6FD8               	movwf	216,b	;volatile
  1639                           
  1640                           ; BSR set to: 14
  1641  0006A4  0012               	return		;funcret
  1642  0006A6                     __end_of_OSCILLATOR_Initialize:
  1643                           	opt callstack 0
  1644                           
  1645 ;; *************** function _INTERRUPT_Initialize *****************
  1646 ;; Defined at:
  1647 ;;		line 52 in file "mcc_generated_files/interrupt_manager.c"
  1648 ;; Parameters:    Size  Location     Type
  1649 ;;		None
  1650 ;; Auto vars:     Size  Location     Type
  1651 ;;		None
  1652 ;; Return value:  Size  Location     Type
  1653 ;;                  1    wreg      void 
  1654 ;; Registers used:
  1655 ;;		None
  1656 ;; Tracked objects:
  1657 ;;		On entry : 0/0
  1658 ;;		On exit  : 0/0
  1659 ;;		Unchanged: 0/0
  1660 ;; Data sizes:     COMRAM   BANK0   BANK1   BANK2   BANK3   BANK4   BANK5   BANK6   BANK7
  1661 ;;      Params:         0       0       0       0       0       0       0       0       0
  1662 ;;      Locals:         0       0       0       0       0       0       0       0       0
  1663 ;;      Temps:          0       0       0       0       0       0       0       0       0
  1664 ;;      Totals:         0       0       0       0       0       0       0       0       0
  1665 ;;Total ram usage:        0 bytes
  1666 ;; Hardware stack levels used:    1
  1667 ;; Hardware stack levels required when called:    5
  1668 ;; This function calls:
  1669 ;;		Nothing
  1670 ;; This function is called by:
  1671 ;;		_SYSTEM_Initialize
  1672 ;; This function uses a non-reentrant model
  1673 ;;
  1674                           
  1675                           	psect	text17
  1676  00075A                     __ptext17:
  1677                           	opt callstack 0
  1678  00075A                     _INTERRUPT_Initialize:
  1679                           	opt callstack 24
  1680                           
  1681                           ;mcc_generated_files/interrupt_manager.c: 55:     INTCONbits.IPEN = 0;
  1682                           
  1683                           ; BSR set to: 14
  1684                           ;incstack = 0
  1685  00075A  9AF2               	bcf	4082,5,c	;volatile
  1686  00075C  0012               	return		;funcret
  1687  00075E                     __end_of_INTERRUPT_Initialize:
  1688                           	opt callstack 0
  1689                           
  1690 ;; *************** function _EUSART1_Initialize *****************
  1691 ;; Defined at:
  1692 ;;		line 85 in file "mcc_generated_files/eusart1.c"
  1693 ;; Parameters:    Size  Location     Type
  1694 ;;		None
  1695 ;; Auto vars:     Size  Location     Type
  1696 ;;		None
  1697 ;; Return value:  Size  Location     Type
  1698 ;;                  1    wreg      void 
  1699 ;; Registers used:
  1700 ;;		wreg, status,2, status,0, cstack
  1701 ;; Tracked objects:
  1702 ;;		On entry : 0/0
  1703 ;;		On exit  : 0/0
  1704 ;;		Unchanged: 0/0
  1705 ;; Data sizes:     COMRAM   BANK0   BANK1   BANK2   BANK3   BANK4   BANK5   BANK6   BANK7
  1706 ;;      Params:         0       0       0       0       0       0       0       0       0
  1707 ;;      Locals:         0       0       0       0       0       0       0       0       0
  1708 ;;      Temps:          0       0       0       0       0       0       0       0       0
  1709 ;;      Totals:         0       0       0       0       0       0       0       0       0
  1710 ;;Total ram usage:        0 bytes
  1711 ;; Hardware stack levels used:    1
  1712 ;; Hardware stack levels required when called:    6
  1713 ;; This function calls:
  1714 ;;		_EUSART1_SetErrorHandler
  1715 ;;		_EUSART1_SetFramingErrorHandler
  1716 ;;		_EUSART1_SetOverrunErrorHandler
  1717 ;;		_EUSART1_SetRxInterruptHandler
  1718 ;;		_EUSART1_SetTxInterruptHandler
  1719 ;; This function is called by:
  1720 ;;		_SYSTEM_Initialize
  1721 ;; This function uses a non-reentrant model
  1722 ;;
  1723                           
  1724                           	psect	text18
  1725  000212                     __ptext18:
  1726                           	opt callstack 0
  1727  000212                     _EUSART1_Initialize:
  1728                           	opt callstack 23
  1729                           
  1730                           ;mcc_generated_files/eusart1.c: 88:     PIE3bits.RC1IE = 0;
  1731                           
  1732                           ;incstack = 0
  1733  000212  010E               	movlb	14	; () banked
  1734  000214  9BC0               	bcf	192,5,b	;volatile
  1735                           
  1736                           ; BSR set to: 14
  1737                           ;mcc_generated_files/eusart1.c: 89:     EUSART1_SetRxInterruptHandler(EUSART1_Receive_IS
      +                          R);
  1738  000216  0E7E               	movlw	low _EUSART1_Receive_ISR
  1739  000218  6E4C               	movwf	EUSART1_SetRxInterruptHandler@interruptHandler,c
  1740  00021A  0E01               	movlw	high _EUSART1_Receive_ISR
  1741  00021C  6E4D               	movwf	EUSART1_SetRxInterruptHandler@interruptHandler+1,c
  1742  00021E  EC82  F003         	call	_EUSART1_SetRxInterruptHandler	;wreg free
  1743                           
  1744                           ;mcc_generated_files/eusart1.c: 90:     PIE3bits.TX1IE = 0;
  1745  000222  010E               	movlb	14	; () banked
  1746  000224  99C0               	bcf	192,4,b	;volatile
  1747                           
  1748                           ;mcc_generated_files/eusart1.c: 91:     EUSART1_SetTxInterruptHandler(EUSART1_Transmit_I
      +                          SR);
  1749  000226  0E38               	movlw	low _EUSART1_Transmit_ISR
  1750  000228  6E4C               	movwf	EUSART1_SetTxInterruptHandler@interruptHandler,c
  1751  00022A  0E05               	movlw	high _EUSART1_Transmit_ISR
  1752  00022C  6E4D               	movwf	EUSART1_SetTxInterruptHandler@interruptHandler+1,c
  1753  00022E  EC7D  F003         	call	_EUSART1_SetTxInterruptHandler	;wreg free
  1754                           
  1755                           ;mcc_generated_files/eusart1.c: 95:     BAUD1CON = 0x08;
  1756  000232  0E08               	movlw	8
  1757  000234  6E9E               	movwf	3998,c	;volatile
  1758                           
  1759                           ;mcc_generated_files/eusart1.c: 98:     RC1STA = 0x80;
  1760  000236  0E80               	movlw	128
  1761  000238  6E9C               	movwf	3996,c	;volatile
  1762                           
  1763                           ;mcc_generated_files/eusart1.c: 101:     TX1STA = 0x24;
  1764  00023A  0E24               	movlw	36
  1765  00023C  6E9D               	movwf	3997,c	;volatile
  1766                           
  1767                           ;mcc_generated_files/eusart1.c: 104:     SP1BRGL = 0x8A;
  1768  00023E  0E8A               	movlw	138
  1769  000240  6E9A               	movwf	3994,c	;volatile
  1770                           
  1771                           ;mcc_generated_files/eusart1.c: 107:     SP1BRGH = 0x00;
  1772  000242  0E00               	movlw	0
  1773  000244  6E9B               	movwf	3995,c	;volatile
  1774                           
  1775                           ;mcc_generated_files/eusart1.c: 110:     EUSART1_SetFramingErrorHandler(EUSART1_DefaultF
      +                          ramingErrorHandler);
  1776  000246  0E6C               	movlw	low _EUSART1_DefaultFramingErrorHandler
  1777  000248  6E4C               	movwf	EUSART1_SetFramingErrorHandler@interruptHandler,c
  1778  00024A  0E07               	movlw	high _EUSART1_DefaultFramingErrorHandler
  1779  00024C  6E4D               	movwf	EUSART1_SetFramingErrorHandler@interruptHandler+1,c
  1780  00024E  EC8C  F003         	call	_EUSART1_SetFramingErrorHandler	;wreg free
  1781                           
  1782                           ;mcc_generated_files/eusart1.c: 111:     EUSART1_SetOverrunErrorHandler(EUSART1_DefaultO
      +                          verrunErrorHandler);
  1783  000252  0E4A               	movlw	low _EUSART1_DefaultOverrunErrorHandler
  1784  000254  6E4C               	movwf	EUSART1_SetOverrunErrorHandler@interruptHandler,c
  1785  000256  0E07               	movlw	high _EUSART1_DefaultOverrunErrorHandler
  1786  000258  6E4D               	movwf	EUSART1_SetOverrunErrorHandler@interruptHandler+1,c
  1787  00025A  EC87  F003         	call	_EUSART1_SetOverrunErrorHandler	;wreg free
  1788                           
  1789                           ;mcc_generated_files/eusart1.c: 112:     EUSART1_SetErrorHandler(EUSART1_DefaultErrorHan
      +                          dler);
  1790  00025E  0E50               	movlw	low _EUSART1_DefaultErrorHandler
  1791  000260  6E4C               	movwf	EUSART1_SetErrorHandler@interruptHandler,c
  1792  000262  0E07               	movlw	high _EUSART1_DefaultErrorHandler
  1793  000264  6E4D               	movwf	EUSART1_SetErrorHandler@interruptHandler+1,c
  1794  000266  EC91  F003         	call	_EUSART1_SetErrorHandler	;wreg free
  1795                           
  1796                           ;mcc_generated_files/eusart1.c: 114:     eusart1RxLastError.status = 0;
  1797  00026A  0E00               	movlw	0
  1798  00026C  6E29               	movwf	_eusart1RxLastError,c	;volatile
  1799                           
  1800                           ;mcc_generated_files/eusart1.c: 117:     eusart1TxHead = 0;
  1801  00026E  0E00               	movlw	0
  1802  000270  6E2E               	movwf	_eusart1TxHead,c	;volatile
  1803                           
  1804                           ;mcc_generated_files/eusart1.c: 118:     eusart1TxTail = 0;
  1805  000272  0E00               	movlw	0
  1806  000274  6E2D               	movwf	_eusart1TxTail,c	;volatile
  1807                           
  1808                           ;mcc_generated_files/eusart1.c: 119:     eusart1TxBufferRemaining = sizeof(eusart1TxBuff
      +                          er);
  1809  000276  0E08               	movlw	8
  1810  000278  6E43               	movwf	_eusart1TxBufferRemaining,c	;volatile
  1811                           
  1812                           ;mcc_generated_files/eusart1.c: 121:     eusart1RxHead = 0;
  1813  00027A  0E00               	movlw	0
  1814  00027C  6E2C               	movwf	_eusart1RxHead,c	;volatile
  1815                           
  1816                           ;mcc_generated_files/eusart1.c: 122:     eusart1RxTail = 0;
  1817  00027E  0E00               	movlw	0
  1818  000280  6E2B               	movwf	_eusart1RxTail,c	;volatile
  1819                           
  1820                           ;mcc_generated_files/eusart1.c: 123:     eusart1RxCount = 0;
  1821  000282  0E00               	movlw	0
  1822  000284  6E2A               	movwf	_eusart1RxCount,c	;volatile
  1823                           
  1824                           ;mcc_generated_files/eusart1.c: 126:     PIE3bits.RC1IE = 1;
  1825  000286  010E               	movlb	14	; () banked
  1826  000288  8BC0               	bsf	192,5,b	;volatile
  1827                           
  1828                           ; BSR set to: 14
  1829  00028A  0012               	return		;funcret
  1830  00028C                     __end_of_EUSART1_Initialize:
  1831                           	opt callstack 0
  1832                           
  1833 ;; *************** function _EUSART1_SetTxInterruptHandler *****************
  1834 ;; Defined at:
  1835 ;;		line 282 in file "mcc_generated_files/eusart1.c"
  1836 ;; Parameters:    Size  Location     Type
  1837 ;;  interruptHan    2    8[COMRAM] PTR FTN()void 
  1838 ;;		 -> EUSART1_Transmit_ISR(1), 
  1839 ;; Auto vars:     Size  Location     Type
  1840 ;;		None
  1841 ;; Return value:  Size  Location     Type
  1842 ;;                  1    wreg      void 
  1843 ;; Registers used:
  1844 ;;		wreg, status,2, status,0
  1845 ;; Tracked objects:
  1846 ;;		On entry : 0/0
  1847 ;;		On exit  : 0/0
  1848 ;;		Unchanged: 0/0
  1849 ;; Data sizes:     COMRAM   BANK0   BANK1   BANK2   BANK3   BANK4   BANK5   BANK6   BANK7
  1850 ;;      Params:         2       0       0       0       0       0       0       0       0
  1851 ;;      Locals:         0       0       0       0       0       0       0       0       0
  1852 ;;      Temps:          0       0       0       0       0       0       0       0       0
  1853 ;;      Totals:         2       0       0       0       0       0       0       0       0
  1854 ;;Total ram usage:        2 bytes
  1855 ;; Hardware stack levels used:    1
  1856 ;; Hardware stack levels required when called:    5
  1857 ;; This function calls:
  1858 ;;		Nothing
  1859 ;; This function is called by:
  1860 ;;		_EUSART1_Initialize
  1861 ;; This function uses a non-reentrant model
  1862 ;;
  1863                           
  1864                           	psect	text19
  1865  0006FA                     __ptext19:
  1866                           	opt callstack 0
  1867  0006FA                     _EUSART1_SetTxInterruptHandler:
  1868                           	opt callstack 23
  1869                           
  1870                           ;mcc_generated_files/eusart1.c: 283:     EUSART1_TxDefaultInterruptHandler = interruptHa
      +                          ndler;
  1871                           
  1872                           ; BSR set to: 14
  1873                           ;incstack = 0
  1874  0006FA  C04C  F041         	movff	EUSART1_SetTxInterruptHandler@interruptHandler,_EUSART1_TxDefaultInterruptHandler
  1875  0006FE  C04D  F042         	movff	EUSART1_SetTxInterruptHandler@interruptHandler+1,_EUSART1_TxDefaultInterruptHandl
      +                          er+1
  1876  000702  0012               	return		;funcret
  1877  000704                     __end_of_EUSART1_SetTxInterruptHandler:
  1878                           	opt callstack 0
  1879                           
  1880 ;; *************** function _EUSART1_SetRxInterruptHandler *****************
  1881 ;; Defined at:
  1882 ;;		line 286 in file "mcc_generated_files/eusart1.c"
  1883 ;; Parameters:    Size  Location     Type
  1884 ;;  interruptHan    2    8[COMRAM] PTR FTN()void 
  1885 ;;		 -> EUSART1_Receive_ISR(1), 
  1886 ;; Auto vars:     Size  Location     Type
  1887 ;;		None
  1888 ;; Return value:  Size  Location     Type
  1889 ;;                  1    wreg      void 
  1890 ;; Registers used:
  1891 ;;		wreg, status,2, status,0
  1892 ;; Tracked objects:
  1893 ;;		On entry : 0/0
  1894 ;;		On exit  : 0/0
  1895 ;;		Unchanged: 0/0
  1896 ;; Data sizes:     COMRAM   BANK0   BANK1   BANK2   BANK3   BANK4   BANK5   BANK6   BANK7
  1897 ;;      Params:         2       0       0       0       0       0       0       0       0
  1898 ;;      Locals:         0       0       0       0       0       0       0       0       0
  1899 ;;      Temps:          0       0       0       0       0       0       0       0       0
  1900 ;;      Totals:         2       0       0       0       0       0       0       0       0
  1901 ;;Total ram usage:        2 bytes
  1902 ;; Hardware stack levels used:    1
  1903 ;; Hardware stack levels required when called:    5
  1904 ;; This function calls:
  1905 ;;		Nothing
  1906 ;; This function is called by:
  1907 ;;		_EUSART1_Initialize
  1908 ;; This function uses a non-reentrant model
  1909 ;;
  1910                           
  1911                           	psect	text20
  1912  000704                     __ptext20:
  1913                           	opt callstack 0
  1914  000704                     _EUSART1_SetRxInterruptHandler:
  1915                           	opt callstack 23
  1916                           
  1917                           ;mcc_generated_files/eusart1.c: 287:     EUSART1_RxDefaultInterruptHandler = interruptHa
      +                          ndler;
  1918                           
  1919                           ;incstack = 0
  1920  000704  C04C  F03F         	movff	EUSART1_SetRxInterruptHandler@interruptHandler,_EUSART1_RxDefaultInterruptHandler
  1921  000708  C04D  F040         	movff	EUSART1_SetRxInterruptHandler@interruptHandler+1,_EUSART1_RxDefaultInterruptHandl
      +                          er+1
  1922  00070C  0012               	return		;funcret
  1923  00070E                     __end_of_EUSART1_SetRxInterruptHandler:
  1924                           	opt callstack 0
  1925                           
  1926 ;; *************** function _EUSART1_SetOverrunErrorHandler *****************
  1927 ;; Defined at:
  1928 ;;		line 274 in file "mcc_generated_files/eusart1.c"
  1929 ;; Parameters:    Size  Location     Type
  1930 ;;  interruptHan    2    8[COMRAM] PTR FTN()void 
  1931 ;;		 -> EUSART1_DefaultOverrunErrorHandler(1), 
  1932 ;; Auto vars:     Size  Location     Type
  1933 ;;		None
  1934 ;; Return value:  Size  Location     Type
  1935 ;;                  1    wreg      void 
  1936 ;; Registers used:
  1937 ;;		wreg, status,2, status,0
  1938 ;; Tracked objects:
  1939 ;;		On entry : 0/0
  1940 ;;		On exit  : 0/0
  1941 ;;		Unchanged: 0/0
  1942 ;; Data sizes:     COMRAM   BANK0   BANK1   BANK2   BANK3   BANK4   BANK5   BANK6   BANK7
  1943 ;;      Params:         2       0       0       0       0       0       0       0       0
  1944 ;;      Locals:         0       0       0       0       0       0       0       0       0
  1945 ;;      Temps:          0       0       0       0       0       0       0       0       0
  1946 ;;      Totals:         2       0       0       0       0       0       0       0       0
  1947 ;;Total ram usage:        2 bytes
  1948 ;; Hardware stack levels used:    1
  1949 ;; Hardware stack levels required when called:    5
  1950 ;; This function calls:
  1951 ;;		Nothing
  1952 ;; This function is called by:
  1953 ;;		_EUSART1_Initialize
  1954 ;; This function uses a non-reentrant model
  1955 ;;
  1956                           
  1957                           	psect	text21
  1958  00070E                     __ptext21:
  1959                           	opt callstack 0
  1960  00070E                     _EUSART1_SetOverrunErrorHandler:
  1961                           	opt callstack 23
  1962                           
  1963                           ;mcc_generated_files/eusart1.c: 275:     EUSART1_OverrunErrorHandler = interruptHandler;
  1964                           
  1965                           ;incstack = 0
  1966  00070E  C04C  F031         	movff	EUSART1_SetOverrunErrorHandler@interruptHandler,_EUSART1_OverrunErrorHandler
  1967  000712  C04D  F032         	movff	EUSART1_SetOverrunErrorHandler@interruptHandler+1,_EUSART1_OverrunErrorHandler+1
  1968  000716  0012               	return		;funcret
  1969  000718                     __end_of_EUSART1_SetOverrunErrorHandler:
  1970                           	opt callstack 0
  1971                           
  1972 ;; *************** function _EUSART1_SetFramingErrorHandler *****************
  1973 ;; Defined at:
  1974 ;;		line 270 in file "mcc_generated_files/eusart1.c"
  1975 ;; Parameters:    Size  Location     Type
  1976 ;;  interruptHan    2    8[COMRAM] PTR FTN()void 
  1977 ;;		 -> EUSART1_DefaultFramingErrorHandler(1), 
  1978 ;; Auto vars:     Size  Location     Type
  1979 ;;		None
  1980 ;; Return value:  Size  Location     Type
  1981 ;;                  1    wreg      void 
  1982 ;; Registers used:
  1983 ;;		wreg, status,2, status,0
  1984 ;; Tracked objects:
  1985 ;;		On entry : 0/0
  1986 ;;		On exit  : 0/0
  1987 ;;		Unchanged: 0/0
  1988 ;; Data sizes:     COMRAM   BANK0   BANK1   BANK2   BANK3   BANK4   BANK5   BANK6   BANK7
  1989 ;;      Params:         2       0       0       0       0       0       0       0       0
  1990 ;;      Locals:         0       0       0       0       0       0       0       0       0
  1991 ;;      Temps:          0       0       0       0       0       0       0       0       0
  1992 ;;      Totals:         2       0       0       0       0       0       0       0       0
  1993 ;;Total ram usage:        2 bytes
  1994 ;; Hardware stack levels used:    1
  1995 ;; Hardware stack levels required when called:    5
  1996 ;; This function calls:
  1997 ;;		Nothing
  1998 ;; This function is called by:
  1999 ;;		_EUSART1_Initialize
  2000 ;; This function uses a non-reentrant model
  2001 ;;
  2002                           
  2003                           	psect	text22
  2004  000718                     __ptext22:
  2005                           	opt callstack 0
  2006  000718                     _EUSART1_SetFramingErrorHandler:
  2007                           	opt callstack 23
  2008                           
  2009                           ;mcc_generated_files/eusart1.c: 271:     EUSART1_FramingErrorHandler = interruptHandler;
  2010                           
  2011                           ;incstack = 0
  2012  000718  C04C  F033         	movff	EUSART1_SetFramingErrorHandler@interruptHandler,_EUSART1_FramingErrorHandler
  2013  00071C  C04D  F034         	movff	EUSART1_SetFramingErrorHandler@interruptHandler+1,_EUSART1_FramingErrorHandler+1
  2014  000720  0012               	return		;funcret
  2015  000722                     __end_of_EUSART1_SetFramingErrorHandler:
  2016                           	opt callstack 0
  2017                           
  2018 ;; *************** function _EUSART1_SetErrorHandler *****************
  2019 ;; Defined at:
  2020 ;;		line 278 in file "mcc_generated_files/eusart1.c"
  2021 ;; Parameters:    Size  Location     Type
  2022 ;;  interruptHan    2    8[COMRAM] PTR FTN()void 
  2023 ;;		 -> EUSART1_DefaultErrorHandler(1), 
  2024 ;; Auto vars:     Size  Location     Type
  2025 ;;		None
  2026 ;; Return value:  Size  Location     Type
  2027 ;;                  1    wreg      void 
  2028 ;; Registers used:
  2029 ;;		wreg, status,2, status,0
  2030 ;; Tracked objects:
  2031 ;;		On entry : 0/0
  2032 ;;		On exit  : 0/0
  2033 ;;		Unchanged: 0/0
  2034 ;; Data sizes:     COMRAM   BANK0   BANK1   BANK2   BANK3   BANK4   BANK5   BANK6   BANK7
  2035 ;;      Params:         2       0       0       0       0       0       0       0       0
  2036 ;;      Locals:         0       0       0       0       0       0       0       0       0
  2037 ;;      Temps:          0       0       0       0       0       0       0       0       0
  2038 ;;      Totals:         2       0       0       0       0       0       0       0       0
  2039 ;;Total ram usage:        2 bytes
  2040 ;; Hardware stack levels used:    1
  2041 ;; Hardware stack levels required when called:    5
  2042 ;; This function calls:
  2043 ;;		Nothing
  2044 ;; This function is called by:
  2045 ;;		_EUSART1_Initialize
  2046 ;; This function uses a non-reentrant model
  2047 ;;
  2048                           
  2049                           	psect	text23
  2050  000722                     __ptext23:
  2051                           	opt callstack 0
  2052  000722                     _EUSART1_SetErrorHandler:
  2053                           	opt callstack 23
  2054                           
  2055                           ;mcc_generated_files/eusart1.c: 279:     EUSART1_ErrorHandler = interruptHandler;
  2056                           
  2057                           ;incstack = 0
  2058  000722  C04C  F02F         	movff	EUSART1_SetErrorHandler@interruptHandler,_EUSART1_ErrorHandler
  2059  000726  C04D  F030         	movff	EUSART1_SetErrorHandler@interruptHandler+1,_EUSART1_ErrorHandler+1
  2060  00072A  0012               	return		;funcret
  2061  00072C                     __end_of_EUSART1_SetErrorHandler:
  2062                           	opt callstack 0
  2063                           
  2064 ;; *************** function _CCP1_Initialize *****************
  2065 ;; Defined at:
  2066 ;;		line 65 in file "mcc_generated_files/ccp1.c"
  2067 ;; Parameters:    Size  Location     Type
  2068 ;;		None
  2069 ;; Auto vars:     Size  Location     Type
  2070 ;;		None
  2071 ;; Return value:  Size  Location     Type
  2072 ;;                  1    wreg      void 
  2073 ;; Registers used:
  2074 ;;		wreg, status,2, status,0, cstack
  2075 ;; Tracked objects:
  2076 ;;		On entry : 0/0
  2077 ;;		On exit  : 0/0
  2078 ;;		Unchanged: 0/0
  2079 ;; Data sizes:     COMRAM   BANK0   BANK1   BANK2   BANK3   BANK4   BANK5   BANK6   BANK7
  2080 ;;      Params:         0       0       0       0       0       0       0       0       0
  2081 ;;      Locals:         0       0       0       0       0       0       0       0       0
  2082 ;;      Temps:          0       0       0       0       0       0       0       0       0
  2083 ;;      Totals:         0       0       0       0       0       0       0       0       0
  2084 ;;Total ram usage:        0 bytes
  2085 ;; Hardware stack levels used:    1
  2086 ;; Hardware stack levels required when called:    6
  2087 ;; This function calls:
  2088 ;;		_CCP1_SetCallBack
  2089 ;; This function is called by:
  2090 ;;		_SYSTEM_Initialize
  2091 ;; This function uses a non-reentrant model
  2092 ;;
  2093                           
  2094                           	psect	text24
  2095  00050C                     __ptext24:
  2096                           	opt callstack 0
  2097  00050C                     _CCP1_Initialize:
  2098                           	opt callstack 23
  2099                           
  2100                           ;mcc_generated_files/ccp1.c: 70:  CCP1CON = 0x84;
  2101                           
  2102                           ;incstack = 0
  2103  00050C  0E84               	movlw	132
  2104  00050E  6EAB               	movwf	4011,c	;volatile
  2105                           
  2106                           ;mcc_generated_files/ccp1.c: 73:  CCP1CAP = 0x00;
  2107  000510  0E00               	movlw	0
  2108  000512  6EAC               	movwf	4012,c	;volatile
  2109                           
  2110                           ;mcc_generated_files/ccp1.c: 76:  CCPR1H = 0x00;
  2111  000514  0E00               	movlw	0
  2112  000516  6EAA               	movwf	4010,c	;volatile
  2113                           
  2114                           ;mcc_generated_files/ccp1.c: 79:  CCPR1L = 0x00;
  2115  000518  0E00               	movlw	0
  2116  00051A  6EA9               	movwf	4009,c	;volatile
  2117                           
  2118                           ;mcc_generated_files/ccp1.c: 82:     CCP1_SetCallBack(CCP1_DefaultCallBack);
  2119  00051C  0E6E               	movlw	low _CCP1_DefaultCallBack
  2120  00051E  6E4C               	movwf	CCP1_SetCallBack@customCallBack,c
  2121  000520  0E07               	movlw	high _CCP1_DefaultCallBack
  2122  000522  6E4D               	movwf	CCP1_SetCallBack@customCallBack+1,c
  2123  000524  EC96  F003         	call	_CCP1_SetCallBack	;wreg free
  2124                           
  2125                           ;mcc_generated_files/ccp1.c: 85:  CCPTMRSbits.C1TSEL = 0x1;
  2126  000528  50AD               	movf	4013,w,c	;volatile
  2127  00052A  0BFC               	andlw	-4
  2128  00052C  0901               	iorlw	1
  2129  00052E  6EAD               	movwf	4013,c	;volatile
  2130                           
  2131                           ;mcc_generated_files/ccp1.c: 88:     PIR6bits.CCP1IF = 0;
  2132  000530  010E               	movlb	14	; () banked
  2133  000532  91CB               	bcf	203,0,b	;volatile
  2134                           
  2135                           ; BSR set to: 14
  2136                           ;mcc_generated_files/ccp1.c: 91:     PIE6bits.CCP1IE = 1;
  2137  000534  81C3               	bsf	195,0,b	;volatile
  2138                           
  2139                           ; BSR set to: 14
  2140  000536  0012               	return		;funcret
  2141  000538                     __end_of_CCP1_Initialize:
  2142                           	opt callstack 0
  2143                           
  2144 ;; *************** function _CCP1_SetCallBack *****************
  2145 ;; Defined at:
  2146 ;;		line 109 in file "mcc_generated_files/ccp1.c"
  2147 ;; Parameters:    Size  Location     Type
  2148 ;;  customCallBa    2    8[COMRAM] PTR FTN(unsigned short ,
  2149 ;;		 -> ping_CCP1_triggered(1), CCP1_DefaultCallBack(1), 
  2150 ;; Auto vars:     Size  Location     Type
  2151 ;;		None
  2152 ;; Return value:  Size  Location     Type
  2153 ;;                  1    wreg      void 
  2154 ;; Registers used:
  2155 ;;		wreg, status,2, status,0
  2156 ;; Tracked objects:
  2157 ;;		On entry : 0/0
  2158 ;;		On exit  : 0/0
  2159 ;;		Unchanged: 0/0
  2160 ;; Data sizes:     COMRAM   BANK0   BANK1   BANK2   BANK3   BANK4   BANK5   BANK6   BANK7
  2161 ;;      Params:         2       0       0       0       0       0       0       0       0
  2162 ;;      Locals:         0       0       0       0       0       0       0       0       0
  2163 ;;      Temps:          0       0       0       0       0       0       0       0       0
  2164 ;;      Totals:         2       0       0       0       0       0       0       0       0
  2165 ;;Total ram usage:        2 bytes
  2166 ;; Hardware stack levels used:    1
  2167 ;; Hardware stack levels required when called:    5
  2168 ;; This function calls:
  2169 ;;		Nothing
  2170 ;; This function is called by:
  2171 ;;		_CCP1_Initialize
  2172 ;;		_ping_init
  2173 ;; This function uses a non-reentrant model
  2174 ;;
  2175                           
  2176                           	psect	text25
  2177  00072C                     __ptext25:
  2178                           	opt callstack 0
  2179  00072C                     _CCP1_SetCallBack:
  2180                           	opt callstack 24
  2181                           
  2182                           ;mcc_generated_files/ccp1.c: 110:     CCP1_CallBack = customCallBack;
  2183                           
  2184                           ; BSR set to: 14
  2185                           ;incstack = 0
  2186  00072C  C04C  F039         	movff	CCP1_SetCallBack@customCallBack,_CCP1_CallBack
  2187  000730  C04D  F03A         	movff	CCP1_SetCallBack@customCallBack+1,_CCP1_CallBack+1
  2188  000734  0012               	return		;funcret
  2189  000736                     __end_of_CCP1_SetCallBack:
  2190                           	opt callstack 0
  2191                           
  2192 ;; *************** function _INTERRUPT_InterruptManager *****************
  2193 ;; Defined at:
  2194 ;;		line 58 in file "mcc_generated_files/interrupt_manager.c"
  2195 ;; Parameters:    Size  Location     Type
  2196 ;;		None
  2197 ;; Auto vars:     Size  Location     Type
  2198 ;;		None
  2199 ;; Return value:  Size  Location     Type
  2200 ;;                  1    wreg      void 
  2201 ;; Registers used:
  2202 ;;		wreg, fsr2l, fsr2h, status,2, status,0, pclath, tosl, cstack
  2203 ;; Tracked objects:
  2204 ;;		On entry : 0/0
  2205 ;;		On exit  : 0/0
  2206 ;;		Unchanged: 0/0
  2207 ;; Data sizes:     COMRAM   BANK0   BANK1   BANK2   BANK3   BANK4   BANK5   BANK6   BANK7
  2208 ;;      Params:         0       0       0       0       0       0       0       0       0
  2209 ;;      Locals:         0       0       0       0       0       0       0       0       0
  2210 ;;      Temps:          4       0       0       0       0       0       0       0       0
  2211 ;;      Totals:         4       0       0       0       0       0       0       0       0
  2212 ;;Total ram usage:        4 bytes
  2213 ;; Hardware stack levels used:    1
  2214 ;; Hardware stack levels required when called:    4
  2215 ;; This function calls:
  2216 ;;		Absolute function
  2217 ;;		_CCP1_CaptureISR
  2218 ;;		_EUSART1_Receive_ISR
  2219 ;;		_EUSART1_Transmit_ISR
  2220 ;;		_PIN_MANAGER_IOC
  2221 ;;		_TMR1_ISR
  2222 ;;		_TMR2_ISR
  2223 ;; This function is called by:
  2224 ;;		Interrupt level 2
  2225 ;; This function uses a non-reentrant model
  2226 ;;
  2227                           
  2228                           	psect	intcode
  2229  000008                     __pintcode:
  2230                           	opt callstack 0
  2231  000008                     _INTERRUPT_InterruptManager:
  2232                           	opt callstack 23
  2233                           
  2234                           ;incstack = 0
  2235  000008  8255               	bsf	btemp,1,c	;set compiler interrupt flag (level 2)
  2236  00000A  CFFA F048          	movff	pclath,??_INTERRUPT_InterruptManager
  2237  00000E  CFFB F049          	movff	pclatu,??_INTERRUPT_InterruptManager+1
  2238  000012  CFD9 F04A          	movff	fsr2l,??_INTERRUPT_InterruptManager+2
  2239  000016  CFDA F04B          	movff	fsr2h,??_INTERRUPT_InterruptManager+3
  2240                           
  2241                           ;mcc_generated_files/interrupt_manager.c: 61:     if(PIE0bits.IOCIE == 1 && PIR0bits.IOC
      +                          IF == 1)
  2242  00001A  010E               	movlb	14	; () banked
  2243  00001C  B9BD               	btfsc	189,4,b	;volatile
  2244                           
  2245                           ; BSR set to: 14
  2246  00001E  A9C5               	btfss	197,4,b	;volatile
  2247  000020  D003               	goto	i2l245
  2248                           
  2249                           ; BSR set to: 14
  2250                           ;mcc_generated_files/interrupt_manager.c: 62:     {;mcc_generated_files/interrupt_manage
      +                          r.c: 63:         PIN_MANAGER_IOC();
  2251  000022  EC68  F003         	call	_PIN_MANAGER_IOC	;wreg free
  2252                           
  2253                           ;mcc_generated_files/interrupt_manager.c: 64:     }
  2254  000026  D02D               	goto	i2l251
  2255  000028                     i2l245:
  2256                           
  2257                           ; BSR set to: 14
  2258  000028  ACF2               	btfss	4082,6,c	;volatile
  2259  00002A  D02B               	goto	i2l251
  2260                           
  2261                           ; BSR set to: 14
  2262                           ;mcc_generated_files/interrupt_manager.c: 66:     {;mcc_generated_files/interrupt_manage
      +                          r.c: 67:         if(PIE3bits.TX1IE == 1 && PIR3bits.TX1IF == 1)
  2263  00002C  B9C0               	btfsc	192,4,b	;volatile
  2264                           
  2265                           ; BSR set to: 14
  2266  00002E  A9C8               	btfss	200,4,b	;volatile
  2267  000030  D008               	goto	i2l248
  2268                           
  2269                           ; BSR set to: 14
  2270                           ;mcc_generated_files/interrupt_manager.c: 68:         {;mcc_generated_files/interrupt_ma
      +                          nager.c: 69:             EUSART1_TxDefaultInterruptHandler();
  2271  000032  D801               	call	i2u65_48
  2272  000034  D026               	goto	i2l251
  2273  000036                     i2u65_48:
  2274  000036  0005               	push	
  2275  000038  6EFA               	movwf	pclath,c
  2276  00003A  5041               	movf	_EUSART1_TxDefaultInterruptHandler,w,c
  2277  00003C  6EFD               	movwf	tosl,c
  2278  00003E  5042               	movf	_EUSART1_TxDefaultInterruptHandler+1,w,c
  2279  000040  D00A               	goto	L1
  2280  000042                     i2l248:
  2281                           
  2282                           ; BSR set to: 14
  2283  000042  BBC0               	btfsc	192,5,b	;volatile
  2284                           
  2285                           ; BSR set to: 14
  2286  000044  ABC8               	btfss	200,5,b	;volatile
  2287  000046  D00C               	goto	i2l250
  2288                           
  2289                           ; BSR set to: 14
  2290                           ;mcc_generated_files/interrupt_manager.c: 72:         {;mcc_generated_files/interrupt_ma
      +                          nager.c: 73:             EUSART1_RxDefaultInterruptHandler();
  2291  000048  D801               	call	i2u68_48
  2292  00004A  D01B               	goto	i2l251
  2293  00004C                     i2u68_48:
  2294  00004C  0005               	push	
  2295  00004E  6EFA               	movwf	pclath,c
  2296  000050  503F               	movf	_EUSART1_RxDefaultInterruptHandler,w,c
  2297  000052  6EFD               	movwf	tosl,c
  2298  000054  5040               	movf	_EUSART1_RxDefaultInterruptHandler+1,w,c
  2299  000056                     L1:
  2300  000056  6EFE               	movwf	tosh,c
  2301  000058  50F8               	movf	tblptru,w,c
  2302  00005A  6EFF               	movwf	tosu,c
  2303  00005C  50FA               	movf	pclath,w,c
  2304  00005E  0012               	return		;indir
  2305  000060                     i2l250:
  2306                           
  2307                           ; BSR set to: 14
  2308  000060  B3C1               	btfsc	193,1,b	;volatile
  2309                           
  2310                           ; BSR set to: 14
  2311  000062  A3C9               	btfss	201,1,b	;volatile
  2312  000064  D003               	goto	i2l252
  2313                           
  2314                           ; BSR set to: 14
  2315                           ;mcc_generated_files/interrupt_manager.c: 76:         {;mcc_generated_files/interrupt_ma
      +                          nager.c: 77:             TMR2_ISR();
  2316  000066  ECDB  F002         	call	_TMR2_ISR	;wreg free
  2317                           
  2318                           ;mcc_generated_files/interrupt_manager.c: 78:         }
  2319  00006A  D00B               	goto	i2l251
  2320  00006C                     i2l252:
  2321                           
  2322                           ; BSR set to: 14
  2323  00006C  B1C1               	btfsc	193,0,b	;volatile
  2324                           
  2325                           ; BSR set to: 14
  2326  00006E  A1C9               	btfss	201,0,b	;volatile
  2327  000070  D003               	goto	i2l254
  2328                           
  2329                           ; BSR set to: 14
  2330                           ;mcc_generated_files/interrupt_manager.c: 80:         {;mcc_generated_files/interrupt_ma
      +                          nager.c: 81:             TMR1_ISR();
  2331  000072  ECFD  F001         	call	_TMR1_ISR	;wreg free
  2332                           
  2333                           ;mcc_generated_files/interrupt_manager.c: 82:         }
  2334  000076  D005               	goto	i2l251
  2335  000078                     i2l254:
  2336                           
  2337                           ; BSR set to: 14
  2338  000078  B1C3               	btfsc	195,0,b	;volatile
  2339                           
  2340                           ; BSR set to: 14
  2341  00007A  A1CB               	btfss	203,0,b	;volatile
  2342  00007C  D002               	goto	i2l251
  2343                           
  2344                           ; BSR set to: 14
  2345                           ;mcc_generated_files/interrupt_manager.c: 84:         {;mcc_generated_files/interrupt_ma
      +                          nager.c: 85:             CCP1_CaptureISR();
  2346  00007E  ECB2  F002         	call	_CCP1_CaptureISR	;wreg free
  2347  000082                     i2l251:
  2348                           
  2349                           ; BSR set to: 14
  2350  000082  C04B  FFDA         	movff	??_INTERRUPT_InterruptManager+3,fsr2h
  2351  000086  C04A  FFD9         	movff	??_INTERRUPT_InterruptManager+2,fsr2l
  2352  00008A  C049  FFFB         	movff	??_INTERRUPT_InterruptManager+1,pclatu
  2353  00008E  C048  FFFA         	movff	??_INTERRUPT_InterruptManager,pclath
  2354  000092  9255               	bcf	btemp,1,c	;clear compiler interrupt flag (level 2)
  2355  000094  0011               	retfie		f
  2356  000096                     __end_of_INTERRUPT_InterruptManager:
  2357                           	opt callstack 0
  2358                           
  2359 ;; *************** function _TMR2_ISR *****************
  2360 ;; Defined at:
  2361 ;;		line 165 in file "mcc_generated_files/tmr2.c"
  2362 ;; Parameters:    Size  Location     Type
  2363 ;;		None
  2364 ;; Auto vars:     Size  Location     Type
  2365 ;;		None
  2366 ;; Return value:  Size  Location     Type
  2367 ;;                  1    wreg      void 
  2368 ;; Registers used:
  2369 ;;		wreg, status,2, status,0, pclath, tosl, cstack
  2370 ;; Tracked objects:
  2371 ;;		On entry : 0/0
  2372 ;;		On exit  : 0/0
  2373 ;;		Unchanged: 0/0
  2374 ;; Data sizes:     COMRAM   BANK0   BANK1   BANK2   BANK3   BANK4   BANK5   BANK6   BANK7
  2375 ;;      Params:         0       0       0       0       0       0       0       0       0
  2376 ;;      Locals:         0       0       0       0       0       0       0       0       0
  2377 ;;      Temps:          0       0       0       0       0       0       0       0       0
  2378 ;;      Totals:         0       0       0       0       0       0       0       0       0
  2379 ;;Total ram usage:        0 bytes
  2380 ;; Hardware stack levels used:    1
  2381 ;; Hardware stack levels required when called:    1
  2382 ;; This function calls:
  2383 ;;		Absolute function
  2384 ;;		_TMR2_DefaultInterruptHandler
  2385 ;;		_carcontrol_ISR
  2386 ;; This function is called by:
  2387 ;;		_INTERRUPT_InterruptManager
  2388 ;; This function uses a non-reentrant model
  2389 ;;
  2390                           
  2391                           	psect	text27
  2392  0005B6                     __ptext27:
  2393                           	opt callstack 0
  2394  0005B6                     _TMR2_ISR:
  2395                           	opt callstack 25
  2396                           
  2397                           ;mcc_generated_files/tmr2.c: 169:     PIR4bits.TMR2IF = 0;
  2398                           
  2399                           ;incstack = 0
  2400  0005B6  010E               	movlb	14	; () banked
  2401  0005B8  93C9               	bcf	201,1,b	;volatile
  2402                           
  2403                           ; BSR set to: 14
  2404                           ;mcc_generated_files/tmr2.c: 171:     if(TMR2_InterruptHandler)
  2405  0005BA  503B               	movf	_TMR2_InterruptHandler,w,c
  2406  0005BC  103C               	iorwf	_TMR2_InterruptHandler+1,w,c
  2407  0005BE  B4D8               	btfsc	status,2,c
  2408  0005C0  0012               	return	
  2409                           
  2410                           ; BSR set to: 14
  2411                           ;mcc_generated_files/tmr2.c: 172:     {;mcc_generated_files/tmr2.c: 173:         TMR2_In
      +                          terruptHandler();
  2412  0005C2  D801               	call	i2u16_48
  2413  0005C4  0012               	return	
  2414  0005C6                     i2u16_48:
  2415  0005C6  0005               	push	
  2416  0005C8  6EFA               	movwf	pclath,c
  2417  0005CA  503B               	movf	_TMR2_InterruptHandler,w,c
  2418  0005CC  6EFD               	movwf	tosl,c
  2419  0005CE  503C               	movf	_TMR2_InterruptHandler+1,w,c
  2420  0005D0  6EFE               	movwf	tosh,c
  2421  0005D2  50F8               	movf	tblptru,w,c
  2422  0005D4  6EFF               	movwf	tosu,c
  2423  0005D6  50FA               	movf	pclath,w,c
  2424  0005D8  0012               	return		;indir
  2425  0005DA                     __end_of_TMR2_ISR:
  2426                           	opt callstack 0
  2427                           
  2428 ;; *************** function _TMR2_DefaultInterruptHandler *****************
  2429 ;; Defined at:
  2430 ;;		line 182 in file "mcc_generated_files/tmr2.c"
  2431 ;; Parameters:    Size  Location     Type
  2432 ;;		None
  2433 ;; Auto vars:     Size  Location     Type
  2434 ;;		None
  2435 ;; Return value:  Size  Location     Type
  2436 ;;                  1    wreg      void 
  2437 ;; Registers used:
  2438 ;;		None
  2439 ;; Tracked objects:
  2440 ;;		On entry : 0/0
  2441 ;;		On exit  : 0/0
  2442 ;;		Unchanged: 0/0
  2443 ;; Data sizes:     COMRAM   BANK0   BANK1   BANK2   BANK3   BANK4   BANK5   BANK6   BANK7
  2444 ;;      Params:         0       0       0       0       0       0       0       0       0
  2445 ;;      Locals:         0       0       0       0       0       0       0       0       0
  2446 ;;      Temps:          0       0       0       0       0       0       0       0       0
  2447 ;;      Totals:         0       0       0       0       0       0       0       0       0
  2448 ;;Total ram usage:        0 bytes
  2449 ;; Hardware stack levels used:    1
  2450 ;; This function calls:
  2451 ;;		Nothing
  2452 ;; This function is called by:
  2453 ;;		_TMR2_Initialize
  2454 ;;		_TMR2_ISR
  2455 ;; This function uses a non-reentrant model
  2456 ;;
  2457                           
  2458                           	psect	text28
  2459  000766                     __ptext28:
  2460                           	opt callstack 0
  2461  000766                     _TMR2_DefaultInterruptHandler:
  2462                           	opt callstack 25
  2463                           
  2464                           ;incstack = 0
  2465  000766  0012               	return		;funcret
  2466  000768                     __end_of_TMR2_DefaultInterruptHandler:
  2467                           	opt callstack 0
  2468                           
  2469 ;; *************** function _carcontrol_ISR *****************
  2470 ;; Defined at:
  2471 ;;		line 41 in file "car_ctrl.c"
  2472 ;; Parameters:    Size  Location     Type
  2473 ;;		None
  2474 ;; Auto vars:     Size  Location     Type
  2475 ;;		None
  2476 ;; Return value:  Size  Location     Type
  2477 ;;                  1    wreg      void 
  2478 ;; Registers used:
  2479 ;;		wreg, status,2, status,0
  2480 ;; Tracked objects:
  2481 ;;		On entry : 0/0
  2482 ;;		On exit  : 0/0
  2483 ;;		Unchanged: 0/0
  2484 ;; Data sizes:     COMRAM   BANK0   BANK1   BANK2   BANK3   BANK4   BANK5   BANK6   BANK7
  2485 ;;      Params:         0       0       0       0       0       0       0       0       0
  2486 ;;      Locals:         0       0       0       0       0       0       0       0       0
  2487 ;;      Temps:          3       0       0       0       0       0       0       0       0
  2488 ;;      Totals:         3       0       0       0       0       0       0       0       0
  2489 ;;Total ram usage:        3 bytes
  2490 ;; Hardware stack levels used:    1
  2491 ;; This function calls:
  2492 ;;		Nothing
  2493 ;; This function is called by:
  2494 ;;		_carcontrol_init
  2495 ;;		_TMR2_ISR
  2496 ;; This function uses a non-reentrant model
  2497 ;;
  2498                           
  2499                           	psect	text29
  2500  00009A                     __ptext29:
  2501                           	opt callstack 0
  2502  00009A                     _carcontrol_ISR:
  2503                           	opt callstack 25
  2504                           
  2505                           ;car_ctrl.c: 43:     switch (carctl.state) {
  2506                           
  2507                           ;incstack = 0
  2508  00009A  D05C               	goto	i2l1587
  2509  00009C                     i2l1545:
  2510                           
  2511                           ;car_ctrl.c: 46:             carctl.state = state_high;
  2512  00009C  0E01               	movlw	1
  2513  00009E  6E22               	movwf	_carctl+1,c	;volatile
  2514  0000A0  8082               	bsf	3970,0,c	;volatile
  2515  0000A2  8282               	bsf	3970,1,c	;volatile
  2516                           
  2517                           ;car_ctrl.c: 49:             stateTime = 0;
  2518  0000A4  0E00               	movlw	0
  2519  0000A6  6E28               	movwf	_stateTime+1,c
  2520  0000A8  0E00               	movlw	0
  2521  0000AA  6E27               	movwf	_stateTime,c
  2522                           
  2523                           ;car_ctrl.c: 50:         break;
  2524  0000AC  0012               	return	
  2525  0000AE                     i2l1551:
  2526                           
  2527                           ;car_ctrl.c: 52:             stateTime++;
  2528  0000AE  4A27               	infsnz	_stateTime,f,c
  2529  0000B0  2A28               	incf	_stateTime+1,f,c
  2530  0000B2  8082               	bsf	3970,0,c	;volatile
  2531  0000B4  8282               	bsf	3970,1,c	;volatile
  2532                           
  2533                           ;car_ctrl.c: 55:             if (stateTime >= 100) {
  2534  0000B6  BE28               	btfsc	_stateTime+1,7,c
  2535  0000B8  0012               	return	
  2536  0000BA  5028               	movf	_stateTime+1,w,c
  2537  0000BC  E104               	bnz	i2u9_40
  2538  0000BE  0E64               	movlw	100
  2539  0000C0  5C27               	subwf	_stateTime,w,c
  2540  0000C2  A0D8               	btfss	status,0,c
  2541  0000C4  0012               	return	
  2542  0000C6                     i2u9_40:
  2543                           
  2544                           ;car_ctrl.c: 57:                 carctl.state = state_vary;
  2545  0000C6  0E02               	movlw	2
  2546  0000C8  6E22               	movwf	_carctl+1,c	;volatile
  2547                           
  2548                           ;car_ctrl.c: 58:                 stateTime = 0;
  2549  0000CA  0E00               	movlw	0
  2550  0000CC  6E28               	movwf	_stateTime+1,c
  2551  0000CE  0E00               	movlw	0
  2552  0000D0  6E27               	movwf	_stateTime,c
  2553  0000D2  0012               	return	
  2554  0000D4                     i2l1561:
  2555                           
  2556                           ;car_ctrl.c: 62:             stateTime++;
  2557  0000D4  4A27               	infsnz	_stateTime,f,c
  2558  0000D6  2A28               	incf	_stateTime+1,f,c
  2559                           
  2560                           ;car_ctrl.c: 63:             if (stateTime > carctl.throttleHighTime) {
  2561  0000D8  5025               	movf	_carctl+4,w,c	;volatile
  2562  0000DA  6E44               	movwf	??_carcontrol_ISR& (0+255),c
  2563  0000DC  6A45               	clrf	(??_carcontrol_ISR+1)& (0+255),c
  2564  0000DE  5027               	movf	_stateTime,w,c
  2565  0000E0  5C44               	subwf	??_carcontrol_ISR,w,c
  2566  0000E2  5045               	movf	??_carcontrol_ISR+1,w,c
  2567  0000E4  0A80               	xorlw	128
  2568  0000E6  6E46               	movwf	(??_carcontrol_ISR+2)& (0+255),c
  2569  0000E8  5028               	movf	_stateTime+1,w,c
  2570  0000EA  0A80               	xorlw	128
  2571  0000EC  5846               	subwfb	(??_carcontrol_ISR+2)& (0+255),w,c
  2572  0000EE  A0D8               	btfss	status,0,c
  2573                           
  2574                           ;car_ctrl.c: 64:                 do { LATAbits.LATA0 = 0; } while(0);
  2575  0000F0  9082               	bcf	3970,0,c	;volatile
  2576                           
  2577                           ;car_ctrl.c: 66:             if (stateTime > carctl.servoHighTime) {
  2578  0000F2  5026               	movf	_carctl+5,w,c	;volatile
  2579  0000F4  6E44               	movwf	??_carcontrol_ISR& (0+255),c
  2580  0000F6  6A45               	clrf	(??_carcontrol_ISR+1)& (0+255),c
  2581  0000F8  5027               	movf	_stateTime,w,c
  2582  0000FA  5C44               	subwf	??_carcontrol_ISR,w,c
  2583  0000FC  5045               	movf	??_carcontrol_ISR+1,w,c
  2584  0000FE  0A80               	xorlw	128
  2585  000100  6E46               	movwf	(??_carcontrol_ISR+2)& (0+255),c
  2586  000102  5028               	movf	_stateTime+1,w,c
  2587  000104  0A80               	xorlw	128
  2588  000106  5846               	subwfb	(??_carcontrol_ISR+2)& (0+255),w,c
  2589  000108  A0D8               	btfss	status,0,c
  2590                           
  2591                           ;car_ctrl.c: 67:                 do { LATAbits.LATA1 = 0; } while(0);
  2592  00010A  9282               	bcf	3970,1,c	;volatile
  2593                           
  2594                           ;car_ctrl.c: 69:             if (stateTime >= 100) {
  2595  00010C  BE28               	btfsc	_stateTime+1,7,c
  2596  00010E  0012               	return	
  2597  000110  5028               	movf	_stateTime+1,w,c
  2598  000112  E104               	bnz	i2u12_40
  2599  000114  0E64               	movlw	100
  2600  000116  5C27               	subwf	_stateTime,w,c
  2601  000118  A0D8               	btfss	status,0,c
  2602  00011A  0012               	return	
  2603  00011C                     i2u12_40:
  2604                           
  2605                           ;car_ctrl.c: 70:                 carctl.state = state_low;
  2606  00011C  0E03               	movlw	3
  2607  00011E  6E22               	movwf	_carctl+1,c	;volatile
  2608                           
  2609                           ;car_ctrl.c: 71:                 stateTime = 0;
  2610  000120  0E00               	movlw	0
  2611  000122  6E28               	movwf	_stateTime+1,c
  2612  000124  0E00               	movlw	0
  2613  000126  6E27               	movwf	_stateTime,c
  2614  000128  0012               	return	
  2615  00012A                     i2l1571:
  2616                           
  2617                           ;car_ctrl.c: 75:             stateTime++;
  2618  00012A  4A27               	infsnz	_stateTime,f,c
  2619  00012C  2A28               	incf	_stateTime+1,f,c
  2620  00012E  9082               	bcf	3970,0,c	;volatile
  2621  000130  9282               	bcf	3970,1,c	;volatile
  2622                           
  2623                           ;car_ctrl.c: 78:             if (stateTime >= 1800) {
  2624  000132  BE28               	btfsc	_stateTime+1,7,c
  2625  000134  0012               	return	
  2626  000136  0E08               	movlw	8
  2627  000138  5C27               	subwf	_stateTime,w,c
  2628  00013A  0E07               	movlw	7
  2629  00013C  5828               	subwfb	_stateTime+1,w,c
  2630  00013E  A0D8               	btfss	status,0,c
  2631  000140  0012               	return	
  2632                           
  2633                           ;car_ctrl.c: 79:                 carctl.state = state_high;
  2634  000142  0E01               	movlw	1
  2635  000144  6E22               	movwf	_carctl+1,c	;volatile
  2636                           
  2637                           ;car_ctrl.c: 80:                 stateTime = 0;
  2638  000146  0E00               	movlw	0
  2639  000148  6E28               	movwf	_stateTime+1,c
  2640  00014A  0E00               	movlw	0
  2641  00014C  6E27               	movwf	_stateTime,c
  2642  00014E  8082               	bsf	3970,0,c	;volatile
  2643  000150  9282               	bcf	3970,1,c	;volatile
  2644  000152  0012               	return	
  2645  000154                     i2l1587:
  2646  000154  5022               	movf	_carctl+1,w,c	;volatile
  2647  000156  6E44               	movwf	??_carcontrol_ISR& (0+255),c
  2648  000158  6A45               	clrf	(??_carcontrol_ISR+1)& (0+255),c
  2649                           
  2650                           ; Switch on 2 bytes has been partitioned into a top level switch of size 1, and 1 sub-sw
      +                          itches
  2651                           ; Switch size 1, requested type "simple"
  2652                           ; Number of cases is 1, Range of values is 0 to 0
  2653                           ; switch strategies available:
  2654                           ; Name         Instructions Cycles
  2655                           ; simple_byte            4     3 (average)
  2656                           ;	Chosen strategy is simple_byte
  2657  00015A  5045               	movf	??_carcontrol_ISR+1,w,c
  2658  00015C  0A00               	xorlw	0	; case 0
  2659  00015E  A4D8               	btfss	status,2,c
  2660  000160  0012               	return	
  2661                           
  2662                           ; Switch size 1, requested type "simple"
  2663                           ; Number of cases is 4, Range of values is 0 to 3
  2664                           ; switch strategies available:
  2665                           ; Name         Instructions Cycles
  2666                           ; simple_byte           13     7 (average)
  2667                           ;	Chosen strategy is simple_byte
  2668  000162  5044               	movf	??_carcontrol_ISR,w,c
  2669  000164  0A00               	xorlw	0	; case 0
  2670  000166  B4D8               	btfsc	status,2,c
  2671  000168  D799               	goto	i2l1545
  2672  00016A  0A01               	xorlw	1	; case 1
  2673  00016C  B4D8               	btfsc	status,2,c
  2674  00016E  D79F               	goto	i2l1551
  2675  000170  0A03               	xorlw	3	; case 2
  2676  000172  B4D8               	btfsc	status,2,c
  2677  000174  D7AF               	goto	i2l1561
  2678  000176  0A01               	xorlw	1	; case 3
  2679  000178  A4D8               	btfss	status,2,c
  2680  00017A  0012               	return	
  2681  00017C  D7D6               	goto	i2l1571
  2682  00017E                     __end_of_carcontrol_ISR:
  2683                           	opt callstack 0
  2684                           
  2685 ;; *************** function _TMR1_ISR *****************
  2686 ;; Defined at:
  2687 ;;		line 164 in file "mcc_generated_files/tmr1.c"
  2688 ;; Parameters:    Size  Location     Type
  2689 ;;		None
  2690 ;; Auto vars:     Size  Location     Type
  2691 ;;		None
  2692 ;; Return value:  Size  Location     Type
  2693 ;;                  1    wreg      void 
  2694 ;; Registers used:
  2695 ;;		wreg, status,2, status,0, pclath, tosl, cstack
  2696 ;; Tracked objects:
  2697 ;;		On entry : 0/0
  2698 ;;		On exit  : 0/0
  2699 ;;		Unchanged: 0/0
  2700 ;; Data sizes:     COMRAM   BANK0   BANK1   BANK2   BANK3   BANK4   BANK5   BANK6   BANK7
  2701 ;;      Params:         0       0       0       0       0       0       0       0       0
  2702 ;;      Locals:         0       0       0       0       0       0       0       0       0
  2703 ;;      Temps:          0       0       0       0       0       0       0       0       0
  2704 ;;      Totals:         0       0       0       0       0       0       0       0       0
  2705 ;;Total ram usage:        0 bytes
  2706 ;; Hardware stack levels used:    1
  2707 ;; Hardware stack levels required when called:    2
  2708 ;; This function calls:
  2709 ;;		Absolute function
  2710 ;;		_TMR1_DefaultInterruptHandler
  2711 ;;		_ping_TMR1Overflow_isr
  2712 ;;		i2_TMR1_WriteTimer
  2713 ;; This function is called by:
  2714 ;;		_INTERRUPT_InterruptManager
  2715 ;; This function uses a non-reentrant model
  2716 ;;
  2717                           
  2718                           	psect	text30
  2719  0003FA                     __ptext30:
  2720                           	opt callstack 0
  2721  0003FA                     _TMR1_ISR:
  2722                           	opt callstack 24
  2723                           
  2724                           ;mcc_generated_files/tmr1.c: 168:     PIR4bits.TMR1IF = 0;
  2725                           
  2726                           ;incstack = 0
  2727  0003FA  010E               	movlb	14	; () banked
  2728  0003FC  91C9               	bcf	201,0,b	;volatile
  2729                           
  2730                           ; BSR set to: 14
  2731                           ;mcc_generated_files/tmr1.c: 169:     TMR1_WriteTimer(timer1ReloadVal);
  2732  0003FE  C037  F044         	movff	_timer1ReloadVal,i2TMR1_WriteTimer@timerVal	;volatile
  2733  000402  C038  F045         	movff	_timer1ReloadVal+1,i2TMR1_WriteTimer@timerVal+1	;volatile
  2734  000406  EC39  F003         	call	i2_TMR1_WriteTimer	;wreg free
  2735                           
  2736                           ;mcc_generated_files/tmr1.c: 171:     if(TMR1_InterruptHandler)
  2737  00040A  5035               	movf	_TMR1_InterruptHandler,w,c
  2738  00040C  1036               	iorwf	_TMR1_InterruptHandler+1,w,c
  2739  00040E  B4D8               	btfsc	status,2,c
  2740  000410  0012               	return	
  2741                           
  2742                           ;mcc_generated_files/tmr1.c: 172:     {;mcc_generated_files/tmr1.c: 173:         TMR1_In
      +                          terruptHandler();
  2743  000412  D801               	call	i2u57_48
  2744  000414  0012               	return	
  2745  000416                     i2u57_48:
  2746  000416  0005               	push	
  2747  000418  6EFA               	movwf	pclath,c
  2748  00041A  5035               	movf	_TMR1_InterruptHandler,w,c
  2749  00041C  6EFD               	movwf	tosl,c
  2750  00041E  5036               	movf	_TMR1_InterruptHandler+1,w,c
  2751  000420  6EFE               	movwf	tosh,c
  2752  000422  50F8               	movf	tblptru,w,c
  2753  000424  6EFF               	movwf	tosu,c
  2754  000426  50FA               	movf	pclath,w,c
  2755  000428  0012               	return		;indir
  2756  00042A                     __end_of_TMR1_ISR:
  2757                           	opt callstack 0
  2758                           
  2759 ;; *************** function _TMR1_DefaultInterruptHandler *****************
  2760 ;; Defined at:
  2761 ;;		line 182 in file "mcc_generated_files/tmr1.c"
  2762 ;; Parameters:    Size  Location     Type
  2763 ;;		None
  2764 ;; Auto vars:     Size  Location     Type
  2765 ;;		None
  2766 ;; Return value:  Size  Location     Type
  2767 ;;                  1    wreg      void 
  2768 ;; Registers used:
  2769 ;;		None
  2770 ;; Tracked objects:
  2771 ;;		On entry : 0/0
  2772 ;;		On exit  : 0/0
  2773 ;;		Unchanged: 0/0
  2774 ;; Data sizes:     COMRAM   BANK0   BANK1   BANK2   BANK3   BANK4   BANK5   BANK6   BANK7
  2775 ;;      Params:         0       0       0       0       0       0       0       0       0
  2776 ;;      Locals:         0       0       0       0       0       0       0       0       0
  2777 ;;      Temps:          0       0       0       0       0       0       0       0       0
  2778 ;;      Totals:         0       0       0       0       0       0       0       0       0
  2779 ;;Total ram usage:        0 bytes
  2780 ;; Hardware stack levels used:    1
  2781 ;; This function calls:
  2782 ;;		Nothing
  2783 ;; This function is called by:
  2784 ;;		_TMR1_Initialize
  2785 ;;		_ping_TMR1Overflow_isr
  2786 ;;		_ping_RC2_went_HIGH
  2787 ;;		_ping_init
  2788 ;;		_TMR1_ISR
  2789 ;; This function uses a non-reentrant model
  2790 ;;
  2791                           
  2792                           	psect	text31
  2793  000768                     __ptext31:
  2794                           	opt callstack 0
  2795  000768                     _TMR1_DefaultInterruptHandler:
  2796                           	opt callstack 25
  2797                           
  2798                           ;incstack = 0
  2799  000768  0012               	return		;funcret
  2800  00076A                     __end_of_TMR1_DefaultInterruptHandler:
  2801                           	opt callstack 0
  2802                           
  2803 ;; *************** function _ping_TMR1Overflow_isr *****************
  2804 ;; Defined at:
  2805 ;;		line 54 in file "ping.c"
  2806 ;; Parameters:    Size  Location     Type
  2807 ;;		None
  2808 ;; Auto vars:     Size  Location     Type
  2809 ;;		None
  2810 ;; Return value:  Size  Location     Type
  2811 ;;                  1    wreg      void 
  2812 ;; Registers used:
  2813 ;;		wreg, status,2, status,0, cstack
  2814 ;; Tracked objects:
  2815 ;;		On entry : 0/0
  2816 ;;		On exit  : 0/0
  2817 ;;		Unchanged: 0/0
  2818 ;; Data sizes:     COMRAM   BANK0   BANK1   BANK2   BANK3   BANK4   BANK5   BANK6   BANK7
  2819 ;;      Params:         0       0       0       0       0       0       0       0       0
  2820 ;;      Locals:         0       0       0       0       0       0       0       0       0
  2821 ;;      Temps:          0       0       0       0       0       0       0       0       0
  2822 ;;      Totals:         0       0       0       0       0       0       0       0       0
  2823 ;;Total ram usage:        0 bytes
  2824 ;; Hardware stack levels used:    1
  2825 ;; Hardware stack levels required when called:    1
  2826 ;; This function calls:
  2827 ;;		i2_IOCCF2_SetInterruptHandler
  2828 ;;		i2_TMR1_SetInterruptHandler
  2829 ;; This function is called by:
  2830 ;;		_ping_send
  2831 ;;		_TMR1_ISR
  2832 ;; This function uses a non-reentrant model
  2833 ;;
  2834                           
  2835                           	psect	text32
  2836  00061C                     __ptext32:
  2837                           	opt callstack 0
  2838  00061C                     _ping_TMR1Overflow_isr:
  2839                           	opt callstack 24
  2840                           
  2841                           ;ping.c: 55:     TMR1_SetInterruptHandler(TMR1_DefaultInterruptHandler);
  2842                           
  2843                           ;incstack = 0
  2844  00061C  0E68               	movlw	low _TMR1_DefaultInterruptHandler
  2845  00061E  6E44               	movwf	i2TMR1_SetInterruptHandler@InterruptHandler,c
  2846  000620  0E07               	movlw	high _TMR1_DefaultInterruptHandler
  2847  000622  6E45               	movwf	i2TMR1_SetInterruptHandler@InterruptHandler+1,c
  2848  000624  EC9B  F003         	call	i2_TMR1_SetInterruptHandler	;wreg free
  2849  000628  9484               	bcf	3972,2,c	;volatile
  2850  00062A  8489               	bsf	3977,2,c	;volatile
  2851                           
  2852                           ;ping.c: 60:     IOCCF2_SetInterruptHandler(ping_RC2_went_HIGH);
  2853  00062C  0E2A               	movlw	low _ping_RC2_went_HIGH
  2854  00062E  6E44               	movwf	i2IOCCF2_SetInterruptHandler@InterruptHandler,c
  2855  000630  0E04               	movlw	high _ping_RC2_went_HIGH
  2856  000632  6E45               	movwf	i2IOCCF2_SetInterruptHandler@InterruptHandler+1,c
  2857  000634  ECA0  F003         	call	i2_IOCCF2_SetInterruptHandler	;wreg free
  2858  000638  0012               	return		;funcret
  2859  00063A                     __end_of_ping_TMR1Overflow_isr:
  2860                           	opt callstack 0
  2861                           
  2862 ;; *************** function _PIN_MANAGER_IOC *****************
  2863 ;; Defined at:
  2864 ;;		line 126 in file "mcc_generated_files/pin_manager.c"
  2865 ;; Parameters:    Size  Location     Type
  2866 ;;		None
  2867 ;; Auto vars:     Size  Location     Type
  2868 ;;		None
  2869 ;; Return value:  Size  Location     Type
  2870 ;;                  1    wreg      void 
  2871 ;; Registers used:
  2872 ;;		wreg, status,2, status,0, pclath, tosl, cstack
  2873 ;; Tracked objects:
  2874 ;;		On entry : 0/0
  2875 ;;		On exit  : 0/0
  2876 ;;		Unchanged: 0/0
  2877 ;; Data sizes:     COMRAM   BANK0   BANK1   BANK2   BANK3   BANK4   BANK5   BANK6   BANK7
  2878 ;;      Params:         0       0       0       0       0       0       0       0       0
  2879 ;;      Locals:         0       0       0       0       0       0       0       0       0
  2880 ;;      Temps:          0       0       0       0       0       0       0       0       0
  2881 ;;      Totals:         0       0       0       0       0       0       0       0       0
  2882 ;;Total ram usage:        0 bytes
  2883 ;; Hardware stack levels used:    1
  2884 ;; Hardware stack levels required when called:    3
  2885 ;; This function calls:
  2886 ;;		_IOCCF2_ISR
  2887 ;; This function is called by:
  2888 ;;		_INTERRUPT_InterruptManager
  2889 ;; This function uses a non-reentrant model
  2890 ;;
  2891                           
  2892                           	psect	text33
  2893  0006D0                     __ptext33:
  2894                           	opt callstack 0
  2895  0006D0                     _PIN_MANAGER_IOC:
  2896                           	opt callstack 23
  2897                           
  2898                           ;mcc_generated_files/pin_manager.c: 129:     if(IOCCFbits.IOCCF2 == 1)
  2899                           
  2900                           ;incstack = 0
  2901  0006D0  010F               	movlb	15	; () banked
  2902  0006D2  A515               	btfss	21,2,b	;volatile
  2903  0006D4  0012               	return	
  2904                           
  2905                           ; BSR set to: 15
  2906                           ;mcc_generated_files/pin_manager.c: 130:     {;mcc_generated_files/pin_manager.c: 131:  
      +                                 IOCCF2_ISR();
  2907  0006D6  ECC8  F002         	call	_IOCCF2_ISR	;wreg free
  2908  0006DA  0012               	return		;funcret
  2909  0006DC                     __end_of_PIN_MANAGER_IOC:
  2910                           	opt callstack 0
  2911                           
  2912 ;; *************** function _IOCCF2_ISR *****************
  2913 ;; Defined at:
  2914 ;;		line 138 in file "mcc_generated_files/pin_manager.c"
  2915 ;; Parameters:    Size  Location     Type
  2916 ;;		None
  2917 ;; Auto vars:     Size  Location     Type
  2918 ;;		None
  2919 ;; Return value:  Size  Location     Type
  2920 ;;                  1    wreg      void 
  2921 ;; Registers used:
  2922 ;;		wreg, status,2, status,0, pclath, tosl, cstack
  2923 ;; Tracked objects:
  2924 ;;		On entry : 0/0
  2925 ;;		On exit  : 0/0
  2926 ;;		Unchanged: 0/0
  2927 ;; Data sizes:     COMRAM   BANK0   BANK1   BANK2   BANK3   BANK4   BANK5   BANK6   BANK7
  2928 ;;      Params:         0       0       0       0       0       0       0       0       0
  2929 ;;      Locals:         0       0       0       0       0       0       0       0       0
  2930 ;;      Temps:          0       0       0       0       0       0       0       0       0
  2931 ;;      Totals:         0       0       0       0       0       0       0       0       0
  2932 ;;Total ram usage:        0 bytes
  2933 ;; Hardware stack levels used:    1
  2934 ;; Hardware stack levels required when called:    2
  2935 ;; This function calls:
  2936 ;;		Absolute function
  2937 ;;		_IOCCF2_DefaultInterruptHandler
  2938 ;;		_ping_RC2_went_HIGH
  2939 ;; This function is called by:
  2940 ;;		_PIN_MANAGER_IOC
  2941 ;; This function uses a non-reentrant model
  2942 ;;
  2943                           
  2944                           	psect	text34
  2945  000590                     __ptext34:
  2946                           	opt callstack 0
  2947  000590                     _IOCCF2_ISR:
  2948                           	opt callstack 23
  2949                           
  2950                           ;mcc_generated_files/pin_manager.c: 143:     if(IOCCF2_InterruptHandler)
  2951                           
  2952                           ;incstack = 0
  2953  000590  503D               	movf	_IOCCF2_InterruptHandler,w,c
  2954  000592  103E               	iorwf	_IOCCF2_InterruptHandler+1,w,c
  2955  000594  B4D8               	btfsc	status,2,c
  2956  000596  D00C               	goto	i2u53_49
  2957                           
  2958                           ;mcc_generated_files/pin_manager.c: 144:     {;mcc_generated_files/pin_manager.c: 145:  
      +                                 IOCCF2_InterruptHandler();
  2959  000598  D801               	call	i2u53_48
  2960  00059A  D00A               	goto	i2u53_49
  2961  00059C                     i2u53_48:
  2962  00059C  0005               	push	
  2963  00059E  6EFA               	movwf	pclath,c
  2964  0005A0  503D               	movf	_IOCCF2_InterruptHandler,w,c
  2965  0005A2  6EFD               	movwf	tosl,c
  2966  0005A4  503E               	movf	_IOCCF2_InterruptHandler+1,w,c
  2967  0005A6  6EFE               	movwf	tosh,c
  2968  0005A8  50F8               	movf	tblptru,w,c
  2969  0005AA  6EFF               	movwf	tosu,c
  2970  0005AC  50FA               	movf	pclath,w,c
  2971  0005AE  0012               	return		;indir
  2972  0005B0                     i2u53_49:
  2973                           
  2974                           ;mcc_generated_files/pin_manager.c: 147:     IOCCFbits.IOCCF2 = 0;
  2975  0005B0  010F               	movlb	15	; () banked
  2976  0005B2  9515               	bcf	21,2,b	;volatile
  2977                           
  2978                           ; BSR set to: 15
  2979  0005B4  0012               	return		;funcret
  2980  0005B6                     __end_of_IOCCF2_ISR:
  2981                           	opt callstack 0
  2982                           
  2983 ;; *************** function _IOCCF2_DefaultInterruptHandler *****************
  2984 ;; Defined at:
  2985 ;;		line 160 in file "mcc_generated_files/pin_manager.c"
  2986 ;; Parameters:    Size  Location     Type
  2987 ;;		None
  2988 ;; Auto vars:     Size  Location     Type
  2989 ;;		None
  2990 ;; Return value:  Size  Location     Type
  2991 ;;                  1    wreg      void 
  2992 ;; Registers used:
  2993 ;;		None
  2994 ;; Tracked objects:
  2995 ;;		On entry : 0/0
  2996 ;;		On exit  : 0/0
  2997 ;;		Unchanged: 0/0
  2998 ;; Data sizes:     COMRAM   BANK0   BANK1   BANK2   BANK3   BANK4   BANK5   BANK6   BANK7
  2999 ;;      Params:         0       0       0       0       0       0       0       0       0
  3000 ;;      Locals:         0       0       0       0       0       0       0       0       0
  3001 ;;      Temps:          0       0       0       0       0       0       0       0       0
  3002 ;;      Totals:         0       0       0       0       0       0       0       0       0
  3003 ;;Total ram usage:        0 bytes
  3004 ;; Hardware stack levels used:    1
  3005 ;; This function calls:
  3006 ;;		Nothing
  3007 ;; This function is called by:
  3008 ;;		_PIN_MANAGER_Initialize
  3009 ;;		_ping_RC2_went_HIGH
  3010 ;;		_ping_init
  3011 ;;		_IOCCF2_ISR
  3012 ;; This function uses a non-reentrant model
  3013 ;;
  3014                           
  3015                           	psect	text35
  3016  00076A                     __ptext35:
  3017                           	opt callstack 0
  3018  00076A                     _IOCCF2_DefaultInterruptHandler:
  3019                           	opt callstack 24
  3020                           
  3021                           ; BSR set to: 15
  3022                           ;incstack = 0
  3023  00076A  0012               	return		;funcret
  3024  00076C                     __end_of_IOCCF2_DefaultInterruptHandler:
  3025                           	opt callstack 0
  3026                           
  3027 ;; *************** function _ping_RC2_went_HIGH *****************
  3028 ;; Defined at:
  3029 ;;		line 66 in file "ping.c"
  3030 ;; Parameters:    Size  Location     Type
  3031 ;;		None
  3032 ;; Auto vars:     Size  Location     Type
  3033 ;;		None
  3034 ;; Return value:  Size  Location     Type
  3035 ;;                  1    wreg      void 
  3036 ;; Registers used:
  3037 ;;		wreg, status,2, status,0, cstack
  3038 ;; Tracked objects:
  3039 ;;		On entry : 0/0
  3040 ;;		On exit  : 0/0
  3041 ;;		Unchanged: 0/0
  3042 ;; Data sizes:     COMRAM   BANK0   BANK1   BANK2   BANK3   BANK4   BANK5   BANK6   BANK7
  3043 ;;      Params:         0       0       0       0       0       0       0       0       0
  3044 ;;      Locals:         0       0       0       0       0       0       0       0       0
  3045 ;;      Temps:          0       0       0       0       0       0       0       0       0
  3046 ;;      Totals:         0       0       0       0       0       0       0       0       0
  3047 ;;Total ram usage:        0 bytes
  3048 ;; Hardware stack levels used:    1
  3049 ;; Hardware stack levels required when called:    1
  3050 ;; This function calls:
  3051 ;;		i2_IOCCF2_SetInterruptHandler
  3052 ;;		i2_TMR1_SetInterruptHandler
  3053 ;;		i2_TMR1_StartTimer
  3054 ;;		i2_TMR1_WriteTimer
  3055 ;; This function is called by:
  3056 ;;		_ping_TMR1Overflow_isr
  3057 ;;		_IOCCF2_ISR
  3058 ;; This function uses a non-reentrant model
  3059 ;;
  3060                           
  3061                           	psect	text36
  3062  00042A                     __ptext36:
  3063                           	opt callstack 0
  3064  00042A                     _ping_RC2_went_HIGH:
  3065                           	opt callstack 23
  3066                           
  3067                           ;ping.c: 67:     IOCCF2_SetInterruptHandler(IOCCF2_DefaultInterruptHandler);
  3068                           
  3069                           ;incstack = 0
  3070  00042A  0E6A               	movlw	low _IOCCF2_DefaultInterruptHandler
  3071  00042C  6E44               	movwf	i2IOCCF2_SetInterruptHandler@InterruptHandler,c
  3072  00042E  0E07               	movlw	high _IOCCF2_DefaultInterruptHandler
  3073  000430  6E45               	movwf	i2IOCCF2_SetInterruptHandler@InterruptHandler+1,c
  3074  000432  ECA0  F003         	call	i2_IOCCF2_SetInterruptHandler	;wreg free
  3075                           
  3076                           ;ping.c: 68:     TMR1_SetInterruptHandler(TMR1_DefaultInterruptHandler);
  3077  000436  0E68               	movlw	low _TMR1_DefaultInterruptHandler
  3078  000438  6E44               	movwf	i2TMR1_SetInterruptHandler@InterruptHandler,c
  3079  00043A  0E07               	movlw	high _TMR1_DefaultInterruptHandler
  3080  00043C  6E45               	movwf	i2TMR1_SetInterruptHandler@InterruptHandler+1,c
  3081  00043E  EC9B  F003         	call	i2_TMR1_SetInterruptHandler	;wreg free
  3082                           
  3083                           ;ping.c: 70:     TMR1_WriteTimer(0);
  3084  000442  0E00               	movlw	0
  3085  000444  6E45               	movwf	i2TMR1_WriteTimer@timerVal+1,c
  3086  000446  0E00               	movlw	0
  3087  000448  6E44               	movwf	i2TMR1_WriteTimer@timerVal,c
  3088  00044A  EC39  F003         	call	i2_TMR1_WriteTimer	;wreg free
  3089                           
  3090                           ;ping.c: 71:     TMR1_StartTimer();
  3091  00044E  ECAF  F003         	call	i2_TMR1_StartTimer	;wreg free
  3092  000452  8482               	bsf	3970,2,c	;volatile
  3093                           
  3094                           ;ping.c: 73:     PIE6bits.CCP1IE = 1;
  3095  000454  010E               	movlb	14	; () banked
  3096  000456  81C3               	bsf	195,0,b	;volatile
  3097                           
  3098                           ; BSR set to: 14
  3099  000458  0012               	return		;funcret
  3100  00045A                     __end_of_ping_RC2_went_HIGH:
  3101                           	opt callstack 0
  3102                           
  3103 ;; *************** function i2_TMR1_WriteTimer *****************
  3104 ;; Defined at:
  3105 ;;		line 127 in file "mcc_generated_files/tmr1.c"
  3106 ;; Parameters:    Size  Location     Type
  3107 ;;  timerVal        2    0[COMRAM] unsigned short 
  3108 ;; Auto vars:     Size  Location     Type
  3109 ;;		None
  3110 ;; Return value:  Size  Location     Type
  3111 ;;                  1    wreg      void 
  3112 ;; Registers used:
  3113 ;;		wreg, status,2
  3114 ;; Tracked objects:
  3115 ;;		On entry : 0/0
  3116 ;;		On exit  : 0/0
  3117 ;;		Unchanged: 0/0
  3118 ;; Data sizes:     COMRAM   BANK0   BANK1   BANK2   BANK3   BANK4   BANK5   BANK6   BANK7
  3119 ;;      Params:         2       0       0       0       0       0       0       0       0
  3120 ;;      Locals:         0       0       0       0       0       0       0       0       0
  3121 ;;      Temps:          0       0       0       0       0       0       0       0       0
  3122 ;;      Totals:         2       0       0       0       0       0       0       0       0
  3123 ;;Total ram usage:        2 bytes
  3124 ;; Hardware stack levels used:    1
  3125 ;; This function calls:
  3126 ;;		Nothing
  3127 ;; This function is called by:
  3128 ;;		_TMR1_ISR
  3129 ;;		_ping_RC2_went_HIGH
  3130 ;; This function uses a non-reentrant model
  3131 ;;
  3132                           
  3133                           	psect	text37
  3134  000672                     __ptext37:
  3135                           	opt callstack 0
  3136  000672                     i2_TMR1_WriteTimer:
  3137                           	opt callstack 25
  3138                           
  3139                           ;mcc_generated_files/tmr1.c: 127: void TMR1_WriteTimer(uint16_t timerVal);mcc_generated_
      +                          files/tmr1.c: 128: {;mcc_generated_files/tmr1.c: 129:     if (T1CONbits.nT1SYNC == 1)
  3140                           
  3141                           ; BSR set to: 14
  3142                           ;incstack = 0
  3143  000672  A4CE               	btfss	4046,2,c	;volatile
  3144  000674  D007               	goto	i2l1909
  3145                           
  3146                           ;mcc_generated_files/tmr1.c: 130:     {;mcc_generated_files/tmr1.c: 132:         T1CONbi
      +                          ts.TMR1ON = 0;
  3147  000676  90CE               	bcf	4046,0,c	;volatile
  3148                           
  3149                           ;mcc_generated_files/tmr1.c: 135:         TMR1H = (timerVal >> 8);
  3150  000678  5045               	movf	i2TMR1_WriteTimer@timerVal+1,w,c
  3151  00067A  6ECD               	movwf	4045,c	;volatile
  3152                           
  3153                           ;mcc_generated_files/tmr1.c: 136:         TMR1L = timerVal;
  3154  00067C  C044  FFCC         	movff	i2TMR1_WriteTimer@timerVal,4044	;volatile
  3155                           
  3156                           ;mcc_generated_files/tmr1.c: 139:         T1CONbits.TMR1ON =1;
  3157  000680  80CE               	bsf	4046,0,c	;volatile
  3158                           
  3159                           ;mcc_generated_files/tmr1.c: 140:     }
  3160  000682  0012               	return	
  3161  000684                     i2l1909:
  3162                           
  3163                           ;mcc_generated_files/tmr1.c: 142:     {;mcc_generated_files/tmr1.c: 144:         TMR1H =
      +                           (timerVal >> 8);
  3164  000684  5045               	movf	i2TMR1_WriteTimer@timerVal+1,w,c
  3165  000686  6ECD               	movwf	4045,c	;volatile
  3166                           
  3167                           ;mcc_generated_files/tmr1.c: 145:         TMR1L = timerVal;
  3168  000688  C044  FFCC         	movff	i2TMR1_WriteTimer@timerVal,4044	;volatile
  3169  00068C  0012               	return		;funcret
  3170  00068E                     __end_ofi2_TMR1_WriteTimer:
  3171                           	opt callstack 0
  3172                           
  3173 ;; *************** function i2_TMR1_StartTimer *****************
  3174 ;; Defined at:
  3175 ;;		line 99 in file "mcc_generated_files/tmr1.c"
  3176 ;; Parameters:    Size  Location     Type
  3177 ;;		None
  3178 ;; Auto vars:     Size  Location     Type
  3179 ;;		None
  3180 ;; Return value:  Size  Location     Type
  3181 ;;                  1    wreg      void 
  3182 ;; Registers used:
  3183 ;;		None
  3184 ;; Tracked objects:
  3185 ;;		On entry : 0/0
  3186 ;;		On exit  : 0/0
  3187 ;;		Unchanged: 0/0
  3188 ;; Data sizes:     COMRAM   BANK0   BANK1   BANK2   BANK3   BANK4   BANK5   BANK6   BANK7
  3189 ;;      Params:         0       0       0       0       0       0       0       0       0
  3190 ;;      Locals:         0       0       0       0       0       0       0       0       0
  3191 ;;      Temps:          0       0       0       0       0       0       0       0       0
  3192 ;;      Totals:         0       0       0       0       0       0       0       0       0
  3193 ;;Total ram usage:        0 bytes
  3194 ;; Hardware stack levels used:    1
  3195 ;; This function calls:
  3196 ;;		Nothing
  3197 ;; This function is called by:
  3198 ;;		_ping_RC2_went_HIGH
  3199 ;; This function uses a non-reentrant model
  3200 ;;
  3201                           
  3202                           	psect	text38
  3203  00075E                     __ptext38:
  3204                           	opt callstack 0
  3205  00075E                     i2_TMR1_StartTimer:
  3206                           	opt callstack 23
  3207                           
  3208                           ;mcc_generated_files/tmr1.c: 102:     T1CONbits.TMR1ON = 1;
  3209                           
  3210                           ;incstack = 0
  3211  00075E  80CE               	bsf	4046,0,c	;volatile
  3212  000760  0012               	return		;funcret
  3213  000762                     __end_ofi2_TMR1_StartTimer:
  3214                           	opt callstack 0
  3215                           
  3216 ;; *************** function i2_TMR1_SetInterruptHandler *****************
  3217 ;; Defined at:
  3218 ;;		line 178 in file "mcc_generated_files/tmr1.c"
  3219 ;; Parameters:    Size  Location     Type
  3220 ;;  InterruptHan    2    0[COMRAM] PTR FTN()void 
  3221 ;;		 -> ping_TMR1Overflow_isr(1), TMR1_DefaultInterruptHandler(1), 
  3222 ;; Auto vars:     Size  Location     Type
  3223 ;;		None
  3224 ;; Return value:  Size  Location     Type
  3225 ;;                  1    wreg      void 
  3226 ;; Registers used:
  3227 ;;		wreg, status,2, status,0
  3228 ;; Tracked objects:
  3229 ;;		On entry : 0/0
  3230 ;;		On exit  : 0/0
  3231 ;;		Unchanged: 0/0
  3232 ;; Data sizes:     COMRAM   BANK0   BANK1   BANK2   BANK3   BANK4   BANK5   BANK6   BANK7
  3233 ;;      Params:         2       0       0       0       0       0       0       0       0
  3234 ;;      Locals:         0       0       0       0       0       0       0       0       0
  3235 ;;      Temps:          0       0       0       0       0       0       0       0       0
  3236 ;;      Totals:         2       0       0       0       0       0       0       0       0
  3237 ;;Total ram usage:        2 bytes
  3238 ;; Hardware stack levels used:    1
  3239 ;; This function calls:
  3240 ;;		Nothing
  3241 ;; This function is called by:
  3242 ;;		_ping_TMR1Overflow_isr
  3243 ;;		_ping_RC2_went_HIGH
  3244 ;; This function uses a non-reentrant model
  3245 ;;
  3246                           
  3247                           	psect	text39
  3248  000736                     __ptext39:
  3249                           	opt callstack 0
  3250  000736                     i2_TMR1_SetInterruptHandler:
  3251                           	opt callstack 24
  3252                           
  3253                           ;mcc_generated_files/tmr1.c: 179:     TMR1_InterruptHandler = InterruptHandler;
  3254                           
  3255                           ;incstack = 0
  3256  000736  C044  F035         	movff	i2TMR1_SetInterruptHandler@InterruptHandler,_TMR1_InterruptHandler
  3257  00073A  C045  F036         	movff	i2TMR1_SetInterruptHandler@InterruptHandler+1,_TMR1_InterruptHandler+1
  3258  00073E  0012               	return		;funcret
  3259  000740                     __end_ofi2_TMR1_SetInterruptHandler:
  3260                           	opt callstack 0
  3261                           
  3262 ;; *************** function i2_IOCCF2_SetInterruptHandler *****************
  3263 ;; Defined at:
  3264 ;;		line 153 in file "mcc_generated_files/pin_manager.c"
  3265 ;; Parameters:    Size  Location     Type
  3266 ;;  InterruptHan    2    0[COMRAM] PTR FTN()void 
  3267 ;;		 -> ping_RC2_went_HIGH(1), IOCCF2_DefaultInterruptHandler(1), 
  3268 ;; Auto vars:     Size  Location     Type
  3269 ;;		None
  3270 ;; Return value:  Size  Location     Type
  3271 ;;                  1    wreg      void 
  3272 ;; Registers used:
  3273 ;;		wreg, status,2, status,0
  3274 ;; Tracked objects:
  3275 ;;		On entry : 0/0
  3276 ;;		On exit  : 0/0
  3277 ;;		Unchanged: 0/0
  3278 ;; Data sizes:     COMRAM   BANK0   BANK1   BANK2   BANK3   BANK4   BANK5   BANK6   BANK7
  3279 ;;      Params:         2       0       0       0       0       0       0       0       0
  3280 ;;      Locals:         0       0       0       0       0       0       0       0       0
  3281 ;;      Temps:          0       0       0       0       0       0       0       0       0
  3282 ;;      Totals:         2       0       0       0       0       0       0       0       0
  3283 ;;Total ram usage:        2 bytes
  3284 ;; Hardware stack levels used:    1
  3285 ;; This function calls:
  3286 ;;		Nothing
  3287 ;; This function is called by:
  3288 ;;		_ping_TMR1Overflow_isr
  3289 ;;		_ping_RC2_went_HIGH
  3290 ;; This function uses a non-reentrant model
  3291 ;;
  3292                           
  3293                           	psect	text40
  3294  000740                     __ptext40:
  3295                           	opt callstack 0
  3296  000740                     i2_IOCCF2_SetInterruptHandler:
  3297                           	opt callstack 24
  3298                           
  3299                           ;mcc_generated_files/pin_manager.c: 154:     IOCCF2_InterruptHandler = InterruptHandler;
  3300                           
  3301                           ;incstack = 0
  3302  000740  C044  F03D         	movff	i2IOCCF2_SetInterruptHandler@InterruptHandler,_IOCCF2_InterruptHandler
  3303  000744  C045  F03E         	movff	i2IOCCF2_SetInterruptHandler@InterruptHandler+1,_IOCCF2_InterruptHandler+1
  3304  000748  0012               	return		;funcret
  3305  00074A                     __end_ofi2_IOCCF2_SetInterruptHandler:
  3306                           	opt callstack 0
  3307                           
  3308 ;; *************** function _EUSART1_Transmit_ISR *****************
  3309 ;; Defined at:
  3310 ;;		line 203 in file "mcc_generated_files/eusart1.c"
  3311 ;; Parameters:    Size  Location     Type
  3312 ;;		None
  3313 ;; Auto vars:     Size  Location     Type
  3314 ;;		None
  3315 ;; Return value:  Size  Location     Type
  3316 ;;                  1    wreg      void 
  3317 ;; Registers used:
  3318 ;;		wreg, fsr2l, fsr2h, status,2, status,0
  3319 ;; Tracked objects:
  3320 ;;		On entry : 0/0
  3321 ;;		On exit  : 0/0
  3322 ;;		Unchanged: 0/0
  3323 ;; Data sizes:     COMRAM   BANK0   BANK1   BANK2   BANK3   BANK4   BANK5   BANK6   BANK7
  3324 ;;      Params:         0       0       0       0       0       0       0       0       0
  3325 ;;      Locals:         0       0       0       0       0       0       0       0       0
  3326 ;;      Temps:          0       0       0       0       0       0       0       0       0
  3327 ;;      Totals:         0       0       0       0       0       0       0       0       0
  3328 ;;Total ram usage:        0 bytes
  3329 ;; Hardware stack levels used:    1
  3330 ;; This function calls:
  3331 ;;		Nothing
  3332 ;; This function is called by:
  3333 ;;		_EUSART1_Initialize
  3334 ;;		_INTERRUPT_InterruptManager
  3335 ;; This function uses a non-reentrant model
  3336 ;;
  3337                           
  3338                           	psect	text41
  3339  000538                     __ptext41:
  3340                           	opt callstack 0
  3341  000538                     _EUSART1_Transmit_ISR:
  3342                           	opt callstack 26
  3343                           
  3344                           ;mcc_generated_files/eusart1.c: 207:     if(sizeof(eusart1TxBuffer) > eusart1TxBufferRem
      +                          aining)
  3345                           
  3346                           ;incstack = 0
  3347  000538  0E08               	movlw	8
  3348  00053A  6043               	cpfslt	_eusart1TxBufferRemaining,c	;volatile
  3349  00053C  D010               	goto	i2l463
  3350                           
  3351                           ;mcc_generated_files/eusart1.c: 208:     {;mcc_generated_files/eusart1.c: 209:         T
      +                          X1REG = eusart1TxBuffer[eusart1TxTail++];
  3352  00053E  0E19               	movlw	low _eusart1TxBuffer
  3353  000540  242D               	addwf	_eusart1TxTail,w,c	;volatile
  3354  000542  6ED9               	movwf	fsr2l,c
  3355  000544  6ADA               	clrf	fsr2h,c
  3356  000546  0E00               	movlw	high _eusart1TxBuffer
  3357  000548  22DA               	addwfc	fsr2h,f,c
  3358  00054A  50DF               	movf	indf2,w,c
  3359  00054C  6E99               	movwf	3993,c	;volatile
  3360  00054E  2A2D               	incf	_eusart1TxTail,f,c	;volatile
  3361                           
  3362                           ;mcc_generated_files/eusart1.c: 210:         if(sizeof(eusart1TxBuffer) <= eusart1TxTail
      +                          )
  3363  000550  0E07               	movlw	7
  3364  000552  642D               	cpfsgt	_eusart1TxTail,c	;volatile
  3365  000554  D002               	goto	i2l1709
  3366                           
  3367                           ;mcc_generated_files/eusart1.c: 211:         {;mcc_generated_files/eusart1.c: 212:      
      +                                 eusart1TxTail = 0;
  3368  000556  0E00               	movlw	0
  3369  000558  6E2D               	movwf	_eusart1TxTail,c	;volatile
  3370  00055A                     i2l1709:
  3371                           
  3372                           ;mcc_generated_files/eusart1.c: 214:         eusart1TxBufferRemaining++;
  3373  00055A  2A43               	incf	_eusart1TxBufferRemaining,f,c	;volatile
  3374                           
  3375                           ;mcc_generated_files/eusart1.c: 215:     }
  3376  00055C  0012               	return	
  3377  00055E                     i2l463:
  3378                           
  3379                           ;mcc_generated_files/eusart1.c: 217:     {;mcc_generated_files/eusart1.c: 218:         P
      +                          IE3bits.TX1IE = 0;
  3380  00055E  010E               	movlb	14	; () banked
  3381  000560  99C0               	bcf	192,4,b	;volatile
  3382  000562  0012               	return		;funcret
  3383  000564                     __end_of_EUSART1_Transmit_ISR:
  3384                           	opt callstack 0
  3385                           
  3386 ;; *************** function _EUSART1_Receive_ISR *****************
  3387 ;; Defined at:
  3388 ;;		line 222 in file "mcc_generated_files/eusart1.c"
  3389 ;; Parameters:    Size  Location     Type
  3390 ;;		None
  3391 ;; Auto vars:     Size  Location     Type
  3392 ;;		None
  3393 ;; Return value:  Size  Location     Type
  3394 ;;                  1    wreg      void 
  3395 ;; Registers used:
  3396 ;;		wreg, fsr2l, fsr2h, status,2, status,0, pclath, tosl, cstack
  3397 ;; Tracked objects:
  3398 ;;		On entry : 0/0
  3399 ;;		On exit  : 0/0
  3400 ;;		Unchanged: 0/0
  3401 ;; Data sizes:     COMRAM   BANK0   BANK1   BANK2   BANK3   BANK4   BANK5   BANK6   BANK7
  3402 ;;      Params:         0       0       0       0       0       0       0       0       0
  3403 ;;      Locals:         0       0       0       0       0       0       0       0       0
  3404 ;;      Temps:          0       0       0       0       0       0       0       0       0
  3405 ;;      Totals:         0       0       0       0       0       0       0       0       0
  3406 ;;Total ram usage:        0 bytes
  3407 ;; Hardware stack levels used:    1
  3408 ;; Hardware stack levels required when called:    2
  3409 ;; This function calls:
  3410 ;;		Absolute function
  3411 ;;		_EUSART1_DefaultErrorHandler
  3412 ;;		_EUSART1_DefaultFramingErrorHandler
  3413 ;;		_EUSART1_DefaultOverrunErrorHandler
  3414 ;;		_EUSART1_RxDataHandler
  3415 ;; This function is called by:
  3416 ;;		_EUSART1_Initialize
  3417 ;;		_INTERRUPT_InterruptManager
  3418 ;; This function uses a non-reentrant model
  3419 ;;
  3420                           
  3421                           	psect	text42
  3422  00017E                     __ptext42:
  3423                           	opt callstack 0
  3424  00017E                     _EUSART1_Receive_ISR:
  3425                           	opt callstack 24
  3426                           
  3427                           ;mcc_generated_files/eusart1.c: 225:     eusart1RxStatusBuffer[eusart1RxHead].status = 0
      +                          ;
  3428                           
  3429                           ;incstack = 0
  3430  00017E  0E09               	movlw	low _eusart1RxStatusBuffer
  3431  000180  242C               	addwf	_eusart1RxHead,w,c	;volatile
  3432  000182  6ED9               	movwf	fsr2l,c
  3433  000184  6ADA               	clrf	fsr2h,c
  3434  000186  0E00               	movlw	high _eusart1RxStatusBuffer
  3435  000188  22DA               	addwfc	fsr2h,f,c
  3436  00018A  0E00               	movlw	0
  3437  00018C  6EDF               	movwf	indf2,c
  3438                           
  3439                           ;mcc_generated_files/eusart1.c: 227:     if(RC1STAbits.FERR){
  3440  00018E  A49C               	btfss	3996,2,c	;volatile
  3441  000190  D013               	goto	i2u28_49
  3442                           
  3443                           ;mcc_generated_files/eusart1.c: 228:         eusart1RxStatusBuffer[eusart1RxHead].ferr =
      +                           1;
  3444  000192  0E09               	movlw	low _eusart1RxStatusBuffer
  3445  000194  242C               	addwf	_eusart1RxHead,w,c	;volatile
  3446  000196  6ED9               	movwf	fsr2l,c
  3447  000198  6ADA               	clrf	fsr2h,c
  3448  00019A  0E00               	movlw	high _eusart1RxStatusBuffer
  3449  00019C  22DA               	addwfc	fsr2h,f,c
  3450  00019E  82DF               	bsf	indf2,1,c
  3451                           
  3452                           ;mcc_generated_files/eusart1.c: 229:         EUSART1_FramingErrorHandler();
  3453  0001A0  D801               	call	i2u28_48
  3454  0001A2  D00A               	goto	i2u28_49
  3455  0001A4                     i2u28_48:
  3456  0001A4  0005               	push	
  3457  0001A6  6EFA               	movwf	pclath,c
  3458  0001A8  5033               	movf	_EUSART1_FramingErrorHandler,w,c
  3459  0001AA  6EFD               	movwf	tosl,c
  3460  0001AC  5034               	movf	_EUSART1_FramingErrorHandler+1,w,c
  3461  0001AE  6EFE               	movwf	tosh,c
  3462  0001B0  50F8               	movf	tblptru,w,c
  3463  0001B2  6EFF               	movwf	tosu,c
  3464  0001B4  50FA               	movf	pclath,w,c
  3465  0001B6  0012               	return		;indir
  3466  0001B8                     i2u28_49:
  3467                           
  3468                           ;mcc_generated_files/eusart1.c: 232:     if(RC1STAbits.OERR){
  3469  0001B8  A29C               	btfss	3996,1,c	;volatile
  3470  0001BA  D013               	goto	i2u30_49
  3471                           
  3472                           ;mcc_generated_files/eusart1.c: 233:         eusart1RxStatusBuffer[eusart1RxHead].oerr =
      +                           1;
  3473  0001BC  0E09               	movlw	low _eusart1RxStatusBuffer
  3474  0001BE  242C               	addwf	_eusart1RxHead,w,c	;volatile
  3475  0001C0  6ED9               	movwf	fsr2l,c
  3476  0001C2  6ADA               	clrf	fsr2h,c
  3477  0001C4  0E00               	movlw	high _eusart1RxStatusBuffer
  3478  0001C6  22DA               	addwfc	fsr2h,f,c
  3479  0001C8  84DF               	bsf	indf2,2,c
  3480                           
  3481                           ;mcc_generated_files/eusart1.c: 234:         EUSART1_OverrunErrorHandler();
  3482  0001CA  D801               	call	i2u30_48
  3483  0001CC  D00A               	goto	i2u30_49
  3484  0001CE                     i2u30_48:
  3485  0001CE  0005               	push	
  3486  0001D0  6EFA               	movwf	pclath,c
  3487  0001D2  5031               	movf	_EUSART1_OverrunErrorHandler,w,c
  3488  0001D4  6EFD               	movwf	tosl,c
  3489  0001D6  5032               	movf	_EUSART1_OverrunErrorHandler+1,w,c
  3490  0001D8  6EFE               	movwf	tosh,c
  3491  0001DA  50F8               	movf	tblptru,w,c
  3492  0001DC  6EFF               	movwf	tosu,c
  3493  0001DE  50FA               	movf	pclath,w,c
  3494  0001E0  0012               	return		;indir
  3495  0001E2                     i2u30_49:
  3496                           
  3497                           ;mcc_generated_files/eusart1.c: 237:     if(eusart1RxStatusBuffer[eusart1RxHead].status)
      +                          {
  3498  0001E2  0E09               	movlw	low _eusart1RxStatusBuffer
  3499  0001E4  242C               	addwf	_eusart1RxHead,w,c	;volatile
  3500  0001E6  6ED9               	movwf	fsr2l,c
  3501  0001E8  6ADA               	clrf	fsr2h,c
  3502  0001EA  0E00               	movlw	high _eusart1RxStatusBuffer
  3503  0001EC  22DA               	addwfc	fsr2h,f,c
  3504  0001EE  50DF               	movf	indf2,w,c
  3505  0001F0  B4D8               	btfsc	status,2,c
  3506  0001F2  D00C               	goto	i2l1729
  3507                           
  3508                           ;mcc_generated_files/eusart1.c: 238:         EUSART1_ErrorHandler();
  3509  0001F4  D801               	call	i2u32_48
  3510  0001F6  0012               	return	
  3511  0001F8                     i2u32_48:
  3512  0001F8  0005               	push	
  3513  0001FA  6EFA               	movwf	pclath,c
  3514  0001FC  502F               	movf	_EUSART1_ErrorHandler,w,c
  3515  0001FE  6EFD               	movwf	tosl,c
  3516  000200  5030               	movf	_EUSART1_ErrorHandler+1,w,c
  3517  000202  6EFE               	movwf	tosh,c
  3518  000204  50F8               	movf	tblptru,w,c
  3519  000206  6EFF               	movwf	tosu,c
  3520  000208  50FA               	movf	pclath,w,c
  3521  00020A  0012               	return		;indir
  3522  00020C                     i2l1729:
  3523                           
  3524                           ;mcc_generated_files/eusart1.c: 240:         EUSART1_RxDataHandler();
  3525  00020C  ECFE  F002         	call	_EUSART1_RxDataHandler	;wreg free
  3526  000210  0012               	return		;funcret
  3527  000212                     __end_of_EUSART1_Receive_ISR:
  3528                           	opt callstack 0
  3529                           
  3530 ;; *************** function _EUSART1_DefaultOverrunErrorHandler *****************
  3531 ;; Defined at:
  3532 ;;		line 258 in file "mcc_generated_files/eusart1.c"
  3533 ;; Parameters:    Size  Location     Type
  3534 ;;		None
  3535 ;; Auto vars:     Size  Location     Type
  3536 ;;		None
  3537 ;; Return value:  Size  Location     Type
  3538 ;;                  1    wreg      void 
  3539 ;; Registers used:
  3540 ;;		None
  3541 ;; Tracked objects:
  3542 ;;		On entry : 0/0
  3543 ;;		On exit  : 0/0
  3544 ;;		Unchanged: 0/0
  3545 ;; Data sizes:     COMRAM   BANK0   BANK1   BANK2   BANK3   BANK4   BANK5   BANK6   BANK7
  3546 ;;      Params:         0       0       0       0       0       0       0       0       0
  3547 ;;      Locals:         0       0       0       0       0       0       0       0       0
  3548 ;;      Temps:          0       0       0       0       0       0       0       0       0
  3549 ;;      Totals:         0       0       0       0       0       0       0       0       0
  3550 ;;Total ram usage:        0 bytes
  3551 ;; Hardware stack levels used:    1
  3552 ;; This function calls:
  3553 ;;		Nothing
  3554 ;; This function is called by:
  3555 ;;		_EUSART1_Initialize
  3556 ;;		_EUSART1_Receive_ISR
  3557 ;; This function uses a non-reentrant model
  3558 ;;
  3559                           
  3560                           	psect	text43
  3561  00074A                     __ptext43:
  3562                           	opt callstack 0
  3563  00074A                     _EUSART1_DefaultOverrunErrorHandler:
  3564                           	opt callstack 25
  3565                           
  3566                           ;mcc_generated_files/eusart1.c: 261:     RC1STAbits.CREN = 0;
  3567                           
  3568                           ;incstack = 0
  3569  00074A  989C               	bcf	3996,4,c	;volatile
  3570                           
  3571                           ;mcc_generated_files/eusart1.c: 262:     RC1STAbits.CREN = 1;
  3572  00074C  889C               	bsf	3996,4,c	;volatile
  3573  00074E  0012               	return		;funcret
  3574  000750                     __end_of_EUSART1_DefaultOverrunErrorHandler:
  3575                           	opt callstack 0
  3576                           
  3577 ;; *************** function _EUSART1_DefaultFramingErrorHandler *****************
  3578 ;; Defined at:
  3579 ;;		line 256 in file "mcc_generated_files/eusart1.c"
  3580 ;; Parameters:    Size  Location     Type
  3581 ;;		None
  3582 ;; Auto vars:     Size  Location     Type
  3583 ;;		None
  3584 ;; Return value:  Size  Location     Type
  3585 ;;                  1    wreg      void 
  3586 ;; Registers used:
  3587 ;;		None
  3588 ;; Tracked objects:
  3589 ;;		On entry : 0/0
  3590 ;;		On exit  : 0/0
  3591 ;;		Unchanged: 0/0
  3592 ;; Data sizes:     COMRAM   BANK0   BANK1   BANK2   BANK3   BANK4   BANK5   BANK6   BANK7
  3593 ;;      Params:         0       0       0       0       0       0       0       0       0
  3594 ;;      Locals:         0       0       0       0       0       0       0       0       0
  3595 ;;      Temps:          0       0       0       0       0       0       0       0       0
  3596 ;;      Totals:         0       0       0       0       0       0       0       0       0
  3597 ;;Total ram usage:        0 bytes
  3598 ;; Hardware stack levels used:    1
  3599 ;; This function calls:
  3600 ;;		Nothing
  3601 ;; This function is called by:
  3602 ;;		_EUSART1_Initialize
  3603 ;;		_EUSART1_Receive_ISR
  3604 ;; This function uses a non-reentrant model
  3605 ;;
  3606                           
  3607                           	psect	text44
  3608  00076C                     __ptext44:
  3609                           	opt callstack 0
  3610  00076C                     _EUSART1_DefaultFramingErrorHandler:
  3611                           	opt callstack 25
  3612                           
  3613                           ;incstack = 0
  3614  00076C  0012               	return		;funcret
  3615  00076E                     __end_of_EUSART1_DefaultFramingErrorHandler:
  3616                           	opt callstack 0
  3617                           
  3618 ;; *************** function _EUSART1_DefaultErrorHandler *****************
  3619 ;; Defined at:
  3620 ;;		line 266 in file "mcc_generated_files/eusart1.c"
  3621 ;; Parameters:    Size  Location     Type
  3622 ;;		None
  3623 ;; Auto vars:     Size  Location     Type
  3624 ;;		None
  3625 ;; Return value:  Size  Location     Type
  3626 ;;                  1    wreg      void 
  3627 ;; Registers used:
  3628 ;;		wreg, fsr2l, fsr2h, status,2, status,0, cstack
  3629 ;; Tracked objects:
  3630 ;;		On entry : 0/0
  3631 ;;		On exit  : 0/0
  3632 ;;		Unchanged: 0/0
  3633 ;; Data sizes:     COMRAM   BANK0   BANK1   BANK2   BANK3   BANK4   BANK5   BANK6   BANK7
  3634 ;;      Params:         0       0       0       0       0       0       0       0       0
  3635 ;;      Locals:         0       0       0       0       0       0       0       0       0
  3636 ;;      Temps:          0       0       0       0       0       0       0       0       0
  3637 ;;      Totals:         0       0       0       0       0       0       0       0       0
  3638 ;;Total ram usage:        0 bytes
  3639 ;; Hardware stack levels used:    1
  3640 ;; Hardware stack levels required when called:    1
  3641 ;; This function calls:
  3642 ;;		_EUSART1_RxDataHandler
  3643 ;; This function is called by:
  3644 ;;		_EUSART1_Initialize
  3645 ;;		_EUSART1_Receive_ISR
  3646 ;; This function uses a non-reentrant model
  3647 ;;
  3648                           
  3649                           	psect	text45
  3650  000750                     __ptext45:
  3651                           	opt callstack 0
  3652  000750                     _EUSART1_DefaultErrorHandler:
  3653                           	opt callstack 24
  3654                           
  3655                           ;mcc_generated_files/eusart1.c: 267:     EUSART1_RxDataHandler();
  3656                           
  3657                           ;incstack = 0
  3658  000750  ECFE  F002         	call	_EUSART1_RxDataHandler	;wreg free
  3659  000754  0012               	return		;funcret
  3660  000756                     __end_of_EUSART1_DefaultErrorHandler:
  3661                           	opt callstack 0
  3662                           
  3663 ;; *************** function _EUSART1_RxDataHandler *****************
  3664 ;; Defined at:
  3665 ;;		line 246 in file "mcc_generated_files/eusart1.c"
  3666 ;; Parameters:    Size  Location     Type
  3667 ;;		None
  3668 ;; Auto vars:     Size  Location     Type
  3669 ;;		None
  3670 ;; Return value:  Size  Location     Type
  3671 ;;                  1    wreg      void 
  3672 ;; Registers used:
  3673 ;;		wreg, fsr2l, fsr2h, status,2, status,0
  3674 ;; Tracked objects:
  3675 ;;		On entry : 0/0
  3676 ;;		On exit  : 0/0
  3677 ;;		Unchanged: 0/0
  3678 ;; Data sizes:     COMRAM   BANK0   BANK1   BANK2   BANK3   BANK4   BANK5   BANK6   BANK7
  3679 ;;      Params:         0       0       0       0       0       0       0       0       0
  3680 ;;      Locals:         0       0       0       0       0       0       0       0       0
  3681 ;;      Temps:          0       0       0       0       0       0       0       0       0
  3682 ;;      Totals:         0       0       0       0       0       0       0       0       0
  3683 ;;Total ram usage:        0 bytes
  3684 ;; Hardware stack levels used:    1
  3685 ;; This function calls:
  3686 ;;		Nothing
  3687 ;; This function is called by:
  3688 ;;		_EUSART1_Receive_ISR
  3689 ;;		_EUSART1_DefaultErrorHandler
  3690 ;; This function uses a non-reentrant model
  3691 ;;
  3692                           
  3693                           	psect	text46
  3694  0005FC                     __ptext46:
  3695                           	opt callstack 0
  3696  0005FC                     _EUSART1_RxDataHandler:
  3697                           	opt callstack 25
  3698                           
  3699                           ;mcc_generated_files/eusart1.c: 248:     eusart1RxBuffer[eusart1RxHead++] = RC1REG;
  3700                           
  3701                           ;incstack = 0
  3702  0005FC  0E11               	movlw	low _eusart1RxBuffer
  3703  0005FE  242C               	addwf	_eusart1RxHead,w,c	;volatile
  3704  000600  6ED9               	movwf	fsr2l,c
  3705  000602  6ADA               	clrf	fsr2h,c
  3706  000604  0E00               	movlw	high _eusart1RxBuffer
  3707  000606  22DA               	addwfc	fsr2h,f,c
  3708  000608  CF98 FFDF          	movff	3992,indf2	;volatile
  3709  00060C  2A2C               	incf	_eusart1RxHead,f,c	;volatile
  3710                           
  3711                           ;mcc_generated_files/eusart1.c: 249:     if(sizeof(eusart1RxBuffer) <= eusart1RxHead)
  3712  00060E  0E07               	movlw	7
  3713  000610  642C               	cpfsgt	_eusart1RxHead,c	;volatile
  3714  000612  D002               	goto	i2l1399
  3715                           
  3716                           ;mcc_generated_files/eusart1.c: 250:     {;mcc_generated_files/eusart1.c: 251:         e
      +                          usart1RxHead = 0;
  3717  000614  0E00               	movlw	0
  3718  000616  6E2C               	movwf	_eusart1RxHead,c	;volatile
  3719  000618                     i2l1399:
  3720                           
  3721                           ;mcc_generated_files/eusart1.c: 253:     eusart1RxCount++;
  3722  000618  2A2A               	incf	_eusart1RxCount,f,c	;volatile
  3723  00061A  0012               	return		;funcret
  3724  00061C                     __end_of_EUSART1_RxDataHandler:
  3725                           	opt callstack 0
  3726                           
  3727 ;; *************** function _CCP1_CaptureISR *****************
  3728 ;; Defined at:
  3729 ;;		line 94 in file "mcc_generated_files/ccp1.c"
  3730 ;; Parameters:    Size  Location     Type
  3731 ;;		None
  3732 ;; Auto vars:     Size  Location     Type
  3733 ;;  module          2    2[COMRAM] struct CCPR1Reg_tag
  3734 ;; Return value:  Size  Location     Type
  3735 ;;                  1    wreg      void 
  3736 ;; Registers used:
  3737 ;;		wreg, status,2, pclath, tosl, cstack
  3738 ;; Tracked objects:
  3739 ;;		On entry : 0/0
  3740 ;;		On exit  : 0/0
  3741 ;;		Unchanged: 0/0
  3742 ;; Data sizes:     COMRAM   BANK0   BANK1   BANK2   BANK3   BANK4   BANK5   BANK6   BANK7
  3743 ;;      Params:         0       0       0       0       0       0       0       0       0
  3744 ;;      Locals:         2       0       0       0       0       0       0       0       0
  3745 ;;      Temps:          0       0       0       0       0       0       0       0       0
  3746 ;;      Totals:         2       0       0       0       0       0       0       0       0
  3747 ;;Total ram usage:        2 bytes
  3748 ;; Hardware stack levels used:    1
  3749 ;; Hardware stack levels required when called:    1
  3750 ;; This function calls:
  3751 ;;		Absolute function
  3752 ;;		_CCP1_DefaultCallBack
  3753 ;;		_ping_CCP1_triggered
  3754 ;; This function is called by:
  3755 ;;		_INTERRUPT_InterruptManager
  3756 ;; This function uses a non-reentrant model
  3757 ;;
  3758                           
  3759                           	psect	text47
  3760  000564                     __ptext47:
  3761                           	opt callstack 0
  3762  000564                     _CCP1_CaptureISR:
  3763                           	opt callstack 25
  3764                           
  3765                           ;mcc_generated_files/ccp1.c: 96:     CCP1_PERIOD_REG_T module;;mcc_generated_files/ccp1.
      +                          c: 99:     PIR6bits.CCP1IF = 0;
  3766                           
  3767                           ;incstack = 0
  3768  000564  010E               	movlb	14	; () banked
  3769  000566  91CB               	bcf	203,0,b	;volatile
  3770                           
  3771                           ;mcc_generated_files/ccp1.c: 102:     module.ccpr1l = CCPR1L;
  3772  000568  CFA9 F046          	movff	4009,CCP1_CaptureISR@module	;volatile
  3773                           
  3774                           ;mcc_generated_files/ccp1.c: 103:     module.ccpr1h = CCPR1H;
  3775  00056C  CFAA F047          	movff	4010,CCP1_CaptureISR@module+1	;volatile
  3776                           
  3777                           ; BSR set to: 14
  3778                           ;mcc_generated_files/ccp1.c: 106:     CCP1_CallBack(module.ccpr1_16Bit);
  3779  000570  C046  F044         	movff	CCP1_CaptureISR@module,ping_CCP1_triggered@timeOfFlight
  3780  000574  C047  F045         	movff	CCP1_CaptureISR@module+1,ping_CCP1_triggered@timeOfFlight+1
  3781  000578  D801               	call	i2u58_48
  3782  00057A  0012               	return	
  3783  00057C                     i2u58_48:
  3784  00057C  0005               	push	
  3785  00057E  6EFA               	movwf	pclath,c
  3786  000580  5039               	movf	_CCP1_CallBack,w,c
  3787  000582  6EFD               	movwf	tosl,c
  3788  000584  503A               	movf	_CCP1_CallBack+1,w,c
  3789  000586  6EFE               	movwf	tosh,c
  3790  000588  50F8               	movf	tblptru,w,c
  3791  00058A  6EFF               	movwf	tosu,c
  3792  00058C  50FA               	movf	pclath,w,c
  3793  00058E  0012               	return		;indir
  3794  000590                     __end_of_CCP1_CaptureISR:
  3795                           	opt callstack 0
  3796                           
  3797 ;; *************** function _CCP1_DefaultCallBack *****************
  3798 ;; Defined at:
  3799 ;;		line 60 in file "mcc_generated_files/ccp1.c"
  3800 ;; Parameters:    Size  Location     Type
  3801 ;;  capturedValu    2    0[COMRAM] unsigned short 
  3802 ;; Auto vars:     Size  Location     Type
  3803 ;;		None
  3804 ;; Return value:  Size  Location     Type
  3805 ;;                  1    wreg      void 
  3806 ;; Registers used:
  3807 ;;		None
  3808 ;; Tracked objects:
  3809 ;;		On entry : 0/0
  3810 ;;		On exit  : 0/0
  3811 ;;		Unchanged: 0/0
  3812 ;; Data sizes:     COMRAM   BANK0   BANK1   BANK2   BANK3   BANK4   BANK5   BANK6   BANK7
  3813 ;;      Params:         2       0       0       0       0       0       0       0       0
  3814 ;;      Locals:         0       0       0       0       0       0       0       0       0
  3815 ;;      Temps:          0       0       0       0       0       0       0       0       0
  3816 ;;      Totals:         2       0       0       0       0       0       0       0       0
  3817 ;;Total ram usage:        2 bytes
  3818 ;; Hardware stack levels used:    1
  3819 ;; This function calls:
  3820 ;;		Nothing
  3821 ;; This function is called by:
  3822 ;;		_CCP1_Initialize
  3823 ;;		_CCP1_CaptureISR
  3824 ;; This function uses a non-reentrant model
  3825 ;;
  3826                           
  3827                           	psect	text48
  3828  00076E                     __ptext48:
  3829                           	opt callstack 0
  3830  00076E                     _CCP1_DefaultCallBack:
  3831                           	opt callstack 25
  3832                           
  3833                           ;incstack = 0
  3834  00076E  0012               	return		;funcret
  3835  000770                     __end_of_CCP1_DefaultCallBack:
  3836                           	opt callstack 0
  3837                           
  3838 ;; *************** function _ping_CCP1_triggered *****************
  3839 ;; Defined at:
  3840 ;;		line 82 in file "ping.c"
  3841 ;; Parameters:    Size  Location     Type
  3842 ;;  timeOfFlight    2    0[COMRAM] unsigned short 
  3843 ;; Auto vars:     Size  Location     Type
  3844 ;;		None
  3845 ;; Return value:  Size  Location     Type
  3846 ;;                  1    wreg      void 
  3847 ;; Registers used:
  3848 ;;		wreg, status,2
  3849 ;; Tracked objects:
  3850 ;;		On entry : 0/0
  3851 ;;		On exit  : 0/0
  3852 ;;		Unchanged: 0/0
  3853 ;; Data sizes:     COMRAM   BANK0   BANK1   BANK2   BANK3   BANK4   BANK5   BANK6   BANK7
  3854 ;;      Params:         2       0       0       0       0       0       0       0       0
  3855 ;;      Locals:         0       0       0       0       0       0       0       0       0
  3856 ;;      Temps:          0       0       0       0       0       0       0       0       0
  3857 ;;      Totals:         2       0       0       0       0       0       0       0       0
  3858 ;;Total ram usage:        2 bytes
  3859 ;; Hardware stack levels used:    1
  3860 ;; This function calls:
  3861 ;;		Nothing
  3862 ;; This function is called by:
  3863 ;;		_ping_init
  3864 ;;		_CCP1_CaptureISR
  3865 ;; This function uses a non-reentrant model
  3866 ;;
  3867                           
  3868                           	psect	text49
  3869  0006A6                     __ptext49:
  3870                           	opt callstack 0
  3871  0006A6                     _ping_CCP1_triggered:
  3872                           	opt callstack 25
  3873                           
  3874                           ;ping.c: 83:     status.tof = timeOfFlight;
  3875                           
  3876                           ;incstack = 0
  3877  0006A6  C044  F007         	movff	ping_CCP1_triggered@timeOfFlight,_status+6	;volatile
  3878  0006AA  C045  F008         	movff	ping_CCP1_triggered@timeOfFlight+1,_status+7	;volatile
  3879                           
  3880                           ;ping.c: 84:     status.pingStarted = 0;
  3881  0006AE  0E00               	movlw	0
  3882  0006B0  6E06               	movwf	_status+5,c	;volatile
  3883                           
  3884                           ;ping.c: 85:     status.readReady = 1;
  3885  0006B2  0E01               	movlw	1
  3886  0006B4  6E01               	movwf	_status,c	;volatile
  3887                           
  3888                           ;ping.c: 87:     PIE6bits.CCP1IE = 0;
  3889  0006B6  010E               	movlb	14	; () banked
  3890  0006B8  91C3               	bcf	195,0,b	;volatile
  3891                           
  3892                           ; BSR set to: 14
  3893  0006BA  9482               	bcf	3970,2,c	;volatile
  3894                           
  3895                           ; BSR set to: 14
  3896  0006BC  0012               	return		;funcret
  3897  0006BE                     __end_of_ping_CCP1_triggered:
  3898                           	opt callstack 0
  3899  0000                     
  3900                           	psect	text50
  3901  000000                     __ptext50:
  3902                           	opt callstack 0
  3903                           
  3904                           	psect	rparam
  3905  0000                     
  3906                           	psect	temp
  3907  000055                     btemp:
  3908                           	opt callstack 0
  3909  000055                     	ds	1
  3910  0000                     int$flags	set	btemp
  3911  0000                     wtemp8	set	btemp+1
  3912  0000                     ttemp5	set	btemp+1
  3913  0000                     ttemp6	set	btemp+4
  3914  0000                     ttemp7	set	btemp+8
  3915                           tosu	equ	0xFFF
  3916                           tosh	equ	0xFFE
  3917                           tosl	equ	0xFFD
  3918                           stkptr	equ	0xFFC
  3919                           pclatu	equ	0xFFB
  3920                           pclath	equ	0xFFA
  3921                           pcl	equ	0xFF9
  3922                           tblptru	equ	0xFF8
  3923                           tblptrh	equ	0xFF7
  3924                           tblptrl	equ	0xFF6
  3925                           tablat	equ	0xFF5
  3926                           prodh	equ	0xFF4
  3927                           prodl	equ	0xFF3
  3928                           indf0	equ	0xFEF
  3929                           postinc0	equ	0xFEE
  3930                           postdec0	equ	0xFED
  3931                           preinc0	equ	0xFEC
  3932                           plusw0	equ	0xFEB
  3933                           fsr0h	equ	0xFEA
  3934                           fsr0l	equ	0xFE9
  3935                           wreg	equ	0xFE8
  3936                           indf1	equ	0xFE7
  3937                           postinc1	equ	0xFE6
  3938                           postdec1	equ	0xFE5
  3939                           preinc1	equ	0xFE4
  3940                           plusw1	equ	0xFE3
  3941                           fsr1h	equ	0xFE2
  3942                           fsr1l	equ	0xFE1
  3943                           bsr	equ	0xFE0
  3944                           indf2	equ	0xFDF
  3945                           postinc2	equ	0xFDE
  3946                           postdec2	equ	0xFDD
  3947                           preinc2	equ	0xFDC
  3948                           plusw2	equ	0xFDB
  3949                           fsr2h	equ	0xFDA
  3950                           fsr2l	equ	0xFD9
  3951                           status	equ	0xFD8


Data Sizes:
    Strings     0
    Constant    0
    Data        3
    BSS         46
    Persistent  21
    Stack       0

Auto Spaces:
    Space          Size  Autos    Used
    COMRAM           94     14      84
    BANK0           160      0       0
    BANK1           256      0       0
    BANK2           256      0       0
    BANK3           256      0       0
    BANK4           256      0       0
    BANK5           256      0       0
    BANK6           256      0       0
    BANK7           256      0       0

Pointer List with Targets:

    EUSART1_SetRxInterruptHandler@interruptHandler	PTR FTN()void  size(2) Largest target is 1
		 -> EUSART1_Receive_ISR(), 

    EUSART1_SetTxInterruptHandler@interruptHandler	PTR FTN()void  size(2) Largest target is 1
		 -> EUSART1_Transmit_ISR(), 

    EUSART1_SetErrorHandler@interruptHandler	PTR FTN()void  size(2) Largest target is 1
		 -> EUSART1_DefaultErrorHandler(), 

    EUSART1_SetOverrunErrorHandler@interruptHandler	PTR FTN()void  size(2) Largest target is 1
		 -> EUSART1_DefaultOverrunErrorHandler(), 

    EUSART1_SetFramingErrorHandler@interruptHandler	PTR FTN()void  size(2) Largest target is 1
		 -> EUSART1_DefaultFramingErrorHandler(), 

    EUSART1_ErrorHandler	PTR FTN()void  size(2) Largest target is 1
		 -> EUSART1_DefaultErrorHandler(), Absolute function(), 

    EUSART1_OverrunErrorHandler	PTR FTN()void  size(2) Largest target is 1
		 -> EUSART1_DefaultOverrunErrorHandler(), Absolute function(), 

    EUSART1_FramingErrorHandler	PTR FTN()void  size(2) Largest target is 1
		 -> EUSART1_DefaultFramingErrorHandler(), Absolute function(), 

    TMR1_SetInterruptHandler@InterruptHandler	PTR FTN()void  size(2) Largest target is 1
		 -> ping_TMR1Overflow_isr(), TMR1_DefaultInterruptHandler(), 

    TMR1_InterruptHandler	PTR FTN()void  size(2) Largest target is 1
		 -> ping_TMR1Overflow_isr(), TMR1_DefaultInterruptHandler(), Absolute function(), 

    CCP1_SetCallBack@customCallBack	PTR FTN(unsigned short ,)void  size(2) Largest target is 1
		 -> ping_CCP1_triggered(), CCP1_DefaultCallBack(), 

    CCP1_CallBack	PTR FTN(unsigned short ,)void  size(2) Largest target is 1
		 -> ping_CCP1_triggered(), CCP1_DefaultCallBack(), Absolute function(), 

    EUSART1_RxDefaultInterruptHandler	PTR FTN()void  size(2) Largest target is 1
		 -> EUSART1_Receive_ISR(), Absolute function(), 

    EUSART1_TxDefaultInterruptHandler	PTR FTN()void  size(2) Largest target is 1
		 -> EUSART1_Transmit_ISR(), Absolute function(), 

    TMR2_SetInterruptHandler@InterruptHandler	PTR FTN()void  size(2) Largest target is 1
		 -> carcontrol_ISR(), TMR2_DefaultInterruptHandler(), 

    TMR2_InterruptHandler	PTR FTN()void  size(2) Largest target is 1
		 -> carcontrol_ISR(), TMR2_DefaultInterruptHandler(), Absolute function(), 

    IOCCF2_SetInterruptHandler@InterruptHandler	PTR FTN()void  size(2) Largest target is 1
		 -> ping_RC2_went_HIGH(), IOCCF2_DefaultInterruptHandler(), 

    IOCCF2_InterruptHandler	PTR FTN()void  size(2) Largest target is 1
		 -> ping_RC2_went_HIGH(), Absolute function(), IOCCF2_DefaultInterruptHandler(), 


Critical Paths under _main in COMRAM

    _ping_send->_TMR1_SetInterruptHandler
    _ping_send->_TMR1_WriteTimer
    _ping_init->_CCP1_SetCallBack
    _ping_init->_IOCCF2_SetInterruptHandler
    _ping_init->_TMR1_SetInterruptHandler
    _carcontrol_init->_TMR2_SetInterruptHandler
    _SYSTEM_Initialize->_TMR1_Initialize
    _TMR2_Initialize->_TMR2_SetInterruptHandler
    _TMR1_Initialize->_TMR1_SetInterruptHandler
    _PIN_MANAGER_Initialize->_IOCCF2_SetInterruptHandler
    _EUSART1_Initialize->_EUSART1_SetErrorHandler
    _EUSART1_Initialize->_EUSART1_SetFramingErrorHandler
    _EUSART1_Initialize->_EUSART1_SetOverrunErrorHandler
    _EUSART1_Initialize->_EUSART1_SetRxInterruptHandler
    _EUSART1_Initialize->_EUSART1_SetTxInterruptHandler
    _CCP1_Initialize->_CCP1_SetCallBack

Critical Paths under _INTERRUPT_InterruptManager in COMRAM

    _INTERRUPT_InterruptManager->_CCP1_CaptureISR
    _TMR2_ISR->_carcontrol_ISR
    _TMR1_ISR->i2_TMR1_WriteTimer
    _ping_TMR1Overflow_isr->i2_IOCCF2_SetInterruptHandler
    _ping_TMR1Overflow_isr->i2_TMR1_SetInterruptHandler
    _ping_RC2_went_HIGH->i2_IOCCF2_SetInterruptHandler
    _ping_RC2_went_HIGH->i2_TMR1_SetInterruptHandler
    _ping_RC2_went_HIGH->i2_TMR1_WriteTimer
    _CCP1_CaptureISR->_CCP1_DefaultCallBack
    _CCP1_CaptureISR->_ping_CCP1_triggered

Critical Paths under _main in BANK0

    None.

Critical Paths under _INTERRUPT_InterruptManager in BANK0

    None.

Critical Paths under _main in BANK1

    None.

Critical Paths under _INTERRUPT_InterruptManager in BANK1

    None.

Critical Paths under _main in BANK2

    None.

Critical Paths under _INTERRUPT_InterruptManager in BANK2

    None.

Critical Paths under _main in BANK3

    None.

Critical Paths under _INTERRUPT_InterruptManager in BANK3

    None.

Critical Paths under _main in BANK4

    None.

Critical Paths under _INTERRUPT_InterruptManager in BANK4

    None.

Critical Paths under _main in BANK5

    None.

Critical Paths under _INTERRUPT_InterruptManager in BANK5

    None.

Critical Paths under _main in BANK6

    None.

Critical Paths under _INTERRUPT_InterruptManager in BANK6

    None.

Critical Paths under _main in BANK7

    None.

Critical Paths under _INTERRUPT_InterruptManager in BANK7

    None.

Call Graph Tables:

 ---------------------------------------------------------------------------------
 (Depth) Function   	        Calls       Base Space   Used Autos Params    Refs
 ---------------------------------------------------------------------------------
 (0) _main                                                 2     2      0    3274
                                             12 COMRAM     2     2      0
                  _SYSTEM_Initialize
                    _carcontrol_init
                _carcontrol_steering
                          _ping_init
                          _ping_send
 ---------------------------------------------------------------------------------
 (1) _ping_send                                            0     0      0     690
           _TMR1_SetInterruptHandler
                    _TMR1_StartTimer
                    _TMR1_WriteTimer
 ---------------------------------------------------------------------------------
 (2) _TMR1_WriteTimer                                      2     0      2     340
                                              8 COMRAM     2     0      2
 ---------------------------------------------------------------------------------
 (2) _TMR1_StartTimer                                      0     0      0       0
 ---------------------------------------------------------------------------------
 (1) _ping_init                                            0     0      0     798
                   _CCP1_SetCallBack
         _IOCCF2_SetInterruptHandler
           _TMR1_SetInterruptHandler
 ---------------------------------------------------------------------------------
 (1) _carcontrol_init                                      0     0      0     264
           _TMR2_SetInterruptHandler
                _carcontrol_steering
                _carcontrol_throttle
 ---------------------------------------------------------------------------------
 (2) _carcontrol_throttle                                  1     1      0      30
                                              8 COMRAM     1     1      0
 ---------------------------------------------------------------------------------
 (1) _carcontrol_steering                                  1     1      0      60
                                              8 COMRAM     1     1      0
 ---------------------------------------------------------------------------------
 (1) _SYSTEM_Initialize                                    0     0      0    1462
                    _CCP1_Initialize
                 _EUSART1_Initialize
               _INTERRUPT_Initialize
              _OSCILLATOR_Initialize
             _PIN_MANAGER_Initialize
                     _PMD_Initialize
                    _TMR1_Initialize
                    _TMR2_Initialize
 ---------------------------------------------------------------------------------
 (2) _TMR2_Initialize                                      0     0      0     174
           _TMR2_SetInterruptHandler
 ---------------------------------------------------------------------------------
 (2) _TMR2_SetInterruptHandler                             2     0      2     174
                                              8 COMRAM     2     0      2
 ---------------------------------------------------------------------------------
 (2) _TMR1_Initialize                                      2     2      0     350
                                             10 COMRAM     2     2      0
           _TMR1_SetInterruptHandler
 ---------------------------------------------------------------------------------
 (2) _TMR1_SetInterruptHandler                             2     0      2     350
                                              8 COMRAM     2     0      2
 ---------------------------------------------------------------------------------
 (2) _PMD_Initialize                                       0     0      0       0
 ---------------------------------------------------------------------------------
 (2) _PIN_MANAGER_Initialize                               0     0      0     274
         _IOCCF2_SetInterruptHandler
 ---------------------------------------------------------------------------------
 (2) _IOCCF2_SetInterruptHandler                           2     0      2     274
                                              8 COMRAM     2     0      2
 ---------------------------------------------------------------------------------
 (2) _OSCILLATOR_Initialize                                0     0      0       0
 ---------------------------------------------------------------------------------
 (2) _INTERRUPT_Initialize                                 0     0      0       0
 ---------------------------------------------------------------------------------
 (2) _EUSART1_Initialize                                   0     0      0     490
            _EUSART1_SetErrorHandler
     _EUSART1_SetFramingErrorHandler
     _EUSART1_SetOverrunErrorHandler
      _EUSART1_SetRxInterruptHandler
      _EUSART1_SetTxInterruptHandler
 ---------------------------------------------------------------------------------
 (3) _EUSART1_SetTxInterruptHandler                        2     0      2      98
                                              8 COMRAM     2     0      2
 ---------------------------------------------------------------------------------
 (3) _EUSART1_SetRxInterruptHandler                        2     0      2      98
                                              8 COMRAM     2     0      2
 ---------------------------------------------------------------------------------
 (3) _EUSART1_SetOverrunErrorHandler                       2     0      2      98
                                              8 COMRAM     2     0      2
 ---------------------------------------------------------------------------------
 (3) _EUSART1_SetFramingErrorHandler                       2     0      2      98
                                              8 COMRAM     2     0      2
 ---------------------------------------------------------------------------------
 (3) _EUSART1_SetErrorHandler                              2     0      2      98
                                              8 COMRAM     2     0      2
 ---------------------------------------------------------------------------------
 (2) _CCP1_Initialize                                      0     0      0     174
                   _CCP1_SetCallBack
 ---------------------------------------------------------------------------------
 (2) _CCP1_SetCallBack                                     2     0      2     174
                                              8 COMRAM     2     0      2
 ---------------------------------------------------------------------------------
 Estimated maximum stack depth 3
 ---------------------------------------------------------------------------------
 (Depth) Function   	        Calls       Base Space   Used Autos Params    Refs
 ---------------------------------------------------------------------------------
 (4) _INTERRUPT_InterruptManager                           4     4      0     681
                                              4 COMRAM     4     4      0
                   Absolute function *
                    _CCP1_CaptureISR
                _EUSART1_Receive_ISR *
               _EUSART1_Transmit_ISR *
                    _PIN_MANAGER_IOC
                           _TMR1_ISR
                           _TMR2_ISR
 ---------------------------------------------------------------------------------
 (5) _TMR2_ISR                                             0     0      0       0
                   Absolute function *
       _TMR2_DefaultInterruptHandler *
                     _carcontrol_ISR *
 ---------------------------------------------------------------------------------
 (6) _carcontrol_ISR                                       3     3      0       0
                                              0 COMRAM     3     3      0
 ---------------------------------------------------------------------------------
 (6) _TMR2_DefaultInterruptHandler                         0     0      0       0
 ---------------------------------------------------------------------------------
 (5) _TMR1_ISR                                             0     0      0     288
                   Absolute function *
       _TMR1_DefaultInterruptHandler *
              _ping_TMR1Overflow_isr *
                  i2_TMR1_WriteTimer
 ---------------------------------------------------------------------------------
 (6) _ping_TMR1Overflow_isr                                0     0      0     148
       i2_IOCCF2_SetInterruptHandler
         i2_TMR1_SetInterruptHandler
 ---------------------------------------------------------------------------------
 (6) _TMR1_DefaultInterruptHandler                         0     0      0       0
 ---------------------------------------------------------------------------------
 (5) _PIN_MANAGER_IOC                                      0     0      0     288
                         _IOCCF2_ISR
 ---------------------------------------------------------------------------------
 (6) _IOCCF2_ISR                                           0     0      0     288
                   Absolute function *
     _IOCCF2_DefaultInterruptHandler *
                 _ping_RC2_went_HIGH *
 ---------------------------------------------------------------------------------
 (7) _ping_RC2_went_HIGH                                   0     0      0     288
       i2_IOCCF2_SetInterruptHandler
         i2_TMR1_SetInterruptHandler
                  i2_TMR1_StartTimer
                  i2_TMR1_WriteTimer
 ---------------------------------------------------------------------------------
 (6) i2_TMR1_WriteTimer                                    2     0      2     140
                                              0 COMRAM     2     0      2
 ---------------------------------------------------------------------------------
 (8) i2_TMR1_StartTimer                                    0     0      0       0
 ---------------------------------------------------------------------------------
 (7) i2_TMR1_SetInterruptHandler                           2     0      2      74
                                              0 COMRAM     2     0      2
 ---------------------------------------------------------------------------------
 (7) i2_IOCCF2_SetInterruptHandler                         2     0      2      74
                                              0 COMRAM     2     0      2
 ---------------------------------------------------------------------------------
 (7) _IOCCF2_DefaultInterruptHandler                       0     0      0       0
 ---------------------------------------------------------------------------------
 (5) _EUSART1_Transmit_ISR                                 0     0      0       0
 ---------------------------------------------------------------------------------
 (5) _EUSART1_Receive_ISR                                  0     0      0       0
                   Absolute function *
        _EUSART1_DefaultErrorHandler *
 _EUSART1_DefaultFramingErrorHandler *
 _EUSART1_DefaultOverrunErrorHandler *
              _EUSART1_RxDataHandler
 ---------------------------------------------------------------------------------
 (6) _EUSART1_DefaultOverrunErrorHandler                   0     0      0       0
 ---------------------------------------------------------------------------------
 (6) _EUSART1_DefaultFramingErrorHandler                   0     0      0       0
 ---------------------------------------------------------------------------------
 (6) _EUSART1_DefaultErrorHandler                          0     0      0       0
              _EUSART1_RxDataHandler
 ---------------------------------------------------------------------------------
 (6) _EUSART1_RxDataHandler                                0     0      0       0
 ---------------------------------------------------------------------------------
 (5) _CCP1_CaptureISR                                      2     2      0     105
                                              2 COMRAM     2     2      0
                   Absolute function *
               _CCP1_DefaultCallBack *
                _ping_CCP1_triggered *
 ---------------------------------------------------------------------------------
 (6) _ping_CCP1_triggered                                  2     0      2      58
                                              0 COMRAM     2     0      2
 ---------------------------------------------------------------------------------
 (6) _CCP1_DefaultCallBack                                 2     0      2       0
                                              0 COMRAM     2     0      2
 ---------------------------------------------------------------------------------
 (6) Absolute function(Fake)                               0     0      0       0
 ---------------------------------------------------------------------------------
 Estimated maximum stack depth 8
 ---------------------------------------------------------------------------------

 Call Graph Graphs:

 _main (ROOT)
   _SYSTEM_Initialize
     _CCP1_Initialize
       _CCP1_SetCallBack
     _EUSART1_Initialize
       _EUSART1_SetErrorHandler
       _EUSART1_SetFramingErrorHandler
       _EUSART1_SetOverrunErrorHandler
       _EUSART1_SetRxInterruptHandler
       _EUSART1_SetTxInterruptHandler
     _INTERRUPT_Initialize
     _OSCILLATOR_Initialize
     _PIN_MANAGER_Initialize
       _IOCCF2_SetInterruptHandler
     _PMD_Initialize
     _TMR1_Initialize
       _TMR1_SetInterruptHandler
     _TMR2_Initialize
       _TMR2_SetInterruptHandler
   _carcontrol_init
     _TMR2_SetInterruptHandler
     _carcontrol_steering
     _carcontrol_throttle
   _carcontrol_steering
   _ping_init
     _CCP1_SetCallBack
     _IOCCF2_SetInterruptHandler
     _TMR1_SetInterruptHandler
   _ping_send
     _TMR1_SetInterruptHandler
     _TMR1_StartTimer
     _TMR1_WriteTimer

 _INTERRUPT_InterruptManager (ROOT)
   Absolute function(Fake) *
   _CCP1_CaptureISR *
     Absolute function(Fake) *
     _CCP1_DefaultCallBack *
     _ping_CCP1_triggered *
   _EUSART1_Receive_ISR *
     Absolute function(Fake) *
     _EUSART1_DefaultErrorHandler *
       _EUSART1_RxDataHandler
     _EUSART1_DefaultFramingErrorHandler *
     _EUSART1_DefaultOverrunErrorHandler *
     _EUSART1_RxDataHandler *
   _EUSART1_Transmit_ISR *
   _PIN_MANAGER_IOC *
     _IOCCF2_ISR
       Absolute function(Fake) *
       _IOCCF2_DefaultInterruptHandler *
       _ping_RC2_went_HIGH *
         i2_IOCCF2_SetInterruptHandler
         i2_TMR1_SetInterruptHandler
         i2_TMR1_StartTimer
         i2_TMR1_WriteTimer
   _TMR1_ISR *
     Absolute function(Fake) *
     _TMR1_DefaultInterruptHandler *
     _ping_TMR1Overflow_isr *
       i2_IOCCF2_SetInterruptHandler
       i2_TMR1_SetInterruptHandler
     i2_TMR1_WriteTimer *
   _TMR2_ISR *
     Absolute function(Fake) *
     _TMR2_DefaultInterruptHandler *
     _carcontrol_ISR *

 Address spaces:
Name               Size   Autos  Total    Cost      Usage
BIGRAM             7FF      0       0      21        0.0%
EEDATA             100      0       0       0        0.0%
BITBANK7           100      0       0      19        0.0%
BANK7              100      0       0      20        0.0%
BITBANK6           100      0       0      16        0.0%
BANK6              100      0       0      17        0.0%
BITBANK5           100      0       0      14        0.0%
BANK5              100      0       0      15        0.0%
BITBANK4           100      0       0      12        0.0%
BANK4              100      0       0      13        0.0%
BITBANK3           100      0       0      10        0.0%
BANK3              100      0       0      11        0.0%
BITBANK2           100      0       0       8        0.0%
BANK2              100      0       0       9        0.0%
BITBANK1           100      0       0       6        0.0%
BANK1              100      0       0       7        0.0%
BITBANK0            A0      0       0       4        0.0%
BANK0               A0      0       0       5        0.0%
BITCOMRAM           5E      0       0       0        0.0%
COMRAM              5E      E      54       1       89.4%
BITSFR_2             0      0       0     200        0.0%
SFR_2                0      0       0     200        0.0%
BITSFR_1             0      0       0     200        0.0%
SFR_1                0      0       0     200        0.0%
BITSFR               0      0       0     200        0.0%
SFR                  0      0       0     200        0.0%
STACK                0      0       0       2        0.0%
NULL                 0      0       0       0        0.0%
ABS                  0      0      54      18        0.0%
DATA                 0      0      54       3        0.0%
CODE                 0      0       0       0        0.0%


Microchip Technology PIC18 Macro Assembler V2.05 build -831301201 
Symbol Table                                                                                   Thu Apr 11 23:00:20 2019

              __end_of_TMR2_SetInterruptHandler 06E6                        _eusart1TxBufferRemaining 0043  
                             ??_carcontrol_init 004E                                     __CFG_CP$OFF 000000  
                           _carcontrol_throttle 06BE                             _carcontrol_steering 04B4  
                       __end_of_CCP1_Initialize 0538                                     __CFG_LVP$ON 000000  
                                           _PR2 000FBB                                    __CFG_CPD$OFF 000000  
                                           u757 030A                                             u767 0320  
                                           u777 0334                                             u787 048A  
                               _timer1ReloadVal 0037                         __size_of_PMD_Initialize 001C  
                               _TMR2_Initialize 04E0                                             tosl 000FFD  
                                           wreg 000FE8                ??_IOCCF2_DefaultInterruptHandler 0044  
               ?_IOCCF2_DefaultInterruptHandler 0044                     carcontrol_steering@steering 004C  
                                  __CFG_ZCD$OFF 000000                                            l2041 064C  
                                          l1533 04D2                                            l1541 06CA  
                                          l2157 0326                                            l1529 04C4  
                                          _LATA 000F82                                            _LATB 000F83  
                                          _LATC 000F84                                            _T2PR 000FBB  
                                          _PMD0 000EDC                                            _PMD1 000EDD  
                                          _PMD2 000EDE                                            _PMD3 000EDF  
                                          _PMD4 000EE0                                            _PMD5 000EE1  
                                          _TMR2 000FBA                                            _WPUA 000F0B  
                                          _WPUB 000F13                                            _WPUC 000F1B  
                                          _WPUE 000F28                            ?_carcontrol_throttle 0044  
                          ?_carcontrol_steering 0044                                   __CFG_FCMEN$ON 000000  
                                          _main 02F0                                            fsr2h 000FDA  
                                          indf2 000FDF                                            fsr2l 000FD9  
                                          btemp 0055                                            start 0096  
                      __end_of_CCP1_SetCallBack 0736                      ??_TMR1_SetInterruptHandler 004E  
                                 __CFG_CSWEN$ON 000000                                    ___param_bank 000000  
                              ?_CCP1_CaptureISR 0044                                   __CFG_SCANE$ON 000000  
                __size_of_OSCILLATOR_Initialize 0018                   __end_of_OSCILLATOR_Initialize 06A6  
                           __size_of_IOCCF2_ISR 0026                           _eusart1RxStatusBuffer 0009  
                                         ?_main 0044                                   __CFG_WDTE$OFF 000000  
                               _TMR1_StartTimer 0756                                           _T1CLK 000FD1  
                                         _T1CON 000FCE                                           _T2CON 000FBC  
                                         _T2HLT 000FBD                                  __CFG_DEBUG$OFF 000000  
                                         _T2TMR 000FBA                                           _T2RST 000FBF  
                                         i2l250 0060                                           i2l251 0082  
                                         i2l252 006C                                           i2l245 0028  
                                         i2l254 0078                                           i2l248 0042  
                                         i2l463 055E                                           _OSCEN 000ED7  
                                         _TMR1H 000FCD                                           _TMR1L 000FCC  
                                         _TRISA 000F87                                           _TRISB 000F88  
                                         _TRISC 000F89                                   __CFG_WRT0$OFF 000000  
                                 __CFG_WRT1$OFF 000000                                   __CFG_WRT2$OFF 000000  
                                 __CFG_WRT3$OFF 000000                            _EUSART1_Transmit_ISR 0538  
                                __CFG_EBTR0$OFF 000000                                  __CFG_EBTR1$OFF 000000  
                                __CFG_EBTR2$OFF 000000                                  __CFG_EBTR3$OFF 000000  
                              __end_of_TMR1_ISR 042A                                __end_of_TMR2_ISR 05DA  
                                 __CFG_WRTB$OFF 000000                                   __CFG_WRTC$OFF 000000  
                                 __CFG_WRTD$OFF 000000                                  __CFG_EBTRB$OFF 000000  
                       __end_of_PIN_MANAGER_IOC 06DC                              __CFG_MCLRE$EXTMCLR 000000  
                       __end_of_TMR1_Initialize 038C                           ??_carcontrol_throttle 004C  
                         ??_carcontrol_steering 004C                                           pclath 000FFA  
                                         tablat 000FF5                                           ttemp5 0056  
                                         ttemp6 0059                                           ttemp7 005D  
                                         status 000FD8                                           wtemp8 0056  
                                _carcontrol_ISR 009A      __end_of_EUSART1_DefaultFramingErrorHandler 076E  
   __size_of_EUSART1_DefaultFramingErrorHandler 0002            ??_EUSART1_DefaultFramingErrorHandler 0044  
           ?_EUSART1_DefaultFramingErrorHandler 0044              _EUSART1_DefaultFramingErrorHandler 076C  
                               _TMR1_WriteTimer 063A                                 __initialization 038C  
                    __end_of_EUSART1_Initialize 028C                                    __end_of_main 034A  
                       __end_of_TMR2_Initialize 050C                     ?_INTERRUPT_InterruptManager 0044  
                      _TMR2_SetInterruptHandler 06DC                                          ??_main 0050  
                              ?_CCP1_Initialize 0044                                   __activetblptr 000002  
                       _IOCCF2_InterruptHandler 003D                           ?_EUSART1_Transmit_ISR 0044  
                                        _CCPR1H 000FAA                                          _CCPR1L 000FA9  
                                        _ANSELA 000F0C                                          _ANSELB 000F14  
                                        _ANSELC 000F1C                                          _T1GATE 000FD0  
                                        _T1GCON 000FCF                                          _RC1REG 000F98  
                 __size_of_CCP1_DefaultCallBack 0002                                          _RC1STA 000F9C  
                       TMR1_WriteTimer@timerVal 004C                                          _ODCONA 000F0A  
                                        _ODCONB 000F12                                          _ODCONC 000F1A  
                                        _RC6PPS 000EF8                          __end_of_carcontrol_ISR 017E  
                                __CFG_WDTCCS$SC 000000                                          i2l1551 00AE  
                                        i2l1561 00D4                                          i2l1545 009C  
                                        i2l1571 012A                                          i2l1709 055A  
                                        i2l1399 0618                                          i2l1729 020C  
                                        i2l1587 0154                                          i2l1909 0684  
                                        _OSCFRQ 000ED9                                          _TX1REG 000F99  
                                        _TX1STA 000F9D                                          i2u9_40 00C6  
                                 _CCP1_CallBack 0039                                  __CFG_PWRTE$OFF 000000  
                                __CFG_XINST$OFF 000000            __end_of_TMR1_DefaultInterruptHandler 076A  
         __size_of_TMR1_DefaultInterruptHandler 0002                    _TMR1_DefaultInterruptHandler 0768  
                       __end_of_TMR1_StartTimer 075A                                  __CFG_STVREN$ON 000000  
                                        _carctl 0021                        ?_EUSART1_SetErrorHandler 004C  
                                        clear_0 03B0                ??_EUSART1_SetOverrunErrorHandler 004E  
               ?_EUSART1_SetOverrunErrorHandler 004C                                          _status 0001  
                   __end_of_ping_CCP1_triggered 06BE                                  _PMD_Initialize 0656  
                                  __pdataCOMRAM 0052                                          tblptrh 000FF7  
                                        tblptrl 000FF6                                          tblptru 000FF8  
                       ??_ping_TMR1Overflow_isr 0046        TMR1_SetInterruptHandler@InterruptHandler 004C  
      TMR2_SetInterruptHandler@InterruptHandler 004C      IOCCF2_SetInterruptHandler@InterruptHandler 004C  
    i2TMR1_SetInterruptHandler@InterruptHandler 0044    i2IOCCF2_SetInterruptHandler@InterruptHandler 0044  
                              ?_PIN_MANAGER_IOC 0044                         __end_of_TMR1_WriteTimer 0656  
                               _eusart1RxBuffer 0011                   __size_of_INTERRUPT_Initialize 0004  
                                  ??_IOCCF2_ISR 0046                                 _eusart1TxBuffer 0019  
                   __size_of_ping_RC2_went_HIGH 0030                                ?_TMR1_Initialize 0044  
                               ?_carcontrol_ISR 0044                               _SYSTEM_Initialize 05DA  
                               _carcontrol_init 045A                                      __accesstop 0060  
                       __end_of__initialization 03B6                              ?_SYSTEM_Initialize 0044  
                                 ___rparam_used 000001                  __size_of_EUSART1_RxDataHandler 0020  
                 __end_of_EUSART1_RxDataHandler 061C                                  __pcstackCOMRAM 0044  
                           ??_SYSTEM_Initialize 0050                                       ?_TMR1_ISR 0044  
                                     ?_TMR2_ISR 0044                   ?_TMR1_DefaultInterruptHandler 0044  
                              ?_TMR2_Initialize 0044                          __end_of_PMD_Initialize 0672  
                            __end_of_IOCCF2_ISR 05B6                          ??_EUSART1_Transmit_ISR 0044  
                   __end_of_EUSART1_Receive_ISR 0212                       __end_of_SYSTEM_Initialize 05FC  
                                 _eusart1RxHead 002C                                   _eusart1TxHead 002E  
                                 _eusart1RxTail 002B                                   _eusart1TxTail 002D  
             _EUSART1_TxDefaultInterruptHandler 0041                 ??_EUSART1_SetRxInterruptHandler 004E  
                                    __pnvCOMRAM 002F          __end_of_IOCCF2_DefaultInterruptHandler 076C  
       __size_of_IOCCF2_DefaultInterruptHandler 0002                  _IOCCF2_DefaultInterruptHandler 076A  
               __end_of_EUSART1_SetErrorHandler 072C                               ?_CCP1_SetCallBack 004C  
                              ?_TMR1_StartTimer 0044                                      ??_TMR1_ISR 0046  
                               __CFG_PPS1WAY$ON 000000                                      ??_TMR2_ISR 0047  
                            ??_CCP1_SetCallBack 004E                              __size_of_ping_init 0036  
                            __size_of_ping_send 002C                                         _CCP1CAP 000FAC  
                                       _CCP1CON 000FAB                                         _CCP1PPS 000EAA  
                               ?_PMD_Initialize 0044          __end_of_EUSART1_SetFramingErrorHandler 0722  
       __size_of_EUSART1_SetFramingErrorHandler 000A                  _EUSART1_SetFramingErrorHandler 0718  
                  ??i2_TMR1_SetInterruptHandler 0046                    ?_EUSART1_DefaultErrorHandler 0044  
                                       _SP1BRGH 000F9B                                         _SP1BRGL 000F9A  
                                       _OSCCON1 000ED3                                         _OSCCON3 000ED5  
                       __end_of_carcontrol_init 0488                                         i2u12_40 011C  
                                       i2u30_48 01CE                                         i2u30_49 01E2  
                                       i2u32_48 01F8                                         i2u16_48 05C6  
                                       i2u28_48 01A4                                         i2u28_49 01B8  
                                       i2u53_48 059C                                         i2u53_49 05B0  
                                       _OSCTUNE 000ED8                                         i2u57_48 0416  
                                       i2u65_48 0036                                         i2u58_48 057C  
                                       i2u68_48 004C                                         _SLRCONA 000F09  
                                       _SLRCONB 000F11                                         _SLRCONC 000F19  
                              ?_TMR1_WriteTimer 004C               CCP1_DefaultCallBack@capturedValue 0044  
                                       __Hparam 0000                                         __Lparam 0000  
                    ??_TMR2_SetInterruptHandler 004E                      __CFG_RSTOSC$HFINTOSC_64MHZ 000000  
           __size_ofi2_TMR1_SetInterruptHandler 000A                                         __pcinit 038C  
                                       __ramtop 0800                                         __ptext0 02F0  
                                       __ptext1 0488                                         __ptext2 063A  
                                       __ptext3 0756                                         __ptext4 03C4  
                                       __ptext5 045A                                         __ptext6 06BE  
                                       __ptext7 04B4                                         __ptext8 05DA  
                                       __ptext9 04E0                        __size_of_CCP1_CaptureISR 002C  
                ??_TMR1_DefaultInterruptHandler 0044                                       _T1CONbits 000FCE  
                         _OSCILLATOR_Initialize 068E                                       _T2CONbits 000FBC  
             __size_of_TMR1_SetInterruptHandler 000A                              _EUSART1_Initialize 0212  
                   __end_of_carcontrol_throttle 06D0                        ??_PIN_MANAGER_Initialize 004E  
                     ?_TMR1_SetInterruptHandler 004C                     __end_of_carcontrol_steering 04E0  
                                     _T2HLTbits 000FBD                                       _IOCCFbits 000F15  
                                     _IOCCNbits 000F16                                       _IOCCPbits 000F17  
                 ??_EUSART1_DefaultErrorHandler 0044                      __size_of_SYSTEM_Initialize 0022  
                          end_of_initialization 03B6                               __end_of_ping_init 03FA  
                                     _T2RSTbits 000FBF                               __end_of_ping_send 04B4  
                           ?_EUSART1_Initialize 0044                                   __Lmediumconst 0000  
                   _EUSART1_OverrunErrorHandler 0031           __end_of_EUSART1_SetRxInterruptHandler 070E  
        __size_of_EUSART1_SetRxInterruptHandler 000A                   _EUSART1_SetRxInterruptHandler 0704  
                                       postinc0 000FEE                    __end_of_CCP1_DefaultCallBack 0770  
                          ??_EUSART1_Initialize 004E                           __CFG_WDTCPS$WDTCPS_31 000000  
                                    _servo_trim 0054                                       _TRISCbits 000F89  
                              ??_carcontrol_ISR 0044                                ?_carcontrol_init 0044  
              __size_of_EUSART1_SetErrorHandler 000A                        __size_of_CCP1_Initialize 002C  
                  ??_IOCCF2_SetInterruptHandler 004E                                __CFG_FEXTOSC$OFF 000000  
                __size_of_ping_TMR1Overflow_isr 001E                   __end_of_ping_TMR1Overflow_isr 063A  
          __size_of_EUSART1_DefaultErrorHandler 0006                    __end_of_INTERRUPT_Initialize 075E  
          __end_of_TMR2_DefaultInterruptHandler 0768           __size_of_TMR2_DefaultInterruptHandler 0002  
                  _TMR2_DefaultInterruptHandler 0766                       i2TMR1_WriteTimer@timerVal 0044  
                                 __pidataCOMRAM 0762                               __size_of_TMR1_ISR 0030  
                             __size_of_TMR2_ISR 0024              __end_ofi2_TMR1_SetInterruptHandler 0740  
                    i2_TMR1_SetInterruptHandler 0736                          ?_OSCILLATOR_Initialize 0044  
           __size_of_IOCCF2_SetInterruptHandler 000A                             start_initialization 038C  
               __size_of_PIN_MANAGER_Initialize 0064                      __end_of_ping_RC2_went_HIGH 045A  
                             ??_CCP1_CaptureISR 0046   EUSART1_SetRxInterruptHandler@interruptHandler 004C  
 EUSART1_SetTxInterruptHandler@interruptHandler 004C                    __size_of_ping_CCP1_triggered 0018  
                      __size_of_PIN_MANAGER_IOC 000C                                __CFG_LPBOREN$OFF 000000  
                      __size_of_TMR1_Initialize 0042                                ??_PMD_Initialize 004C  
                         _EUSART1_RxDataHandler 05FC                                     _CCPTMRSbits 000FAD  
                ?_EUSART1_SetRxInterruptHandler 004C                   ?_TMR2_DefaultInterruptHandler 0044  
                                _eusart1RxCount 002A                           CCP1_CaptureISR@module 0046  
          __end_ofi2_IOCCF2_SetInterruptHandler 074A           __size_ofi2_IOCCF2_SetInterruptHandler 000A  
                  i2_IOCCF2_SetInterruptHandler 0740                                     __pbssCOMRAM 0001  
                     __size_of_CCP1_SetCallBack 000A               _EUSART1_RxDefaultInterruptHandler 003F  
                 __size_of_EUSART1_Transmit_ISR 002C                        __size_of_TMR2_Initialize 002C  
                          _CCP1_DefaultCallBack 076E                 ??_EUSART1_SetTxInterruptHandler 004E  
              ??_EUSART1_SetFramingErrorHandler 004E                 ?_EUSART1_SetFramingErrorHandler 004C  
                  __size_of_EUSART1_Receive_ISR 0094                               ??_CCP1_Initialize 004E  
                        _PIN_MANAGER_Initialize 028C                                       __pintcode 0008  
              __end_of_TMR1_SetInterruptHandler 06F0                    ??_INTERRUPT_InterruptManager 0048  
                                      _BAUD1CON 000F9E                        __size_of_TMR1_StartTimer 0004  
    __end_of_EUSART1_DefaultOverrunErrorHandler 0750     __size_of_EUSART1_DefaultOverrunErrorHandler 0006  
          ??_EUSART1_DefaultOverrunErrorHandler 0044             ?_EUSART1_DefaultOverrunErrorHandler 0044  
            _EUSART1_DefaultOverrunErrorHandler 074A                            _EUSART1_ErrorHandler 002F  
                       _EUSART1_SetErrorHandler 0722              __end_of_IOCCF2_SetInterruptHandler 06FA  
                 ?i2_IOCCF2_SetInterruptHandler 0044                      _IOCCF2_SetInterruptHandler 06F0  
                                      _T2CLKCON 000FBE                           ?_CCP1_DefaultCallBack 0044  
                          _INTERRUPT_Initialize 075A                                        _LATAbits 000F82  
       EUSART1_SetErrorHandler@interruptHandler 004C                                        _LATCbits 000F84  
                                     _ping_init 03C4                                        _PIE0bits 000EBD  
                                     _ping_send 0488                                        _PIE3bits 000EC0  
                                      _PIE4bits 000EC1                                        _PIE6bits 000EC3  
                      __size_of_TMR1_WriteTimer 001C             __size_of_INTERRUPT_InterruptManager 008E  
                                      _PIR0bits 000EC5                                        _PIR3bits 000EC8  
                                      _PIR4bits 000EC9                                        _PIR6bits 000ECB  
                        ?_EUSART1_RxDataHandler 0044                                        _TMR1_ISR 03FA  
                                      _TMR2_ISR 05B6                                       _servo_max 0052  
                                     _servo_min 0053                               ??_PIN_MANAGER_IOC 0046  
                             ??_TMR1_Initialize 004E                                       _stateTime 0027  
                             i2_TMR1_StartTimer 075E                  ??_TMR2_DefaultInterruptHandler 0044  
             __size_of_TMR2_SetInterruptHandler 000A                       ?_TMR2_SetInterruptHandler 004C  
                            ?i2_TMR1_StartTimer 0044                           ?_INTERRUPT_Initialize 0044  
                  __size_of_carcontrol_throttle 0012                    __size_of_carcontrol_steering 002C  
                             ??_TMR2_Initialize 004E                             ??i2_TMR1_StartTimer 0044  
                                    ?_ping_init 0044                                      ?_ping_send 0044  
         __end_of_EUSART1_SetTxInterruptHandler 0704          __size_of_EUSART1_SetTxInterruptHandler 000A  
                 _EUSART1_SetTxInterruptHandler 06FA                                        __Hrparam 0000  
                             i2_TMR1_WriteTimer 0672                                        __Lrparam 0000  
                            __CFG_BOREN$SBORDIS 000000                              ?i2_TMR1_WriteTimer 0044  
                       ??_OSCILLATOR_Initialize 004C                             _ping_CCP1_triggered 06A6  
                   __size_of_EUSART1_Initialize 007A                                 _CCP1_CaptureISR 0564  
                   ?i2_TMR1_SetInterruptHandler 0044                        _TMR1_SetInterruptHandler 06E6  
                     __end_ofi2_TMR1_StartTimer 0762                             ??i2_TMR1_WriteTimer 0046  
                         _TMR1_InterruptHandler 0035                       ??_EUSART1_SetErrorHandler 004E  
           __end_of_EUSART1_DefaultErrorHandler 0756                     _EUSART1_DefaultErrorHandler 0750  
                              _CCP1_SetCallBack 072C                  CCP1_SetCallBack@customCallBack 004C  
                                      __ptext10 06DC                                        __ptext11 034A  
                                      __ptext20 0704                                        __ptext12 06E6  
                                      __ptext21 070E                                        __ptext13 0656  
                                    _T1GCONbits 000FCF                                        __ptext30 03FA  
                                      __ptext22 0718                                        __ptext14 028C  
                                      __ptext31 0768                                        __ptext23 0722  
                                      __ptext15 06F0                                        __ptext40 0740  
                                      __ptext32 061C                                        __ptext24 050C  
                                      __ptext16 068E                                        __ptext41 0538  
                                      __ptext33 06D0                                        __ptext25 072C  
                                      __ptext17 075A                                        __ptext50 0000  
                                      __ptext42 017E                                        __ptext34 0590  
                                      __ptext18 0212                                        __ptext43 074A  
                                      __ptext35 076A                                        __ptext27 05B6  
                                      __ptext19 06FA                                        __ptext44 076C  
                                      __ptext36 042A                                        __ptext28 0766  
                                      __ptext45 0750                                        __ptext37 0672  
                                      __ptext29 009A                                        __ptext46 05FC  
                                      __ptext38 075E                                        __ptext47 0564  
                                      __ptext39 0736                                        __ptext48 076E  
                                      __ptext49 06A6                          ??_CCP1_DefaultCallBack 0046  
                          ?_ping_CCP1_triggered 0044                               ??_TMR1_StartTimer 004C  
                                    _IOCCF2_ISR 0590                  ??i2_IOCCF2_SetInterruptHandler 0046  
                                 __size_of_main 005A                           _ping_TMR1Overflow_isr 061C  
                      __size_of_carcontrol_init 002E                       __end_ofi2_TMR1_WriteTimer 068E  
                          __CFG_WDTCWS$WDTCWS_7 000000                              __CFG_BORV$VBOR_190 000000  
                            _ping_RC2_went_HIGH 042A                                      _RC1STAbits 000F9C  
EUSART1_SetOverrunErrorHandler@interruptHandler 004C                 ping_CCP1_triggered@timeOfFlight 0044  
                                      int$flags 0055              __end_of_INTERRUPT_InterruptManager 0096  
                    _INTERRUPT_InterruptManager 0008                             ?_ping_RC2_went_HIGH 0044  
                             ??_TMR1_WriteTimer 004E                     _EUSART1_FramingErrorHandler 0033  
                           _EUSART1_Receive_ISR 017E                                      _INTCONbits 000FF2  
                               _CCP1_Initialize 050C                          ??_INTERRUPT_Initialize 004C  
                         ??_ping_CCP1_triggered 0046                            ??_ping_RC2_went_HIGH 0046  
                                      intlevel2 0000                            ?_EUSART1_Receive_ISR 0044  
                       ?_PIN_MANAGER_Initialize 0044                               __CFG_CLKOUTEN$OFF 000000  
                                   ??_ping_init 004E          __end_of_EUSART1_SetOverrunErrorHandler 0718  
       __size_of_EUSART1_SetOverrunErrorHandler 000A                  _EUSART1_SetOverrunErrorHandler 070E  
                       __size_of_carcontrol_ISR 00E4                                     ??_ping_send 004E  
                  __end_of_EUSART1_Transmit_ISR 0564                         __end_of_CCP1_CaptureISR 0590  
EUSART1_SetFramingErrorHandler@interruptHandler 004C                  ?_EUSART1_SetTxInterruptHandler 004C  
                            _eusart1RxLastError 0029                     carcontrol_throttle@throttle 004C  
                    __size_ofi2_TMR1_StartTimer 0004                     ?_IOCCF2_SetInterruptHandler 004C  
                                    _TX1STAbits 000F9D                                     ?_IOCCF2_ISR 0044  
                         ??_EUSART1_Receive_ISR 0044                  __end_of_PIN_MANAGER_Initialize 02F0  
                        ?_ping_TMR1Overflow_isr 0044                                 _PIN_MANAGER_IOC 06D0  
                         _TMR2_InterruptHandler 003B                      __size_ofi2_TMR1_WriteTimer 001C  
                       ??_EUSART1_RxDataHandler 0044                                 _TMR1_Initialize 034A  
