

Microchip MPLAB XC8 Assembler V2.05 build -831301201 
                                                                                               Tue Apr  2 20:14:09 2019

Microchip MPLAB XC8 C Compiler v2.05 (Free license) build 20181220022703 Og1 
     1                           	processor	18F25Q10
     2                           	fnconf	rparam,??,?,0
     3                           	opt	pw 120
     4                           	opt	flic
     5                           	psect	idataCOMRAM,global,class=CODE,delta=1,noexec
     6                           	psect	nvCOMRAM,global,class=COMRAM,space=1,delta=1,noexec
     7                           	psect	cinit,global,reloc=2,class=CODE,delta=1
     8                           	psect	bssCOMRAM,global,class=COMRAM,space=1,delta=1,noexec
     9                           	psect	dataCOMRAM,global,class=COMRAM,space=1,delta=1,noexec
    10                           	psect	cstackCOMRAM,global,class=COMRAM,space=1,delta=1,noexec
    11                           	psect	text0,global,reloc=2,class=CODE,delta=1
    12                           	psect	text1,global,reloc=2,class=CODE,delta=1
    13                           	psect	text2,global,reloc=2,class=CODE,delta=1
    14                           	psect	text3,global,reloc=2,class=CODE,delta=1
    15                           	psect	text4,global,reloc=2,class=CODE,delta=1
    16                           	psect	text5,global,reloc=2,class=CODE,delta=1
    17                           	psect	text6,global,reloc=2,class=CODE,delta=1
    18                           	psect	text7,global,reloc=2,class=CODE,delta=1
    19                           	psect	text8,global,reloc=2,class=CODE,delta=1
    20                           	psect	text9,global,reloc=2,class=CODE,delta=1
    21                           	psect	text10,global,reloc=2,class=CODE,delta=1
    22                           	psect	intcode,global,reloc=2,class=CODE,delta=1
    23                           	psect	text12,global,reloc=2,class=CODE,delta=1
    24                           	psect	text13,global,reloc=2,class=CODE,delta=1
    25                           	psect	text14,global,reloc=2,class=CODE,delta=1
    26                           	psect	intsave_regs,global,class=BIGRAM,space=1,delta=1,noexec
    27                           	psect	text15,global,reloc=2,class=CODE,delta=1
    28                           	psect	rparam,global,class=COMRAM,space=1,delta=1,noexec
    29                           	psect	temp,global,ovrld,common,class=COMRAM,space=1,delta=1
    30  0000                     
    31                           ; Version 2.05
    32                           ; Generated 20/12/2018 GMT
    33                           ; 
    34                           ; Copyright © 2018, Microchip Technology Inc. and its subsidiaries ("Microchip")
    35                           ; All rights reserved.
    36                           ; 
    37                           ; This software is developed by Microchip Technology Inc. and its subsidiaries ("Microch
      +                          ip").
    38                           ; 
    39                           ; Redistribution and use in source and binary forms, with or without modification, are
    40                           ; permitted provided that the following conditions are met:
    41                           ; 
    42                           ;     1. Redistributions of source code must retain the above copyright notice, this lis
      +                          t of
    43                           ;        conditions and the following disclaimer.
    44                           ; 
    45                           ;     2. Redistributions in binary form must reproduce the above copyright notice, this 
      +                          list
    46                           ;        of conditions and the following disclaimer in the documentation and/or other
    47                           ;        materials provided with the distribution.
    48                           ; 
    49                           ;     3. Microchip's name may not be used to endorse or promote products derived from th
      +                          is
    50                           ;        software without specific prior written permission.
    51                           ; 
    52                           ; THIS SOFTWARE IS PROVIDED BY MICROCHIP "AS IS" AND ANY EXPRESS OR IMPLIED WARRANTIES,
    53                           ; INCLUDING, BUT NOT LIMITED TO, THE IMPLIED WARRANTIES OF MERCHANTABILITY AND FITNESS F
      +                          OR
    54                           ; PURPOSE ARE DISCLAIMED.  IN NO EVENT SHALL MICROCHIP BE LIABLE FOR ANY DIRECT, INDIREC
      +                          T,
    55                           ; INCIDENTAL, SPECIAL, EXEMPLARY, OR CONSEQUENTIAL DAMAGES (INCLUDING BUT NOT LIMITED TO
    56                           ; PROCUREMENT OF SUBSTITUTE GOODS OR SERVICES; LOSS OF USE, DATA OR PROFITS; OR BUSINESS
    57                           ; INTERRUPTION) HOWSOEVER CAUSED AND ON ANY THEORY OF LIABILITY, WHETHER IN CONTRACT, ST
      +                          RICT
    58                           ; LIABILITY, OR TORT (INCLUDING NEGLIGENCE OR OTHERWISE) ARISING IN ANY WAY OUT OF THE U
      +                          SE OF
    59                           ; THIS SOFTWARE, EVEN IF ADVISED OF THE POSSIBILITY OF SUCH DAMAGE.
    60                           ; 
    61                           ; 
    62                           ; Code-generator required, PIC18F25Q10 Definitions
    63                           ; 
    64                           ; SFR Addresses
    65  0000                     
    66                           	psect	idataCOMRAM
    67  00052E                     __pidataCOMRAM:
    68                           	opt callstack 0
    69                           
    70                           ;initializer for _servo_max
    71  00052E  1C                 	db	28
    72                           
    73                           ;initializer for _servo_min
    74  00052F  E2                 	db	226
    75                           
    76                           ;initializer for _servo_trim
    77  000530  EF                 	db	239
    78                           
    79                           	psect	nvCOMRAM
    80  000016                     __pnvCOMRAM:
    81                           	opt callstack 0
    82  000016                     _TMR2_InterruptHandler:
    83                           	opt callstack 0
    84  000016                     	ds	2
    85  0000                     _PIE4bits	set	3777
    86  0000                     _PIR4bits	set	3785
    87  0000                     _PMD5	set	3809
    88  0000                     _PMD4	set	3808
    89  0000                     _PMD3	set	3807
    90  0000                     _PMD2	set	3806
    91  0000                     _PMD1	set	3805
    92  0000                     _PMD0	set	3804
    93  0000                     _OSCTUNE	set	3800
    94  0000                     _OSCFRQ	set	3801
    95  0000                     _OSCEN	set	3799
    96  0000                     _OSCCON3	set	3797
    97  0000                     _OSCCON1	set	3795
    98  0000                     _SLRCONC	set	3865
    99  0000                     _SLRCONB	set	3857
   100  0000                     _SLRCONA	set	3849
   101  0000                     _ODCONC	set	3866
   102  0000                     _ODCONB	set	3858
   103  0000                     _ODCONA	set	3850
   104  0000                     _WPUC	set	3867
   105  0000                     _WPUA	set	3851
   106  0000                     _WPUB	set	3859
   107  0000                     _WPUE	set	3880
   108  0000                     _ANSELA	set	3852
   109  0000                     _ANSELB	set	3860
   110  0000                     _ANSELC	set	3868
   111  0000                     _LATAbits	set	3970
   112  0000                     _INTCONbits	set	4082
   113  0000                     _PR2	set	4027
   114  0000                     _TMR2	set	4026
   115  0000                     _T2CONbits	set	4028
   116  0000                     _T2RSTbits	set	4031
   117  0000                     _T2HLTbits	set	4029
   118  0000                     _T2CON	set	4028
   119  0000                     _T2TMR	set	4026
   120  0000                     _T2PR	set	4027
   121  0000                     _T2RST	set	4031
   122  0000                     _T2HLT	set	4029
   123  0000                     _T2CLKCON	set	4030
   124  0000                     _TRISC	set	3977
   125  0000                     _TRISB	set	3976
   126  0000                     _TRISA	set	3975
   127  0000                     _LATC	set	3972
   128  0000                     _LATB	set	3971
   129  0000                     _LATA	set	3970
   130                           
   131                           ; #config settings
   132  0000                     
   133                           	psect	cinit
   134  0003E2                     __pcinit:
   135                           	opt callstack 0
   136  0003E2                     start_initialization:
   137                           	opt callstack 0
   138  0003E2                     __initialization:
   139                           	opt callstack 0
   140                           
   141                           ; Initialize objects allocated to COMRAM (3 bytes)
   142                           ; load TBLPTR registers with __pidataCOMRAM
   143  0003E2  0E2E               	movlw	low __pidataCOMRAM
   144  0003E4  6EF6               	movwf	tblptrl,c
   145  0003E6  0E05               	movlw	high __pidataCOMRAM
   146  0003E8  6EF7               	movwf	tblptrh,c
   147  0003EA  0E00               	movlw	low (__pidataCOMRAM shr (0+16))
   148  0003EC  6EF8               	movwf	tblptru,c
   149  0003EE  0009               	tblrd		*+	;fetch initializer
   150  0003F0  CFF5 F013          	movff	tablat,__pdataCOMRAM
   151  0003F4  0009               	tblrd		*+	;fetch initializer
   152  0003F6  CFF5 F014          	movff	tablat,__pdataCOMRAM+1
   153  0003FA  0009               	tblrd		*+	;fetch initializer
   154  0003FC  CFF5 F015          	movff	tablat,__pdataCOMRAM+2
   155                           
   156                           ; Clear objects allocated to COMRAM (7 bytes)
   157  000400  EE00  F00C         	lfsr	0,__pbssCOMRAM
   158  000404  0E07               	movlw	7
   159  000406                     clear_0:
   160  000406  6AEE               	clrf	postinc0,c
   161  000408  06E8               	decf	wreg,f,c
   162  00040A  E1FD               	bnz	clear_0
   163  00040C                     end_of_initialization:
   164                           	opt callstack 0
   165  00040C                     __end_of__initialization:
   166                           	opt callstack 0
   167  00040C  9018               	bcf	int$flags,0,c	;clear compiler interrupt flag (level 1)
   168  00040E  9218               	bcf	int$flags,1,c	;clear compiler interrupt flag (level 2)
   169  000410  0E00               	movlw	low (__Lmediumconst shr (0+16))
   170  000412  6EF8               	movwf	tblptru,c
   171  000414  0100               	movlb	0
   172  000416  EF19  F000         	goto	_main	;jump to C main() function
   173                           
   174                           	psect	bssCOMRAM
   175  00000C                     __pbssCOMRAM:
   176                           	opt callstack 0
   177  00000C                     _carctl:
   178                           	opt callstack 0
   179  00000C                     	ds	5
   180  000011                     _stateTime:
   181                           	opt callstack 0
   182  000011                     	ds	2
   183                           
   184                           	psect	dataCOMRAM
   185  000013                     __pdataCOMRAM:
   186                           	opt callstack 0
   187  000013                     _servo_max:
   188                           	opt callstack 0
   189  000013                     	ds	1
   190  000014                     _servo_min:
   191                           	opt callstack 0
   192  000014                     	ds	1
   193  000015                     _servo_trim:
   194                           	opt callstack 0
   195  000015                     	ds	1
   196                           
   197                           	psect	cstackCOMRAM
   198  000001                     __pcstackCOMRAM:
   199                           	opt callstack 0
   200  000001                     ??_carcontrol_ISR:
   201  000001                     
   202                           ; 1 bytes @ 0x0
   203  000001                     	ds	3
   204  000004                     ??_INTERRUPT_InterruptManager:
   205                           
   206                           ; 1 bytes @ 0x3
   207  000004                     	ds	2
   208  000006                     carcontrol_steering@steering:
   209                           	opt callstack 0
   210  000006                     carcontrol_throttle@throttle:
   211                           	opt callstack 0
   212  000006                     TMR2_SetInterruptHandler@InterruptHandler:
   213                           	opt callstack 0
   214                           
   215                           ; 2 bytes @ 0x5
   216  000006                     	ds	2
   217  000008                     ??_main:
   218                           
   219                           ; 1 bytes @ 0x7
   220  000008                     	ds	2
   221  00000A                     main@i:
   222                           	opt callstack 0
   223                           
   224                           ; 2 bytes @ 0x9
   225  00000A                     	ds	2
   226                           
   227 ;;
   228 ;;Main: autosize = 0, tempsize = 2, incstack = 0, save=0
   229 ;;
   230 ;; *************** function _main *****************
   231 ;; Defined at:
   232 ;;		line 50 in file "main.c"
   233 ;; Parameters:    Size  Location     Type
   234 ;;		None
   235 ;; Auto vars:     Size  Location     Type
   236 ;;  i               2    9[COMRAM] int 
   237 ;; Return value:  Size  Location     Type
   238 ;;                  1    wreg      void 
   239 ;; Registers used:
   240 ;;		wreg, status,2, status,0, cstack
   241 ;; Tracked objects:
   242 ;;		On entry : 0/0
   243 ;;		On exit  : 0/0
   244 ;;		Unchanged: 0/0
   245 ;; Data sizes:     COMRAM   BANK0   BANK1   BANK2   BANK3   BANK4   BANK5   BANK6   BANK7
   246 ;;      Params:         0       0       0       0       0       0       0       0       0
   247 ;;      Locals:         2       0       0       0       0       0       0       0       0
   248 ;;      Temps:          2       0       0       0       0       0       0       0       0
   249 ;;      Totals:         4       0       0       0       0       0       0       0       0
   250 ;;Total ram usage:        4 bytes
   251 ;; Hardware stack levels required when called:    6
   252 ;; This function calls:
   253 ;;		_SYSTEM_Initialize
   254 ;;		_carcontrol_init
   255 ;;		_carcontrol_steering
   256 ;;		_carcontrol_throttle
   257 ;; This function is called by:
   258 ;;		Startup code after reset
   259 ;; This function uses a non-reentrant model
   260 ;;
   261                           
   262                           	psect	text0
   263  000032                     __ptext0:
   264                           	opt callstack 0
   265  000032                     _main:
   266                           	opt callstack 25
   267                           
   268                           ;main.c: 53:     SYSTEM_Initialize();
   269                           
   270                           ;incstack = 0
   271  000032  EC7C  F002         	call	_SYSTEM_Initialize	;wreg free
   272                           
   273                           ;main.c: 60:     (INTCONbits.GIE = 1);
   274  000036  8EF2               	bsf	4082,7,c	;volatile
   275                           
   276                           ;main.c: 66:     (INTCONbits.PEIE = 1);
   277  000038  8CF2               	bsf	4082,6,c	;volatile
   278                           
   279                           ;main.c: 71:     carcontrol_init();
   280  00003A  EC0D  F002         	call	_carcontrol_init	;wreg free
   281                           
   282                           ;main.c: 72:     _delay((unsigned long)((1000)*(64000000/4000.0)));
   283  00003E  0E52               	movlw	82
   284  000040  6E09               	movwf	(??_main+1)& (0+255),c
   285  000042  0E2B               	movlw	43
   286  000044  6E08               	movwf	??_main& (0+255),c
   287  000046  0E00               	movlw	0
   288  000048                     u347:
   289  000048  2EE8               	decfsz	wreg,f,c
   290  00004A  D7FE               	bra	u347
   291  00004C  2E08               	decfsz	??_main& (0+255),f,c
   292  00004E  D7FC               	bra	u347
   293  000050  2E09               	decfsz	(??_main+1)& (0+255),f,c
   294  000052  D7FA               	bra	u347
   295  000054  D000               	nop2	
   296                           
   297                           ;main.c: 74:     carcontrol_steering(0);
   298  000056  0E00               	movlw	0
   299  000058  EC24  F002         	call	_carcontrol_steering
   300                           
   301                           ;main.c: 76:     int i;;main.c: 77:     for (i=0; i<80; i++) {
   302  00005C  0E00               	movlw	0
   303  00005E  6E0B               	movwf	main@i+1,c
   304  000060  0E00               	movlw	0
   305  000062  6E0A               	movwf	main@i,c
   306  000064                     l1356:
   307                           
   308                           ;main.c: 78:         carcontrol_throttle(i);
   309  000064  500A               	movf	main@i,w,c
   310  000066  EC87  F002         	call	_carcontrol_throttle
   311                           
   312                           ;main.c: 79:         _delay((unsigned long)((33)*(64000000/4000.0)));
   313  00006A  0E03               	movlw	3
   314  00006C  6E09               	movwf	(??_main+1)& (0+255),c
   315  00006E  0EAE               	movlw	174
   316  000070  6E08               	movwf	??_main& (0+255),c
   317  000072  0EB3               	movlw	179
   318  000074                     u357:
   319  000074  2EE8               	decfsz	wreg,f,c
   320  000076  D7FE               	bra	u357
   321  000078  2E08               	decfsz	??_main& (0+255),f,c
   322  00007A  D7FC               	bra	u357
   323  00007C  2E09               	decfsz	(??_main+1)& (0+255),f,c
   324  00007E  D7FA               	bra	u357
   325  000080  F000               	nop	
   326                           
   327                           ;main.c: 80:     }
   328  000082  4A0A               	infsnz	main@i,f,c
   329  000084  2A0B               	incf	main@i+1,f,c
   330  000086  BE0B               	btfsc	main@i+1,7,c
   331  000088  D7ED               	goto	l1356
   332  00008A  500B               	movf	main@i+1,w,c
   333  00008C  E104               	bnz	u240
   334  00008E  0E50               	movlw	80
   335  000090  5C0A               	subwf	main@i,w,c
   336  000092  A0D8               	btfss	status,0,c
   337  000094  D7E7               	goto	l1356
   338  000096                     u240:
   339                           
   340                           ;main.c: 81:     for (i=0; i<80; i++) {
   341  000096  0E00               	movlw	0
   342  000098  6E0B               	movwf	main@i+1,c
   343  00009A  0E00               	movlw	0
   344  00009C  6E0A               	movwf	main@i,c
   345  00009E                     l1370:
   346                           
   347                           ;main.c: 82:         carcontrol_throttle(80-i);
   348  00009E  500A               	movf	main@i,w,c
   349  0000A0  0850               	sublw	80
   350  0000A2  EC87  F002         	call	_carcontrol_throttle
   351                           
   352                           ;main.c: 83:         _delay((unsigned long)((33)*(64000000/4000.0)));
   353  0000A6  0E03               	movlw	3
   354  0000A8  6E09               	movwf	(??_main+1)& (0+255),c
   355  0000AA  0EAE               	movlw	174
   356  0000AC  6E08               	movwf	??_main& (0+255),c
   357  0000AE  0EB3               	movlw	179
   358  0000B0                     u367:
   359  0000B0  2EE8               	decfsz	wreg,f,c
   360  0000B2  D7FE               	bra	u367
   361  0000B4  2E08               	decfsz	??_main& (0+255),f,c
   362  0000B6  D7FC               	bra	u367
   363  0000B8  2E09               	decfsz	(??_main+1)& (0+255),f,c
   364  0000BA  D7FA               	bra	u367
   365  0000BC  F000               	nop	
   366                           
   367                           ;main.c: 84:     }
   368  0000BE  4A0A               	infsnz	main@i,f,c
   369  0000C0  2A0B               	incf	main@i+1,f,c
   370  0000C2  BE0B               	btfsc	main@i+1,7,c
   371  0000C4  D7EC               	goto	l1370
   372  0000C6  500B               	movf	main@i+1,w,c
   373  0000C8  E104               	bnz	u250
   374  0000CA  0E50               	movlw	80
   375  0000CC  5C0A               	subwf	main@i,w,c
   376  0000CE  A0D8               	btfss	status,0,c
   377  0000D0  D7E6               	goto	l1370
   378  0000D2                     u250:
   379                           
   380                           ;main.c: 89:     for (i=0; i<28; i++) {
   381  0000D2  0E00               	movlw	0
   382  0000D4  6E0B               	movwf	main@i+1,c
   383  0000D6  0E00               	movlw	0
   384  0000D8  6E0A               	movwf	main@i,c
   385  0000DA                     l1384:
   386                           
   387                           ;main.c: 90:         carcontrol_steering(i);
   388  0000DA  500A               	movf	main@i,w,c
   389  0000DC  EC24  F002         	call	_carcontrol_steering
   390                           
   391                           ;main.c: 91:         _delay((unsigned long)((25)*(64000000/4000.0)));
   392  0000E0  0E03               	movlw	3
   393  0000E2  6E09               	movwf	(??_main+1)& (0+255),c
   394  0000E4  0E08               	movlw	8
   395  0000E6  6E08               	movwf	??_main& (0+255),c
   396  0000E8  0E77               	movlw	119
   397  0000EA                     u377:
   398  0000EA  2EE8               	decfsz	wreg,f,c
   399  0000EC  D7FE               	bra	u377
   400  0000EE  2E08               	decfsz	??_main& (0+255),f,c
   401  0000F0  D7FC               	bra	u377
   402  0000F2  2E09               	decfsz	(??_main+1)& (0+255),f,c
   403  0000F4  D7FA               	bra	u377
   404  0000F6  F000               	nop	
   405                           
   406                           ;main.c: 92:     }
   407  0000F8  4A0A               	infsnz	main@i,f,c
   408  0000FA  2A0B               	incf	main@i+1,f,c
   409  0000FC  BE0B               	btfsc	main@i+1,7,c
   410  0000FE  D7ED               	goto	l1384
   411  000100  500B               	movf	main@i+1,w,c
   412  000102  E104               	bnz	u260
   413  000104  0E1C               	movlw	28
   414  000106  5C0A               	subwf	main@i,w,c
   415  000108  A0D8               	btfss	status,0,c
   416  00010A  D7E7               	goto	l1384
   417  00010C                     u260:
   418                           
   419                           ;main.c: 93:     for (i=0; i<28; i++) {
   420  00010C  0E00               	movlw	0
   421  00010E  6E0B               	movwf	main@i+1,c
   422  000110  0E00               	movlw	0
   423  000112  6E0A               	movwf	main@i,c
   424  000114                     l1398:
   425                           
   426                           ;main.c: 94:         carcontrol_steering(28-i);
   427  000114  500A               	movf	main@i,w,c
   428  000116  081C               	sublw	28
   429  000118  EC24  F002         	call	_carcontrol_steering
   430                           
   431                           ;main.c: 95:         _delay((unsigned long)((30)*(64000000/4000.0)));
   432  00011C  0E03               	movlw	3
   433  00011E  6E09               	movwf	(??_main+1)& (0+255),c
   434  000120  0E70               	movlw	112
   435  000122  6E08               	movwf	??_main& (0+255),c
   436  000124  0E5C               	movlw	92
   437  000126                     u387:
   438  000126  2EE8               	decfsz	wreg,f,c
   439  000128  D7FE               	bra	u387
   440  00012A  2E08               	decfsz	??_main& (0+255),f,c
   441  00012C  D7FC               	bra	u387
   442  00012E  2E09               	decfsz	(??_main+1)& (0+255),f,c
   443  000130  D7FA               	bra	u387
   444  000132  D000               	nop2	
   445                           
   446                           ;main.c: 96:     }
   447  000134  4A0A               	infsnz	main@i,f,c
   448  000136  2A0B               	incf	main@i+1,f,c
   449  000138  BE0B               	btfsc	main@i+1,7,c
   450  00013A  D7EC               	goto	l1398
   451  00013C  500B               	movf	main@i+1,w,c
   452  00013E  E104               	bnz	u270
   453  000140  0E1C               	movlw	28
   454  000142  5C0A               	subwf	main@i,w,c
   455  000144  A0D8               	btfss	status,0,c
   456  000146  D7E6               	goto	l1398
   457  000148                     u270:
   458                           
   459                           ;main.c: 97:     for (i=0; i<30; i++) {
   460  000148  0E00               	movlw	0
   461  00014A  6E0B               	movwf	main@i+1,c
   462  00014C  0E00               	movlw	0
   463  00014E  6E0A               	movwf	main@i,c
   464  000150                     l1412:
   465                           
   466                           ;main.c: 98:         carcontrol_steering(-i);
   467  000150  500A               	movf	main@i,w,c
   468  000152  0800               	sublw	0
   469  000154  EC24  F002         	call	_carcontrol_steering
   470                           
   471                           ;main.c: 99:         _delay((unsigned long)((30)*(64000000/4000.0)));
   472  000158  0E03               	movlw	3
   473  00015A  6E09               	movwf	(??_main+1)& (0+255),c
   474  00015C  0E70               	movlw	112
   475  00015E  6E08               	movwf	??_main& (0+255),c
   476  000160  0E5C               	movlw	92
   477  000162                     u397:
   478  000162  2EE8               	decfsz	wreg,f,c
   479  000164  D7FE               	bra	u397
   480  000166  2E08               	decfsz	??_main& (0+255),f,c
   481  000168  D7FC               	bra	u397
   482  00016A  2E09               	decfsz	(??_main+1)& (0+255),f,c
   483  00016C  D7FA               	bra	u397
   484  00016E  D000               	nop2	
   485                           
   486                           ;main.c: 100:     }
   487  000170  4A0A               	infsnz	main@i,f,c
   488  000172  2A0B               	incf	main@i+1,f,c
   489  000174  BE0B               	btfsc	main@i+1,7,c
   490  000176  D7EC               	goto	l1412
   491  000178  500B               	movf	main@i+1,w,c
   492  00017A  E104               	bnz	u280
   493  00017C  0E1E               	movlw	30
   494  00017E  5C0A               	subwf	main@i,w,c
   495  000180  A0D8               	btfss	status,0,c
   496  000182  D7E6               	goto	l1412
   497  000184                     u280:
   498                           
   499                           ;main.c: 101:     for (i=0; i<30; i++) {
   500  000184  0E00               	movlw	0
   501  000186  6E0B               	movwf	main@i+1,c
   502  000188  0E00               	movlw	0
   503  00018A  6E0A               	movwf	main@i,c
   504  00018C                     l1426:
   505                           
   506                           ;main.c: 102:         carcontrol_steering(-30+i);
   507  00018C  500A               	movf	main@i,w,c
   508  00018E  0FE2               	addlw	226
   509  000190  EC24  F002         	call	_carcontrol_steering
   510                           
   511                           ;main.c: 103:         _delay((unsigned long)((30)*(64000000/4000.0)));
   512  000194  0E03               	movlw	3
   513  000196  6E09               	movwf	(??_main+1)& (0+255),c
   514  000198  0E70               	movlw	112
   515  00019A  6E08               	movwf	??_main& (0+255),c
   516  00019C  0E5C               	movlw	92
   517  00019E                     u407:
   518  00019E  2EE8               	decfsz	wreg,f,c
   519  0001A0  D7FE               	bra	u407
   520  0001A2  2E08               	decfsz	??_main& (0+255),f,c
   521  0001A4  D7FC               	bra	u407
   522  0001A6  2E09               	decfsz	(??_main+1)& (0+255),f,c
   523  0001A8  D7FA               	bra	u407
   524  0001AA  D000               	nop2	
   525                           
   526                           ;main.c: 104:     }
   527  0001AC  4A0A               	infsnz	main@i,f,c
   528  0001AE  2A0B               	incf	main@i+1,f,c
   529  0001B0  BE0B               	btfsc	main@i+1,7,c
   530  0001B2  D7EC               	goto	l1426
   531  0001B4  500B               	movf	main@i+1,w,c
   532  0001B6  E104               	bnz	u290
   533  0001B8  0E1E               	movlw	30
   534  0001BA  5C0A               	subwf	main@i,w,c
   535  0001BC  A0D8               	btfss	status,0,c
   536  0001BE  D7E6               	goto	l1426
   537  0001C0                     u290:
   538                           
   539                           ;main.c: 105:         for (i=0; i<28; i++) {
   540  0001C0  0E00               	movlw	0
   541  0001C2  6E0B               	movwf	main@i+1,c
   542  0001C4  0E00               	movlw	0
   543  0001C6  6E0A               	movwf	main@i,c
   544  0001C8                     l1440:
   545                           
   546                           ;main.c: 106:         carcontrol_steering(i);
   547  0001C8  500A               	movf	main@i,w,c
   548  0001CA  EC24  F002         	call	_carcontrol_steering
   549                           
   550                           ;main.c: 107:         _delay((unsigned long)((30)*(64000000/4000.0)));
   551  0001CE  0E03               	movlw	3
   552  0001D0  6E09               	movwf	(??_main+1)& (0+255),c
   553  0001D2  0E70               	movlw	112
   554  0001D4  6E08               	movwf	??_main& (0+255),c
   555  0001D6  0E5C               	movlw	92
   556  0001D8                     u417:
   557  0001D8  2EE8               	decfsz	wreg,f,c
   558  0001DA  D7FE               	bra	u417
   559  0001DC  2E08               	decfsz	??_main& (0+255),f,c
   560  0001DE  D7FC               	bra	u417
   561  0001E0  2E09               	decfsz	(??_main+1)& (0+255),f,c
   562  0001E2  D7FA               	bra	u417
   563  0001E4  D000               	nop2	
   564                           
   565                           ;main.c: 108:     }
   566  0001E6  4A0A               	infsnz	main@i,f,c
   567  0001E8  2A0B               	incf	main@i+1,f,c
   568  0001EA  BE0B               	btfsc	main@i+1,7,c
   569  0001EC  D7ED               	goto	l1440
   570  0001EE  500B               	movf	main@i+1,w,c
   571  0001F0  E104               	bnz	u300
   572  0001F2  0E1C               	movlw	28
   573  0001F4  5C0A               	subwf	main@i,w,c
   574  0001F6  A0D8               	btfss	status,0,c
   575  0001F8  D7E7               	goto	l1440
   576  0001FA                     u300:
   577                           
   578                           ;main.c: 109:     for (i=0; i<28; i++) {
   579  0001FA  0E00               	movlw	0
   580  0001FC  6E0B               	movwf	main@i+1,c
   581  0001FE  0E00               	movlw	0
   582  000200  6E0A               	movwf	main@i,c
   583  000202                     l1454:
   584                           
   585                           ;main.c: 110:         carcontrol_steering(28-i);
   586  000202  500A               	movf	main@i,w,c
   587  000204  081C               	sublw	28
   588  000206  EC24  F002         	call	_carcontrol_steering
   589                           
   590                           ;main.c: 111:         _delay((unsigned long)((30)*(64000000/4000.0)));
   591  00020A  0E03               	movlw	3
   592  00020C  6E09               	movwf	(??_main+1)& (0+255),c
   593  00020E  0E70               	movlw	112
   594  000210  6E08               	movwf	??_main& (0+255),c
   595  000212  0E5C               	movlw	92
   596  000214                     u427:
   597  000214  2EE8               	decfsz	wreg,f,c
   598  000216  D7FE               	bra	u427
   599  000218  2E08               	decfsz	??_main& (0+255),f,c
   600  00021A  D7FC               	bra	u427
   601  00021C  2E09               	decfsz	(??_main+1)& (0+255),f,c
   602  00021E  D7FA               	bra	u427
   603  000220  D000               	nop2	
   604                           
   605                           ;main.c: 112:     }
   606  000222  4A0A               	infsnz	main@i,f,c
   607  000224  2A0B               	incf	main@i+1,f,c
   608  000226  BE0B               	btfsc	main@i+1,7,c
   609  000228  D7EC               	goto	l1454
   610  00022A  500B               	movf	main@i+1,w,c
   611  00022C  E104               	bnz	u310
   612  00022E  0E1C               	movlw	28
   613  000230  5C0A               	subwf	main@i,w,c
   614  000232  A0D8               	btfss	status,0,c
   615  000234  D7E6               	goto	l1454
   616  000236                     u310:
   617                           
   618                           ;main.c: 113:     for (i=0; i<30; i++) {
   619  000236  0E00               	movlw	0
   620  000238  6E0B               	movwf	main@i+1,c
   621  00023A  0E00               	movlw	0
   622  00023C  6E0A               	movwf	main@i,c
   623  00023E                     l1468:
   624                           
   625                           ;main.c: 114:         carcontrol_steering(-i);
   626  00023E  500A               	movf	main@i,w,c
   627  000240  0800               	sublw	0
   628  000242  EC24  F002         	call	_carcontrol_steering
   629                           
   630                           ;main.c: 115:         _delay((unsigned long)((30)*(64000000/4000.0)));
   631  000246  0E03               	movlw	3
   632  000248  6E09               	movwf	(??_main+1)& (0+255),c
   633  00024A  0E70               	movlw	112
   634  00024C  6E08               	movwf	??_main& (0+255),c
   635  00024E  0E5C               	movlw	92
   636  000250                     u437:
   637  000250  2EE8               	decfsz	wreg,f,c
   638  000252  D7FE               	bra	u437
   639  000254  2E08               	decfsz	??_main& (0+255),f,c
   640  000256  D7FC               	bra	u437
   641  000258  2E09               	decfsz	(??_main+1)& (0+255),f,c
   642  00025A  D7FA               	bra	u437
   643  00025C  D000               	nop2	
   644                           
   645                           ;main.c: 116:     }
   646  00025E  4A0A               	infsnz	main@i,f,c
   647  000260  2A0B               	incf	main@i+1,f,c
   648  000262  BE0B               	btfsc	main@i+1,7,c
   649  000264  D7EC               	goto	l1468
   650  000266  500B               	movf	main@i+1,w,c
   651  000268  E104               	bnz	u320
   652  00026A  0E1E               	movlw	30
   653  00026C  5C0A               	subwf	main@i,w,c
   654  00026E  A0D8               	btfss	status,0,c
   655  000270  D7E6               	goto	l1468
   656  000272                     u320:
   657                           
   658                           ;main.c: 117:     for (i=0; i<30; i++) {
   659  000272  0E00               	movlw	0
   660  000274  6E0B               	movwf	main@i+1,c
   661  000276  0E00               	movlw	0
   662  000278  6E0A               	movwf	main@i,c
   663  00027A                     l1482:
   664                           
   665                           ;main.c: 118:         carcontrol_steering(-30+i);
   666  00027A  500A               	movf	main@i,w,c
   667  00027C  0FE2               	addlw	226
   668  00027E  EC24  F002         	call	_carcontrol_steering
   669                           
   670                           ;main.c: 119:         _delay((unsigned long)((30)*(64000000/4000.0)));
   671  000282  0E03               	movlw	3
   672  000284  6E09               	movwf	(??_main+1)& (0+255),c
   673  000286  0E70               	movlw	112
   674  000288  6E08               	movwf	??_main& (0+255),c
   675  00028A  0E5C               	movlw	92
   676  00028C                     u447:
   677  00028C  2EE8               	decfsz	wreg,f,c
   678  00028E  D7FE               	bra	u447
   679  000290  2E08               	decfsz	??_main& (0+255),f,c
   680  000292  D7FC               	bra	u447
   681  000294  2E09               	decfsz	(??_main+1)& (0+255),f,c
   682  000296  D7FA               	bra	u447
   683  000298  D000               	nop2	
   684                           
   685                           ;main.c: 120:     }
   686  00029A  4A0A               	infsnz	main@i,f,c
   687  00029C  2A0B               	incf	main@i+1,f,c
   688  00029E  BE0B               	btfsc	main@i+1,7,c
   689  0002A0  D7EC               	goto	l1482
   690  0002A2  500B               	movf	main@i+1,w,c
   691  0002A4  E104               	bnz	u330
   692  0002A6  0E1E               	movlw	30
   693  0002A8  5C0A               	subwf	main@i,w,c
   694  0002AA  A0D8               	btfss	status,0,c
   695  0002AC  D7E6               	goto	l1482
   696  0002AE                     u330:
   697                           
   698                           ;main.c: 122:     carcontrol_throttle(0);
   699  0002AE  0E00               	movlw	0
   700  0002B0  EC87  F002         	call	_carcontrol_throttle
   701  0002B4                     l223:
   702                           
   703                           ;main.c: 125:     {;main.c: 126:         carcontrol_steering(0);
   704  0002B4  0E00               	movlw	0
   705  0002B6  EC24  F002         	call	_carcontrol_steering
   706  0002BA  D7FC               	goto	l223
   707  0002BC                     __end_of_main:
   708                           	opt callstack 0
   709                           
   710 ;; *************** function _carcontrol_init *****************
   711 ;; Defined at:
   712 ;;		line 27 in file "car_ctrl.c"
   713 ;; Parameters:    Size  Location     Type
   714 ;;		None
   715 ;; Auto vars:     Size  Location     Type
   716 ;;		None
   717 ;; Return value:  Size  Location     Type
   718 ;;                  1    wreg      void 
   719 ;; Registers used:
   720 ;;		wreg, status,2, status,0, cstack
   721 ;; Tracked objects:
   722 ;;		On entry : 0/0
   723 ;;		On exit  : 0/0
   724 ;;		Unchanged: 0/0
   725 ;; Data sizes:     COMRAM   BANK0   BANK1   BANK2   BANK3   BANK4   BANK5   BANK6   BANK7
   726 ;;      Params:         0       0       0       0       0       0       0       0       0
   727 ;;      Locals:         0       0       0       0       0       0       0       0       0
   728 ;;      Temps:          0       0       0       0       0       0       0       0       0
   729 ;;      Totals:         0       0       0       0       0       0       0       0       0
   730 ;;Total ram usage:        0 bytes
   731 ;; Hardware stack levels used:    1
   732 ;; Hardware stack levels required when called:    4
   733 ;; This function calls:
   734 ;;		_TMR2_SetInterruptHandler
   735 ;;		_carcontrol_steering
   736 ;;		_carcontrol_throttle
   737 ;; This function is called by:
   738 ;;		_main
   739 ;; This function uses a non-reentrant model
   740 ;;
   741                           
   742                           	psect	text1
   743  00041A                     __ptext1:
   744                           	opt callstack 0
   745  00041A                     _carcontrol_init:
   746                           	opt callstack 26
   747                           
   748                           ;car_ctrl.c: 28:     carctl.initialized = 1;
   749                           
   750                           ;incstack = 0
   751  00041A  0E01               	movlw	1
   752  00041C  6E0C               	movwf	_carctl,c	;volatile
   753                           
   754                           ;car_ctrl.c: 29:     carctl.state = state_unset;
   755  00041E  0E00               	movlw	0
   756  000420  6E0D               	movwf	_carctl+1,c	;volatile
   757                           
   758                           ;car_ctrl.c: 30:     carcontrol_throttle(0);
   759  000422  0E00               	movlw	0
   760  000424  EC87  F002         	call	_carcontrol_throttle
   761                           
   762                           ;car_ctrl.c: 31:     carcontrol_steering(0);
   763  000428  0E00               	movlw	0
   764  00042A  EC24  F002         	call	_carcontrol_steering
   765                           
   766                           ;car_ctrl.c: 32:     carctl.servoHighTime = 50;
   767  00042E  0E32               	movlw	50
   768  000430  6E10               	movwf	_carctl+4,c	;volatile
   769                           
   770                           ;car_ctrl.c: 34:     TMR2_SetInterruptHandler(carcontrol_ISR);
   771  000432  0EBC               	movlw	low _carcontrol_ISR
   772  000434  6E06               	movwf	TMR2_SetInterruptHandler@InterruptHandler,c
   773  000436  0E02               	movlw	high _carcontrol_ISR
   774  000438  6E07               	movwf	TMR2_SetInterruptHandler@InterruptHandler+1,c
   775  00043A  EC90  F002         	call	_TMR2_SetInterruptHandler	;wreg free
   776                           
   777                           ;car_ctrl.c: 35:     stateTime = 0;
   778  00043E  0E00               	movlw	0
   779  000440  6E12               	movwf	_stateTime+1,c
   780  000442  0E00               	movlw	0
   781  000444  6E11               	movwf	_stateTime,c
   782  000446  0012               	return		;funcret
   783  000448                     __end_of_carcontrol_init:
   784                           	opt callstack 0
   785                           
   786 ;; *************** function _carcontrol_throttle *****************
   787 ;; Defined at:
   788 ;;		line 118 in file "car_ctrl.c"
   789 ;; Parameters:    Size  Location     Type
   790 ;;  throttle        1    wreg     unsigned char 
   791 ;; Auto vars:     Size  Location     Type
   792 ;;  throttle        1    5[COMRAM] unsigned char 
   793 ;; Return value:  Size  Location     Type
   794 ;;                  1    wreg      void 
   795 ;; Registers used:
   796 ;;		wreg, status,2, status,0
   797 ;; Tracked objects:
   798 ;;		On entry : 0/0
   799 ;;		On exit  : 0/0
   800 ;;		Unchanged: 0/0
   801 ;; Data sizes:     COMRAM   BANK0   BANK1   BANK2   BANK3   BANK4   BANK5   BANK6   BANK7
   802 ;;      Params:         0       0       0       0       0       0       0       0       0
   803 ;;      Locals:         1       0       0       0       0       0       0       0       0
   804 ;;      Temps:          0       0       0       0       0       0       0       0       0
   805 ;;      Totals:         1       0       0       0       0       0       0       0       0
   806 ;;Total ram usage:        1 bytes
   807 ;; Hardware stack levels used:    1
   808 ;; Hardware stack levels required when called:    3
   809 ;; This function calls:
   810 ;;		Nothing
   811 ;; This function is called by:
   812 ;;		_main
   813 ;;		_carcontrol_init
   814 ;; This function uses a non-reentrant model
   815 ;;
   816                           
   817                           	psect	text2
   818  00050E                     __ptext2:
   819                           	opt callstack 0
   820  00050E                     _carcontrol_throttle:
   821                           	opt callstack 27
   822                           
   823                           ;incstack = 0
   824                           ;carcontrol_throttle@throttle stored from wreg
   825  00050E  6E06               	movwf	carcontrol_throttle@throttle,c
   826                           
   827                           ;car_ctrl.c: 120:     if (throttle > 100) throttle = 100;
   828  000510  0E64               	movlw	100
   829  000512  6406               	cpfsgt	carcontrol_throttle@throttle,c
   830  000514  D002               	goto	l1020
   831  000516  0E64               	movlw	100
   832  000518  6E06               	movwf	carcontrol_throttle@throttle,c
   833  00051A                     l1020:
   834                           
   835                           ;car_ctrl.c: 121:     carctl.throttleHighTime = throttle;
   836  00051A  C006  F00F         	movff	carcontrol_throttle@throttle,_carctl+3	;volatile
   837  00051E  0012               	return		;funcret
   838  000520                     __end_of_carcontrol_throttle:
   839                           	opt callstack 0
   840                           
   841 ;; *************** function _carcontrol_steering *****************
   842 ;; Defined at:
   843 ;;		line 93 in file "car_ctrl.c"
   844 ;; Parameters:    Size  Location     Type
   845 ;;  steering        1    wreg     char 
   846 ;; Auto vars:     Size  Location     Type
   847 ;;  steering        1    5[COMRAM] char 
   848 ;; Return value:  Size  Location     Type
   849 ;;                  1    wreg      void 
   850 ;; Registers used:
   851 ;;		wreg, status,2, status,0
   852 ;; Tracked objects:
   853 ;;		On entry : 0/0
   854 ;;		On exit  : 0/0
   855 ;;		Unchanged: 0/0
   856 ;; Data sizes:     COMRAM   BANK0   BANK1   BANK2   BANK3   BANK4   BANK5   BANK6   BANK7
   857 ;;      Params:         0       0       0       0       0       0       0       0       0
   858 ;;      Locals:         1       0       0       0       0       0       0       0       0
   859 ;;      Temps:          0       0       0       0       0       0       0       0       0
   860 ;;      Totals:         1       0       0       0       0       0       0       0       0
   861 ;;Total ram usage:        1 bytes
   862 ;; Hardware stack levels used:    1
   863 ;; Hardware stack levels required when called:    3
   864 ;; This function calls:
   865 ;;		Nothing
   866 ;; This function is called by:
   867 ;;		_main
   868 ;;		_carcontrol_init
   869 ;; This function uses a non-reentrant model
   870 ;;
   871                           
   872                           	psect	text3
   873  000448                     __ptext3:
   874                           	opt callstack 0
   875  000448                     _carcontrol_steering:
   876                           	opt callstack 27
   877                           
   878                           ;incstack = 0
   879                           ;carcontrol_steering@steering stored from wreg
   880  000448  6E06               	movwf	carcontrol_steering@steering,c
   881                           
   882                           ;car_ctrl.c: 106:     if (steering < servo_min) steering = servo_min;
   883  00044A  5006               	movf	carcontrol_steering@steering,w,c
   884  00044C  0A80               	xorlw	128
   885  00044E  0F9E               	addlw	158
   886  000450  B0D8               	btfsc	status,0,c
   887  000452  D002               	goto	l1008
   888  000454  0EE2               	movlw	226
   889  000456  6E06               	movwf	carcontrol_steering@steering,c
   890  000458                     l1008:
   891                           
   892                           ;car_ctrl.c: 107:     if (steering > servo_max) steering = servo_max;
   893  000458  5006               	movf	carcontrol_steering@steering,w,c
   894  00045A  0A80               	xorlw	128
   895  00045C  0F63               	addlw	-157
   896  00045E  A0D8               	btfss	status,0,c
   897  000460  D002               	goto	l1012
   898  000462  0E1C               	movlw	28
   899  000464  6E06               	movwf	carcontrol_steering@steering,c
   900  000466                     l1012:
   901                           
   902                           ;car_ctrl.c: 109:     steering = steering + servo_trim;
   903  000466  5006               	movf	carcontrol_steering@steering,w,c
   904  000468  0FEF               	addlw	239
   905  00046A  6E06               	movwf	carcontrol_steering@steering,c
   906                           
   907                           ;car_ctrl.c: 111:     carctl.servoHighTime = steering + 50;
   908  00046C  5006               	movf	carcontrol_steering@steering,w,c
   909  00046E  0F32               	addlw	50
   910  000470  6E10               	movwf	_carctl+4,c	;volatile
   911  000472  0012               	return		;funcret
   912  000474                     __end_of_carcontrol_steering:
   913                           	opt callstack 0
   914                           
   915 ;; *************** function _SYSTEM_Initialize *****************
   916 ;; Defined at:
   917 ;;		line 50 in file "mcc_generated_files/mcc.c"
   918 ;; Parameters:    Size  Location     Type
   919 ;;		None
   920 ;; Auto vars:     Size  Location     Type
   921 ;;		None
   922 ;; Return value:  Size  Location     Type
   923 ;;                  1    wreg      void 
   924 ;; Registers used:
   925 ;;		wreg, status,2, status,0, cstack
   926 ;; Tracked objects:
   927 ;;		On entry : 0/0
   928 ;;		On exit  : 0/0
   929 ;;		Unchanged: 0/0
   930 ;; Data sizes:     COMRAM   BANK0   BANK1   BANK2   BANK3   BANK4   BANK5   BANK6   BANK7
   931 ;;      Params:         0       0       0       0       0       0       0       0       0
   932 ;;      Locals:         0       0       0       0       0       0       0       0       0
   933 ;;      Temps:          0       0       0       0       0       0       0       0       0
   934 ;;      Totals:         0       0       0       0       0       0       0       0       0
   935 ;;Total ram usage:        0 bytes
   936 ;; Hardware stack levels used:    1
   937 ;; Hardware stack levels required when called:    5
   938 ;; This function calls:
   939 ;;		_INTERRUPT_Initialize
   940 ;;		_OSCILLATOR_Initialize
   941 ;;		_PIN_MANAGER_Initialize
   942 ;;		_PMD_Initialize
   943 ;;		_TMR2_Initialize
   944 ;; This function is called by:
   945 ;;		_main
   946 ;; This function uses a non-reentrant model
   947 ;;
   948                           
   949                           	psect	text4
   950  0004F8                     __ptext4:
   951                           	opt callstack 0
   952  0004F8                     _SYSTEM_Initialize:
   953                           	opt callstack 25
   954                           
   955                           ;mcc_generated_files/mcc.c: 52:     INTERRUPT_Initialize();
   956                           
   957                           ;incstack = 0
   958  0004F8  EC95  F002         	call	_INTERRUPT_Initialize	;wreg free
   959                           
   960                           ;mcc_generated_files/mcc.c: 53:     PMD_Initialize();
   961  0004FC  EC62  F002         	call	_PMD_Initialize	;wreg free
   962                           
   963                           ;mcc_generated_files/mcc.c: 54:     PIN_MANAGER_Initialize();
   964  000500  ECD0  F001         	call	_PIN_MANAGER_Initialize	;wreg free
   965                           
   966                           ;mcc_generated_files/mcc.c: 55:     OSCILLATOR_Initialize();
   967  000504  EC70  F002         	call	_OSCILLATOR_Initialize	;wreg free
   968                           
   969                           ;mcc_generated_files/mcc.c: 56:     TMR2_Initialize();
   970  000508  EC3A  F002         	call	_TMR2_Initialize	;wreg free
   971  00050C  0012               	return		;funcret
   972  00050E                     __end_of_SYSTEM_Initialize:
   973                           	opt callstack 0
   974                           
   975 ;; *************** function _TMR2_Initialize *****************
   976 ;; Defined at:
   977 ;;		line 64 in file "mcc_generated_files/tmr2.c"
   978 ;; Parameters:    Size  Location     Type
   979 ;;		None
   980 ;; Auto vars:     Size  Location     Type
   981 ;;		None
   982 ;; Return value:  Size  Location     Type
   983 ;;                  1    wreg      void 
   984 ;; Registers used:
   985 ;;		wreg, status,2, status,0, cstack
   986 ;; Tracked objects:
   987 ;;		On entry : 0/0
   988 ;;		On exit  : 0/0
   989 ;;		Unchanged: 0/0
   990 ;; Data sizes:     COMRAM   BANK0   BANK1   BANK2   BANK3   BANK4   BANK5   BANK6   BANK7
   991 ;;      Params:         0       0       0       0       0       0       0       0       0
   992 ;;      Locals:         0       0       0       0       0       0       0       0       0
   993 ;;      Temps:          0       0       0       0       0       0       0       0       0
   994 ;;      Totals:         0       0       0       0       0       0       0       0       0
   995 ;;Total ram usage:        0 bytes
   996 ;; Hardware stack levels used:    1
   997 ;; Hardware stack levels required when called:    4
   998 ;; This function calls:
   999 ;;		_TMR2_SetInterruptHandler
  1000 ;; This function is called by:
  1001 ;;		_SYSTEM_Initialize
  1002 ;; This function uses a non-reentrant model
  1003 ;;
  1004                           
  1005                           	psect	text5
  1006  000474                     __ptext5:
  1007                           	opt callstack 0
  1008  000474                     _TMR2_Initialize:
  1009                           	opt callstack 25
  1010                           
  1011                           ;mcc_generated_files/tmr2.c: 69:     T2CLKCON = 0x01;
  1012                           
  1013                           ;incstack = 0
  1014  000474  0E01               	movlw	1
  1015  000476  6EBE               	movwf	4030,c	;volatile
  1016                           
  1017                           ;mcc_generated_files/tmr2.c: 72:     T2HLT = 0x00;
  1018  000478  0E00               	movlw	0
  1019  00047A  6EBD               	movwf	4029,c	;volatile
  1020                           
  1021                           ;mcc_generated_files/tmr2.c: 75:     T2RST = 0x00;
  1022  00047C  0E00               	movlw	0
  1023  00047E  6EBF               	movwf	4031,c	;volatile
  1024                           
  1025                           ;mcc_generated_files/tmr2.c: 78:     T2PR = 0x9F;
  1026  000480  0E9F               	movlw	159
  1027  000482  6EBB               	movwf	4027,c	;volatile
  1028                           
  1029                           ;mcc_generated_files/tmr2.c: 81:     T2TMR = 0x00;
  1030  000484  0E00               	movlw	0
  1031  000486  6EBA               	movwf	4026,c	;volatile
  1032                           
  1033                           ;mcc_generated_files/tmr2.c: 84:     PIR4bits.TMR2IF = 0;
  1034  000488  010E               	movlb	14	; () banked
  1035  00048A  93C9               	bcf	201,1,b	;volatile
  1036                           
  1037                           ; BSR set to: 14
  1038                           ;mcc_generated_files/tmr2.c: 87:     PIE4bits.TMR2IE = 1;
  1039  00048C  83C1               	bsf	193,1,b	;volatile
  1040                           
  1041                           ; BSR set to: 14
  1042                           ;mcc_generated_files/tmr2.c: 90:     TMR2_SetInterruptHandler(TMR2_DefaultInterruptHandl
      +                          er);
  1043  00048E  0E32               	movlw	low _TMR2_DefaultInterruptHandler
  1044  000490  6E06               	movwf	TMR2_SetInterruptHandler@InterruptHandler,c
  1045  000492  0E05               	movlw	high _TMR2_DefaultInterruptHandler
  1046  000494  6E07               	movwf	TMR2_SetInterruptHandler@InterruptHandler+1,c
  1047  000496  EC90  F002         	call	_TMR2_SetInterruptHandler	;wreg free
  1048                           
  1049                           ;mcc_generated_files/tmr2.c: 93:     T2CON = 0x80;
  1050  00049A  0E80               	movlw	128
  1051  00049C  6EBC               	movwf	4028,c	;volatile
  1052  00049E  0012               	return		;funcret
  1053  0004A0                     __end_of_TMR2_Initialize:
  1054                           	opt callstack 0
  1055                           
  1056 ;; *************** function _TMR2_SetInterruptHandler *****************
  1057 ;; Defined at:
  1058 ;;		line 178 in file "mcc_generated_files/tmr2.c"
  1059 ;; Parameters:    Size  Location     Type
  1060 ;;  InterruptHan    2    5[COMRAM] PTR FTN()void 
  1061 ;;		 -> carcontrol_ISR(1), TMR2_DefaultInterruptHandler(1), 
  1062 ;; Auto vars:     Size  Location     Type
  1063 ;;		None
  1064 ;; Return value:  Size  Location     Type
  1065 ;;                  1    wreg      void 
  1066 ;; Registers used:
  1067 ;;		wreg, status,2, status,0
  1068 ;; Tracked objects:
  1069 ;;		On entry : 0/0
  1070 ;;		On exit  : 0/0
  1071 ;;		Unchanged: 0/0
  1072 ;; Data sizes:     COMRAM   BANK0   BANK1   BANK2   BANK3   BANK4   BANK5   BANK6   BANK7
  1073 ;;      Params:         2       0       0       0       0       0       0       0       0
  1074 ;;      Locals:         0       0       0       0       0       0       0       0       0
  1075 ;;      Temps:          0       0       0       0       0       0       0       0       0
  1076 ;;      Totals:         2       0       0       0       0       0       0       0       0
  1077 ;;Total ram usage:        2 bytes
  1078 ;; Hardware stack levels used:    1
  1079 ;; Hardware stack levels required when called:    3
  1080 ;; This function calls:
  1081 ;;		Nothing
  1082 ;; This function is called by:
  1083 ;;		_TMR2_Initialize
  1084 ;;		_carcontrol_init
  1085 ;; This function uses a non-reentrant model
  1086 ;;
  1087                           
  1088                           	psect	text6
  1089  000520                     __ptext6:
  1090                           	opt callstack 0
  1091  000520                     _TMR2_SetInterruptHandler:
  1092                           	opt callstack 26
  1093                           
  1094                           ;mcc_generated_files/tmr2.c: 179:     TMR2_InterruptHandler = InterruptHandler;
  1095                           
  1096                           ;incstack = 0
  1097  000520  C006  F016         	movff	TMR2_SetInterruptHandler@InterruptHandler,_TMR2_InterruptHandler
  1098  000524  C007  F017         	movff	TMR2_SetInterruptHandler@InterruptHandler+1,_TMR2_InterruptHandler+1
  1099  000528  0012               	return		;funcret
  1100  00052A                     __end_of_TMR2_SetInterruptHandler:
  1101                           	opt callstack 0
  1102                           
  1103 ;; *************** function _PMD_Initialize *****************
  1104 ;; Defined at:
  1105 ;;		line 73 in file "mcc_generated_files/mcc.c"
  1106 ;; Parameters:    Size  Location     Type
  1107 ;;		None
  1108 ;; Auto vars:     Size  Location     Type
  1109 ;;		None
  1110 ;; Return value:  Size  Location     Type
  1111 ;;                  1    wreg      void 
  1112 ;; Registers used:
  1113 ;;		wreg, status,2
  1114 ;; Tracked objects:
  1115 ;;		On entry : 0/0
  1116 ;;		On exit  : 0/0
  1117 ;;		Unchanged: 0/0
  1118 ;; Data sizes:     COMRAM   BANK0   BANK1   BANK2   BANK3   BANK4   BANK5   BANK6   BANK7
  1119 ;;      Params:         0       0       0       0       0       0       0       0       0
  1120 ;;      Locals:         0       0       0       0       0       0       0       0       0
  1121 ;;      Temps:          0       0       0       0       0       0       0       0       0
  1122 ;;      Totals:         0       0       0       0       0       0       0       0       0
  1123 ;;Total ram usage:        0 bytes
  1124 ;; Hardware stack levels used:    1
  1125 ;; Hardware stack levels required when called:    3
  1126 ;; This function calls:
  1127 ;;		Nothing
  1128 ;; This function is called by:
  1129 ;;		_SYSTEM_Initialize
  1130 ;; This function uses a non-reentrant model
  1131 ;;
  1132                           
  1133                           	psect	text7
  1134  0004C4                     __ptext7:
  1135                           	opt callstack 0
  1136  0004C4                     _PMD_Initialize:
  1137                           	opt callstack 26
  1138                           
  1139                           ;mcc_generated_files/mcc.c: 76:     PMD0 = 0x00;
  1140                           
  1141                           ;incstack = 0
  1142  0004C4  0E00               	movlw	0
  1143  0004C6  010E               	movlb	14	; () banked
  1144  0004C8  6FDC               	movwf	220,b	;volatile
  1145                           
  1146                           ;mcc_generated_files/mcc.c: 78:     PMD1 = 0x00;
  1147  0004CA  0E00               	movlw	0
  1148  0004CC  6FDD               	movwf	221,b	;volatile
  1149                           
  1150                           ;mcc_generated_files/mcc.c: 80:     PMD2 = 0x00;
  1151  0004CE  0E00               	movlw	0
  1152  0004D0  6FDE               	movwf	222,b	;volatile
  1153                           
  1154                           ;mcc_generated_files/mcc.c: 82:     PMD3 = 0x00;
  1155  0004D2  0E00               	movlw	0
  1156  0004D4  6FDF               	movwf	223,b	;volatile
  1157                           
  1158                           ;mcc_generated_files/mcc.c: 84:     PMD4 = 0x00;
  1159  0004D6  0E00               	movlw	0
  1160  0004D8  6FE0               	movwf	224,b	;volatile
  1161                           
  1162                           ;mcc_generated_files/mcc.c: 86:     PMD5 = 0x00;
  1163  0004DA  0E00               	movlw	0
  1164  0004DC  6FE1               	movwf	225,b	;volatile
  1165                           
  1166                           ; BSR set to: 14
  1167  0004DE  0012               	return		;funcret
  1168  0004E0                     __end_of_PMD_Initialize:
  1169                           	opt callstack 0
  1170                           
  1171 ;; *************** function _PIN_MANAGER_Initialize *****************
  1172 ;; Defined at:
  1173 ;;		line 55 in file "mcc_generated_files/pin_manager.c"
  1174 ;; Parameters:    Size  Location     Type
  1175 ;;		None
  1176 ;; Auto vars:     Size  Location     Type
  1177 ;;		None
  1178 ;; Return value:  Size  Location     Type
  1179 ;;                  1    wreg      void 
  1180 ;; Registers used:
  1181 ;;		wreg, status,2
  1182 ;; Tracked objects:
  1183 ;;		On entry : 0/0
  1184 ;;		On exit  : 0/0
  1185 ;;		Unchanged: 0/0
  1186 ;; Data sizes:     COMRAM   BANK0   BANK1   BANK2   BANK3   BANK4   BANK5   BANK6   BANK7
  1187 ;;      Params:         0       0       0       0       0       0       0       0       0
  1188 ;;      Locals:         0       0       0       0       0       0       0       0       0
  1189 ;;      Temps:          0       0       0       0       0       0       0       0       0
  1190 ;;      Totals:         0       0       0       0       0       0       0       0       0
  1191 ;;Total ram usage:        0 bytes
  1192 ;; Hardware stack levels used:    1
  1193 ;; Hardware stack levels required when called:    3
  1194 ;; This function calls:
  1195 ;;		Nothing
  1196 ;; This function is called by:
  1197 ;;		_SYSTEM_Initialize
  1198 ;; This function uses a non-reentrant model
  1199 ;;
  1200                           
  1201                           	psect	text8
  1202  0003A0                     __ptext8:
  1203                           	opt callstack 0
  1204  0003A0                     _PIN_MANAGER_Initialize:
  1205                           	opt callstack 26
  1206                           
  1207                           ;mcc_generated_files/pin_manager.c: 60:     LATA = 0x00;
  1208                           
  1209                           ; BSR set to: 14
  1210                           ;incstack = 0
  1211  0003A0  0E00               	movlw	0
  1212  0003A2  6E82               	movwf	3970,c	;volatile
  1213                           
  1214                           ;mcc_generated_files/pin_manager.c: 61:     LATB = 0x00;
  1215  0003A4  0E00               	movlw	0
  1216  0003A6  6E83               	movwf	3971,c	;volatile
  1217                           
  1218                           ;mcc_generated_files/pin_manager.c: 62:     LATC = 0x00;
  1219  0003A8  0E00               	movlw	0
  1220  0003AA  6E84               	movwf	3972,c	;volatile
  1221                           
  1222                           ;mcc_generated_files/pin_manager.c: 67:     TRISA = 0xFC;
  1223  0003AC  0EFC               	movlw	252
  1224  0003AE  6E87               	movwf	3975,c	;volatile
  1225                           
  1226                           ;mcc_generated_files/pin_manager.c: 68:     TRISB = 0xFF;
  1227  0003B0  6888               	setf	3976,c	;volatile
  1228                           
  1229                           ;mcc_generated_files/pin_manager.c: 69:     TRISC = 0xFF;
  1230  0003B2  6889               	setf	3977,c	;volatile
  1231                           
  1232                           ;mcc_generated_files/pin_manager.c: 74:     ANSELC = 0xFF;
  1233  0003B4  010F               	movlb	15	; () banked
  1234  0003B6  691C               	setf	28,b	;volatile
  1235                           
  1236                           ; BSR set to: 15
  1237                           ;mcc_generated_files/pin_manager.c: 75:     ANSELB = 0xFF;
  1238  0003B8  6914               	setf	20,b	;volatile
  1239                           
  1240                           ;mcc_generated_files/pin_manager.c: 76:     ANSELA = 0xFE;
  1241  0003BA  0EFE               	movlw	254
  1242  0003BC  6F0C               	movwf	12,b	;volatile
  1243                           
  1244                           ;mcc_generated_files/pin_manager.c: 81:     WPUE = 0x00;
  1245  0003BE  0E00               	movlw	0
  1246  0003C0  6F28               	movwf	40,b	;volatile
  1247                           
  1248                           ;mcc_generated_files/pin_manager.c: 82:     WPUB = 0x00;
  1249  0003C2  0E00               	movlw	0
  1250  0003C4  6F13               	movwf	19,b	;volatile
  1251                           
  1252                           ;mcc_generated_files/pin_manager.c: 83:     WPUA = 0x00;
  1253  0003C6  0E00               	movlw	0
  1254  0003C8  6F0B               	movwf	11,b	;volatile
  1255                           
  1256                           ;mcc_generated_files/pin_manager.c: 84:     WPUC = 0x00;
  1257  0003CA  0E00               	movlw	0
  1258  0003CC  6F1B               	movwf	27,b	;volatile
  1259                           
  1260                           ;mcc_generated_files/pin_manager.c: 89:     ODCONA = 0x00;
  1261  0003CE  0E00               	movlw	0
  1262  0003D0  6F0A               	movwf	10,b	;volatile
  1263                           
  1264                           ;mcc_generated_files/pin_manager.c: 90:     ODCONB = 0x00;
  1265  0003D2  0E00               	movlw	0
  1266  0003D4  6F12               	movwf	18,b	;volatile
  1267                           
  1268                           ;mcc_generated_files/pin_manager.c: 91:     ODCONC = 0x00;
  1269  0003D6  0E00               	movlw	0
  1270  0003D8  6F1A               	movwf	26,b	;volatile
  1271                           
  1272                           ; BSR set to: 15
  1273                           ;mcc_generated_files/pin_manager.c: 96:     SLRCONA = 0xFF;
  1274  0003DA  6909               	setf	9,b	;volatile
  1275                           
  1276                           ; BSR set to: 15
  1277                           ;mcc_generated_files/pin_manager.c: 97:     SLRCONB = 0xFF;
  1278  0003DC  6911               	setf	17,b	;volatile
  1279                           
  1280                           ; BSR set to: 15
  1281                           ;mcc_generated_files/pin_manager.c: 98:     SLRCONC = 0xFF;
  1282  0003DE  6919               	setf	25,b	;volatile
  1283                           
  1284                           ; BSR set to: 15
  1285  0003E0  0012               	return		;funcret
  1286  0003E2                     __end_of_PIN_MANAGER_Initialize:
  1287                           	opt callstack 0
  1288                           
  1289 ;; *************** function _OSCILLATOR_Initialize *****************
  1290 ;; Defined at:
  1291 ;;		line 59 in file "mcc_generated_files/mcc.c"
  1292 ;; Parameters:    Size  Location     Type
  1293 ;;		None
  1294 ;; Auto vars:     Size  Location     Type
  1295 ;;		None
  1296 ;; Return value:  Size  Location     Type
  1297 ;;                  1    wreg      void 
  1298 ;; Registers used:
  1299 ;;		wreg, status,2
  1300 ;; Tracked objects:
  1301 ;;		On entry : 0/0
  1302 ;;		On exit  : 0/0
  1303 ;;		Unchanged: 0/0
  1304 ;; Data sizes:     COMRAM   BANK0   BANK1   BANK2   BANK3   BANK4   BANK5   BANK6   BANK7
  1305 ;;      Params:         0       0       0       0       0       0       0       0       0
  1306 ;;      Locals:         0       0       0       0       0       0       0       0       0
  1307 ;;      Temps:          0       0       0       0       0       0       0       0       0
  1308 ;;      Totals:         0       0       0       0       0       0       0       0       0
  1309 ;;Total ram usage:        0 bytes
  1310 ;; Hardware stack levels used:    1
  1311 ;; Hardware stack levels required when called:    3
  1312 ;; This function calls:
  1313 ;;		Nothing
  1314 ;; This function is called by:
  1315 ;;		_SYSTEM_Initialize
  1316 ;; This function uses a non-reentrant model
  1317 ;;
  1318                           
  1319                           	psect	text9
  1320  0004E0                     __ptext9:
  1321                           	opt callstack 0
  1322  0004E0                     _OSCILLATOR_Initialize:
  1323                           	opt callstack 26
  1324                           
  1325                           ;mcc_generated_files/mcc.c: 62:     OSCCON1 = 0x60;
  1326                           
  1327                           ; BSR set to: 15
  1328                           ;incstack = 0
  1329  0004E0  0E60               	movlw	96
  1330  0004E2  010E               	movlb	14	; () banked
  1331  0004E4  6FD3               	movwf	211,b	;volatile
  1332                           
  1333                           ;mcc_generated_files/mcc.c: 64:     OSCCON3 = 0x00;
  1334  0004E6  0E00               	movlw	0
  1335  0004E8  6FD5               	movwf	213,b	;volatile
  1336                           
  1337                           ;mcc_generated_files/mcc.c: 66:     OSCEN = 0x00;
  1338  0004EA  0E00               	movlw	0
  1339  0004EC  6FD7               	movwf	215,b	;volatile
  1340                           
  1341                           ;mcc_generated_files/mcc.c: 68:     OSCFRQ = 0x08;
  1342  0004EE  0E08               	movlw	8
  1343  0004F0  6FD9               	movwf	217,b	;volatile
  1344                           
  1345                           ;mcc_generated_files/mcc.c: 70:     OSCTUNE = 0x00;
  1346  0004F2  0E00               	movlw	0
  1347  0004F4  6FD8               	movwf	216,b	;volatile
  1348                           
  1349                           ; BSR set to: 14
  1350  0004F6  0012               	return		;funcret
  1351  0004F8                     __end_of_OSCILLATOR_Initialize:
  1352                           	opt callstack 0
  1353                           
  1354 ;; *************** function _INTERRUPT_Initialize *****************
  1355 ;; Defined at:
  1356 ;;		line 52 in file "mcc_generated_files/interrupt_manager.c"
  1357 ;; Parameters:    Size  Location     Type
  1358 ;;		None
  1359 ;; Auto vars:     Size  Location     Type
  1360 ;;		None
  1361 ;; Return value:  Size  Location     Type
  1362 ;;                  1    wreg      void 
  1363 ;; Registers used:
  1364 ;;		None
  1365 ;; Tracked objects:
  1366 ;;		On entry : 0/0
  1367 ;;		On exit  : 0/0
  1368 ;;		Unchanged: 0/0
  1369 ;; Data sizes:     COMRAM   BANK0   BANK1   BANK2   BANK3   BANK4   BANK5   BANK6   BANK7
  1370 ;;      Params:         0       0       0       0       0       0       0       0       0
  1371 ;;      Locals:         0       0       0       0       0       0       0       0       0
  1372 ;;      Temps:          0       0       0       0       0       0       0       0       0
  1373 ;;      Totals:         0       0       0       0       0       0       0       0       0
  1374 ;;Total ram usage:        0 bytes
  1375 ;; Hardware stack levels used:    1
  1376 ;; Hardware stack levels required when called:    3
  1377 ;; This function calls:
  1378 ;;		Nothing
  1379 ;; This function is called by:
  1380 ;;		_SYSTEM_Initialize
  1381 ;; This function uses a non-reentrant model
  1382 ;;
  1383                           
  1384                           	psect	text10
  1385  00052A                     __ptext10:
  1386                           	opt callstack 0
  1387  00052A                     _INTERRUPT_Initialize:
  1388                           	opt callstack 26
  1389                           
  1390                           ;mcc_generated_files/interrupt_manager.c: 55:     INTCONbits.IPEN = 0;
  1391                           
  1392                           ; BSR set to: 14
  1393                           ;incstack = 0
  1394  00052A  9AF2               	bcf	4082,5,c	;volatile
  1395  00052C  0012               	return		;funcret
  1396  00052E                     __end_of_INTERRUPT_Initialize:
  1397                           	opt callstack 0
  1398                           
  1399 ;; *************** function _INTERRUPT_InterruptManager *****************
  1400 ;; Defined at:
  1401 ;;		line 58 in file "mcc_generated_files/interrupt_manager.c"
  1402 ;; Parameters:    Size  Location     Type
  1403 ;;		None
  1404 ;; Auto vars:     Size  Location     Type
  1405 ;;		None
  1406 ;; Return value:  Size  Location     Type
  1407 ;;                  1    wreg      void 
  1408 ;; Registers used:
  1409 ;;		wreg, status,2, status,0, pclath, tosl, cstack
  1410 ;; Tracked objects:
  1411 ;;		On entry : 0/0
  1412 ;;		On exit  : 0/0
  1413 ;;		Unchanged: 0/0
  1414 ;; Data sizes:     COMRAM   BANK0   BANK1   BANK2   BANK3   BANK4   BANK5   BANK6   BANK7
  1415 ;;      Params:         0       0       0       0       0       0       0       0       0
  1416 ;;      Locals:         0       0       0       0       0       0       0       0       0
  1417 ;;      Temps:          2       0       0       0       0       0       0       0       0
  1418 ;;      Totals:         2       0       0       0       0       0       0       0       0
  1419 ;;Total ram usage:        2 bytes
  1420 ;; Hardware stack levels used:    1
  1421 ;; Hardware stack levels required when called:    2
  1422 ;; This function calls:
  1423 ;;		_TMR2_ISR
  1424 ;; This function is called by:
  1425 ;;		Interrupt level 2
  1426 ;; This function uses a non-reentrant model
  1427 ;;
  1428                           
  1429                           	psect	intcode
  1430  000008                     __pintcode:
  1431                           	opt callstack 0
  1432  000008                     _INTERRUPT_InterruptManager:
  1433                           	opt callstack 25
  1434                           
  1435                           ;incstack = 0
  1436  000008  8218               	bsf	btemp,1,c	;set compiler interrupt flag (level 2)
  1437  00000A  CFFA F004          	movff	pclath,??_INTERRUPT_InterruptManager
  1438  00000E  CFFB F005          	movff	pclatu,??_INTERRUPT_InterruptManager+1
  1439                           
  1440                           ;mcc_generated_files/interrupt_manager.c: 61:     if(INTCONbits.PEIE == 1)
  1441  000012  ACF2               	btfss	4082,6,c	;volatile
  1442  000014  D006               	goto	i2l184
  1443                           
  1444                           ;mcc_generated_files/interrupt_manager.c: 62:     {;mcc_generated_files/interrupt_manage
      +                          r.c: 63:         if(PIE4bits.TMR2IE == 1 && PIR4bits.TMR2IF == 1)
  1445  000016  010E               	movlb	14	; () banked
  1446  000018  B3C1               	btfsc	193,1,b	;volatile
  1447                           
  1448                           ; BSR set to: 14
  1449  00001A  A3C9               	btfss	201,1,b	;volatile
  1450  00001C  D002               	goto	i2l184
  1451                           
  1452                           ; BSR set to: 14
  1453                           ;mcc_generated_files/interrupt_manager.c: 64:         {;mcc_generated_files/interrupt_ma
      +                          nager.c: 65:             TMR2_ISR();
  1454  00001E  EC50  F002         	call	_TMR2_ISR	;wreg free
  1455  000022                     i2l184:
  1456  000022  C005  FFFB         	movff	??_INTERRUPT_InterruptManager+1,pclatu
  1457  000026  C004  FFFA         	movff	??_INTERRUPT_InterruptManager,pclath
  1458  00002A  9218               	bcf	btemp,1,c	;clear compiler interrupt flag (level 2)
  1459  00002C  0011               	retfie		f
  1460  00002E                     __end_of_INTERRUPT_InterruptManager:
  1461                           	opt callstack 0
  1462                           
  1463 ;; *************** function _TMR2_ISR *****************
  1464 ;; Defined at:
  1465 ;;		line 165 in file "mcc_generated_files/tmr2.c"
  1466 ;; Parameters:    Size  Location     Type
  1467 ;;		None
  1468 ;; Auto vars:     Size  Location     Type
  1469 ;;		None
  1470 ;; Return value:  Size  Location     Type
  1471 ;;                  1    wreg      void 
  1472 ;; Registers used:
  1473 ;;		wreg, status,2, status,0, pclath, tosl, cstack
  1474 ;; Tracked objects:
  1475 ;;		On entry : 0/0
  1476 ;;		On exit  : 0/0
  1477 ;;		Unchanged: 0/0
  1478 ;; Data sizes:     COMRAM   BANK0   BANK1   BANK2   BANK3   BANK4   BANK5   BANK6   BANK7
  1479 ;;      Params:         0       0       0       0       0       0       0       0       0
  1480 ;;      Locals:         0       0       0       0       0       0       0       0       0
  1481 ;;      Temps:          0       0       0       0       0       0       0       0       0
  1482 ;;      Totals:         0       0       0       0       0       0       0       0       0
  1483 ;;Total ram usage:        0 bytes
  1484 ;; Hardware stack levels used:    1
  1485 ;; Hardware stack levels required when called:    1
  1486 ;; This function calls:
  1487 ;;		Absolute function
  1488 ;;		_TMR2_DefaultInterruptHandler
  1489 ;;		_carcontrol_ISR
  1490 ;; This function is called by:
  1491 ;;		_INTERRUPT_InterruptManager
  1492 ;; This function uses a non-reentrant model
  1493 ;;
  1494                           
  1495                           	psect	text12
  1496  0004A0                     __ptext12:
  1497                           	opt callstack 0
  1498  0004A0                     _TMR2_ISR:
  1499                           	opt callstack 25
  1500                           
  1501                           ;mcc_generated_files/tmr2.c: 169:     PIR4bits.TMR2IF = 0;
  1502                           
  1503                           ;incstack = 0
  1504  0004A0  010E               	movlb	14	; () banked
  1505  0004A2  93C9               	bcf	201,1,b	;volatile
  1506                           
  1507                           ; BSR set to: 14
  1508                           ;mcc_generated_files/tmr2.c: 171:     if(TMR2_InterruptHandler)
  1509  0004A4  5016               	movf	_TMR2_InterruptHandler,w,c
  1510  0004A6  1017               	iorwf	_TMR2_InterruptHandler+1,w,c
  1511  0004A8  B4D8               	btfsc	status,2,c
  1512  0004AA  0012               	return	
  1513                           
  1514                           ; BSR set to: 14
  1515                           ;mcc_generated_files/tmr2.c: 172:     {;mcc_generated_files/tmr2.c: 173:         TMR2_In
      +                          terruptHandler();
  1516  0004AC  D801               	call	i2u10_48
  1517  0004AE  0012               	return	
  1518  0004B0                     i2u10_48:
  1519  0004B0  0005               	push	
  1520  0004B2  6EFA               	movwf	pclath,c
  1521  0004B4  5016               	movf	_TMR2_InterruptHandler,w,c
  1522  0004B6  6EFD               	movwf	tosl,c
  1523  0004B8  5017               	movf	_TMR2_InterruptHandler+1,w,c
  1524  0004BA  6EFE               	movwf	tosh,c
  1525  0004BC  50F8               	movf	tblptru,w,c
  1526  0004BE  6EFF               	movwf	tosu,c
  1527  0004C0  50FA               	movf	pclath,w,c
  1528  0004C2  0012               	return		;indir
  1529  0004C4                     __end_of_TMR2_ISR:
  1530                           	opt callstack 0
  1531                           
  1532 ;; *************** function _TMR2_DefaultInterruptHandler *****************
  1533 ;; Defined at:
  1534 ;;		line 182 in file "mcc_generated_files/tmr2.c"
  1535 ;; Parameters:    Size  Location     Type
  1536 ;;		None
  1537 ;; Auto vars:     Size  Location     Type
  1538 ;;		None
  1539 ;; Return value:  Size  Location     Type
  1540 ;;                  1    wreg      void 
  1541 ;; Registers used:
  1542 ;;		None
  1543 ;; Tracked objects:
  1544 ;;		On entry : 0/0
  1545 ;;		On exit  : 0/0
  1546 ;;		Unchanged: 0/0
  1547 ;; Data sizes:     COMRAM   BANK0   BANK1   BANK2   BANK3   BANK4   BANK5   BANK6   BANK7
  1548 ;;      Params:         0       0       0       0       0       0       0       0       0
  1549 ;;      Locals:         0       0       0       0       0       0       0       0       0
  1550 ;;      Temps:          0       0       0       0       0       0       0       0       0
  1551 ;;      Totals:         0       0       0       0       0       0       0       0       0
  1552 ;;Total ram usage:        0 bytes
  1553 ;; Hardware stack levels used:    1
  1554 ;; This function calls:
  1555 ;;		Nothing
  1556 ;; This function is called by:
  1557 ;;		_TMR2_Initialize
  1558 ;;		_TMR2_ISR
  1559 ;; This function uses a non-reentrant model
  1560 ;;
  1561                           
  1562                           	psect	text13
  1563  000532                     __ptext13:
  1564                           	opt callstack 0
  1565  000532                     _TMR2_DefaultInterruptHandler:
  1566                           	opt callstack 25
  1567                           
  1568                           ;incstack = 0
  1569  000532  0012               	return		;funcret
  1570  000534                     __end_of_TMR2_DefaultInterruptHandler:
  1571                           	opt callstack 0
  1572                           
  1573 ;; *************** function _carcontrol_ISR *****************
  1574 ;; Defined at:
  1575 ;;		line 41 in file "car_ctrl.c"
  1576 ;; Parameters:    Size  Location     Type
  1577 ;;		None
  1578 ;; Auto vars:     Size  Location     Type
  1579 ;;		None
  1580 ;; Return value:  Size  Location     Type
  1581 ;;                  1    wreg      void 
  1582 ;; Registers used:
  1583 ;;		wreg, status,2, status,0
  1584 ;; Tracked objects:
  1585 ;;		On entry : 0/0
  1586 ;;		On exit  : 0/0
  1587 ;;		Unchanged: 0/0
  1588 ;; Data sizes:     COMRAM   BANK0   BANK1   BANK2   BANK3   BANK4   BANK5   BANK6   BANK7
  1589 ;;      Params:         0       0       0       0       0       0       0       0       0
  1590 ;;      Locals:         0       0       0       0       0       0       0       0       0
  1591 ;;      Temps:          3       0       0       0       0       0       0       0       0
  1592 ;;      Totals:         3       0       0       0       0       0       0       0       0
  1593 ;;Total ram usage:        3 bytes
  1594 ;; Hardware stack levels used:    1
  1595 ;; This function calls:
  1596 ;;		Nothing
  1597 ;; This function is called by:
  1598 ;;		_carcontrol_init
  1599 ;;		_TMR2_ISR
  1600 ;; This function uses a non-reentrant model
  1601 ;;
  1602                           
  1603                           	psect	text14
  1604  0002BC                     __ptext14:
  1605                           	opt callstack 0
  1606  0002BC                     _carcontrol_ISR:
  1607                           	opt callstack 25
  1608                           
  1609                           ;car_ctrl.c: 43:     switch (carctl.state) {
  1610                           
  1611                           ;incstack = 0
  1612  0002BC  D05C               	goto	i2l1066
  1613  0002BE                     i2l1024:
  1614                           
  1615                           ;car_ctrl.c: 46:             carctl.state = state_high;
  1616  0002BE  0E01               	movlw	1
  1617  0002C0  6E0D               	movwf	_carctl+1,c	;volatile
  1618  0002C2  8082               	bsf	3970,0,c	;volatile
  1619  0002C4  8282               	bsf	3970,1,c	;volatile
  1620                           
  1621                           ;car_ctrl.c: 49:             stateTime = 0;
  1622  0002C6  0E00               	movlw	0
  1623  0002C8  6E12               	movwf	_stateTime+1,c
  1624  0002CA  0E00               	movlw	0
  1625  0002CC  6E11               	movwf	_stateTime,c
  1626                           
  1627                           ;car_ctrl.c: 50:         break;
  1628  0002CE  0012               	return	
  1629  0002D0                     i2l1030:
  1630                           
  1631                           ;car_ctrl.c: 52:             stateTime++;
  1632  0002D0  4A11               	infsnz	_stateTime,f,c
  1633  0002D2  2A12               	incf	_stateTime+1,f,c
  1634  0002D4  8082               	bsf	3970,0,c	;volatile
  1635  0002D6  8282               	bsf	3970,1,c	;volatile
  1636                           
  1637                           ;car_ctrl.c: 55:             if (stateTime >= 100) {
  1638  0002D8  BE12               	btfsc	_stateTime+1,7,c
  1639  0002DA  0012               	return	
  1640  0002DC  5012               	movf	_stateTime+1,w,c
  1641  0002DE  E104               	bnz	i2u4_40
  1642  0002E0  0E64               	movlw	100
  1643  0002E2  5C11               	subwf	_stateTime,w,c
  1644  0002E4  A0D8               	btfss	status,0,c
  1645  0002E6  0012               	return	
  1646  0002E8                     i2u4_40:
  1647                           
  1648                           ;car_ctrl.c: 57:                 carctl.state = state_vary;
  1649  0002E8  0E02               	movlw	2
  1650  0002EA  6E0D               	movwf	_carctl+1,c	;volatile
  1651                           
  1652                           ;car_ctrl.c: 58:                 stateTime = 0;
  1653  0002EC  0E00               	movlw	0
  1654  0002EE  6E12               	movwf	_stateTime+1,c
  1655  0002F0  0E00               	movlw	0
  1656  0002F2  6E11               	movwf	_stateTime,c
  1657  0002F4  0012               	return	
  1658  0002F6                     i2l1040:
  1659                           
  1660                           ;car_ctrl.c: 62:             stateTime++;
  1661  0002F6  4A11               	infsnz	_stateTime,f,c
  1662  0002F8  2A12               	incf	_stateTime+1,f,c
  1663                           
  1664                           ;car_ctrl.c: 63:             if (stateTime > carctl.throttleHighTime) {
  1665  0002FA  500F               	movf	_carctl+3,w,c	;volatile
  1666  0002FC  6E01               	movwf	??_carcontrol_ISR& (0+255),c
  1667  0002FE  6A02               	clrf	(??_carcontrol_ISR+1)& (0+255),c
  1668  000300  5011               	movf	_stateTime,w,c
  1669  000302  5C01               	subwf	??_carcontrol_ISR,w,c
  1670  000304  5002               	movf	??_carcontrol_ISR+1,w,c
  1671  000306  0A80               	xorlw	128
  1672  000308  6E03               	movwf	(??_carcontrol_ISR+2)& (0+255),c
  1673  00030A  5012               	movf	_stateTime+1,w,c
  1674  00030C  0A80               	xorlw	128
  1675  00030E  5803               	subwfb	(??_carcontrol_ISR+2)& (0+255),w,c
  1676  000310  A0D8               	btfss	status,0,c
  1677                           
  1678                           ;car_ctrl.c: 64:                 do { LATAbits.LATA0 = 0; } while(0);
  1679  000312  9082               	bcf	3970,0,c	;volatile
  1680                           
  1681                           ;car_ctrl.c: 66:             if (stateTime > carctl.servoHighTime) {
  1682  000314  5010               	movf	_carctl+4,w,c	;volatile
  1683  000316  6E01               	movwf	??_carcontrol_ISR& (0+255),c
  1684  000318  6A02               	clrf	(??_carcontrol_ISR+1)& (0+255),c
  1685  00031A  5011               	movf	_stateTime,w,c
  1686  00031C  5C01               	subwf	??_carcontrol_ISR,w,c
  1687  00031E  5002               	movf	??_carcontrol_ISR+1,w,c
  1688  000320  0A80               	xorlw	128
  1689  000322  6E03               	movwf	(??_carcontrol_ISR+2)& (0+255),c
  1690  000324  5012               	movf	_stateTime+1,w,c
  1691  000326  0A80               	xorlw	128
  1692  000328  5803               	subwfb	(??_carcontrol_ISR+2)& (0+255),w,c
  1693  00032A  A0D8               	btfss	status,0,c
  1694                           
  1695                           ;car_ctrl.c: 67:                 do { LATAbits.LATA1 = 0; } while(0);
  1696  00032C  9282               	bcf	3970,1,c	;volatile
  1697                           
  1698                           ;car_ctrl.c: 69:             if (stateTime >= 100) {
  1699  00032E  BE12               	btfsc	_stateTime+1,7,c
  1700  000330  0012               	return	
  1701  000332  5012               	movf	_stateTime+1,w,c
  1702  000334  E104               	bnz	i2u7_40
  1703  000336  0E64               	movlw	100
  1704  000338  5C11               	subwf	_stateTime,w,c
  1705  00033A  A0D8               	btfss	status,0,c
  1706  00033C  0012               	return	
  1707  00033E                     i2u7_40:
  1708                           
  1709                           ;car_ctrl.c: 70:                 carctl.state = state_low;
  1710  00033E  0E03               	movlw	3
  1711  000340  6E0D               	movwf	_carctl+1,c	;volatile
  1712                           
  1713                           ;car_ctrl.c: 71:                 stateTime = 0;
  1714  000342  0E00               	movlw	0
  1715  000344  6E12               	movwf	_stateTime+1,c
  1716  000346  0E00               	movlw	0
  1717  000348  6E11               	movwf	_stateTime,c
  1718  00034A  0012               	return	
  1719  00034C                     i2l1050:
  1720                           
  1721                           ;car_ctrl.c: 75:             stateTime++;
  1722  00034C  4A11               	infsnz	_stateTime,f,c
  1723  00034E  2A12               	incf	_stateTime+1,f,c
  1724  000350  9082               	bcf	3970,0,c	;volatile
  1725  000352  9282               	bcf	3970,1,c	;volatile
  1726                           
  1727                           ;car_ctrl.c: 78:             if (stateTime >= 1800) {
  1728  000354  BE12               	btfsc	_stateTime+1,7,c
  1729  000356  0012               	return	
  1730  000358  0E08               	movlw	8
  1731  00035A  5C11               	subwf	_stateTime,w,c
  1732  00035C  0E07               	movlw	7
  1733  00035E  5812               	subwfb	_stateTime+1,w,c
  1734  000360  A0D8               	btfss	status,0,c
  1735  000362  0012               	return	
  1736                           
  1737                           ;car_ctrl.c: 79:                 carctl.state = state_high;
  1738  000364  0E01               	movlw	1
  1739  000366  6E0D               	movwf	_carctl+1,c	;volatile
  1740                           
  1741                           ;car_ctrl.c: 80:                 stateTime = 0;
  1742  000368  0E00               	movlw	0
  1743  00036A  6E12               	movwf	_stateTime+1,c
  1744  00036C  0E00               	movlw	0
  1745  00036E  6E11               	movwf	_stateTime,c
  1746  000370  8082               	bsf	3970,0,c	;volatile
  1747  000372  9282               	bcf	3970,1,c	;volatile
  1748  000374  0012               	return	
  1749  000376                     i2l1066:
  1750  000376  500D               	movf	_carctl+1,w,c	;volatile
  1751  000378  6E01               	movwf	??_carcontrol_ISR& (0+255),c
  1752  00037A  6A02               	clrf	(??_carcontrol_ISR+1)& (0+255),c
  1753                           
  1754                           ; Switch on 2 bytes has been partitioned into a top level switch of size 1, and 1 sub-sw
      +                          itches
  1755                           ; Switch size 1, requested type "simple"
  1756                           ; Number of cases is 1, Range of values is 0 to 0
  1757                           ; switch strategies available:
  1758                           ; Name         Instructions Cycles
  1759                           ; simple_byte            4     3 (average)
  1760                           ;	Chosen strategy is simple_byte
  1761  00037C  5002               	movf	??_carcontrol_ISR+1,w,c
  1762  00037E  0A00               	xorlw	0	; case 0
  1763  000380  A4D8               	btfss	status,2,c
  1764  000382  0012               	return	
  1765                           
  1766                           ; Switch size 1, requested type "simple"
  1767                           ; Number of cases is 4, Range of values is 0 to 3
  1768                           ; switch strategies available:
  1769                           ; Name         Instructions Cycles
  1770                           ; simple_byte           13     7 (average)
  1771                           ;	Chosen strategy is simple_byte
  1772  000384  5001               	movf	??_carcontrol_ISR,w,c
  1773  000386  0A00               	xorlw	0	; case 0
  1774  000388  B4D8               	btfsc	status,2,c
  1775  00038A  D799               	goto	i2l1024
  1776  00038C  0A01               	xorlw	1	; case 1
  1777  00038E  B4D8               	btfsc	status,2,c
  1778  000390  D79F               	goto	i2l1030
  1779  000392  0A03               	xorlw	3	; case 2
  1780  000394  B4D8               	btfsc	status,2,c
  1781  000396  D7AF               	goto	i2l1040
  1782  000398  0A01               	xorlw	1	; case 3
  1783  00039A  A4D8               	btfss	status,2,c
  1784  00039C  0012               	return	
  1785  00039E  D7D6               	goto	i2l1050
  1786  0003A0                     __end_of_carcontrol_ISR:
  1787                           	opt callstack 0
  1788  0000                     
  1789                           	psect	text15
  1790  000000                     __ptext15:
  1791                           	opt callstack 0
  1792                           
  1793                           	psect	rparam
  1794  0000                     
  1795                           	psect	temp
  1796  000018                     btemp:
  1797                           	opt callstack 0
  1798  000018                     	ds	1
  1799  0000                     int$flags	set	btemp
  1800  0000                     wtemp8	set	btemp+1
  1801  0000                     ttemp5	set	btemp+1
  1802  0000                     ttemp6	set	btemp+4
  1803  0000                     ttemp7	set	btemp+8
  1804                           tosu	equ	0xFFF
  1805                           tosh	equ	0xFFE
  1806                           tosl	equ	0xFFD
  1807                           stkptr	equ	0xFFC
  1808                           pclatu	equ	0xFFB
  1809                           pclath	equ	0xFFA
  1810                           pcl	equ	0xFF9
  1811                           tblptru	equ	0xFF8
  1812                           tblptrh	equ	0xFF7
  1813                           tblptrl	equ	0xFF6
  1814                           tablat	equ	0xFF5
  1815                           prodh	equ	0xFF4
  1816                           prodl	equ	0xFF3
  1817                           indf0	equ	0xFEF
  1818                           postinc0	equ	0xFEE
  1819                           postdec0	equ	0xFED
  1820                           preinc0	equ	0xFEC
  1821                           plusw0	equ	0xFEB
  1822                           fsr0h	equ	0xFEA
  1823                           fsr0l	equ	0xFE9
  1824                           wreg	equ	0xFE8
  1825                           indf1	equ	0xFE7
  1826                           postinc1	equ	0xFE6
  1827                           postdec1	equ	0xFE5
  1828                           preinc1	equ	0xFE4
  1829                           plusw1	equ	0xFE3
  1830                           fsr1h	equ	0xFE2
  1831                           fsr1l	equ	0xFE1
  1832                           bsr	equ	0xFE0
  1833                           indf2	equ	0xFDF
  1834                           postinc2	equ	0xFDE
  1835                           postdec2	equ	0xFDD
  1836                           preinc2	equ	0xFDC
  1837                           plusw2	equ	0xFDB
  1838                           fsr2h	equ	0xFDA
  1839                           fsr2l	equ	0xFD9
  1840                           status	equ	0xFD8


Data Sizes:
    Strings     0
    Constant    0
    Data        3
    BSS         7
    Persistent  2
    Stack       0

Auto Spaces:
    Space          Size  Autos    Used
    COMRAM           94     11      23
    BANK0           160      0       0
    BANK1           256      0       0
    BANK2           256      0       0
    BANK3           256      0       0
    BANK4           256      0       0
    BANK5           256      0       0
    BANK6           256      0       0
    BANK7           256      0       0

Pointer List with Targets:

    TMR2_SetInterruptHandler@InterruptHandler	PTR FTN()void  size(2) Largest target is 1
		 -> carcontrol_ISR(), TMR2_DefaultInterruptHandler(), 

    TMR2_InterruptHandler	PTR FTN()void  size(2) Largest target is 1
		 -> carcontrol_ISR(), Absolute function(), TMR2_DefaultInterruptHandler(), 


Critical Paths under _main in COMRAM

    _carcontrol_init->_TMR2_SetInterruptHandler
    _TMR2_Initialize->_TMR2_SetInterruptHandler

Critical Paths under _INTERRUPT_InterruptManager in COMRAM

    _TMR2_ISR->_carcontrol_ISR

Critical Paths under _main in BANK0

    None.

Critical Paths under _INTERRUPT_InterruptManager in BANK0

    None.

Critical Paths under _main in BANK1

    None.

Critical Paths under _INTERRUPT_InterruptManager in BANK1

    None.

Critical Paths under _main in BANK2

    None.

Critical Paths under _INTERRUPT_InterruptManager in BANK2

    None.

Critical Paths under _main in BANK3

    None.

Critical Paths under _INTERRUPT_InterruptManager in BANK3

    None.

Critical Paths under _main in BANK4

    None.

Critical Paths under _INTERRUPT_InterruptManager in BANK4

    None.

Critical Paths under _main in BANK5

    None.

Critical Paths under _INTERRUPT_InterruptManager in BANK5

    None.

Critical Paths under _main in BANK6

    None.

Critical Paths under _INTERRUPT_InterruptManager in BANK6

    None.

Critical Paths under _main in BANK7

    None.

Critical Paths under _INTERRUPT_InterruptManager in BANK7

    None.

Call Graph Tables:

 ---------------------------------------------------------------------------------
 (Depth) Function   	        Calls       Base Space   Used Autos Params    Refs
 ---------------------------------------------------------------------------------
 (0) _main                                                 4     4      0    1208
                                              7 COMRAM     4     4      0
                  _SYSTEM_Initialize
                    _carcontrol_init
                _carcontrol_steering
                _carcontrol_throttle
 ---------------------------------------------------------------------------------
 (1) _carcontrol_init                                      0     0      0     264
           _TMR2_SetInterruptHandler
                _carcontrol_steering
                _carcontrol_throttle
 ---------------------------------------------------------------------------------
 (1) _carcontrol_throttle                                  1     1      0      30
                                              5 COMRAM     1     1      0
 ---------------------------------------------------------------------------------
 (1) _carcontrol_steering                                  1     1      0      60
                                              5 COMRAM     1     1      0
 ---------------------------------------------------------------------------------
 (1) _SYSTEM_Initialize                                    0     0      0     174
               _INTERRUPT_Initialize
              _OSCILLATOR_Initialize
             _PIN_MANAGER_Initialize
                     _PMD_Initialize
                    _TMR2_Initialize
 ---------------------------------------------------------------------------------
 (2) _TMR2_Initialize                                      0     0      0     174
           _TMR2_SetInterruptHandler
 ---------------------------------------------------------------------------------
 (2) _TMR2_SetInterruptHandler                             2     0      2     174
                                              5 COMRAM     2     0      2
 ---------------------------------------------------------------------------------
 (2) _PMD_Initialize                                       0     0      0       0
 ---------------------------------------------------------------------------------
 (2) _PIN_MANAGER_Initialize                               0     0      0       0
 ---------------------------------------------------------------------------------
 (2) _OSCILLATOR_Initialize                                0     0      0       0
 ---------------------------------------------------------------------------------
 (2) _INTERRUPT_Initialize                                 0     0      0       0
 ---------------------------------------------------------------------------------
 Estimated maximum stack depth 2
 ---------------------------------------------------------------------------------
 (Depth) Function   	        Calls       Base Space   Used Autos Params    Refs
 ---------------------------------------------------------------------------------
 (4) _INTERRUPT_InterruptManager                           2     2      0       0
                                              3 COMRAM     2     2      0
                           _TMR2_ISR
 ---------------------------------------------------------------------------------
 (5) _TMR2_ISR                                             0     0      0       0
                   Absolute function *
       _TMR2_DefaultInterruptHandler *
                     _carcontrol_ISR *
 ---------------------------------------------------------------------------------
 (6) _carcontrol_ISR                                       3     3      0       0
                                              0 COMRAM     3     3      0
 ---------------------------------------------------------------------------------
 (6) _TMR2_DefaultInterruptHandler                         0     0      0       0
 ---------------------------------------------------------------------------------
 (6) Absolute function(Fake)                               0     0      0       0
 ---------------------------------------------------------------------------------
 Estimated maximum stack depth 6
 ---------------------------------------------------------------------------------

 Call Graph Graphs:

 _main (ROOT)
   _SYSTEM_Initialize
     _INTERRUPT_Initialize
     _OSCILLATOR_Initialize
     _PIN_MANAGER_Initialize
     _PMD_Initialize
     _TMR2_Initialize
       _TMR2_SetInterruptHandler
   _carcontrol_init
     _TMR2_SetInterruptHandler
     _carcontrol_steering
     _carcontrol_throttle
   _carcontrol_steering
   _carcontrol_throttle

 _INTERRUPT_InterruptManager (ROOT)
   _TMR2_ISR
     Absolute function(Fake) *
     _TMR2_DefaultInterruptHandler *
     _carcontrol_ISR *

 Address spaces:
Name               Size   Autos  Total    Cost      Usage
BIGRAM             7FF      0       0      21        0.0%
EEDATA             100      0       0       0        0.0%
BITBANK7           100      0       0      19        0.0%
BANK7              100      0       0      20        0.0%
BITBANK6           100      0       0      16        0.0%
BANK6              100      0       0      17        0.0%
BITBANK5           100      0       0      14        0.0%
BANK5              100      0       0      15        0.0%
BITBANK4           100      0       0      12        0.0%
BANK4              100      0       0      13        0.0%
BITBANK3           100      0       0      10        0.0%
BANK3              100      0       0      11        0.0%
BITBANK2           100      0       0       8        0.0%
BANK2              100      0       0       9        0.0%
BITBANK1           100      0       0       6        0.0%
BANK1              100      0       0       7        0.0%
BITBANK0            A0      0       0       4        0.0%
BANK0               A0      0       0       5        0.0%
BITCOMRAM           5E      0       0       0        0.0%
COMRAM              5E      B      17       1       24.5%
BITSFR_2             0      0       0     200        0.0%
SFR_2                0      0       0     200        0.0%
BITSFR_1             0      0       0     200        0.0%
SFR_1                0      0       0     200        0.0%
BITSFR               0      0       0     200        0.0%
SFR                  0      0       0     200        0.0%
STACK                0      0       0       2        0.0%
NULL                 0      0       0       0        0.0%
ABS                  0      0      17      18        0.0%
DATA                 0      0      17       3        0.0%
CODE                 0      0       0       0        0.0%


Microchip Technology PIC18 Macro Assembler V2.05 build -831301201 
Symbol Table                                                                                   Tue Apr  2 20:14:09 2019

        __end_of_TMR2_SetInterruptHandler 052A                         ??_carcontrol_init 0008  
                             __CFG_CP$OFF 000000                       _carcontrol_throttle 050E  
                     _carcontrol_steering 0448                               __CFG_LVP$ON 000000  
                                     l223 02B4                                       u300 01FA  
                                     u310 0236                                       u320 0272  
                                     u240 0096                                       u330 02AE  
                                     u250 00D2                                       u260 010C  
                                     u270 0148                                       _PR2 000FBB  
                                     u407 019E                                       u280 0184  
                                     u417 01D8                                       u290 01C0  
                            __CFG_CPD$OFF 000000                                       u427 0214  
                                     u347 0048                                       u437 0250  
                                     u357 0074                                       u447 028C  
                                     u367 00B0                                       u377 00EA  
                                     u387 0126                                       u397 0162  
                 __size_of_PMD_Initialize 001C                           _TMR2_Initialize 0474  
                                     tosl 000FFD                                       wreg 000FE8  
             carcontrol_steering@steering 0006                              __CFG_ZCD$OFF 000000  
                                    l1012 0466                                      l1020 051A  
                                    l1008 0458                                      l1412 0150  
                                    l1440 01C8                                      l1426 018C  
                                    l1370 009E                                      l1356 0064  
                                    l1454 0202                                      l1384 00DA  
                                    l1482 027A                                      l1468 023E  
                                    l1398 0114                                      _LATA 000F82  
                                    _LATB 000F83                                      _LATC 000F84  
                                    _T2PR 000FBB                                      _PMD0 000EDC  
                                    _PMD1 000EDD                                      _PMD2 000EDE  
                                    _PMD3 000EDF                                      _PMD4 000EE0  
                                    _PMD5 000EE1                                      _TMR2 000FBA  
                                    _WPUA 000F0B                                      _WPUB 000F13  
                                    _WPUC 000F1B                                      _WPUE 000F28  
                    ?_carcontrol_throttle 0001                      ?_carcontrol_steering 0001  
                           __CFG_FCMEN$ON 000000                                      _main 0032  
                                    btemp 0018                                      start 002E  
                           __CFG_CSWEN$ON 000000                              ___param_bank 000000  
                           __CFG_SCANE$ON 000000            __size_of_OSCILLATOR_Initialize 0018  
           __end_of_OSCILLATOR_Initialize 04F8                                     ?_main 0001  
                           __CFG_WDTE$OFF 000000                                     _T2CON 000FBC  
                                   _T2HLT 000FBD                            __CFG_DEBUG$OFF 000000  
                                   _T2TMR 000FBA                                     _T2RST 000FBF  
                                   i2l184 0022                                     _OSCEN 000ED7  
                                   _TRISA 000F87                                     _TRISB 000F88  
                                   _TRISC 000F89                             __CFG_WRT0$OFF 000000  
                           __CFG_WRT1$OFF 000000                             __CFG_WRT2$OFF 000000  
                           __CFG_WRT3$OFF 000000                            __CFG_EBTR0$OFF 000000  
                          __CFG_EBTR1$OFF 000000                            __CFG_EBTR2$OFF 000000  
                          __CFG_EBTR3$OFF 000000                          __end_of_TMR2_ISR 04C4  
                           __CFG_WRTB$OFF 000000                             __CFG_WRTC$OFF 000000  
                           __CFG_WRTD$OFF 000000                            __CFG_EBTRB$OFF 000000  
                      __CFG_MCLRE$EXTMCLR 000000                                     main@i 000A  
                   ??_carcontrol_throttle 0006                     ??_carcontrol_steering 0006  
                                   pclath 000FFA                                     tablat 000FF5  
                                   ttemp5 0019                                     ttemp6 001C  
                                   ttemp7 0020                                     status 000FD8  
                                   wtemp8 0019                            _carcontrol_ISR 02BC  
                         __initialization 03E2                              __end_of_main 02BC  
                 __end_of_TMR2_Initialize 04A0               ?_INTERRUPT_InterruptManager 0001  
                _TMR2_SetInterruptHandler 0520                                    ??_main 0008  
                           __activetblptr 000002                                    _ANSELA 000F0C  
                                  _ANSELB 000F14                                    _ANSELC 000F1C  
                                  _ODCONA 000F0A                                    _ODCONB 000F12  
                                  _ODCONC 000F1A                    __end_of_carcontrol_ISR 03A0  
                                  i2l1030 02D0                                    i2l1040 02F6  
                                  i2l1024 02BE                                    i2l1050 034C  
                                  i2l1066 0376                            __CFG_WDTCCS$SC 000000  
                                  _OSCFRQ 000ED9                                    i2u4_40 02E8  
                                  i2u7_40 033E                            __CFG_PWRTE$OFF 000000  
                          __CFG_XINST$OFF 000000                            __CFG_STVREN$ON 000000  
                                  _carctl 000C                                    clear_0 0406  
                          _PMD_Initialize 04C4                              __pdataCOMRAM 0013  
                                  tblptrh 000FF7                                    tblptrl 000FF6  
                                  tblptru 000FF8  TMR2_SetInterruptHandler@InterruptHandler 0006  
           __size_of_INTERRUPT_Initialize 0004                           ?_carcontrol_ISR 0001  
                       _SYSTEM_Initialize 04F8                           _carcontrol_init 041A  
                              __accesstop 0060                   __end_of__initialization 040C  
                      ?_SYSTEM_Initialize 0001                             ___rparam_used 000001  
                          __pcstackCOMRAM 0001                       ??_SYSTEM_Initialize 0008  
                               ?_TMR2_ISR 0001                          ?_TMR2_Initialize 0001  
                  __end_of_PMD_Initialize 04E0                 __end_of_SYSTEM_Initialize 050E  
                              __pnvCOMRAM 0016                           __CFG_PPS1WAY$ON 000000  
                              ??_TMR2_ISR 0004                           ?_PMD_Initialize 0001  
                                 _OSCCON1 000ED3                                   _OSCCON3 000ED5  
                 __end_of_carcontrol_init 0448                                   i2u10_48 04B0  
                                 _OSCTUNE 000ED8                                   _SLRCONA 000F09  
                                 _SLRCONB 000F11                                   _SLRCONC 000F19  
                                 __Hparam 0000                                   __Lparam 0000  
              ??_TMR2_SetInterruptHandler 0008                __CFG_RSTOSC$HFINTOSC_64MHZ 000000  
                                 __pcinit 03E2                                   __ramtop 0800  
                                 __ptext0 0032                                   __ptext1 041A  
                                 __ptext2 050E                                   __ptext3 0448  
                                 __ptext4 04F8                                   __ptext5 0474  
                                 __ptext6 0520                                   __ptext7 04C4  
                                 __ptext8 03A0                                   __ptext9 04E0  
                   _OSCILLATOR_Initialize 04E0                                 _T2CONbits 000FBC  
             __end_of_carcontrol_throttle 0520                  ??_PIN_MANAGER_Initialize 0006  
             __end_of_carcontrol_steering 0474                                 _T2HLTbits 000FBD  
              __size_of_SYSTEM_Initialize 0016                      end_of_initialization 040C  
                               _T2RSTbits 000FBF                             __Lmediumconst 0000  
                                 postinc0 000FEE                     __CFG_WDTCPS$WDTCPS_31 000000  
                              _servo_trim 0015                          ??_carcontrol_ISR 0001  
                        ?_carcontrol_init 0001                          __CFG_FEXTOSC$OFF 000000  
            __end_of_INTERRUPT_Initialize 052E      __end_of_TMR2_DefaultInterruptHandler 0534  
   __size_of_TMR2_DefaultInterruptHandler 0002              _TMR2_DefaultInterruptHandler 0532  
                           __pidataCOMRAM 052E                         __size_of_TMR2_ISR 0024  
                  ?_OSCILLATOR_Initialize 0001                       start_initialization 03E2  
         __size_of_PIN_MANAGER_Initialize 0042                          __CFG_LPBOREN$OFF 000000  
                        ??_PMD_Initialize 0006             ?_TMR2_DefaultInterruptHandler 0001  
                             __pbssCOMRAM 000C                  __size_of_TMR2_Initialize 002C  
                  _PIN_MANAGER_Initialize 03A0                                 __pintcode 0008  
            ??_INTERRUPT_InterruptManager 0004                                  _T2CLKCON 000FBE  
                    _INTERRUPT_Initialize 052A                                  _LATAbits 000F82  
                                _PIE4bits 000EC1       __size_of_INTERRUPT_InterruptManager 0026  
                                _PIR4bits 000EC9                                  _TMR2_ISR 04A0  
                               _servo_max 0013                                 _servo_min 0014  
                               _stateTime 0011            ??_TMR2_DefaultInterruptHandler 0001  
       __size_of_TMR2_SetInterruptHandler 000A                 ?_TMR2_SetInterruptHandler 0006  
                   ?_INTERRUPT_Initialize 0001              __size_of_carcontrol_throttle 0012  
            __size_of_carcontrol_steering 002C                         ??_TMR2_Initialize 0008  
                                __Hrparam 0000                                  __Lrparam 0000  
                      __CFG_BOREN$SBORDIS 000000                   ??_OSCILLATOR_Initialize 0006  
                                __ptext10 052A                                  __ptext12 04A0  
                                __ptext13 0532                                  __ptext14 02BC  
                                __ptext15 0000                             __size_of_main 028A  
                __size_of_carcontrol_init 002E                      __CFG_WDTCWS$WDTCWS_7 000000  
                      __CFG_BORV$VBOR_190 000000                                  int$flags 0018  
      __end_of_INTERRUPT_InterruptManager 002E                _INTERRUPT_InterruptManager 0008  
                              _INTCONbits 000FF2                    ??_INTERRUPT_Initialize 0006  
                                intlevel2 0000                   ?_PIN_MANAGER_Initialize 0001  
                       __CFG_CLKOUTEN$OFF 000000                   __size_of_carcontrol_ISR 00E4  
             carcontrol_throttle@throttle 0006            __end_of_PIN_MANAGER_Initialize 03E2  
                   _TMR2_InterruptHandler 0016  
