

Microchip MPLAB XC8 Assembler V2.05 build -831301201 
                                                                                               Mon Apr 22 17:33:42 2019

Microchip MPLAB XC8 C Compiler v2.05 (Free license) build 20181220022703 Og1 
     1                           	processor	18F25Q10
     2                           	fnconf	rparam,??,?,0
     3                           	opt	pw 120
     4                           	opt	flic
     5                           	psect	idataCOMRAM,global,class=CODE,delta=1,noexec
     6                           	psect	nvCOMRAM,global,class=COMRAM,space=1,delta=1,noexec
     7                           	psect	nvBANK0,global,class=BANK0,space=1,delta=1,lowdata,noexec
     8                           	psect	cinit,global,reloc=2,class=CODE,delta=1
     9                           	psect	bssCOMRAM,global,class=COMRAM,space=1,delta=1,noexec
    10                           	psect	dataCOMRAM,global,class=COMRAM,space=1,delta=1,noexec
    11                           	psect	bssBANK0,global,class=BANK0,space=1,delta=1,lowdata,noexec
    12                           	psect	cstackBANK0,global,class=BANK0,space=1,delta=1,noexec
    13                           	psect	cstackCOMRAM,global,class=COMRAM,space=1,delta=1,noexec
    14                           	psect	text0,global,reloc=2,class=CODE,delta=1
    15                           	psect	text1,global,reloc=2,class=CODE,delta=1
    16                           	psect	text2,global,reloc=2,class=CODE,delta=1
    17                           	psect	text3,global,reloc=2,class=CODE,delta=1
    18                           	psect	text4,global,reloc=2,class=CODE,delta=1
    19                           	psect	text5,global,reloc=2,class=CODE,delta=1
    20                           	psect	text6,global,reloc=2,class=CODE,delta=1
    21                           	psect	text7,global,reloc=2,class=CODE,delta=1
    22                           	psect	text8,global,reloc=2,class=CODE,delta=1
    23                           	psect	text9,global,reloc=2,class=CODE,delta=1
    24                           	psect	text10,global,reloc=2,class=CODE,delta=1
    25                           	psect	text11,global,reloc=2,class=CODE,delta=1
    26                           	psect	text12,global,reloc=2,class=CODE,delta=1
    27                           	psect	text13,global,reloc=2,class=CODE,delta=1
    28                           	psect	text14,global,reloc=2,class=CODE,delta=1
    29                           	psect	text15,global,reloc=2,class=CODE,delta=1
    30                           	psect	text16,global,reloc=2,class=CODE,delta=1
    31                           	psect	text17,global,reloc=2,class=CODE,delta=1
    32                           	psect	text18,global,reloc=2,class=CODE,delta=1
    33                           	psect	text19,global,reloc=2,class=CODE,delta=1
    34                           	psect	text20,global,reloc=2,class=CODE,delta=1
    35                           	psect	text21,global,reloc=2,class=CODE,delta=1
    36                           	psect	text22,global,reloc=2,class=CODE,delta=1
    37                           	psect	text23,global,reloc=2,class=CODE,delta=1
    38                           	psect	text24,global,reloc=2,class=CODE,delta=1
    39                           	psect	text25,global,reloc=2,class=CODE,delta=1
    40                           	psect	intcode,global,reloc=2,class=CODE,delta=1
    41                           	psect	text27,global,reloc=2,class=CODE,delta=1
    42                           	psect	text28,global,reloc=2,class=CODE,delta=1
    43                           	psect	text29,global,reloc=2,class=CODE,delta=1
    44                           	psect	text30,global,reloc=2,class=CODE,delta=1
    45                           	psect	text31,global,reloc=2,class=CODE,delta=1
    46                           	psect	text32,global,reloc=2,class=CODE,delta=1
    47                           	psect	text33,global,reloc=2,class=CODE,delta=1
    48                           	psect	text34,global,reloc=2,class=CODE,delta=1
    49                           	psect	text35,global,reloc=2,class=CODE,delta=1
    50                           	psect	text36,global,reloc=2,class=CODE,delta=1
    51                           	psect	text37,global,reloc=2,class=CODE,delta=1
    52                           	psect	text38,global,reloc=2,class=CODE,delta=1
    53                           	psect	text39,global,reloc=2,class=CODE,delta=1
    54                           	psect	text40,global,reloc=2,class=CODE,delta=1
    55                           	psect	text41,global,reloc=2,class=CODE,delta=1
    56                           	psect	text42,global,reloc=2,class=CODE,delta=1
    57                           	psect	text43,global,reloc=2,class=CODE,delta=1
    58                           	psect	text44,global,reloc=2,class=CODE,delta=1
    59                           	psect	text45,global,reloc=2,class=CODE,delta=1
    60                           	psect	text46,global,reloc=2,class=CODE,delta=1
    61                           	psect	text47,global,reloc=2,class=CODE,delta=1
    62                           	psect	text48,global,reloc=2,class=CODE,delta=1
    63                           	psect	text49,global,reloc=2,class=CODE,delta=1
    64                           	psect	text50,global,reloc=2,class=CODE,delta=1
    65                           	psect	text51,global,reloc=2,class=CODE,delta=1
    66                           	psect	text52,global,reloc=2,class=CODE,delta=1
    67                           	psect	text53,global,reloc=2,class=CODE,delta=1,group=1
    68                           	psect	text54,global,reloc=2,class=CODE,delta=1,group=1
    69                           	psect	text55,global,reloc=2,class=CODE,delta=1
    70                           	psect	text56,global,reloc=2,class=CODE,delta=1
    71                           	psect	intsave_regs,global,class=BIGRAM,space=1,delta=1,noexec
    72                           	psect	text57,global,reloc=2,class=CODE,delta=1
    73                           	psect	rparam,global,class=COMRAM,space=1,delta=1,noexec
    74                           	psect	temp,global,ovrld,common,class=COMRAM,space=1,delta=1
    75  0000                     
    76                           ; Version 2.05
    77                           ; Generated 20/12/2018 GMT
    78                           ; 
    79                           ; Copyright © 2018, Microchip Technology Inc. and its subsidiaries ("Microchip")
    80                           ; All rights reserved.
    81                           ; 
    82                           ; This software is developed by Microchip Technology Inc. and its subsidiaries ("Microch
      +                          ip").
    83                           ; 
    84                           ; Redistribution and use in source and binary forms, with or without modification, are
    85                           ; permitted provided that the following conditions are met:
    86                           ; 
    87                           ;     1. Redistributions of source code must retain the above copyright notice, this lis
      +                          t of
    88                           ;        conditions and the following disclaimer.
    89                           ; 
    90                           ;     2. Redistributions in binary form must reproduce the above copyright notice, this 
      +                          list
    91                           ;        of conditions and the following disclaimer in the documentation and/or other
    92                           ;        materials provided with the distribution.
    93                           ; 
    94                           ;     3. Microchip's name may not be used to endorse or promote products derived from th
      +                          is
    95                           ;        software without specific prior written permission.
    96                           ; 
    97                           ; THIS SOFTWARE IS PROVIDED BY MICROCHIP "AS IS" AND ANY EXPRESS OR IMPLIED WARRANTIES,
    98                           ; INCLUDING, BUT NOT LIMITED TO, THE IMPLIED WARRANTIES OF MERCHANTABILITY AND FITNESS F
      +                          OR
    99                           ; PURPOSE ARE DISCLAIMED.  IN NO EVENT SHALL MICROCHIP BE LIABLE FOR ANY DIRECT, INDIREC
      +                          T,
   100                           ; INCIDENTAL, SPECIAL, EXEMPLARY, OR CONSEQUENTIAL DAMAGES (INCLUDING BUT NOT LIMITED TO
   101                           ; PROCUREMENT OF SUBSTITUTE GOODS OR SERVICES; LOSS OF USE, DATA OR PROFITS; OR BUSINESS
   102                           ; INTERRUPTION) HOWSOEVER CAUSED AND ON ANY THEORY OF LIABILITY, WHETHER IN CONTRACT, ST
      +                          RICT
   103                           ; LIABILITY, OR TORT (INCLUDING NEGLIGENCE OR OTHERWISE) ARISING IN ANY WAY OUT OF THE U
      +                          SE OF
   104                           ; THIS SOFTWARE, EVEN IF ADVISED OF THE POSSIBILITY OF SUCH DAMAGE.
   105                           ; 
   106                           ; 
   107                           ; Code-generator required, PIC18F25Q10 Definitions
   108                           ; 
   109                           ; SFR Addresses
   110  0000                     
   111                           	psect	idataCOMRAM
   112  000D8A                     __pidataCOMRAM:
   113                           	opt callstack 0
   114                           
   115                           ;initializer for _servo_max
   116  000D8A  1C                 	db	28
   117                           
   118                           ;initializer for _servo_min
   119  000D8B  E2                 	db	226
   120                           
   121                           ;initializer for _servo_trim
   122  000D8C  EF                 	db	239
   123                           
   124                           	psect	nvCOMRAM
   125  00004C                     __pnvCOMRAM:
   126                           	opt callstack 0
   127  00004C                     _TMR3_InterruptHandler:
   128                           	opt callstack 0
   129  00004C                     	ds	2
   130  00004E                     _timer3ReloadVal:
   131                           	opt callstack 0
   132  00004E                     	ds	2
   133  000050                     _TMR1_InterruptHandler:
   134                           	opt callstack 0
   135  000050                     	ds	2
   136  000052                     _timer1ReloadVal:
   137                           	opt callstack 0
   138  000052                     	ds	2
   139  000054                     _CCP1_CallBack:
   140                           	opt callstack 0
   141  000054                     	ds	2
   142  000056                     _IOCCF2_InterruptHandler:
   143                           	opt callstack 0
   144  000056                     	ds	2
   145  000058                     _EUSART1_RxDefaultInterruptHandler:
   146                           	opt callstack 0
   147  000058                     	ds	2
   148  00005A                     _EUSART1_TxDefaultInterruptHandler:
   149                           	opt callstack 0
   150  00005A                     	ds	2
   151                           
   152                           	psect	nvBANK0
   153  000074                     __pnvBANK0:
   154                           	opt callstack 0
   155  000074                     _ADCC_ADI_InterruptHandler:
   156                           	opt callstack 0
   157  000074                     	ds	2
   158  000076                     _EUSART1_ErrorHandler:
   159                           	opt callstack 0
   160  000076                     	ds	2
   161  000078                     _EUSART1_OverrunErrorHandler:
   162                           	opt callstack 0
   163  000078                     	ds	2
   164  00007A                     _EUSART1_FramingErrorHandler:
   165                           	opt callstack 0
   166  00007A                     	ds	2
   167  00007C                     _TMR2_InterruptHandler:
   168                           	opt callstack 0
   169  00007C                     	ds	2
   170  00007E                     _eusart1TxBufferRemaining:
   171                           	opt callstack 0
   172  00007E                     	ds	1
   173  0000                     _PIR6	set	3787
   174  0000                     _PIR6bits	set	3787
   175  0000                     _PIE6bits	set	3779
   176  0000                     _PIR1bits	set	3782
   177  0000                     _PIE1bits	set	3774
   178  0000                     _PIR3bits	set	3784
   179  0000                     _PIE3bits	set	3776
   180  0000                     _PIR0bits	set	3781
   181  0000                     _PIE4bits	set	3777
   182  0000                     _PIR4bits	set	3785
   183  0000                     _RC6PPS	set	3832
   184  0000                     _CCP1PPS	set	3754
   185  0000                     _PIE0bits	set	3773
   186  0000                     _PMD5	set	3809
   187  0000                     _PMD4	set	3808
   188  0000                     _PMD3	set	3807
   189  0000                     _PMD2	set	3806
   190  0000                     _PMD1	set	3805
   191  0000                     _PMD0	set	3804
   192  0000                     _OSCTUNE	set	3800
   193  0000                     _OSCFRQ	set	3801
   194  0000                     _OSCEN	set	3799
   195  0000                     _OSCCON3	set	3797
   196  0000                     _OSCCON1	set	3795
   197  0000                     _ADCON1bits	set	3924
   198  0000                     _ADPREVL	set	3932
   199  0000                     _ADPREVH	set	3933
   200  0000                     _ADCON2bits	set	3925
   201  0000                     _ADPRE	set	3929
   202  0000                     _ADCON3bits	set	3926
   203  0000                     _ADRESL	set	3934
   204  0000                     _ADRESH	set	3935
   205  0000                     _ADCON0bits	set	3931
   206  0000                     _ADACQ	set	3927
   207  0000                     _ADCON0	set	3931
   208  0000                     _ADCLK	set	3922
   209  0000                     _ADACT	set	3921
   210  0000                     _ADREF	set	3923
   211  0000                     _ADCON3	set	3926
   212  0000                     _ADCON2	set	3925
   213  0000                     _ADCON1	set	3924
   214  0000                     _ADCAP	set	3928
   215  0000                     _ADPCH	set	3930
   216  0000                     _IOCCPbits	set	3863
   217  0000                     _IOCCNbits	set	3862
   218  0000                     _IOCCFbits	set	3861
   219  0000                     _SLRCONC	set	3865
   220  0000                     _SLRCONB	set	3857
   221  0000                     _SLRCONA	set	3849
   222  0000                     _ODCONC	set	3866
   223  0000                     _ODCONB	set	3858
   224  0000                     _ODCONA	set	3850
   225  0000                     _WPUC	set	3867
   226  0000                     _WPUA	set	3851
   227  0000                     _WPUB	set	3859
   228  0000                     _WPUE	set	3880
   229  0000                     _ANSELA	set	3852
   230  0000                     _ANSELB	set	3860
   231  0000                     _ANSELC	set	3868
   232  0000                     _TRISCbits	set	3977
   233  0000                     _LATCbits	set	3972
   234  0000                     _LATAbits	set	3970
   235  0000                     _T3GCONbits	set	4041
   236  0000                     _T3CONbits	set	4040
   237  0000                     _T3CON	set	4040
   238  0000                     _TMR3L	set	4038
   239  0000                     _TMR3H	set	4039
   240  0000                     _T3CLK	set	4043
   241  0000                     _T3GATE	set	4042
   242  0000                     _T3GCON	set	4041
   243  0000                     _ADERRL	set	3945
   244  0000                     _ADERRH	set	3946
   245  0000                     _ADFLTRL	set	3949
   246  0000                     _ADFLTRH	set	3950
   247  0000                     _ADSTATbits	set	3936
   248  0000                     _ADACCL	set	3947
   249  0000                     _ADACCH	set	3948
   250  0000                     _ADCNT	set	3938
   251  0000                     _ADSTAT	set	3936
   252  0000                     _ADRPT	set	3937
   253  0000                     _ADSTPTH	set	3940
   254  0000                     _ADSTPTL	set	3939
   255  0000                     _ADUTHH	set	3944
   256  0000                     _ADUTHL	set	3943
   257  0000                     _ADLTHH	set	3942
   258  0000                     _ADLTHL	set	3941
   259  0000                     _RC1REG	set	3992
   260  0000                     _RC1STAbits	set	3996
   261  0000                     _TX1REG	set	3993
   262  0000                     _TX1STAbits	set	3997
   263  0000                     _SP1BRGH	set	3995
   264  0000                     _SP1BRGL	set	3994
   265  0000                     _TX1STA	set	3997
   266  0000                     _RC1STA	set	3996
   267  0000                     _BAUD1CON	set	3998
   268  0000                     _T1GCONbits	set	4047
   269  0000                     _T1CONbits	set	4046
   270  0000                     _T1CON	set	4046
   271  0000                     _TMR1L	set	4044
   272  0000                     _TMR1H	set	4045
   273  0000                     _T1CLK	set	4049
   274  0000                     _T1GATE	set	4048
   275  0000                     _T1GCON	set	4047
   276  0000                     _CCPTMRSbits	set	4013
   277  0000                     _CCPR1L	set	4009
   278  0000                     _CCPR1H	set	4010
   279  0000                     _CCP1CAP	set	4012
   280  0000                     _CCP1CON	set	4011
   281  0000                     _INTCONbits	set	4082
   282  0000                     _PR2	set	4027
   283  0000                     _TMR2	set	4026
   284  0000                     _T2CONbits	set	4028
   285  0000                     _T2RSTbits	set	4031
   286  0000                     _T2HLTbits	set	4029
   287  0000                     _T2CON	set	4028
   288  0000                     _T2TMR	set	4026
   289  0000                     _T2PR	set	4027
   290  0000                     _T2RST	set	4031
   291  0000                     _T2HLT	set	4029
   292  0000                     _T2CLKCON	set	4030
   293  0000                     _TRISC	set	3977
   294  0000                     _TRISB	set	3976
   295  0000                     _TRISA	set	3975
   296  0000                     _LATC	set	3972
   297  0000                     _LATB	set	3971
   298  0000                     _LATA	set	3970
   299                           
   300                           ; #config settings
   301  0000                     
   302                           	psect	cinit
   303  000954                     __pcinit:
   304                           	opt callstack 0
   305  000954                     start_initialization:
   306                           	opt callstack 0
   307  000954                     __initialization:
   308                           	opt callstack 0
   309                           
   310                           ; Initialize objects allocated to COMRAM (3 bytes)
   311                           ; load TBLPTR registers with __pidataCOMRAM
   312  000954  0E8A               	movlw	low __pidataCOMRAM
   313  000956  6EF6               	movwf	tblptrl,c
   314  000958  0E0D               	movlw	high __pidataCOMRAM
   315  00095A  6EF7               	movwf	tblptrh,c
   316  00095C  0E00               	movlw	low (__pidataCOMRAM shr (0+16))
   317  00095E  6EF8               	movwf	tblptru,c
   318  000960  0009               	tblrd		*+	;fetch initializer
   319  000962  CFF5 F05C          	movff	tablat,__pdataCOMRAM
   320  000966  0009               	tblrd		*+	;fetch initializer
   321  000968  CFF5 F05D          	movff	tablat,__pdataCOMRAM+1
   322  00096C  0009               	tblrd		*+	;fetch initializer
   323  00096E  CFF5 F05E          	movff	tablat,__pdataCOMRAM+2
   324                           
   325                           ; Clear objects allocated to BANK0 (20 bytes)
   326  000972  EE00  F060         	lfsr	0,__pbssBANK0
   327  000976  0E14               	movlw	20
   328  000978                     clear_0:
   329  000978  6AEE               	clrf	postinc0,c
   330  00097A  06E8               	decf	wreg,f,c
   331  00097C  E1FD               	bnz	clear_0
   332                           
   333                           ; Clear objects allocated to COMRAM (26 bytes)
   334  00097E  EE00  F032         	lfsr	0,__pbssCOMRAM
   335  000982  0E1A               	movlw	26
   336  000984                     clear_1:
   337  000984  6AEE               	clrf	postinc0,c
   338  000986  06E8               	decf	wreg,f,c
   339  000988  E1FD               	bnz	clear_1
   340  00098A                     end_of_initialization:
   341                           	opt callstack 0
   342  00098A                     __end_of__initialization:
   343                           	opt callstack 0
   344  00098A  905F               	bcf	int$flags,0,c	;clear compiler interrupt flag (level 1)
   345  00098C  925F               	bcf	int$flags,1,c	;clear compiler interrupt flag (level 2)
   346  00098E  0E00               	movlw	low (__Lmediumconst shr (0+16))
   347  000990  6EF8               	movwf	tblptru,c
   348  000992  0100               	movlb	0
   349  000994  EF6A  F003         	goto	_main	;jump to C main() function
   350                           
   351                           	psect	bssCOMRAM
   352  000032                     __pbssCOMRAM:
   353                           	opt callstack 0
   354  000032                     _status:
   355                           	opt callstack 0
   356  000032                     	ds	8
   357  00003A                     _eusart1RxStatusBuffer:
   358                           	opt callstack 0
   359  00003A                     	ds	8
   360  000042                     _eusart1TxBuffer:
   361                           	opt callstack 0
   362  000042                     	ds	8
   363  00004A                     _eusart1RxCount:
   364                           	opt callstack 0
   365  00004A                     	ds	1
   366  00004B                     _eusart1RxTail:
   367                           	opt callstack 0
   368  00004B                     	ds	1
   369                           
   370                           	psect	dataCOMRAM
   371  00005C                     __pdataCOMRAM:
   372                           	opt callstack 0
   373  00005C                     _servo_max:
   374                           	opt callstack 0
   375  00005C                     	ds	1
   376  00005D                     _servo_min:
   377                           	opt callstack 0
   378  00005D                     	ds	1
   379  00005E                     _servo_trim:
   380                           	opt callstack 0
   381  00005E                     	ds	1
   382                           
   383                           	psect	bssBANK0
   384  000060                     __pbssBANK0:
   385                           	opt callstack 0
   386  000060                     _eusart1RxBuffer:
   387                           	opt callstack 0
   388  000060                     	ds	8
   389  000068                     _carctl:
   390                           	opt callstack 0
   391  000068                     	ds	6
   392  00006E                     _stateTime:
   393                           	opt callstack 0
   394  00006E                     	ds	2
   395  000070                     _eusart1RxLastError:
   396                           	opt callstack 0
   397  000070                     	ds	1
   398  000071                     _eusart1RxHead:
   399                           	opt callstack 0
   400  000071                     	ds	1
   401  000072                     _eusart1TxTail:
   402                           	opt callstack 0
   403  000072                     	ds	1
   404  000073                     _eusart1TxHead:
   405                           	opt callstack 0
   406  000073                     	ds	1
   407                           
   408                           	psect	cstackBANK0
   409  00007F                     __pcstackBANK0:
   410                           	opt callstack 0
   411  00007F                     carcontrol_steering@steering:
   412                           	opt callstack 0
   413  00007F                     carcontrol_throttle@throttle:
   414                           	opt callstack 0
   415  00007F                     IOCCF2_SetInterruptHandler@InterruptHandler:
   416                           	opt callstack 0
   417  00007F                     TMR2_SetInterruptHandler@InterruptHandler:
   418                           	opt callstack 0
   419  00007F                     CCP1_SetCallBack@customCallBack:
   420                           	opt callstack 0
   421  00007F                     TMR1_SetInterruptHandler@InterruptHandler:
   422                           	opt callstack 0
   423  00007F                     EUSART1_SetFramingErrorHandler@interruptHandler:
   424                           	opt callstack 0
   425  00007F                     EUSART1_SetOverrunErrorHandler@interruptHandler:
   426                           	opt callstack 0
   427  00007F                     EUSART1_SetErrorHandler@interruptHandler:
   428                           	opt callstack 0
   429  00007F                     EUSART1_SetTxInterruptHandler@interruptHandler:
   430                           	opt callstack 0
   431  00007F                     EUSART1_SetRxInterruptHandler@interruptHandler:
   432                           	opt callstack 0
   433  00007F                     ADCC_SetADIInterruptHandler@InterruptHandler:
   434                           	opt callstack 0
   435  00007F                     TMR3_SetInterruptHandler@InterruptHandler:
   436                           	opt callstack 0
   437                           
   438                           ; 2 bytes @ 0x0
   439  00007F                     	ds	2
   440  000081                     ??_TMR3_Initialize:
   441  000081                     ??_TMR1_Initialize:
   442  000081                     
   443                           ; 1 bytes @ 0x2
   444  000081                     	ds	2
   445  000083                     ??_main:
   446                           
   447                           ; 1 bytes @ 0x4
   448  000083                     	ds	2
   449                           
   450                           	psect	cstackCOMRAM
   451  000001                     __pcstackCOMRAM:
   452                           	opt callstack 0
   453  000001                     ??_carcontrol_ISR:
   454  000001                     ?___xxtofl:
   455                           	opt callstack 0
   456  000001                     TMR1_WriteTimer@timerVal:
   457                           	opt callstack 0
   458  000001                     TMR3_WriteTimer@timerVal:
   459                           	opt callstack 0
   460  000001                     i2IOCCF2_SetInterruptHandler@InterruptHandler:
   461                           	opt callstack 0
   462  000001                     i2TMR1_SetInterruptHandler@InterruptHandler:
   463                           	opt callstack 0
   464  000001                     ___xxtofl@val:
   465                           	opt callstack 0
   466                           
   467                           ; 4 bytes @ 0x0
   468  000001                     	ds	2
   469  000003                     
   470                           ; 1 bytes @ 0x2
   471  000003                     	ds	1
   472  000004                     
   473                           ; 1 bytes @ 0x3
   474  000004                     	ds	1
   475  000005                     ??___xxtofl:
   476                           
   477                           ; 1 bytes @ 0x4
   478  000005                     	ds	4
   479  000009                     ___xxtofl@sign:
   480                           	opt callstack 0
   481                           
   482                           ; 1 bytes @ 0x8
   483  000009                     	ds	1
   484  00000A                     ___xxtofl@exp:
   485                           	opt callstack 0
   486                           
   487                           ; 1 bytes @ 0x9
   488  00000A                     	ds	1
   489  00000B                     ___xxtofl@arg:
   490                           	opt callstack 0
   491                           
   492                           ; 4 bytes @ 0xA
   493  00000B                     	ds	4
   494  00000F                     ?___flmul:
   495                           	opt callstack 0
   496  00000F                     ___flmul@b:
   497                           	opt callstack 0
   498                           
   499                           ; 4 bytes @ 0xE
   500  00000F                     	ds	4
   501  000013                     ___flmul@a:
   502                           	opt callstack 0
   503                           
   504                           ; 4 bytes @ 0x12
   505  000013                     	ds	4
   506  000017                     ??___flmul:
   507                           
   508                           ; 1 bytes @ 0x16
   509  000017                     	ds	4
   510  00001B                     ___flmul@sign:
   511                           	opt callstack 0
   512                           
   513                           ; 1 bytes @ 0x1A
   514  00001B                     	ds	1
   515  00001C                     ___flmul@grs:
   516                           	opt callstack 0
   517                           
   518                           ; 4 bytes @ 0x1B
   519  00001C                     	ds	4
   520  000020                     ___flmul@aexp:
   521                           	opt callstack 0
   522                           
   523                           ; 1 bytes @ 0x1F
   524  000020                     	ds	1
   525  000021                     ___flmul@bexp:
   526                           	opt callstack 0
   527                           
   528                           ; 1 bytes @ 0x20
   529  000021                     	ds	1
   530  000022                     ___flmul@prod:
   531                           	opt callstack 0
   532                           
   533                           ; 4 bytes @ 0x21
   534  000022                     	ds	4
   535  000026                     ___flmul@temp:
   536                           	opt callstack 0
   537                           
   538                           ; 2 bytes @ 0x25
   539  000026                     	ds	2
   540  000028                     ping_CCP1_triggered@timeOfFlight:
   541                           	opt callstack 0
   542                           
   543                           ; 2 bytes @ 0x27
   544  000028                     	ds	2
   545  00002A                     CCP1_CaptureISR@module:
   546                           	opt callstack 0
   547                           
   548                           ; 2 bytes @ 0x29
   549  00002A                     	ds	2
   550  00002C                     ??_INTERRUPT_InterruptManager:
   551                           
   552                           ; 1 bytes @ 0x2B
   553  00002C                     	ds	6
   554                           
   555 ;;
   556 ;;Main: autosize = 0, tempsize = 2, incstack = 0, save=0
   557 ;;
   558 ;; *************** function _main *****************
   559 ;; Defined at:
   560 ;;		line 52 in file "main.c"
   561 ;; Parameters:    Size  Location     Type
   562 ;;		None
   563 ;; Auto vars:     Size  Location     Type
   564 ;;		None
   565 ;; Return value:  Size  Location     Type
   566 ;;                  1    wreg      void 
   567 ;; Registers used:
   568 ;;		wreg, status,2, status,0, cstack
   569 ;; Tracked objects:
   570 ;;		On entry : 0/0
   571 ;;		On exit  : 0/0
   572 ;;		Unchanged: 0/0
   573 ;; Data sizes:     COMRAM   BANK0   BANK1   BANK2   BANK3   BANK4   BANK5   BANK6   BANK7
   574 ;;      Params:         0       0       0       0       0       0       0       0       0
   575 ;;      Locals:         0       0       0       0       0       0       0       0       0
   576 ;;      Temps:          0       2       0       0       0       0       0       0       0
   577 ;;      Totals:         0       2       0       0       0       0       0       0       0
   578 ;;Total ram usage:        2 bytes
   579 ;; Hardware stack levels required when called:    8
   580 ;; This function calls:
   581 ;;		_SYSTEM_Initialize
   582 ;;		_carcontrol_init
   583 ;;		_carcontrol_steering
   584 ;;		_carcontrol_throttle
   585 ;; This function is called by:
   586 ;;		Startup code after reset
   587 ;; This function uses a non-reentrant model
   588 ;;
   589                           
   590                           	psect	text0
   591  0006D4                     __ptext0:
   592                           	opt callstack 0
   593  0006D4                     _main:
   594                           	opt callstack 23
   595                           
   596                           ;main.c: 55:     SYSTEM_Initialize();
   597                           
   598                           ;incstack = 0
   599  0006D4  ECC5  F005         	call	_SYSTEM_Initialize	;wreg free
   600                           
   601                           ;main.c: 62:     (INTCONbits.GIE = 1);
   602  0006D8  8EF2               	bsf	4082,7,c	;volatile
   603                           
   604                           ;main.c: 68:     (INTCONbits.PEIE = 1);
   605  0006DA  8CF2               	bsf	4082,6,c	;volatile
   606                           
   607                           ;main.c: 73:     carcontrol_init();
   608  0006DC  ECEE  F004         	call	_carcontrol_init	;wreg free
   609                           
   610                           ;main.c: 78:     carcontrol_throttle(0);
   611  0006E0  0E00               	movlw	0
   612  0006E2  EC69  F006         	call	_carcontrol_throttle
   613                           
   614                           ;main.c: 79:     _delay((unsigned long)((500)*(64000000/4000.0)));
   615  0006E6  0E29               	movlw	41
   616  0006E8  0100               	movlb	0	; () banked
   617  0006EA  6F84               	movwf	(??_main+1)& (0+255),b
   618  0006EC  0E96               	movlw	150
   619  0006EE  6F83               	movwf	??_main& (0+255),b
   620  0006F0  0E7F               	movlw	127
   621  0006F2                     u1747:
   622  0006F2  2EE8               	decfsz	wreg,f,c
   623  0006F4  D7FE               	bra	u1747
   624  0006F6  2F83               	decfsz	??_main& (0+255),f,b
   625  0006F8  D7FC               	bra	u1747
   626  0006FA  2F84               	decfsz	(??_main+1)& (0+255),f,b
   627  0006FC  D7FA               	bra	u1747
   628                           
   629                           ;main.c: 80:     carcontrol_steering(0);
   630  0006FE  0E00               	movlw	0
   631  000700  EC22  F005         	call	_carcontrol_steering
   632                           
   633                           ;main.c: 82:     _delay((unsigned long)((500)*(64000000/4000.0)));
   634  000704  0E29               	movlw	41
   635  000706  0100               	movlb	0	; () banked
   636  000708  6F84               	movwf	(??_main+1)& (0+255),b
   637  00070A  0E96               	movlw	150
   638  00070C  6F83               	movwf	??_main& (0+255),b
   639  00070E  0E7F               	movlw	127
   640  000710                     u1757:
   641  000710  2EE8               	decfsz	wreg,f,c
   642  000712  D7FE               	bra	u1757
   643  000714  2F83               	decfsz	??_main& (0+255),f,b
   644  000716  D7FC               	bra	u1757
   645  000718  2F84               	decfsz	(??_main+1)& (0+255),f,b
   646  00071A  D7FA               	bra	u1757
   647  00071C                     l778:
   648                           
   649                           ;main.c: 84:     {;main.c: 85:         _delay((unsigned long)((500)*(64000000/4000.0)));
   650  00071C  0E29               	movlw	41
   651  00071E  0100               	movlb	0	; () banked
   652  000720  6F84               	movwf	(??_main+1)& (0+255),b
   653  000722  0E96               	movlw	150
   654  000724  6F83               	movwf	??_main& (0+255),b
   655  000726  0E7F               	movlw	127
   656  000728                     u1767:
   657  000728  2EE8               	decfsz	wreg,f,c
   658  00072A  D7FE               	bra	u1767
   659  00072C  2F83               	decfsz	??_main& (0+255),f,b
   660  00072E  D7FC               	bra	u1767
   661  000730  2F84               	decfsz	(??_main+1)& (0+255),f,b
   662  000732  D7FA               	bra	u1767
   663                           
   664                           ;main.c: 86:         carcontrol_throttle(0);
   665  000734  0E00               	movlw	0
   666  000736  EC69  F006         	call	_carcontrol_throttle
   667                           
   668                           ;main.c: 87:         _delay((unsigned long)((500)*(64000000/4000.0)));
   669  00073A  0E29               	movlw	41
   670  00073C  0100               	movlb	0	; () banked
   671  00073E  6F84               	movwf	(??_main+1)& (0+255),b
   672  000740  0E96               	movlw	150
   673  000742  6F83               	movwf	??_main& (0+255),b
   674  000744  0E7F               	movlw	127
   675  000746                     u1777:
   676  000746  2EE8               	decfsz	wreg,f,c
   677  000748  D7FE               	bra	u1777
   678  00074A  2F83               	decfsz	??_main& (0+255),f,b
   679  00074C  D7FC               	bra	u1777
   680  00074E  2F84               	decfsz	(??_main+1)& (0+255),f,b
   681  000750  D7FA               	bra	u1777
   682                           
   683                           ;main.c: 88:         carcontrol_throttle(30);
   684  000752  0E1E               	movlw	30
   685  000754  EC69  F006         	call	_carcontrol_throttle
   686  000758  D7E1               	goto	l778
   687  00075A                     __end_of_main:
   688                           	opt callstack 0
   689                           
   690 ;; *************** function _carcontrol_init *****************
   691 ;; Defined at:
   692 ;;		line 27 in file "car_ctrl.c"
   693 ;; Parameters:    Size  Location     Type
   694 ;;		None
   695 ;; Auto vars:     Size  Location     Type
   696 ;;		None
   697 ;; Return value:  Size  Location     Type
   698 ;;                  1    wreg      void 
   699 ;; Registers used:
   700 ;;		wreg, status,2, status,0, cstack
   701 ;; Tracked objects:
   702 ;;		On entry : 0/0
   703 ;;		On exit  : 0/0
   704 ;;		Unchanged: 0/0
   705 ;; Data sizes:     COMRAM   BANK0   BANK1   BANK2   BANK3   BANK4   BANK5   BANK6   BANK7
   706 ;;      Params:         0       0       0       0       0       0       0       0       0
   707 ;;      Locals:         0       0       0       0       0       0       0       0       0
   708 ;;      Temps:          0       0       0       0       0       0       0       0       0
   709 ;;      Totals:         0       0       0       0       0       0       0       0       0
   710 ;;Total ram usage:        0 bytes
   711 ;; Hardware stack levels used:    1
   712 ;; Hardware stack levels required when called:    6
   713 ;; This function calls:
   714 ;;		_TMR2_SetInterruptHandler
   715 ;;		_carcontrol_steering
   716 ;;		_carcontrol_throttle
   717 ;; This function is called by:
   718 ;;		_main
   719 ;; This function uses a non-reentrant model
   720 ;;
   721                           
   722                           	psect	text1
   723  0009DC                     __ptext1:
   724                           	opt callstack 0
   725  0009DC                     _carcontrol_init:
   726                           	opt callstack 24
   727                           
   728                           ;car_ctrl.c: 28:     carctl.state = state_unset;
   729                           
   730                           ;incstack = 0
   731  0009DC  0E00               	movlw	0
   732  0009DE  0100               	movlb	0	; () banked
   733  0009E0  6F69               	movwf	(_carctl+1)& (0+255),b	;volatile
   734                           
   735                           ; BSR set to: 0
   736                           ;car_ctrl.c: 29:     carcontrol_throttle(0);
   737  0009E2  0E00               	movlw	0
   738  0009E4  EC69  F006         	call	_carcontrol_throttle
   739                           
   740                           ;car_ctrl.c: 30:     carcontrol_steering(0);
   741  0009E8  0E00               	movlw	0
   742  0009EA  EC22  F005         	call	_carcontrol_steering
   743                           
   744                           ;car_ctrl.c: 31:     carctl.servoHighTime = 50;
   745  0009EE  0E32               	movlw	50
   746  0009F0  0100               	movlb	0	; () banked
   747  0009F2  6F6D               	movwf	(_carctl+5)& (0+255),b	;volatile
   748                           
   749                           ; BSR set to: 0
   750                           ;car_ctrl.c: 33:     TMR2_SetInterruptHandler(carcontrol_ISR);
   751  0009F4  0E54               	movlw	low _carcontrol_ISR
   752  0009F6  6F7F               	movwf	TMR2_SetInterruptHandler@InterruptHandler& (0+255),b
   753  0009F8  0E05               	movlw	high _carcontrol_ISR
   754  0009FA  6F80               	movwf	(TMR2_SetInterruptHandler@InterruptHandler+1)& (0+255),b
   755  0009FC  EC7F  F006         	call	_TMR2_SetInterruptHandler	;wreg free
   756                           
   757                           ;car_ctrl.c: 34:     stateTime = 0;
   758  000A00  0E00               	movlw	0
   759  000A02  0100               	movlb	0	; () banked
   760  000A04  6F6F               	movwf	(_stateTime+1)& (0+255),b
   761  000A06  0E00               	movlw	0
   762  000A08  6F6E               	movwf	_stateTime& (0+255),b
   763                           
   764                           ; BSR set to: 0
   765                           ;car_ctrl.c: 35:     carctl.initialized = 1;
   766  000A0A  0E01               	movlw	1
   767  000A0C  6F68               	movwf	_carctl& (0+255),b	;volatile
   768                           
   769                           ; BSR set to: 0
   770  000A0E  0012               	return		;funcret
   771  000A10                     __end_of_carcontrol_init:
   772                           	opt callstack 0
   773                           
   774 ;; *************** function _carcontrol_throttle *****************
   775 ;; Defined at:
   776 ;;		line 118 in file "car_ctrl.c"
   777 ;; Parameters:    Size  Location     Type
   778 ;;  throttle        1    wreg     unsigned char 
   779 ;; Auto vars:     Size  Location     Type
   780 ;;  throttle        1    0[BANK0 ] unsigned char 
   781 ;; Return value:  Size  Location     Type
   782 ;;                  1    wreg      void 
   783 ;; Registers used:
   784 ;;		wreg, status,2, status,0
   785 ;; Tracked objects:
   786 ;;		On entry : 0/0
   787 ;;		On exit  : 0/0
   788 ;;		Unchanged: 0/0
   789 ;; Data sizes:     COMRAM   BANK0   BANK1   BANK2   BANK3   BANK4   BANK5   BANK6   BANK7
   790 ;;      Params:         0       0       0       0       0       0       0       0       0
   791 ;;      Locals:         0       1       0       0       0       0       0       0       0
   792 ;;      Temps:          0       0       0       0       0       0       0       0       0
   793 ;;      Totals:         0       1       0       0       0       0       0       0       0
   794 ;;Total ram usage:        1 bytes
   795 ;; Hardware stack levels used:    1
   796 ;; Hardware stack levels required when called:    5
   797 ;; This function calls:
   798 ;;		Nothing
   799 ;; This function is called by:
   800 ;;		_main
   801 ;;		_carcontrol_init
   802 ;; This function uses a non-reentrant model
   803 ;;
   804                           
   805                           	psect	text2
   806  000CD2                     __ptext2:
   807                           	opt callstack 0
   808  000CD2                     _carcontrol_throttle:
   809                           	opt callstack 25
   810                           
   811                           ; BSR set to: 0
   812                           ;incstack = 0
   813                           ;carcontrol_throttle@throttle stored from wreg
   814  000CD2  0100               	movlb	0	; () banked
   815  000CD4  6F7F               	movwf	carcontrol_throttle@throttle& (0+255),b
   816                           
   817                           ;car_ctrl.c: 120:     if (throttle > 100) throttle = 100;
   818  000CD6  0E64               	movlw	100
   819  000CD8  0100               	movlb	0	; () banked
   820  000CDA  657F               	cpfsgt	carcontrol_throttle@throttle& (0+255),b
   821  000CDC  D002               	goto	l2871
   822                           
   823                           ; BSR set to: 0
   824  000CDE  0E64               	movlw	100
   825  000CE0  6F7F               	movwf	carcontrol_throttle@throttle& (0+255),b
   826  000CE2                     l2871:
   827                           
   828                           ; BSR set to: 0
   829                           ;car_ctrl.c: 121:     carctl.throttleHighTime = throttle;
   830  000CE2  C07F  F06C         	movff	carcontrol_throttle@throttle,_carctl+4	;volatile
   831                           
   832                           ; BSR set to: 0
   833  000CE6  0012               	return		;funcret
   834  000CE8                     __end_of_carcontrol_throttle:
   835                           	opt callstack 0
   836                           
   837 ;; *************** function _carcontrol_steering *****************
   838 ;; Defined at:
   839 ;;		line 93 in file "car_ctrl.c"
   840 ;; Parameters:    Size  Location     Type
   841 ;;  steering        1    wreg     char 
   842 ;; Auto vars:     Size  Location     Type
   843 ;;  steering        1    0[BANK0 ] char 
   844 ;; Return value:  Size  Location     Type
   845 ;;                  1    wreg      void 
   846 ;; Registers used:
   847 ;;		wreg, status,2, status,0
   848 ;; Tracked objects:
   849 ;;		On entry : 0/0
   850 ;;		On exit  : 0/0
   851 ;;		Unchanged: 0/0
   852 ;; Data sizes:     COMRAM   BANK0   BANK1   BANK2   BANK3   BANK4   BANK5   BANK6   BANK7
   853 ;;      Params:         0       0       0       0       0       0       0       0       0
   854 ;;      Locals:         0       1       0       0       0       0       0       0       0
   855 ;;      Temps:          0       0       0       0       0       0       0       0       0
   856 ;;      Totals:         0       1       0       0       0       0       0       0       0
   857 ;;Total ram usage:        1 bytes
   858 ;; Hardware stack levels used:    1
   859 ;; Hardware stack levels required when called:    5
   860 ;; This function calls:
   861 ;;		Nothing
   862 ;; This function is called by:
   863 ;;		_main
   864 ;;		_carcontrol_init
   865 ;; This function uses a non-reentrant model
   866 ;;
   867                           
   868                           	psect	text3
   869  000A44                     __ptext3:
   870                           	opt callstack 0
   871  000A44                     _carcontrol_steering:
   872                           	opt callstack 25
   873                           
   874                           ; BSR set to: 0
   875                           ;incstack = 0
   876                           ;carcontrol_steering@steering stored from wreg
   877  000A44  0100               	movlb	0	; () banked
   878  000A46  6F7F               	movwf	carcontrol_steering@steering& (0+255),b
   879                           
   880                           ;car_ctrl.c: 106:     if (steering < servo_min) steering = servo_min;
   881  000A48  0100               	movlb	0	; () banked
   882  000A4A  517F               	movf	carcontrol_steering@steering& (0+255),w,b
   883  000A4C  0A80               	xorlw	128
   884  000A4E  0F9E               	addlw	158
   885  000A50  B0D8               	btfsc	status,0,c
   886  000A52  D002               	goto	l2877
   887                           
   888                           ; BSR set to: 0
   889  000A54  0EE2               	movlw	226
   890  000A56  6F7F               	movwf	carcontrol_steering@steering& (0+255),b
   891  000A58                     l2877:
   892                           
   893                           ; BSR set to: 0
   894                           ;car_ctrl.c: 107:     if (steering > servo_max) steering = servo_max;
   895  000A58  517F               	movf	carcontrol_steering@steering& (0+255),w,b
   896  000A5A  0A80               	xorlw	128
   897  000A5C  0F63               	addlw	-157
   898  000A5E  A0D8               	btfss	status,0,c
   899  000A60  D002               	goto	l2881
   900                           
   901                           ; BSR set to: 0
   902  000A62  0E1C               	movlw	28
   903  000A64  6F7F               	movwf	carcontrol_steering@steering& (0+255),b
   904  000A66                     l2881:
   905                           
   906                           ; BSR set to: 0
   907                           ;car_ctrl.c: 109:     steering = steering + servo_trim;
   908  000A66  517F               	movf	carcontrol_steering@steering& (0+255),w,b
   909  000A68  0FEF               	addlw	239
   910  000A6A  6F7F               	movwf	carcontrol_steering@steering& (0+255),b
   911                           
   912                           ; BSR set to: 0
   913                           ;car_ctrl.c: 111:     carctl.servoHighTime = steering + 50;
   914  000A6C  517F               	movf	carcontrol_steering@steering& (0+255),w,b
   915  000A6E  0F32               	addlw	50
   916  000A70  6F6D               	movwf	(_carctl+5)& (0+255),b	;volatile
   917                           
   918                           ; BSR set to: 0
   919  000A72  0012               	return		;funcret
   920  000A74                     __end_of_carcontrol_steering:
   921                           	opt callstack 0
   922                           
   923 ;; *************** function _SYSTEM_Initialize *****************
   924 ;; Defined at:
   925 ;;		line 50 in file "mcc_generated_files/mcc.c"
   926 ;; Parameters:    Size  Location     Type
   927 ;;		None
   928 ;; Auto vars:     Size  Location     Type
   929 ;;		None
   930 ;; Return value:  Size  Location     Type
   931 ;;                  1    wreg      void 
   932 ;; Registers used:
   933 ;;		wreg, status,2, status,0, cstack
   934 ;; Tracked objects:
   935 ;;		On entry : 0/0
   936 ;;		On exit  : 0/0
   937 ;;		Unchanged: 0/0
   938 ;; Data sizes:     COMRAM   BANK0   BANK1   BANK2   BANK3   BANK4   BANK5   BANK6   BANK7
   939 ;;      Params:         0       0       0       0       0       0       0       0       0
   940 ;;      Locals:         0       0       0       0       0       0       0       0       0
   941 ;;      Temps:          0       0       0       0       0       0       0       0       0
   942 ;;      Totals:         0       0       0       0       0       0       0       0       0
   943 ;;Total ram usage:        0 bytes
   944 ;; Hardware stack levels used:    1
   945 ;; Hardware stack levels required when called:    7
   946 ;; This function calls:
   947 ;;		_ADCC_Initialize
   948 ;;		_CCP1_Initialize
   949 ;;		_EUSART1_Initialize
   950 ;;		_INTERRUPT_Initialize
   951 ;;		_OSCILLATOR_Initialize
   952 ;;		_PIN_MANAGER_Initialize
   953 ;;		_PMD_Initialize
   954 ;;		_TMR1_Initialize
   955 ;;		_TMR2_Initialize
   956 ;;		_TMR3_Initialize
   957 ;; This function is called by:
   958 ;;		_main
   959 ;; This function uses a non-reentrant model
   960 ;;
   961                           
   962                           	psect	text4
   963  000B8A                     __ptext4:
   964                           	opt callstack 0
   965  000B8A                     _SYSTEM_Initialize:
   966                           	opt callstack 23
   967                           
   968                           ;mcc_generated_files/mcc.c: 52:     INTERRUPT_Initialize();
   969                           
   970                           ; BSR set to: 0
   971                           ;incstack = 0
   972  000B8A  ECC1  F006         	call	_INTERRUPT_Initialize	;wreg free
   973                           
   974                           ;mcc_generated_files/mcc.c: 53:     PMD_Initialize();
   975  000B8E  EC33  F006         	call	_PMD_Initialize	;wreg free
   976                           
   977                           ;mcc_generated_files/mcc.c: 54:     PIN_MANAGER_Initialize();
   978  000B92  ECF0  F003         	call	_PIN_MANAGER_Initialize	;wreg free
   979                           
   980                           ;mcc_generated_files/mcc.c: 55:     OSCILLATOR_Initialize();
   981  000B96  EC5D  F006         	call	_OSCILLATOR_Initialize	;wreg free
   982                           
   983                           ;mcc_generated_files/mcc.c: 56:     ADCC_Initialize();
   984  000B9A  EC57  F004         	call	_ADCC_Initialize	;wreg free
   985                           
   986                           ;mcc_generated_files/mcc.c: 57:     CCP1_Initialize();
   987  000B9E  EC81  F005         	call	_CCP1_Initialize	;wreg free
   988                           
   989                           ;mcc_generated_files/mcc.c: 58:     TMR3_Initialize();
   990  000BA2  ECCC  F004         	call	_TMR3_Initialize	;wreg free
   991                           
   992                           ;mcc_generated_files/mcc.c: 59:     TMR2_Initialize();
   993  000BA6  EC6A  F005         	call	_TMR2_Initialize	;wreg free
   994                           
   995                           ;mcc_generated_files/mcc.c: 60:     TMR1_Initialize();
   996  000BAA  EC87  F004         	call	_TMR1_Initialize	;wreg free
   997                           
   998                           ;mcc_generated_files/mcc.c: 61:     EUSART1_Initialize();
   999  000BAE  ECAD  F003         	call	_EUSART1_Initialize	;wreg free
  1000  000BB2  0012               	return		;funcret
  1001  000BB4                     __end_of_SYSTEM_Initialize:
  1002                           	opt callstack 0
  1003                           
  1004 ;; *************** function _TMR3_Initialize *****************
  1005 ;; Defined at:
  1006 ;;		line 64 in file "mcc_generated_files/tmr3.c"
  1007 ;; Parameters:    Size  Location     Type
  1008 ;;		None
  1009 ;; Auto vars:     Size  Location     Type
  1010 ;;		None
  1011 ;; Return value:  Size  Location     Type
  1012 ;;                  1    wreg      void 
  1013 ;; Registers used:
  1014 ;;		wreg, status,2, status,0, cstack
  1015 ;; Tracked objects:
  1016 ;;		On entry : 0/0
  1017 ;;		On exit  : 0/0
  1018 ;;		Unchanged: 0/0
  1019 ;; Data sizes:     COMRAM   BANK0   BANK1   BANK2   BANK3   BANK4   BANK5   BANK6   BANK7
  1020 ;;      Params:         0       0       0       0       0       0       0       0       0
  1021 ;;      Locals:         0       0       0       0       0       0       0       0       0
  1022 ;;      Temps:          0       2       0       0       0       0       0       0       0
  1023 ;;      Totals:         0       2       0       0       0       0       0       0       0
  1024 ;;Total ram usage:        2 bytes
  1025 ;; Hardware stack levels used:    1
  1026 ;; Hardware stack levels required when called:    6
  1027 ;; This function calls:
  1028 ;;		_TMR3_SetInterruptHandler
  1029 ;; This function is called by:
  1030 ;;		_SYSTEM_Initialize
  1031 ;; This function uses a non-reentrant model
  1032 ;;
  1033                           
  1034                           	psect	text5
  1035  000998                     __ptext5:
  1036                           	opt callstack 0
  1037  000998                     _TMR3_Initialize:
  1038                           	opt callstack 23
  1039                           
  1040                           ;mcc_generated_files/tmr3.c: 69:     T3GCON = 0x00;
  1041                           
  1042                           ;incstack = 0
  1043  000998  0E00               	movlw	0
  1044  00099A  6EC9               	movwf	4041,c	;volatile
  1045                           
  1046                           ;mcc_generated_files/tmr3.c: 72:     T3GATE = 0x00;
  1047  00099C  0E00               	movlw	0
  1048  00099E  6ECA               	movwf	4042,c	;volatile
  1049                           
  1050                           ;mcc_generated_files/tmr3.c: 75:     T3CLK = 0x01;
  1051  0009A0  0E01               	movlw	1
  1052  0009A2  6ECB               	movwf	4043,c	;volatile
  1053                           
  1054                           ;mcc_generated_files/tmr3.c: 78:     TMR3H = 0xFF;
  1055  0009A4  68C7               	setf	4039,c	;volatile
  1056                           
  1057                           ;mcc_generated_files/tmr3.c: 81:     TMR3L = 0x10;
  1058  0009A6  0E10               	movlw	16
  1059  0009A8  6EC6               	movwf	4038,c	;volatile
  1060                           
  1061                           ;mcc_generated_files/tmr3.c: 84:     timer3ReloadVal=(uint16_t)((TMR3H << 8) | TMR3L);
  1062  0009AA  50C6               	movf	4038,w,c	;volatile
  1063  0009AC  CFC7 F081          	movff	4039,??_TMR3_Initialize	;volatile
  1064  0009B0  0100               	movlb	0	; () banked
  1065  0009B2  6B82               	clrf	(??_TMR3_Initialize+1)& (0+255),b
  1066  0009B4  C081  F082         	movff	??_TMR3_Initialize,??_TMR3_Initialize+1
  1067  0009B8  6B81               	clrf	??_TMR3_Initialize& (0+255),b
  1068  0009BA  1181               	iorwf	??_TMR3_Initialize& (0+255),w,b
  1069  0009BC  6E4E               	movwf	_timer3ReloadVal,c	;volatile
  1070  0009BE  5182               	movf	(??_TMR3_Initialize+1)& (0+255),w,b
  1071  0009C0  6E4F               	movwf	_timer3ReloadVal+1,c	;volatile
  1072                           
  1073                           ; BSR set to: 0
  1074                           ;mcc_generated_files/tmr3.c: 87:     PIR4bits.TMR3IF = 0;
  1075  0009C2  010E               	movlb	14	; () banked
  1076  0009C4  95C9               	bcf	201,2,b	;volatile
  1077                           
  1078                           ; BSR set to: 14
  1079                           ;mcc_generated_files/tmr3.c: 90:     PIE4bits.TMR3IE = 1;
  1080  0009C6  85C1               	bsf	193,2,b	;volatile
  1081                           
  1082                           ; BSR set to: 14
  1083                           ;mcc_generated_files/tmr3.c: 93:     TMR3_SetInterruptHandler(TMR3_DefaultInterruptHandl
      +                          er);
  1084  0009C8  0E8E               	movlw	low _TMR3_DefaultInterruptHandler
  1085  0009CA  0100               	movlb	0	; () banked
  1086  0009CC  6F7F               	movwf	TMR3_SetInterruptHandler@InterruptHandler& (0+255),b
  1087  0009CE  0E0D               	movlw	high _TMR3_DefaultInterruptHandler
  1088  0009D0  6F80               	movwf	(TMR3_SetInterruptHandler@InterruptHandler+1)& (0+255),b
  1089  0009D2  EC7A  F006         	call	_TMR3_SetInterruptHandler	;wreg free
  1090                           
  1091                           ;mcc_generated_files/tmr3.c: 96:     T3CON = 0x01;
  1092  0009D6  0E01               	movlw	1
  1093  0009D8  6EC8               	movwf	4040,c	;volatile
  1094  0009DA  0012               	return		;funcret
  1095  0009DC                     __end_of_TMR3_Initialize:
  1096                           	opt callstack 0
  1097                           
  1098 ;; *************** function _TMR3_SetInterruptHandler *****************
  1099 ;; Defined at:
  1100 ;;		line 178 in file "mcc_generated_files/tmr3.c"
  1101 ;; Parameters:    Size  Location     Type
  1102 ;;  InterruptHan    2    0[BANK0 ] PTR FTN()void 
  1103 ;;		 -> TMR3_DefaultInterruptHandler(1), 
  1104 ;; Auto vars:     Size  Location     Type
  1105 ;;		None
  1106 ;; Return value:  Size  Location     Type
  1107 ;;                  1    wreg      void 
  1108 ;; Registers used:
  1109 ;;		wreg, status,2, status,0
  1110 ;; Tracked objects:
  1111 ;;		On entry : 0/0
  1112 ;;		On exit  : 0/0
  1113 ;;		Unchanged: 0/0
  1114 ;; Data sizes:     COMRAM   BANK0   BANK1   BANK2   BANK3   BANK4   BANK5   BANK6   BANK7
  1115 ;;      Params:         0       2       0       0       0       0       0       0       0
  1116 ;;      Locals:         0       0       0       0       0       0       0       0       0
  1117 ;;      Temps:          0       0       0       0       0       0       0       0       0
  1118 ;;      Totals:         0       2       0       0       0       0       0       0       0
  1119 ;;Total ram usage:        2 bytes
  1120 ;; Hardware stack levels used:    1
  1121 ;; Hardware stack levels required when called:    5
  1122 ;; This function calls:
  1123 ;;		Nothing
  1124 ;; This function is called by:
  1125 ;;		_TMR3_Initialize
  1126 ;; This function uses a non-reentrant model
  1127 ;;
  1128                           
  1129                           	psect	text6
  1130  000CF4                     __ptext6:
  1131                           	opt callstack 0
  1132  000CF4                     _TMR3_SetInterruptHandler:
  1133                           	opt callstack 23
  1134                           
  1135                           ;mcc_generated_files/tmr3.c: 179:     TMR3_InterruptHandler = InterruptHandler;
  1136                           
  1137                           ;incstack = 0
  1138  000CF4  C07F  F04C         	movff	TMR3_SetInterruptHandler@InterruptHandler,_TMR3_InterruptHandler
  1139  000CF8  C080  F04D         	movff	TMR3_SetInterruptHandler@InterruptHandler+1,_TMR3_InterruptHandler+1
  1140  000CFC  0012               	return		;funcret
  1141  000CFE                     __end_of_TMR3_SetInterruptHandler:
  1142                           	opt callstack 0
  1143                           
  1144 ;; *************** function _TMR2_Initialize *****************
  1145 ;; Defined at:
  1146 ;;		line 64 in file "mcc_generated_files/tmr2.c"
  1147 ;; Parameters:    Size  Location     Type
  1148 ;;		None
  1149 ;; Auto vars:     Size  Location     Type
  1150 ;;		None
  1151 ;; Return value:  Size  Location     Type
  1152 ;;                  1    wreg      void 
  1153 ;; Registers used:
  1154 ;;		wreg, status,2, status,0, cstack
  1155 ;; Tracked objects:
  1156 ;;		On entry : 0/0
  1157 ;;		On exit  : 0/0
  1158 ;;		Unchanged: 0/0
  1159 ;; Data sizes:     COMRAM   BANK0   BANK1   BANK2   BANK3   BANK4   BANK5   BANK6   BANK7
  1160 ;;      Params:         0       0       0       0       0       0       0       0       0
  1161 ;;      Locals:         0       0       0       0       0       0       0       0       0
  1162 ;;      Temps:          0       0       0       0       0       0       0       0       0
  1163 ;;      Totals:         0       0       0       0       0       0       0       0       0
  1164 ;;Total ram usage:        0 bytes
  1165 ;; Hardware stack levels used:    1
  1166 ;; Hardware stack levels required when called:    6
  1167 ;; This function calls:
  1168 ;;		_TMR2_SetInterruptHandler
  1169 ;; This function is called by:
  1170 ;;		_SYSTEM_Initialize
  1171 ;; This function uses a non-reentrant model
  1172 ;;
  1173                           
  1174                           	psect	text7
  1175  000AD4                     __ptext7:
  1176                           	opt callstack 0
  1177  000AD4                     _TMR2_Initialize:
  1178                           	opt callstack 23
  1179                           
  1180                           ;mcc_generated_files/tmr2.c: 69:     T2CLKCON = 0x01;
  1181                           
  1182                           ;incstack = 0
  1183  000AD4  0E01               	movlw	1
  1184  000AD6  6EBE               	movwf	4030,c	;volatile
  1185                           
  1186                           ;mcc_generated_files/tmr2.c: 72:     T2HLT = 0x00;
  1187  000AD8  0E00               	movlw	0
  1188  000ADA  6EBD               	movwf	4029,c	;volatile
  1189                           
  1190                           ;mcc_generated_files/tmr2.c: 75:     T2RST = 0x00;
  1191  000ADC  0E00               	movlw	0
  1192  000ADE  6EBF               	movwf	4031,c	;volatile
  1193                           
  1194                           ;mcc_generated_files/tmr2.c: 78:     T2PR = 0x00;
  1195  000AE0  0E00               	movlw	0
  1196  000AE2  6EBB               	movwf	4027,c	;volatile
  1197                           
  1198                           ;mcc_generated_files/tmr2.c: 81:     T2TMR = 0x00;
  1199  000AE4  0E00               	movlw	0
  1200  000AE6  6EBA               	movwf	4026,c	;volatile
  1201                           
  1202                           ;mcc_generated_files/tmr2.c: 84:     PIR4bits.TMR2IF = 0;
  1203  000AE8  010E               	movlb	14	; () banked
  1204  000AEA  93C9               	bcf	201,1,b	;volatile
  1205                           
  1206                           ; BSR set to: 14
  1207                           ;mcc_generated_files/tmr2.c: 87:     PIE4bits.TMR2IE = 1;
  1208  000AEC  83C1               	bsf	193,1,b	;volatile
  1209                           
  1210                           ; BSR set to: 14
  1211                           ;mcc_generated_files/tmr2.c: 90:     TMR2_SetInterruptHandler(TMR2_DefaultInterruptHandl
      +                          er);
  1212  000AEE  0E90               	movlw	low _TMR2_DefaultInterruptHandler
  1213  000AF0  0100               	movlb	0	; () banked
  1214  000AF2  6F7F               	movwf	TMR2_SetInterruptHandler@InterruptHandler& (0+255),b
  1215  000AF4  0E0D               	movlw	high _TMR2_DefaultInterruptHandler
  1216  000AF6  6F80               	movwf	(TMR2_SetInterruptHandler@InterruptHandler+1)& (0+255),b
  1217  000AF8  EC7F  F006         	call	_TMR2_SetInterruptHandler	;wreg free
  1218                           
  1219                           ;mcc_generated_files/tmr2.c: 93:     T2CON = 0xF0;
  1220  000AFC  0EF0               	movlw	240
  1221  000AFE  6EBC               	movwf	4028,c	;volatile
  1222  000B00  0012               	return		;funcret
  1223  000B02                     __end_of_TMR2_Initialize:
  1224                           	opt callstack 0
  1225                           
  1226 ;; *************** function _TMR2_SetInterruptHandler *****************
  1227 ;; Defined at:
  1228 ;;		line 178 in file "mcc_generated_files/tmr2.c"
  1229 ;; Parameters:    Size  Location     Type
  1230 ;;  InterruptHan    2    0[BANK0 ] PTR FTN()void 
  1231 ;;		 -> carcontrol_ISR(1), TMR2_DefaultInterruptHandler(1), 
  1232 ;; Auto vars:     Size  Location     Type
  1233 ;;		None
  1234 ;; Return value:  Size  Location     Type
  1235 ;;                  1    wreg      void 
  1236 ;; Registers used:
  1237 ;;		wreg, status,2, status,0
  1238 ;; Tracked objects:
  1239 ;;		On entry : 0/0
  1240 ;;		On exit  : 0/0
  1241 ;;		Unchanged: 0/0
  1242 ;; Data sizes:     COMRAM   BANK0   BANK1   BANK2   BANK3   BANK4   BANK5   BANK6   BANK7
  1243 ;;      Params:         0       2       0       0       0       0       0       0       0
  1244 ;;      Locals:         0       0       0       0       0       0       0       0       0
  1245 ;;      Temps:          0       0       0       0       0       0       0       0       0
  1246 ;;      Totals:         0       2       0       0       0       0       0       0       0
  1247 ;;Total ram usage:        2 bytes
  1248 ;; Hardware stack levels used:    1
  1249 ;; Hardware stack levels required when called:    5
  1250 ;; This function calls:
  1251 ;;		Nothing
  1252 ;; This function is called by:
  1253 ;;		_TMR2_Initialize
  1254 ;;		_carcontrol_init
  1255 ;; This function uses a non-reentrant model
  1256 ;;
  1257                           
  1258                           	psect	text8
  1259  000CFE                     __ptext8:
  1260                           	opt callstack 0
  1261  000CFE                     _TMR2_SetInterruptHandler:
  1262                           	opt callstack 24
  1263                           
  1264                           ;mcc_generated_files/tmr2.c: 179:     TMR2_InterruptHandler = InterruptHandler;
  1265                           
  1266                           ;incstack = 0
  1267  000CFE  C07F  F07C         	movff	TMR2_SetInterruptHandler@InterruptHandler,_TMR2_InterruptHandler
  1268  000D02  C080  F07D         	movff	TMR2_SetInterruptHandler@InterruptHandler+1,_TMR2_InterruptHandler+1
  1269  000D06  0012               	return		;funcret
  1270  000D08                     __end_of_TMR2_SetInterruptHandler:
  1271                           	opt callstack 0
  1272                           
  1273 ;; *************** function _TMR1_Initialize *****************
  1274 ;; Defined at:
  1275 ;;		line 64 in file "mcc_generated_files/tmr1.c"
  1276 ;; Parameters:    Size  Location     Type
  1277 ;;		None
  1278 ;; Auto vars:     Size  Location     Type
  1279 ;;		None
  1280 ;; Return value:  Size  Location     Type
  1281 ;;                  1    wreg      void 
  1282 ;; Registers used:
  1283 ;;		wreg, status,2, status,0, cstack
  1284 ;; Tracked objects:
  1285 ;;		On entry : 0/0
  1286 ;;		On exit  : 0/0
  1287 ;;		Unchanged: 0/0
  1288 ;; Data sizes:     COMRAM   BANK0   BANK1   BANK2   BANK3   BANK4   BANK5   BANK6   BANK7
  1289 ;;      Params:         0       0       0       0       0       0       0       0       0
  1290 ;;      Locals:         0       0       0       0       0       0       0       0       0
  1291 ;;      Temps:          0       2       0       0       0       0       0       0       0
  1292 ;;      Totals:         0       2       0       0       0       0       0       0       0
  1293 ;;Total ram usage:        2 bytes
  1294 ;; Hardware stack levels used:    1
  1295 ;; Hardware stack levels required when called:    6
  1296 ;; This function calls:
  1297 ;;		_TMR1_SetInterruptHandler
  1298 ;; This function is called by:
  1299 ;;		_SYSTEM_Initialize
  1300 ;; This function uses a non-reentrant model
  1301 ;;
  1302                           
  1303                           	psect	text9
  1304  00090E                     __ptext9:
  1305                           	opt callstack 0
  1306  00090E                     _TMR1_Initialize:
  1307                           	opt callstack 23
  1308                           
  1309                           ;mcc_generated_files/tmr1.c: 69:     T1GCON = 0x00;
  1310                           
  1311                           ;incstack = 0
  1312  00090E  0E00               	movlw	0
  1313  000910  6ECF               	movwf	4047,c	;volatile
  1314                           
  1315                           ;mcc_generated_files/tmr1.c: 72:     T1GATE = 0x00;
  1316  000912  0E00               	movlw	0
  1317  000914  6ED0               	movwf	4048,c	;volatile
  1318                           
  1319                           ;mcc_generated_files/tmr1.c: 75:     T1CLK = 0x01;
  1320  000916  0E01               	movlw	1
  1321  000918  6ED1               	movwf	4049,c	;volatile
  1322                           
  1323                           ;mcc_generated_files/tmr1.c: 78:     TMR1H = 0x63;
  1324  00091A  0E63               	movlw	99
  1325  00091C  6ECD               	movwf	4045,c	;volatile
  1326                           
  1327                           ;mcc_generated_files/tmr1.c: 81:     TMR1L = 0xC0;
  1328  00091E  0EC0               	movlw	192
  1329  000920  6ECC               	movwf	4044,c	;volatile
  1330                           
  1331                           ;mcc_generated_files/tmr1.c: 84:     timer1ReloadVal=(uint16_t)((TMR1H << 8) | TMR1L);
  1332  000922  50CC               	movf	4044,w,c	;volatile
  1333  000924  CFCD F081          	movff	4045,??_TMR1_Initialize	;volatile
  1334  000928  0100               	movlb	0	; () banked
  1335  00092A  6B82               	clrf	(??_TMR1_Initialize+1)& (0+255),b
  1336  00092C  C081  F082         	movff	??_TMR1_Initialize,??_TMR1_Initialize+1
  1337  000930  6B81               	clrf	??_TMR1_Initialize& (0+255),b
  1338  000932  1181               	iorwf	??_TMR1_Initialize& (0+255),w,b
  1339  000934  6E52               	movwf	_timer1ReloadVal,c	;volatile
  1340  000936  5182               	movf	(??_TMR1_Initialize+1)& (0+255),w,b
  1341  000938  6E53               	movwf	_timer1ReloadVal+1,c	;volatile
  1342                           
  1343                           ; BSR set to: 0
  1344                           ;mcc_generated_files/tmr1.c: 87:     PIR4bits.TMR1IF = 0;
  1345  00093A  010E               	movlb	14	; () banked
  1346  00093C  91C9               	bcf	201,0,b	;volatile
  1347                           
  1348                           ; BSR set to: 14
  1349                           ;mcc_generated_files/tmr1.c: 90:     PIE4bits.TMR1IE = 1;
  1350  00093E  81C1               	bsf	193,0,b	;volatile
  1351                           
  1352                           ; BSR set to: 14
  1353                           ;mcc_generated_files/tmr1.c: 93:     TMR1_SetInterruptHandler(TMR1_DefaultInterruptHandl
      +                          er);
  1354  000940  0E92               	movlw	low _TMR1_DefaultInterruptHandler
  1355  000942  0100               	movlb	0	; () banked
  1356  000944  6F7F               	movwf	TMR1_SetInterruptHandler@InterruptHandler& (0+255),b
  1357  000946  0E0D               	movlw	high _TMR1_DefaultInterruptHandler
  1358  000948  6F80               	movwf	(TMR1_SetInterruptHandler@InterruptHandler+1)& (0+255),b
  1359  00094A  EC84  F006         	call	_TMR1_SetInterruptHandler	;wreg free
  1360                           
  1361                           ;mcc_generated_files/tmr1.c: 96:     T1CON = 0x33;
  1362  00094E  0E33               	movlw	51
  1363  000950  6ECE               	movwf	4046,c	;volatile
  1364  000952  0012               	return		;funcret
  1365  000954                     __end_of_TMR1_Initialize:
  1366                           	opt callstack 0
  1367                           
  1368 ;; *************** function _TMR1_SetInterruptHandler *****************
  1369 ;; Defined at:
  1370 ;;		line 178 in file "mcc_generated_files/tmr1.c"
  1371 ;; Parameters:    Size  Location     Type
  1372 ;;  InterruptHan    2    0[BANK0 ] PTR FTN()void 
  1373 ;;		 -> ping_TMR1Overflow_isr(1), TMR1_DefaultInterruptHandler(1), 
  1374 ;; Auto vars:     Size  Location     Type
  1375 ;;		None
  1376 ;; Return value:  Size  Location     Type
  1377 ;;                  1    wreg      void 
  1378 ;; Registers used:
  1379 ;;		wreg, status,2, status,0
  1380 ;; Tracked objects:
  1381 ;;		On entry : 0/0
  1382 ;;		On exit  : 0/0
  1383 ;;		Unchanged: 0/0
  1384 ;; Data sizes:     COMRAM   BANK0   BANK1   BANK2   BANK3   BANK4   BANK5   BANK6   BANK7
  1385 ;;      Params:         0       2       0       0       0       0       0       0       0
  1386 ;;      Locals:         0       0       0       0       0       0       0       0       0
  1387 ;;      Temps:          0       0       0       0       0       0       0       0       0
  1388 ;;      Totals:         0       2       0       0       0       0       0       0       0
  1389 ;;Total ram usage:        2 bytes
  1390 ;; Hardware stack levels used:    1
  1391 ;; Hardware stack levels required when called:    5
  1392 ;; This function calls:
  1393 ;;		Nothing
  1394 ;; This function is called by:
  1395 ;;		_TMR1_Initialize
  1396 ;;		_ping_init
  1397 ;;		_ping_send
  1398 ;; This function uses a non-reentrant model
  1399 ;;
  1400                           
  1401                           	psect	text10
  1402  000D08                     __ptext10:
  1403                           	opt callstack 0
  1404  000D08                     _TMR1_SetInterruptHandler:
  1405                           	opt callstack 23
  1406                           
  1407                           ;mcc_generated_files/tmr1.c: 179:     TMR1_InterruptHandler = InterruptHandler;
  1408                           
  1409                           ;incstack = 0
  1410  000D08  C07F  F050         	movff	TMR1_SetInterruptHandler@InterruptHandler,_TMR1_InterruptHandler
  1411  000D0C  C080  F051         	movff	TMR1_SetInterruptHandler@InterruptHandler+1,_TMR1_InterruptHandler+1
  1412  000D10  0012               	return		;funcret
  1413  000D12                     __end_of_TMR1_SetInterruptHandler:
  1414                           	opt callstack 0
  1415                           
  1416 ;; *************** function _PMD_Initialize *****************
  1417 ;; Defined at:
  1418 ;;		line 78 in file "mcc_generated_files/mcc.c"
  1419 ;; Parameters:    Size  Location     Type
  1420 ;;		None
  1421 ;; Auto vars:     Size  Location     Type
  1422 ;;		None
  1423 ;; Return value:  Size  Location     Type
  1424 ;;                  1    wreg      void 
  1425 ;; Registers used:
  1426 ;;		wreg, status,2
  1427 ;; Tracked objects:
  1428 ;;		On entry : 0/0
  1429 ;;		On exit  : 0/0
  1430 ;;		Unchanged: 0/0
  1431 ;; Data sizes:     COMRAM   BANK0   BANK1   BANK2   BANK3   BANK4   BANK5   BANK6   BANK7
  1432 ;;      Params:         0       0       0       0       0       0       0       0       0
  1433 ;;      Locals:         0       0       0       0       0       0       0       0       0
  1434 ;;      Temps:          0       0       0       0       0       0       0       0       0
  1435 ;;      Totals:         0       0       0       0       0       0       0       0       0
  1436 ;;Total ram usage:        0 bytes
  1437 ;; Hardware stack levels used:    1
  1438 ;; Hardware stack levels required when called:    5
  1439 ;; This function calls:
  1440 ;;		Nothing
  1441 ;; This function is called by:
  1442 ;;		_SYSTEM_Initialize
  1443 ;; This function uses a non-reentrant model
  1444 ;;
  1445                           
  1446                           	psect	text11
  1447  000C66                     __ptext11:
  1448                           	opt callstack 0
  1449  000C66                     _PMD_Initialize:
  1450                           	opt callstack 24
  1451                           
  1452                           ;mcc_generated_files/mcc.c: 81:     PMD0 = 0x00;
  1453                           
  1454                           ;incstack = 0
  1455  000C66  0E00               	movlw	0
  1456  000C68  010E               	movlb	14	; () banked
  1457  000C6A  6FDC               	movwf	220,b	;volatile
  1458                           
  1459                           ;mcc_generated_files/mcc.c: 83:     PMD1 = 0x00;
  1460  000C6C  0E00               	movlw	0
  1461  000C6E  6FDD               	movwf	221,b	;volatile
  1462                           
  1463                           ;mcc_generated_files/mcc.c: 85:     PMD2 = 0x00;
  1464  000C70  0E00               	movlw	0
  1465  000C72  6FDE               	movwf	222,b	;volatile
  1466                           
  1467                           ;mcc_generated_files/mcc.c: 87:     PMD3 = 0x00;
  1468  000C74  0E00               	movlw	0
  1469  000C76  6FDF               	movwf	223,b	;volatile
  1470                           
  1471                           ;mcc_generated_files/mcc.c: 89:     PMD4 = 0x00;
  1472  000C78  0E00               	movlw	0
  1473  000C7A  6FE0               	movwf	224,b	;volatile
  1474                           
  1475                           ;mcc_generated_files/mcc.c: 91:     PMD5 = 0x00;
  1476  000C7C  0E00               	movlw	0
  1477  000C7E  6FE1               	movwf	225,b	;volatile
  1478                           
  1479                           ; BSR set to: 14
  1480  000C80  0012               	return		;funcret
  1481  000C82                     __end_of_PMD_Initialize:
  1482                           	opt callstack 0
  1483                           
  1484 ;; *************** function _PIN_MANAGER_Initialize *****************
  1485 ;; Defined at:
  1486 ;;		line 57 in file "mcc_generated_files/pin_manager.c"
  1487 ;; Parameters:    Size  Location     Type
  1488 ;;		None
  1489 ;; Auto vars:     Size  Location     Type
  1490 ;;		None
  1491 ;; Return value:  Size  Location     Type
  1492 ;;                  1    wreg      void 
  1493 ;; Registers used:
  1494 ;;		wreg, status,2, status,0, cstack
  1495 ;; Tracked objects:
  1496 ;;		On entry : 0/0
  1497 ;;		On exit  : 0/0
  1498 ;;		Unchanged: 0/0
  1499 ;; Data sizes:     COMRAM   BANK0   BANK1   BANK2   BANK3   BANK4   BANK5   BANK6   BANK7
  1500 ;;      Params:         0       0       0       0       0       0       0       0       0
  1501 ;;      Locals:         0       0       0       0       0       0       0       0       0
  1502 ;;      Temps:          0       0       0       0       0       0       0       0       0
  1503 ;;      Totals:         0       0       0       0       0       0       0       0       0
  1504 ;;Total ram usage:        0 bytes
  1505 ;; Hardware stack levels used:    1
  1506 ;; Hardware stack levels required when called:    6
  1507 ;; This function calls:
  1508 ;;		_IOCCF2_SetInterruptHandler
  1509 ;; This function is called by:
  1510 ;;		_SYSTEM_Initialize
  1511 ;; This function uses a non-reentrant model
  1512 ;;
  1513                           
  1514                           	psect	text12
  1515  0007E0                     __ptext12:
  1516                           	opt callstack 0
  1517  0007E0                     _PIN_MANAGER_Initialize:
  1518                           	opt callstack 23
  1519                           
  1520                           ;mcc_generated_files/pin_manager.c: 62:     LATA = 0x00;
  1521                           
  1522                           ; BSR set to: 14
  1523                           ;incstack = 0
  1524  0007E0  0E00               	movlw	0
  1525  0007E2  6E82               	movwf	3970,c	;volatile
  1526                           
  1527                           ;mcc_generated_files/pin_manager.c: 63:     LATB = 0x00;
  1528  0007E4  0E00               	movlw	0
  1529  0007E6  6E83               	movwf	3971,c	;volatile
  1530                           
  1531                           ;mcc_generated_files/pin_manager.c: 64:     LATC = 0x00;
  1532  0007E8  0E00               	movlw	0
  1533  0007EA  6E84               	movwf	3972,c	;volatile
  1534                           
  1535                           ;mcc_generated_files/pin_manager.c: 69:     TRISA = 0xF0;
  1536  0007EC  0EF0               	movlw	240
  1537  0007EE  6E87               	movwf	3975,c	;volatile
  1538                           
  1539                           ;mcc_generated_files/pin_manager.c: 70:     TRISB = 0xF9;
  1540  0007F0  0EF9               	movlw	249
  1541  0007F2  6E88               	movwf	3976,c	;volatile
  1542                           
  1543                           ;mcc_generated_files/pin_manager.c: 71:     TRISC = 0x3D;
  1544  0007F4  0E3D               	movlw	61
  1545  0007F6  6E89               	movwf	3977,c	;volatile
  1546                           
  1547                           ;mcc_generated_files/pin_manager.c: 76:     ANSELC = 0x3B;
  1548  0007F8  0E3B               	movlw	59
  1549  0007FA  010F               	movlb	15	; () banked
  1550  0007FC  6F1C               	movwf	28,b	;volatile
  1551                           
  1552                           ; BSR set to: 15
  1553                           ;mcc_generated_files/pin_manager.c: 77:     ANSELB = 0xFF;
  1554  0007FE  6914               	setf	20,b	;volatile
  1555                           
  1556                           ;mcc_generated_files/pin_manager.c: 78:     ANSELA = 0xFA;
  1557  000800  0EFA               	movlw	250
  1558  000802  6F0C               	movwf	12,b	;volatile
  1559                           
  1560                           ;mcc_generated_files/pin_manager.c: 83:     WPUE = 0x00;
  1561  000804  0E00               	movlw	0
  1562  000806  6F28               	movwf	40,b	;volatile
  1563                           
  1564                           ;mcc_generated_files/pin_manager.c: 84:     WPUB = 0x00;
  1565  000808  0E00               	movlw	0
  1566  00080A  6F13               	movwf	19,b	;volatile
  1567                           
  1568                           ;mcc_generated_files/pin_manager.c: 85:     WPUA = 0x00;
  1569  00080C  0E00               	movlw	0
  1570  00080E  6F0B               	movwf	11,b	;volatile
  1571                           
  1572                           ;mcc_generated_files/pin_manager.c: 86:     WPUC = 0x00;
  1573  000810  0E00               	movlw	0
  1574  000812  6F1B               	movwf	27,b	;volatile
  1575                           
  1576                           ;mcc_generated_files/pin_manager.c: 91:     ODCONA = 0x00;
  1577  000814  0E00               	movlw	0
  1578  000816  6F0A               	movwf	10,b	;volatile
  1579                           
  1580                           ;mcc_generated_files/pin_manager.c: 92:     ODCONB = 0x00;
  1581  000818  0E00               	movlw	0
  1582  00081A  6F12               	movwf	18,b	;volatile
  1583                           
  1584                           ;mcc_generated_files/pin_manager.c: 93:     ODCONC = 0x00;
  1585  00081C  0E00               	movlw	0
  1586  00081E  6F1A               	movwf	26,b	;volatile
  1587                           
  1588                           ; BSR set to: 15
  1589                           ;mcc_generated_files/pin_manager.c: 98:     SLRCONA = 0xFF;
  1590  000820  6909               	setf	9,b	;volatile
  1591                           
  1592                           ; BSR set to: 15
  1593                           ;mcc_generated_files/pin_manager.c: 99:     SLRCONB = 0xFF;
  1594  000822  6911               	setf	17,b	;volatile
  1595                           
  1596                           ; BSR set to: 15
  1597                           ;mcc_generated_files/pin_manager.c: 100:     SLRCONC = 0xFF;
  1598  000824  6919               	setf	25,b	;volatile
  1599                           
  1600                           ; BSR set to: 15
  1601                           ;mcc_generated_files/pin_manager.c: 107:     IOCCFbits.IOCCF2 = 0;
  1602  000826  9515               	bcf	21,2,b	;volatile
  1603                           
  1604                           ; BSR set to: 15
  1605                           ;mcc_generated_files/pin_manager.c: 109:     IOCCNbits.IOCCN2 = 0;
  1606  000828  9516               	bcf	22,2,b	;volatile
  1607                           
  1608                           ; BSR set to: 15
  1609                           ;mcc_generated_files/pin_manager.c: 111:     IOCCPbits.IOCCP2 = 1;
  1610  00082A  8517               	bsf	23,2,b	;volatile
  1611                           
  1612                           ; BSR set to: 15
  1613                           ;mcc_generated_files/pin_manager.c: 116:     IOCCF2_SetInterruptHandler(IOCCF2_DefaultIn
      +                          terruptHandler);
  1614  00082C  0E94               	movlw	low _IOCCF2_DefaultInterruptHandler
  1615  00082E  0100               	movlb	0	; () banked
  1616  000830  6F7F               	movwf	IOCCF2_SetInterruptHandler@InterruptHandler& (0+255),b
  1617  000832  0E0D               	movlw	high _IOCCF2_DefaultInterruptHandler
  1618  000834  6F80               	movwf	(IOCCF2_SetInterruptHandler@InterruptHandler+1)& (0+255),b
  1619  000836  EC89  F006         	call	_IOCCF2_SetInterruptHandler	;wreg free
  1620                           
  1621                           ;mcc_generated_files/pin_manager.c: 119:     PIE0bits.IOCIE = 1;
  1622  00083A  010E               	movlb	14	; () banked
  1623  00083C  89BD               	bsf	189,4,b	;volatile
  1624                           
  1625                           ; BSR set to: 14
  1626                           ;mcc_generated_files/pin_manager.c: 122:     CCP1PPS = 0x12;
  1627  00083E  0E12               	movlw	18
  1628  000840  6FAA               	movwf	170,b	;volatile
  1629                           
  1630                           ; BSR set to: 14
  1631                           ;mcc_generated_files/pin_manager.c: 123:     RC6PPS = 0x09;
  1632  000842  0E09               	movlw	9
  1633  000844  6FF8               	movwf	248,b	;volatile
  1634                           
  1635                           ; BSR set to: 14
  1636  000846  0012               	return		;funcret
  1637  000848                     __end_of_PIN_MANAGER_Initialize:
  1638                           	opt callstack 0
  1639                           
  1640 ;; *************** function _IOCCF2_SetInterruptHandler *****************
  1641 ;; Defined at:
  1642 ;;		line 153 in file "mcc_generated_files/pin_manager.c"
  1643 ;; Parameters:    Size  Location     Type
  1644 ;;  InterruptHan    2    0[BANK0 ] PTR FTN()void 
  1645 ;;		 -> ping_RC2_went_HIGH(1), IOCCF2_DefaultInterruptHandler(1), 
  1646 ;; Auto vars:     Size  Location     Type
  1647 ;;		None
  1648 ;; Return value:  Size  Location     Type
  1649 ;;                  1    wreg      void 
  1650 ;; Registers used:
  1651 ;;		wreg, status,2, status,0
  1652 ;; Tracked objects:
  1653 ;;		On entry : 0/0
  1654 ;;		On exit  : 0/0
  1655 ;;		Unchanged: 0/0
  1656 ;; Data sizes:     COMRAM   BANK0   BANK1   BANK2   BANK3   BANK4   BANK5   BANK6   BANK7
  1657 ;;      Params:         0       2       0       0       0       0       0       0       0
  1658 ;;      Locals:         0       0       0       0       0       0       0       0       0
  1659 ;;      Temps:          0       0       0       0       0       0       0       0       0
  1660 ;;      Totals:         0       2       0       0       0       0       0       0       0
  1661 ;;Total ram usage:        2 bytes
  1662 ;; Hardware stack levels used:    1
  1663 ;; Hardware stack levels required when called:    5
  1664 ;; This function calls:
  1665 ;;		Nothing
  1666 ;; This function is called by:
  1667 ;;		_PIN_MANAGER_Initialize
  1668 ;;		_ping_init
  1669 ;; This function uses a non-reentrant model
  1670 ;;
  1671                           
  1672                           	psect	text13
  1673  000D12                     __ptext13:
  1674                           	opt callstack 0
  1675  000D12                     _IOCCF2_SetInterruptHandler:
  1676                           	opt callstack 23
  1677                           
  1678                           ;mcc_generated_files/pin_manager.c: 154:     IOCCF2_InterruptHandler = InterruptHandler;
  1679                           
  1680                           ; BSR set to: 14
  1681                           ;incstack = 0
  1682  000D12  C07F  F056         	movff	IOCCF2_SetInterruptHandler@InterruptHandler,_IOCCF2_InterruptHandler
  1683  000D16  C080  F057         	movff	IOCCF2_SetInterruptHandler@InterruptHandler+1,_IOCCF2_InterruptHandler+1
  1684  000D1A  0012               	return		;funcret
  1685  000D1C                     __end_of_IOCCF2_SetInterruptHandler:
  1686                           	opt callstack 0
  1687                           
  1688 ;; *************** function _OSCILLATOR_Initialize *****************
  1689 ;; Defined at:
  1690 ;;		line 64 in file "mcc_generated_files/mcc.c"
  1691 ;; Parameters:    Size  Location     Type
  1692 ;;		None
  1693 ;; Auto vars:     Size  Location     Type
  1694 ;;		None
  1695 ;; Return value:  Size  Location     Type
  1696 ;;                  1    wreg      void 
  1697 ;; Registers used:
  1698 ;;		wreg, status,2
  1699 ;; Tracked objects:
  1700 ;;		On entry : 0/0
  1701 ;;		On exit  : 0/0
  1702 ;;		Unchanged: 0/0
  1703 ;; Data sizes:     COMRAM   BANK0   BANK1   BANK2   BANK3   BANK4   BANK5   BANK6   BANK7
  1704 ;;      Params:         0       0       0       0       0       0       0       0       0
  1705 ;;      Locals:         0       0       0       0       0       0       0       0       0
  1706 ;;      Temps:          0       0       0       0       0       0       0       0       0
  1707 ;;      Totals:         0       0       0       0       0       0       0       0       0
  1708 ;;Total ram usage:        0 bytes
  1709 ;; Hardware stack levels used:    1
  1710 ;; Hardware stack levels required when called:    5
  1711 ;; This function calls:
  1712 ;;		Nothing
  1713 ;; This function is called by:
  1714 ;;		_SYSTEM_Initialize
  1715 ;; This function uses a non-reentrant model
  1716 ;;
  1717                           
  1718                           	psect	text14
  1719  000CBA                     __ptext14:
  1720                           	opt callstack 0
  1721  000CBA                     _OSCILLATOR_Initialize:
  1722                           	opt callstack 24
  1723                           
  1724                           ;mcc_generated_files/mcc.c: 67:     OSCCON1 = 0x60;
  1725                           
  1726                           ;incstack = 0
  1727  000CBA  0E60               	movlw	96
  1728  000CBC  010E               	movlb	14	; () banked
  1729  000CBE  6FD3               	movwf	211,b	;volatile
  1730                           
  1731                           ;mcc_generated_files/mcc.c: 69:     OSCCON3 = 0x00;
  1732  000CC0  0E00               	movlw	0
  1733  000CC2  6FD5               	movwf	213,b	;volatile
  1734                           
  1735                           ;mcc_generated_files/mcc.c: 71:     OSCEN = 0x00;
  1736  000CC4  0E00               	movlw	0
  1737  000CC6  6FD7               	movwf	215,b	;volatile
  1738                           
  1739                           ;mcc_generated_files/mcc.c: 73:     OSCFRQ = 0x08;
  1740  000CC8  0E08               	movlw	8
  1741  000CCA  6FD9               	movwf	217,b	;volatile
  1742                           
  1743                           ;mcc_generated_files/mcc.c: 75:     OSCTUNE = 0x00;
  1744  000CCC  0E00               	movlw	0
  1745  000CCE  6FD8               	movwf	216,b	;volatile
  1746                           
  1747                           ; BSR set to: 14
  1748  000CD0  0012               	return		;funcret
  1749  000CD2                     __end_of_OSCILLATOR_Initialize:
  1750                           	opt callstack 0
  1751                           
  1752 ;; *************** function _INTERRUPT_Initialize *****************
  1753 ;; Defined at:
  1754 ;;		line 52 in file "mcc_generated_files/interrupt_manager.c"
  1755 ;; Parameters:    Size  Location     Type
  1756 ;;		None
  1757 ;; Auto vars:     Size  Location     Type
  1758 ;;		None
  1759 ;; Return value:  Size  Location     Type
  1760 ;;                  1    wreg      void 
  1761 ;; Registers used:
  1762 ;;		None
  1763 ;; Tracked objects:
  1764 ;;		On entry : 0/0
  1765 ;;		On exit  : 0/0
  1766 ;;		Unchanged: 0/0
  1767 ;; Data sizes:     COMRAM   BANK0   BANK1   BANK2   BANK3   BANK4   BANK5   BANK6   BANK7
  1768 ;;      Params:         0       0       0       0       0       0       0       0       0
  1769 ;;      Locals:         0       0       0       0       0       0       0       0       0
  1770 ;;      Temps:          0       0       0       0       0       0       0       0       0
  1771 ;;      Totals:         0       0       0       0       0       0       0       0       0
  1772 ;;Total ram usage:        0 bytes
  1773 ;; Hardware stack levels used:    1
  1774 ;; Hardware stack levels required when called:    5
  1775 ;; This function calls:
  1776 ;;		Nothing
  1777 ;; This function is called by:
  1778 ;;		_SYSTEM_Initialize
  1779 ;; This function uses a non-reentrant model
  1780 ;;
  1781                           
  1782                           	psect	text15
  1783  000D82                     __ptext15:
  1784                           	opt callstack 0
  1785  000D82                     _INTERRUPT_Initialize:
  1786                           	opt callstack 24
  1787                           
  1788                           ;mcc_generated_files/interrupt_manager.c: 55:     INTCONbits.IPEN = 0;
  1789                           
  1790                           ; BSR set to: 14
  1791                           ;incstack = 0
  1792  000D82  9AF2               	bcf	4082,5,c	;volatile
  1793  000D84  0012               	return		;funcret
  1794  000D86                     __end_of_INTERRUPT_Initialize:
  1795                           	opt callstack 0
  1796                           
  1797 ;; *************** function _EUSART1_Initialize *****************
  1798 ;; Defined at:
  1799 ;;		line 85 in file "mcc_generated_files/eusart1.c"
  1800 ;; Parameters:    Size  Location     Type
  1801 ;;		None
  1802 ;; Auto vars:     Size  Location     Type
  1803 ;;		None
  1804 ;; Return value:  Size  Location     Type
  1805 ;;                  1    wreg      void 
  1806 ;; Registers used:
  1807 ;;		wreg, status,2, status,0, cstack
  1808 ;; Tracked objects:
  1809 ;;		On entry : 0/0
  1810 ;;		On exit  : 0/0
  1811 ;;		Unchanged: 0/0
  1812 ;; Data sizes:     COMRAM   BANK0   BANK1   BANK2   BANK3   BANK4   BANK5   BANK6   BANK7
  1813 ;;      Params:         0       0       0       0       0       0       0       0       0
  1814 ;;      Locals:         0       0       0       0       0       0       0       0       0
  1815 ;;      Temps:          0       0       0       0       0       0       0       0       0
  1816 ;;      Totals:         0       0       0       0       0       0       0       0       0
  1817 ;;Total ram usage:        0 bytes
  1818 ;; Hardware stack levels used:    1
  1819 ;; Hardware stack levels required when called:    6
  1820 ;; This function calls:
  1821 ;;		_EUSART1_SetErrorHandler
  1822 ;;		_EUSART1_SetFramingErrorHandler
  1823 ;;		_EUSART1_SetOverrunErrorHandler
  1824 ;;		_EUSART1_SetRxInterruptHandler
  1825 ;;		_EUSART1_SetTxInterruptHandler
  1826 ;; This function is called by:
  1827 ;;		_SYSTEM_Initialize
  1828 ;; This function uses a non-reentrant model
  1829 ;;
  1830                           
  1831                           	psect	text16
  1832  00075A                     __ptext16:
  1833                           	opt callstack 0
  1834  00075A                     _EUSART1_Initialize:
  1835                           	opt callstack 23
  1836                           
  1837                           ;mcc_generated_files/eusart1.c: 88:     PIE3bits.RC1IE = 0;
  1838                           
  1839                           ;incstack = 0
  1840  00075A  010E               	movlb	14	; () banked
  1841  00075C  9BC0               	bcf	192,5,b	;volatile
  1842                           
  1843                           ; BSR set to: 14
  1844                           ;mcc_generated_files/eusart1.c: 89:     EUSART1_SetRxInterruptHandler(EUSART1_Receive_IS
      +                          R);
  1845  00075E  0E3A               	movlw	low _EUSART1_Receive_ISR
  1846  000760  0100               	movlb	0	; () banked
  1847  000762  6F7F               	movwf	EUSART1_SetRxInterruptHandler@interruptHandler& (0+255),b
  1848  000764  0E06               	movlw	high _EUSART1_Receive_ISR
  1849  000766  6F80               	movwf	(EUSART1_SetRxInterruptHandler@interruptHandler+1)& (0+255),b
  1850  000768  EC93  F006         	call	_EUSART1_SetRxInterruptHandler	;wreg free
  1851                           
  1852                           ;mcc_generated_files/eusart1.c: 90:     PIE3bits.TX1IE = 0;
  1853  00076C  010E               	movlb	14	; () banked
  1854  00076E  99C0               	bcf	192,4,b	;volatile
  1855                           
  1856                           ;mcc_generated_files/eusart1.c: 91:     EUSART1_SetTxInterruptHandler(EUSART1_Transmit_I
      +                          SR);
  1857  000770  0E30               	movlw	low _EUSART1_Transmit_ISR
  1858  000772  0100               	movlb	0	; () banked
  1859  000774  6F7F               	movwf	EUSART1_SetTxInterruptHandler@interruptHandler& (0+255),b
  1860  000776  0E0B               	movlw	high _EUSART1_Transmit_ISR
  1861  000778  6F80               	movwf	(EUSART1_SetTxInterruptHandler@interruptHandler+1)& (0+255),b
  1862  00077A  EC8E  F006         	call	_EUSART1_SetTxInterruptHandler	;wreg free
  1863                           
  1864                           ;mcc_generated_files/eusart1.c: 95:     BAUD1CON = 0x08;
  1865  00077E  0E08               	movlw	8
  1866  000780  6E9E               	movwf	3998,c	;volatile
  1867                           
  1868                           ;mcc_generated_files/eusart1.c: 98:     RC1STA = 0x80;
  1869  000782  0E80               	movlw	128
  1870  000784  6E9C               	movwf	3996,c	;volatile
  1871                           
  1872                           ;mcc_generated_files/eusart1.c: 101:     TX1STA = 0x24;
  1873  000786  0E24               	movlw	36
  1874  000788  6E9D               	movwf	3997,c	;volatile
  1875                           
  1876                           ;mcc_generated_files/eusart1.c: 104:     SP1BRGL = 0x8A;
  1877  00078A  0E8A               	movlw	138
  1878  00078C  6E9A               	movwf	3994,c	;volatile
  1879                           
  1880                           ;mcc_generated_files/eusart1.c: 107:     SP1BRGH = 0x00;
  1881  00078E  0E00               	movlw	0
  1882  000790  6E9B               	movwf	3995,c	;volatile
  1883                           
  1884                           ;mcc_generated_files/eusart1.c: 110:     EUSART1_SetFramingErrorHandler(EUSART1_DefaultF
      +                          ramingErrorHandler);
  1885  000792  0E96               	movlw	low _EUSART1_DefaultFramingErrorHandler
  1886  000794  0100               	movlb	0	; () banked
  1887  000796  6F7F               	movwf	EUSART1_SetFramingErrorHandler@interruptHandler& (0+255),b
  1888  000798  0E0D               	movlw	high _EUSART1_DefaultFramingErrorHandler
  1889  00079A  6F80               	movwf	(EUSART1_SetFramingErrorHandler@interruptHandler+1)& (0+255),b
  1890  00079C  EC9D  F006         	call	_EUSART1_SetFramingErrorHandler	;wreg free
  1891                           
  1892                           ;mcc_generated_files/eusart1.c: 111:     EUSART1_SetOverrunErrorHandler(EUSART1_DefaultO
      +                          verrunErrorHandler);
  1893  0007A0  0E76               	movlw	low _EUSART1_DefaultOverrunErrorHandler
  1894  0007A2  0100               	movlb	0	; () banked
  1895  0007A4  6F7F               	movwf	EUSART1_SetOverrunErrorHandler@interruptHandler& (0+255),b
  1896  0007A6  0E0D               	movlw	high _EUSART1_DefaultOverrunErrorHandler
  1897  0007A8  6F80               	movwf	(EUSART1_SetOverrunErrorHandler@interruptHandler+1)& (0+255),b
  1898  0007AA  EC98  F006         	call	_EUSART1_SetOverrunErrorHandler	;wreg free
  1899                           
  1900                           ;mcc_generated_files/eusart1.c: 112:     EUSART1_SetErrorHandler(EUSART1_DefaultErrorHan
      +                          dler);
  1901  0007AE  0E7C               	movlw	low _EUSART1_DefaultErrorHandler
  1902  0007B0  0100               	movlb	0	; () banked
  1903  0007B2  6F7F               	movwf	EUSART1_SetErrorHandler@interruptHandler& (0+255),b
  1904  0007B4  0E0D               	movlw	high _EUSART1_DefaultErrorHandler
  1905  0007B6  6F80               	movwf	(EUSART1_SetErrorHandler@interruptHandler+1)& (0+255),b
  1906  0007B8  ECA2  F006         	call	_EUSART1_SetErrorHandler	;wreg free
  1907                           
  1908                           ;mcc_generated_files/eusart1.c: 114:     eusart1RxLastError.status = 0;
  1909  0007BC  0E00               	movlw	0
  1910  0007BE  0100               	movlb	0	; () banked
  1911  0007C0  6F70               	movwf	_eusart1RxLastError& (0+255),b	;volatile
  1912                           
  1913                           ;mcc_generated_files/eusart1.c: 117:     eusart1TxHead = 0;
  1914  0007C2  0E00               	movlw	0
  1915  0007C4  6F73               	movwf	_eusart1TxHead& (0+255),b	;volatile
  1916                           
  1917                           ;mcc_generated_files/eusart1.c: 118:     eusart1TxTail = 0;
  1918  0007C6  0E00               	movlw	0
  1919  0007C8  6F72               	movwf	_eusart1TxTail& (0+255),b	;volatile
  1920                           
  1921                           ;mcc_generated_files/eusart1.c: 119:     eusart1TxBufferRemaining = sizeof(eusart1TxBuff
      +                          er);
  1922  0007CA  0E08               	movlw	8
  1923  0007CC  6F7E               	movwf	_eusart1TxBufferRemaining& (0+255),b	;volatile
  1924                           
  1925                           ;mcc_generated_files/eusart1.c: 121:     eusart1RxHead = 0;
  1926  0007CE  0E00               	movlw	0
  1927  0007D0  6F71               	movwf	_eusart1RxHead& (0+255),b	;volatile
  1928                           
  1929                           ;mcc_generated_files/eusart1.c: 122:     eusart1RxTail = 0;
  1930  0007D2  0E00               	movlw	0
  1931  0007D4  6E4B               	movwf	_eusart1RxTail,c	;volatile
  1932                           
  1933                           ;mcc_generated_files/eusart1.c: 123:     eusart1RxCount = 0;
  1934  0007D6  0E00               	movlw	0
  1935  0007D8  6E4A               	movwf	_eusart1RxCount,c	;volatile
  1936                           
  1937                           ; BSR set to: 0
  1938                           ;mcc_generated_files/eusart1.c: 126:     PIE3bits.RC1IE = 1;
  1939  0007DA  010E               	movlb	14	; () banked
  1940  0007DC  8BC0               	bsf	192,5,b	;volatile
  1941                           
  1942                           ; BSR set to: 14
  1943  0007DE  0012               	return		;funcret
  1944  0007E0                     __end_of_EUSART1_Initialize:
  1945                           	opt callstack 0
  1946                           
  1947 ;; *************** function _EUSART1_SetTxInterruptHandler *****************
  1948 ;; Defined at:
  1949 ;;		line 282 in file "mcc_generated_files/eusart1.c"
  1950 ;; Parameters:    Size  Location     Type
  1951 ;;  interruptHan    2    0[BANK0 ] PTR FTN()void 
  1952 ;;		 -> EUSART1_Transmit_ISR(1), 
  1953 ;; Auto vars:     Size  Location     Type
  1954 ;;		None
  1955 ;; Return value:  Size  Location     Type
  1956 ;;                  1    wreg      void 
  1957 ;; Registers used:
  1958 ;;		wreg, status,2, status,0
  1959 ;; Tracked objects:
  1960 ;;		On entry : 0/0
  1961 ;;		On exit  : 0/0
  1962 ;;		Unchanged: 0/0
  1963 ;; Data sizes:     COMRAM   BANK0   BANK1   BANK2   BANK3   BANK4   BANK5   BANK6   BANK7
  1964 ;;      Params:         0       2       0       0       0       0       0       0       0
  1965 ;;      Locals:         0       0       0       0       0       0       0       0       0
  1966 ;;      Temps:          0       0       0       0       0       0       0       0       0
  1967 ;;      Totals:         0       2       0       0       0       0       0       0       0
  1968 ;;Total ram usage:        2 bytes
  1969 ;; Hardware stack levels used:    1
  1970 ;; Hardware stack levels required when called:    5
  1971 ;; This function calls:
  1972 ;;		Nothing
  1973 ;; This function is called by:
  1974 ;;		_EUSART1_Initialize
  1975 ;; This function uses a non-reentrant model
  1976 ;;
  1977                           
  1978                           	psect	text17
  1979  000D1C                     __ptext17:
  1980                           	opt callstack 0
  1981  000D1C                     _EUSART1_SetTxInterruptHandler:
  1982                           	opt callstack 23
  1983                           
  1984                           ;mcc_generated_files/eusart1.c: 283:     EUSART1_TxDefaultInterruptHandler = interruptHa
      +                          ndler;
  1985                           
  1986                           ; BSR set to: 14
  1987                           ;incstack = 0
  1988  000D1C  C07F  F05A         	movff	EUSART1_SetTxInterruptHandler@interruptHandler,_EUSART1_TxDefaultInterruptHandler
  1989  000D20  C080  F05B         	movff	EUSART1_SetTxInterruptHandler@interruptHandler+1,_EUSART1_TxDefaultInterruptHandl
      +                          er+1
  1990  000D24  0012               	return		;funcret
  1991  000D26                     __end_of_EUSART1_SetTxInterruptHandler:
  1992                           	opt callstack 0
  1993                           
  1994 ;; *************** function _EUSART1_SetRxInterruptHandler *****************
  1995 ;; Defined at:
  1996 ;;		line 286 in file "mcc_generated_files/eusart1.c"
  1997 ;; Parameters:    Size  Location     Type
  1998 ;;  interruptHan    2    0[BANK0 ] PTR FTN()void 
  1999 ;;		 -> EUSART1_Receive_ISR(1), 
  2000 ;; Auto vars:     Size  Location     Type
  2001 ;;		None
  2002 ;; Return value:  Size  Location     Type
  2003 ;;                  1    wreg      void 
  2004 ;; Registers used:
  2005 ;;		wreg, status,2, status,0
  2006 ;; Tracked objects:
  2007 ;;		On entry : 0/0
  2008 ;;		On exit  : 0/0
  2009 ;;		Unchanged: 0/0
  2010 ;; Data sizes:     COMRAM   BANK0   BANK1   BANK2   BANK3   BANK4   BANK5   BANK6   BANK7
  2011 ;;      Params:         0       2       0       0       0       0       0       0       0
  2012 ;;      Locals:         0       0       0       0       0       0       0       0       0
  2013 ;;      Temps:          0       0       0       0       0       0       0       0       0
  2014 ;;      Totals:         0       2       0       0       0       0       0       0       0
  2015 ;;Total ram usage:        2 bytes
  2016 ;; Hardware stack levels used:    1
  2017 ;; Hardware stack levels required when called:    5
  2018 ;; This function calls:
  2019 ;;		Nothing
  2020 ;; This function is called by:
  2021 ;;		_EUSART1_Initialize
  2022 ;; This function uses a non-reentrant model
  2023 ;;
  2024                           
  2025                           	psect	text18
  2026  000D26                     __ptext18:
  2027                           	opt callstack 0
  2028  000D26                     _EUSART1_SetRxInterruptHandler:
  2029                           	opt callstack 23
  2030                           
  2031                           ;mcc_generated_files/eusart1.c: 287:     EUSART1_RxDefaultInterruptHandler = interruptHa
      +                          ndler;
  2032                           
  2033                           ;incstack = 0
  2034  000D26  C07F  F058         	movff	EUSART1_SetRxInterruptHandler@interruptHandler,_EUSART1_RxDefaultInterruptHandler
  2035  000D2A  C080  F059         	movff	EUSART1_SetRxInterruptHandler@interruptHandler+1,_EUSART1_RxDefaultInterruptHandl
      +                          er+1
  2036  000D2E  0012               	return		;funcret
  2037  000D30                     __end_of_EUSART1_SetRxInterruptHandler:
  2038                           	opt callstack 0
  2039                           
  2040 ;; *************** function _EUSART1_SetOverrunErrorHandler *****************
  2041 ;; Defined at:
  2042 ;;		line 274 in file "mcc_generated_files/eusart1.c"
  2043 ;; Parameters:    Size  Location     Type
  2044 ;;  interruptHan    2    0[BANK0 ] PTR FTN()void 
  2045 ;;		 -> EUSART1_DefaultOverrunErrorHandler(1), 
  2046 ;; Auto vars:     Size  Location     Type
  2047 ;;		None
  2048 ;; Return value:  Size  Location     Type
  2049 ;;                  1    wreg      void 
  2050 ;; Registers used:
  2051 ;;		wreg, status,2, status,0
  2052 ;; Tracked objects:
  2053 ;;		On entry : 0/0
  2054 ;;		On exit  : 0/0
  2055 ;;		Unchanged: 0/0
  2056 ;; Data sizes:     COMRAM   BANK0   BANK1   BANK2   BANK3   BANK4   BANK5   BANK6   BANK7
  2057 ;;      Params:         0       2       0       0       0       0       0       0       0
  2058 ;;      Locals:         0       0       0       0       0       0       0       0       0
  2059 ;;      Temps:          0       0       0       0       0       0       0       0       0
  2060 ;;      Totals:         0       2       0       0       0       0       0       0       0
  2061 ;;Total ram usage:        2 bytes
  2062 ;; Hardware stack levels used:    1
  2063 ;; Hardware stack levels required when called:    5
  2064 ;; This function calls:
  2065 ;;		Nothing
  2066 ;; This function is called by:
  2067 ;;		_EUSART1_Initialize
  2068 ;; This function uses a non-reentrant model
  2069 ;;
  2070                           
  2071                           	psect	text19
  2072  000D30                     __ptext19:
  2073                           	opt callstack 0
  2074  000D30                     _EUSART1_SetOverrunErrorHandler:
  2075                           	opt callstack 23
  2076                           
  2077                           ;mcc_generated_files/eusart1.c: 275:     EUSART1_OverrunErrorHandler = interruptHandler;
  2078                           
  2079                           ;incstack = 0
  2080  000D30  C07F  F078         	movff	EUSART1_SetOverrunErrorHandler@interruptHandler,_EUSART1_OverrunErrorHandler
  2081  000D34  C080  F079         	movff	EUSART1_SetOverrunErrorHandler@interruptHandler+1,_EUSART1_OverrunErrorHandler+1
  2082  000D38  0012               	return		;funcret
  2083  000D3A                     __end_of_EUSART1_SetOverrunErrorHandler:
  2084                           	opt callstack 0
  2085                           
  2086 ;; *************** function _EUSART1_SetFramingErrorHandler *****************
  2087 ;; Defined at:
  2088 ;;		line 270 in file "mcc_generated_files/eusart1.c"
  2089 ;; Parameters:    Size  Location     Type
  2090 ;;  interruptHan    2    0[BANK0 ] PTR FTN()void 
  2091 ;;		 -> EUSART1_DefaultFramingErrorHandler(1), 
  2092 ;; Auto vars:     Size  Location     Type
  2093 ;;		None
  2094 ;; Return value:  Size  Location     Type
  2095 ;;                  1    wreg      void 
  2096 ;; Registers used:
  2097 ;;		wreg, status,2, status,0
  2098 ;; Tracked objects:
  2099 ;;		On entry : 0/0
  2100 ;;		On exit  : 0/0
  2101 ;;		Unchanged: 0/0
  2102 ;; Data sizes:     COMRAM   BANK0   BANK1   BANK2   BANK3   BANK4   BANK5   BANK6   BANK7
  2103 ;;      Params:         0       2       0       0       0       0       0       0       0
  2104 ;;      Locals:         0       0       0       0       0       0       0       0       0
  2105 ;;      Temps:          0       0       0       0       0       0       0       0       0
  2106 ;;      Totals:         0       2       0       0       0       0       0       0       0
  2107 ;;Total ram usage:        2 bytes
  2108 ;; Hardware stack levels used:    1
  2109 ;; Hardware stack levels required when called:    5
  2110 ;; This function calls:
  2111 ;;		Nothing
  2112 ;; This function is called by:
  2113 ;;		_EUSART1_Initialize
  2114 ;; This function uses a non-reentrant model
  2115 ;;
  2116                           
  2117                           	psect	text20
  2118  000D3A                     __ptext20:
  2119                           	opt callstack 0
  2120  000D3A                     _EUSART1_SetFramingErrorHandler:
  2121                           	opt callstack 23
  2122                           
  2123                           ;mcc_generated_files/eusart1.c: 271:     EUSART1_FramingErrorHandler = interruptHandler;
  2124                           
  2125                           ;incstack = 0
  2126  000D3A  C07F  F07A         	movff	EUSART1_SetFramingErrorHandler@interruptHandler,_EUSART1_FramingErrorHandler
  2127  000D3E  C080  F07B         	movff	EUSART1_SetFramingErrorHandler@interruptHandler+1,_EUSART1_FramingErrorHandler+1
  2128  000D42  0012               	return		;funcret
  2129  000D44                     __end_of_EUSART1_SetFramingErrorHandler:
  2130                           	opt callstack 0
  2131                           
  2132 ;; *************** function _EUSART1_SetErrorHandler *****************
  2133 ;; Defined at:
  2134 ;;		line 278 in file "mcc_generated_files/eusart1.c"
  2135 ;; Parameters:    Size  Location     Type
  2136 ;;  interruptHan    2    0[BANK0 ] PTR FTN()void 
  2137 ;;		 -> EUSART1_DefaultErrorHandler(1), 
  2138 ;; Auto vars:     Size  Location     Type
  2139 ;;		None
  2140 ;; Return value:  Size  Location     Type
  2141 ;;                  1    wreg      void 
  2142 ;; Registers used:
  2143 ;;		wreg, status,2, status,0
  2144 ;; Tracked objects:
  2145 ;;		On entry : 0/0
  2146 ;;		On exit  : 0/0
  2147 ;;		Unchanged: 0/0
  2148 ;; Data sizes:     COMRAM   BANK0   BANK1   BANK2   BANK3   BANK4   BANK5   BANK6   BANK7
  2149 ;;      Params:         0       2       0       0       0       0       0       0       0
  2150 ;;      Locals:         0       0       0       0       0       0       0       0       0
  2151 ;;      Temps:          0       0       0       0       0       0       0       0       0
  2152 ;;      Totals:         0       2       0       0       0       0       0       0       0
  2153 ;;Total ram usage:        2 bytes
  2154 ;; Hardware stack levels used:    1
  2155 ;; Hardware stack levels required when called:    5
  2156 ;; This function calls:
  2157 ;;		Nothing
  2158 ;; This function is called by:
  2159 ;;		_EUSART1_Initialize
  2160 ;; This function uses a non-reentrant model
  2161 ;;
  2162                           
  2163                           	psect	text21
  2164  000D44                     __ptext21:
  2165                           	opt callstack 0
  2166  000D44                     _EUSART1_SetErrorHandler:
  2167                           	opt callstack 23
  2168                           
  2169                           ;mcc_generated_files/eusart1.c: 279:     EUSART1_ErrorHandler = interruptHandler;
  2170                           
  2171                           ;incstack = 0
  2172  000D44  C07F  F076         	movff	EUSART1_SetErrorHandler@interruptHandler,_EUSART1_ErrorHandler
  2173  000D48  C080  F077         	movff	EUSART1_SetErrorHandler@interruptHandler+1,_EUSART1_ErrorHandler+1
  2174  000D4C  0012               	return		;funcret
  2175  000D4E                     __end_of_EUSART1_SetErrorHandler:
  2176                           	opt callstack 0
  2177                           
  2178 ;; *************** function _CCP1_Initialize *****************
  2179 ;; Defined at:
  2180 ;;		line 65 in file "mcc_generated_files/ccp1.c"
  2181 ;; Parameters:    Size  Location     Type
  2182 ;;		None
  2183 ;; Auto vars:     Size  Location     Type
  2184 ;;		None
  2185 ;; Return value:  Size  Location     Type
  2186 ;;                  1    wreg      void 
  2187 ;; Registers used:
  2188 ;;		wreg, status,2, status,0, cstack
  2189 ;; Tracked objects:
  2190 ;;		On entry : 0/0
  2191 ;;		On exit  : 0/0
  2192 ;;		Unchanged: 0/0
  2193 ;; Data sizes:     COMRAM   BANK0   BANK1   BANK2   BANK3   BANK4   BANK5   BANK6   BANK7
  2194 ;;      Params:         0       0       0       0       0       0       0       0       0
  2195 ;;      Locals:         0       0       0       0       0       0       0       0       0
  2196 ;;      Temps:          0       0       0       0       0       0       0       0       0
  2197 ;;      Totals:         0       0       0       0       0       0       0       0       0
  2198 ;;Total ram usage:        0 bytes
  2199 ;; Hardware stack levels used:    1
  2200 ;; Hardware stack levels required when called:    6
  2201 ;; This function calls:
  2202 ;;		_CCP1_SetCallBack
  2203 ;; This function is called by:
  2204 ;;		_SYSTEM_Initialize
  2205 ;; This function uses a non-reentrant model
  2206 ;;
  2207                           
  2208                           	psect	text22
  2209  000B02                     __ptext22:
  2210                           	opt callstack 0
  2211  000B02                     _CCP1_Initialize:
  2212                           	opt callstack 23
  2213                           
  2214                           ;mcc_generated_files/ccp1.c: 70:  CCP1CON = 0x84;
  2215                           
  2216                           ;incstack = 0
  2217  000B02  0E84               	movlw	132
  2218  000B04  6EAB               	movwf	4011,c	;volatile
  2219                           
  2220                           ;mcc_generated_files/ccp1.c: 73:  CCP1CAP = 0x00;
  2221  000B06  0E00               	movlw	0
  2222  000B08  6EAC               	movwf	4012,c	;volatile
  2223                           
  2224                           ;mcc_generated_files/ccp1.c: 76:  CCPR1H = 0x00;
  2225  000B0A  0E00               	movlw	0
  2226  000B0C  6EAA               	movwf	4010,c	;volatile
  2227                           
  2228                           ;mcc_generated_files/ccp1.c: 79:  CCPR1L = 0x00;
  2229  000B0E  0E00               	movlw	0
  2230  000B10  6EA9               	movwf	4009,c	;volatile
  2231                           
  2232                           ;mcc_generated_files/ccp1.c: 82:     CCP1_SetCallBack(CCP1_DefaultCallBack);
  2233  000B12  0E98               	movlw	low _CCP1_DefaultCallBack
  2234  000B14  0100               	movlb	0	; () banked
  2235  000B16  6F7F               	movwf	CCP1_SetCallBack@customCallBack& (0+255),b
  2236  000B18  0E0D               	movlw	high _CCP1_DefaultCallBack
  2237  000B1A  6F80               	movwf	(CCP1_SetCallBack@customCallBack+1)& (0+255),b
  2238  000B1C  ECA7  F006         	call	_CCP1_SetCallBack	;wreg free
  2239                           
  2240                           ;mcc_generated_files/ccp1.c: 85:  CCPTMRSbits.C1TSEL = 0x1;
  2241  000B20  50AD               	movf	4013,w,c	;volatile
  2242  000B22  0BFC               	andlw	-4
  2243  000B24  0901               	iorlw	1
  2244  000B26  6EAD               	movwf	4013,c	;volatile
  2245                           
  2246                           ;mcc_generated_files/ccp1.c: 88:     PIR6bits.CCP1IF = 0;
  2247  000B28  010E               	movlb	14	; () banked
  2248  000B2A  91CB               	bcf	203,0,b	;volatile
  2249                           
  2250                           ; BSR set to: 14
  2251                           ;mcc_generated_files/ccp1.c: 91:     PIE6bits.CCP1IE = 1;
  2252  000B2C  81C3               	bsf	195,0,b	;volatile
  2253                           
  2254                           ; BSR set to: 14
  2255  000B2E  0012               	return		;funcret
  2256  000B30                     __end_of_CCP1_Initialize:
  2257                           	opt callstack 0
  2258                           
  2259 ;; *************** function _CCP1_SetCallBack *****************
  2260 ;; Defined at:
  2261 ;;		line 109 in file "mcc_generated_files/ccp1.c"
  2262 ;; Parameters:    Size  Location     Type
  2263 ;;  customCallBa    2    0[BANK0 ] PTR FTN(unsigned short ,
  2264 ;;		 -> ping_CCP1_triggered(1), CCP1_DefaultCallBack(1), 
  2265 ;; Auto vars:     Size  Location     Type
  2266 ;;		None
  2267 ;; Return value:  Size  Location     Type
  2268 ;;                  1    wreg      void 
  2269 ;; Registers used:
  2270 ;;		wreg, status,2, status,0
  2271 ;; Tracked objects:
  2272 ;;		On entry : 0/0
  2273 ;;		On exit  : 0/0
  2274 ;;		Unchanged: 0/0
  2275 ;; Data sizes:     COMRAM   BANK0   BANK1   BANK2   BANK3   BANK4   BANK5   BANK6   BANK7
  2276 ;;      Params:         0       2       0       0       0       0       0       0       0
  2277 ;;      Locals:         0       0       0       0       0       0       0       0       0
  2278 ;;      Temps:          0       0       0       0       0       0       0       0       0
  2279 ;;      Totals:         0       2       0       0       0       0       0       0       0
  2280 ;;Total ram usage:        2 bytes
  2281 ;; Hardware stack levels used:    1
  2282 ;; Hardware stack levels required when called:    5
  2283 ;; This function calls:
  2284 ;;		Nothing
  2285 ;; This function is called by:
  2286 ;;		_CCP1_Initialize
  2287 ;;		_ping_init
  2288 ;; This function uses a non-reentrant model
  2289 ;;
  2290                           
  2291                           	psect	text23
  2292  000D4E                     __ptext23:
  2293                           	opt callstack 0
  2294  000D4E                     _CCP1_SetCallBack:
  2295                           	opt callstack 23
  2296                           
  2297                           ;mcc_generated_files/ccp1.c: 110:     CCP1_CallBack = customCallBack;
  2298                           
  2299                           ; BSR set to: 14
  2300                           ;incstack = 0
  2301  000D4E  C07F  F054         	movff	CCP1_SetCallBack@customCallBack,_CCP1_CallBack
  2302  000D52  C080  F055         	movff	CCP1_SetCallBack@customCallBack+1,_CCP1_CallBack+1
  2303  000D56  0012               	return		;funcret
  2304  000D58                     __end_of_CCP1_SetCallBack:
  2305                           	opt callstack 0
  2306                           
  2307 ;; *************** function _ADCC_Initialize *****************
  2308 ;; Defined at:
  2309 ;;		line 63 in file "mcc_generated_files/adcc.c"
  2310 ;; Parameters:    Size  Location     Type
  2311 ;;		None
  2312 ;; Auto vars:     Size  Location     Type
  2313 ;;		None
  2314 ;; Return value:  Size  Location     Type
  2315 ;;                  1    wreg      void 
  2316 ;; Registers used:
  2317 ;;		wreg, status,2, status,0, cstack
  2318 ;; Tracked objects:
  2319 ;;		On entry : 0/0
  2320 ;;		On exit  : 0/0
  2321 ;;		Unchanged: 0/0
  2322 ;; Data sizes:     COMRAM   BANK0   BANK1   BANK2   BANK3   BANK4   BANK5   BANK6   BANK7
  2323 ;;      Params:         0       0       0       0       0       0       0       0       0
  2324 ;;      Locals:         0       0       0       0       0       0       0       0       0
  2325 ;;      Temps:          0       0       0       0       0       0       0       0       0
  2326 ;;      Totals:         0       0       0       0       0       0       0       0       0
  2327 ;;Total ram usage:        0 bytes
  2328 ;; Hardware stack levels used:    1
  2329 ;; Hardware stack levels required when called:    6
  2330 ;; This function calls:
  2331 ;;		_ADCC_SetADIInterruptHandler
  2332 ;; This function is called by:
  2333 ;;		_SYSTEM_Initialize
  2334 ;; This function uses a non-reentrant model
  2335 ;;
  2336                           
  2337                           	psect	text24
  2338  0008AE                     __ptext24:
  2339                           	opt callstack 0
  2340  0008AE                     _ADCC_Initialize:
  2341                           	opt callstack 23
  2342                           
  2343                           ;mcc_generated_files/adcc.c: 67:     ADLTHL = 0x00;
  2344                           
  2345                           ;incstack = 0
  2346  0008AE  0E00               	movlw	0
  2347  0008B0  6E65               	movwf	3941,c	;volatile
  2348                           
  2349                           ;mcc_generated_files/adcc.c: 69:     ADLTHH = 0x00;
  2350  0008B2  0E00               	movlw	0
  2351  0008B4  6E66               	movwf	3942,c	;volatile
  2352                           
  2353                           ;mcc_generated_files/adcc.c: 71:     ADUTHL = 0x00;
  2354  0008B6  0E00               	movlw	0
  2355  0008B8  6E67               	movwf	3943,c	;volatile
  2356                           
  2357                           ;mcc_generated_files/adcc.c: 73:     ADUTHH = 0x00;
  2358  0008BA  0E00               	movlw	0
  2359  0008BC  6E68               	movwf	3944,c	;volatile
  2360                           
  2361                           ;mcc_generated_files/adcc.c: 75:     ADSTPTL = 0x00;
  2362  0008BE  0E00               	movlw	0
  2363  0008C0  6E63               	movwf	3939,c	;volatile
  2364                           
  2365                           ;mcc_generated_files/adcc.c: 77:     ADSTPTH = 0x00;
  2366  0008C2  0E00               	movlw	0
  2367  0008C4  6E64               	movwf	3940,c	;volatile
  2368                           
  2369                           ;mcc_generated_files/adcc.c: 79:     ADRPT = 0x00;
  2370  0008C6  0E00               	movlw	0
  2371  0008C8  6E61               	movwf	3937,c	;volatile
  2372                           
  2373                           ;mcc_generated_files/adcc.c: 81:     ADPCH = 0x00;
  2374  0008CA  0E00               	movlw	0
  2375  0008CC  010F               	movlb	15	; () banked
  2376  0008CE  6F5A               	movwf	90,b	;volatile
  2377                           
  2378                           ;mcc_generated_files/adcc.c: 83:     ADCAP = 0x00;
  2379  0008D0  0E00               	movlw	0
  2380  0008D2  6F58               	movwf	88,b	;volatile
  2381                           
  2382                           ;mcc_generated_files/adcc.c: 85:     ADCON1 = 0x00;
  2383  0008D4  0E00               	movlw	0
  2384  0008D6  6F54               	movwf	84,b	;volatile
  2385                           
  2386                           ;mcc_generated_files/adcc.c: 87:     ADCON2 = 0x00;
  2387  0008D8  0E00               	movlw	0
  2388  0008DA  6F55               	movwf	85,b	;volatile
  2389                           
  2390                           ;mcc_generated_files/adcc.c: 89:     ADCON3 = 0x00;
  2391  0008DC  0E00               	movlw	0
  2392  0008DE  6F56               	movwf	86,b	;volatile
  2393                           
  2394                           ;mcc_generated_files/adcc.c: 91:     ADSTAT = 0x00;
  2395  0008E0  0E00               	movlw	0
  2396  0008E2  6E60               	movwf	3936,c	;volatile
  2397                           
  2398                           ;mcc_generated_files/adcc.c: 93:     ADREF = 0x00;
  2399  0008E4  0E00               	movlw	0
  2400  0008E6  6F53               	movwf	83,b	;volatile
  2401                           
  2402                           ;mcc_generated_files/adcc.c: 95:     ADACT = 0x00;
  2403  0008E8  0E00               	movlw	0
  2404  0008EA  6F51               	movwf	81,b	;volatile
  2405                           
  2406                           ;mcc_generated_files/adcc.c: 97:     ADCLK = 0x00;
  2407  0008EC  0E00               	movlw	0
  2408  0008EE  6F52               	movwf	82,b	;volatile
  2409                           
  2410                           ;mcc_generated_files/adcc.c: 99:     ADCON0 = 0x94;
  2411  0008F0  0E94               	movlw	148
  2412  0008F2  6F5B               	movwf	91,b	;volatile
  2413                           
  2414                           ;mcc_generated_files/adcc.c: 101:     ADACQ = 0x00;
  2415  0008F4  0E00               	movlw	0
  2416  0008F6  6F57               	movwf	87,b	;volatile
  2417                           
  2418                           ; BSR set to: 15
  2419                           ;mcc_generated_files/adcc.c: 104:     PIR1bits.ADIF = 0;
  2420  0008F8  010E               	movlb	14	; () banked
  2421  0008FA  91C6               	bcf	198,0,b	;volatile
  2422                           
  2423                           ; BSR set to: 14
  2424                           ;mcc_generated_files/adcc.c: 106:     PIE1bits.ADIE = 1;
  2425  0008FC  81BE               	bsf	190,0,b	;volatile
  2426                           
  2427                           ; BSR set to: 14
  2428                           ;mcc_generated_files/adcc.c: 108:     ADCC_SetADIInterruptHandler(ADCC_DefaultInterruptH
      +                          andler);
  2429  0008FE  0E9A               	movlw	low _ADCC_DefaultInterruptHandler
  2430  000900  0100               	movlb	0	; () banked
  2431  000902  6F7F               	movwf	ADCC_SetADIInterruptHandler@InterruptHandler& (0+255),b
  2432  000904  0E0D               	movlw	high _ADCC_DefaultInterruptHandler
  2433  000906  6F80               	movwf	(ADCC_SetADIInterruptHandler@InterruptHandler+1)& (0+255),b
  2434  000908  ECAC  F006         	call	_ADCC_SetADIInterruptHandler	;wreg free
  2435  00090C  0012               	return		;funcret
  2436  00090E                     __end_of_ADCC_Initialize:
  2437                           	opt callstack 0
  2438                           
  2439 ;; *************** function _ADCC_SetADIInterruptHandler *****************
  2440 ;; Defined at:
  2441 ;;		line 305 in file "mcc_generated_files/adcc.c"
  2442 ;; Parameters:    Size  Location     Type
  2443 ;;  InterruptHan    2    0[BANK0 ] PTR FTN()void 
  2444 ;;		 -> ADCC_DefaultInterruptHandler(1), 
  2445 ;; Auto vars:     Size  Location     Type
  2446 ;;		None
  2447 ;; Return value:  Size  Location     Type
  2448 ;;                  1    wreg      void 
  2449 ;; Registers used:
  2450 ;;		wreg, status,2, status,0
  2451 ;; Tracked objects:
  2452 ;;		On entry : 0/0
  2453 ;;		On exit  : 0/0
  2454 ;;		Unchanged: 0/0
  2455 ;; Data sizes:     COMRAM   BANK0   BANK1   BANK2   BANK3   BANK4   BANK5   BANK6   BANK7
  2456 ;;      Params:         0       2       0       0       0       0       0       0       0
  2457 ;;      Locals:         0       0       0       0       0       0       0       0       0
  2458 ;;      Temps:          0       0       0       0       0       0       0       0       0
  2459 ;;      Totals:         0       2       0       0       0       0       0       0       0
  2460 ;;Total ram usage:        2 bytes
  2461 ;; Hardware stack levels used:    1
  2462 ;; Hardware stack levels required when called:    5
  2463 ;; This function calls:
  2464 ;;		Nothing
  2465 ;; This function is called by:
  2466 ;;		_ADCC_Initialize
  2467 ;; This function uses a non-reentrant model
  2468 ;;
  2469                           
  2470                           	psect	text25
  2471  000D58                     __ptext25:
  2472                           	opt callstack 0
  2473  000D58                     _ADCC_SetADIInterruptHandler:
  2474                           	opt callstack 23
  2475                           
  2476                           ;mcc_generated_files/adcc.c: 306:     ADCC_ADI_InterruptHandler = InterruptHandler;
  2477                           
  2478                           ;incstack = 0
  2479  000D58  C07F  F074         	movff	ADCC_SetADIInterruptHandler@InterruptHandler,_ADCC_ADI_InterruptHandler
  2480  000D5C  C080  F075         	movff	ADCC_SetADIInterruptHandler@InterruptHandler+1,_ADCC_ADI_InterruptHandler+1
  2481  000D60  0012               	return		;funcret
  2482  000D62                     __end_of_ADCC_SetADIInterruptHandler:
  2483                           	opt callstack 0
  2484                           
  2485 ;; *************** function _INTERRUPT_InterruptManager *****************
  2486 ;; Defined at:
  2487 ;;		line 58 in file "mcc_generated_files/interrupt_manager.c"
  2488 ;; Parameters:    Size  Location     Type
  2489 ;;		None
  2490 ;; Auto vars:     Size  Location     Type
  2491 ;;		None
  2492 ;; Return value:  Size  Location     Type
  2493 ;;                  1    wreg      void 
  2494 ;; Registers used:
  2495 ;;		wreg, fsr2l, fsr2h, status,2, status,0, pclath, tosl, prodl, prodh, cstack
  2496 ;; Tracked objects:
  2497 ;;		On entry : 0/0
  2498 ;;		On exit  : 0/0
  2499 ;;		Unchanged: 0/0
  2500 ;; Data sizes:     COMRAM   BANK0   BANK1   BANK2   BANK3   BANK4   BANK5   BANK6   BANK7
  2501 ;;      Params:         0       0       0       0       0       0       0       0       0
  2502 ;;      Locals:         0       0       0       0       0       0       0       0       0
  2503 ;;      Temps:          6       0       0       0       0       0       0       0       0
  2504 ;;      Totals:         6       0       0       0       0       0       0       0       0
  2505 ;;Total ram usage:        6 bytes
  2506 ;; Hardware stack levels used:    1
  2507 ;; Hardware stack levels required when called:    4
  2508 ;; This function calls:
  2509 ;;		Absolute function
  2510 ;;		_ADCC_ISR
  2511 ;;		_CCP1_CaptureISR
  2512 ;;		_EUSART1_Receive_ISR
  2513 ;;		_EUSART1_Transmit_ISR
  2514 ;;		_PIN_MANAGER_IOC
  2515 ;;		_TMR1_ISR
  2516 ;;		_TMR2_ISR
  2517 ;;		_TMR3_ISR
  2518 ;; This function is called by:
  2519 ;;		Interrupt level 2
  2520 ;; This function uses a non-reentrant model
  2521 ;;
  2522                           
  2523                           	psect	intcode
  2524  000008                     __pintcode:
  2525                           	opt callstack 0
  2526  000008                     _INTERRUPT_InterruptManager:
  2527                           	opt callstack 23
  2528                           
  2529                           ;incstack = 0
  2530  000008  825F               	bsf	btemp,1,c	;set compiler interrupt flag (level 2)
  2531  00000A  CFFA F02C          	movff	pclath,??_INTERRUPT_InterruptManager
  2532  00000E  CFFB F02D          	movff	pclatu,??_INTERRUPT_InterruptManager+1
  2533  000012  CFD9 F02E          	movff	fsr2l,??_INTERRUPT_InterruptManager+2
  2534  000016  CFDA F02F          	movff	fsr2h,??_INTERRUPT_InterruptManager+3
  2535  00001A  CFF3 F030          	movff	prodl,??_INTERRUPT_InterruptManager+4
  2536  00001E  CFF4 F031          	movff	prodh,??_INTERRUPT_InterruptManager+5
  2537                           
  2538                           ;mcc_generated_files/interrupt_manager.c: 61:     if(PIE0bits.IOCIE == 1 && PIR0bits.IOC
      +                          IF == 1)
  2539  000022  010E               	movlb	14	; () banked
  2540  000024  B9BD               	btfsc	189,4,b	;volatile
  2541                           
  2542                           ; BSR set to: 14
  2543  000026  A9C5               	btfss	197,4,b	;volatile
  2544  000028  D003               	goto	i2l257
  2545                           
  2546                           ; BSR set to: 14
  2547                           ;mcc_generated_files/interrupt_manager.c: 62:     {;mcc_generated_files/interrupt_manage
      +                          r.c: 63:         PIN_MANAGER_IOC();
  2548  00002A  EC74  F006         	call	_PIN_MANAGER_IOC	;wreg free
  2549                           
  2550                           ;mcc_generated_files/interrupt_manager.c: 64:     }
  2551  00002E  D039               	goto	i2l267
  2552  000030                     i2l257:
  2553                           
  2554                           ; BSR set to: 14
  2555  000030  ACF2               	btfss	4082,6,c	;volatile
  2556  000032  D037               	goto	i2l267
  2557                           
  2558                           ; BSR set to: 14
  2559                           ;mcc_generated_files/interrupt_manager.c: 66:     {;mcc_generated_files/interrupt_manage
      +                          r.c: 67:         if(PIE3bits.TX1IE == 1 && PIR3bits.TX1IF == 1)
  2560  000034  B9C0               	btfsc	192,4,b	;volatile
  2561                           
  2562                           ; BSR set to: 14
  2563  000036  A9C8               	btfss	200,4,b	;volatile
  2564  000038  D008               	goto	i2l260
  2565                           
  2566                           ; BSR set to: 14
  2567                           ;mcc_generated_files/interrupt_manager.c: 68:         {;mcc_generated_files/interrupt_ma
      +                          nager.c: 69:             EUSART1_TxDefaultInterruptHandler();
  2568  00003A  D801               	call	i2u159_48
  2569  00003C  D032               	goto	i2l267
  2570  00003E                     i2u159_48:
  2571  00003E  0005               	push	
  2572  000040  6EFA               	movwf	pclath,c
  2573  000042  505A               	movf	_EUSART1_TxDefaultInterruptHandler,w,c
  2574  000044  6EFD               	movwf	tosl,c
  2575  000046  505B               	movf	_EUSART1_TxDefaultInterruptHandler+1,w,c
  2576  000048  D00A               	goto	L1
  2577  00004A                     i2l260:
  2578                           
  2579                           ; BSR set to: 14
  2580  00004A  BBC0               	btfsc	192,5,b	;volatile
  2581                           
  2582                           ; BSR set to: 14
  2583  00004C  ABC8               	btfss	200,5,b	;volatile
  2584  00004E  D00C               	goto	i2l262
  2585                           
  2586                           ; BSR set to: 14
  2587                           ;mcc_generated_files/interrupt_manager.c: 72:         {;mcc_generated_files/interrupt_ma
      +                          nager.c: 73:             EUSART1_RxDefaultInterruptHandler();
  2588  000050  D801               	call	i2u162_48
  2589  000052  D027               	goto	i2l267
  2590  000054                     i2u162_48:
  2591  000054  0005               	push	
  2592  000056  6EFA               	movwf	pclath,c
  2593  000058  5058               	movf	_EUSART1_RxDefaultInterruptHandler,w,c
  2594  00005A  6EFD               	movwf	tosl,c
  2595  00005C  5059               	movf	_EUSART1_RxDefaultInterruptHandler+1,w,c
  2596  00005E                     L1:
  2597  00005E  6EFE               	movwf	tosh,c
  2598  000060  50F8               	movf	tblptru,w,c
  2599  000062  6EFF               	movwf	tosu,c
  2600  000064  50FA               	movf	pclath,w,c
  2601  000066  0012               	return		;indir
  2602  000068                     i2l262:
  2603                           
  2604                           ; BSR set to: 14
  2605  000068  B1BE               	btfsc	190,0,b	;volatile
  2606                           
  2607                           ; BSR set to: 14
  2608  00006A  A1C6               	btfss	198,0,b	;volatile
  2609  00006C  D003               	goto	i2l264
  2610                           
  2611                           ; BSR set to: 14
  2612                           ;mcc_generated_files/interrupt_manager.c: 76:         {;mcc_generated_files/interrupt_ma
      +                          nager.c: 77:             ADCC_ISR();
  2613  00006E  EC00  F006         	call	_ADCC_ISR	;wreg free
  2614                           
  2615                           ;mcc_generated_files/interrupt_manager.c: 78:         }
  2616  000072  D017               	goto	i2l267
  2617  000074                     i2l264:
  2618                           
  2619                           ; BSR set to: 14
  2620  000074  B5C1               	btfsc	193,2,b	;volatile
  2621                           
  2622                           ; BSR set to: 14
  2623  000076  A5C9               	btfss	201,2,b	;volatile
  2624  000078  D003               	goto	i2l266
  2625                           
  2626                           ; BSR set to: 14
  2627                           ;mcc_generated_files/interrupt_manager.c: 80:         {;mcc_generated_files/interrupt_ma
      +                          nager.c: 81:             TMR3_ISR();
  2628  00007A  EC3A  F005         	call	_TMR3_ISR	;wreg free
  2629                           
  2630                           ;mcc_generated_files/interrupt_manager.c: 82:         }
  2631  00007E  D011               	goto	i2l267
  2632  000080                     i2l266:
  2633                           
  2634                           ; BSR set to: 14
  2635  000080  B3C1               	btfsc	193,1,b	;volatile
  2636                           
  2637                           ; BSR set to: 14
  2638  000082  A3C9               	btfss	201,1,b	;volatile
  2639  000084  D003               	goto	i2l268
  2640                           
  2641                           ; BSR set to: 14
  2642                           ;mcc_generated_files/interrupt_manager.c: 84:         {;mcc_generated_files/interrupt_ma
      +                          nager.c: 85:             TMR2_ISR();
  2643  000086  ECDA  F005         	call	_TMR2_ISR	;wreg free
  2644                           
  2645                           ;mcc_generated_files/interrupt_manager.c: 86:         }
  2646  00008A  D00B               	goto	i2l267
  2647  00008C                     i2l268:
  2648                           
  2649                           ; BSR set to: 14
  2650  00008C  B1C1               	btfsc	193,0,b	;volatile
  2651                           
  2652                           ; BSR set to: 14
  2653  00008E  A1C9               	btfss	201,0,b	;volatile
  2654  000090  D003               	goto	i2l270
  2655                           
  2656                           ; BSR set to: 14
  2657                           ;mcc_generated_files/interrupt_manager.c: 88:         {;mcc_generated_files/interrupt_ma
      +                          nager.c: 89:             TMR1_ISR();
  2658  000092  EC52  F005         	call	_TMR1_ISR	;wreg free
  2659                           
  2660                           ;mcc_generated_files/interrupt_manager.c: 90:         }
  2661  000096  D005               	goto	i2l267
  2662  000098                     i2l270:
  2663                           
  2664                           ; BSR set to: 14
  2665  000098  B1C3               	btfsc	195,0,b	;volatile
  2666                           
  2667                           ; BSR set to: 14
  2668  00009A  A1CB               	btfss	203,0,b	;volatile
  2669  00009C  D002               	goto	i2l267
  2670                           
  2671                           ; BSR set to: 14
  2672                           ;mcc_generated_files/interrupt_manager.c: 92:         {;mcc_generated_files/interrupt_ma
      +                          nager.c: 93:             CCP1_CaptureISR();
  2673  00009E  ECAF  F005         	call	_CCP1_CaptureISR	;wreg free
  2674  0000A2                     i2l267:
  2675                           
  2676                           ; BSR set to: 14
  2677  0000A2  C031  FFF4         	movff	??_INTERRUPT_InterruptManager+5,prodh
  2678  0000A6  C030  FFF3         	movff	??_INTERRUPT_InterruptManager+4,prodl
  2679  0000AA  C02F  FFDA         	movff	??_INTERRUPT_InterruptManager+3,fsr2h
  2680  0000AE  C02E  FFD9         	movff	??_INTERRUPT_InterruptManager+2,fsr2l
  2681  0000B2  C02D  FFFB         	movff	??_INTERRUPT_InterruptManager+1,pclatu
  2682  0000B6  C02C  FFFA         	movff	??_INTERRUPT_InterruptManager,pclath
  2683  0000BA  925F               	bcf	btemp,1,c	;clear compiler interrupt flag (level 2)
  2684  0000BC  0011               	retfie		f
  2685  0000BE                     __end_of_INTERRUPT_InterruptManager:
  2686                           	opt callstack 0
  2687                           
  2688 ;; *************** function _TMR3_ISR *****************
  2689 ;; Defined at:
  2690 ;;		line 164 in file "mcc_generated_files/tmr3.c"
  2691 ;; Parameters:    Size  Location     Type
  2692 ;;		None
  2693 ;; Auto vars:     Size  Location     Type
  2694 ;;		None
  2695 ;; Return value:  Size  Location     Type
  2696 ;;                  1    wreg      void 
  2697 ;; Registers used:
  2698 ;;		wreg, status,2, status,0, pclath, tosl, cstack
  2699 ;; Tracked objects:
  2700 ;;		On entry : 0/0
  2701 ;;		On exit  : 0/0
  2702 ;;		Unchanged: 0/0
  2703 ;; Data sizes:     COMRAM   BANK0   BANK1   BANK2   BANK3   BANK4   BANK5   BANK6   BANK7
  2704 ;;      Params:         0       0       0       0       0       0       0       0       0
  2705 ;;      Locals:         0       0       0       0       0       0       0       0       0
  2706 ;;      Temps:          0       0       0       0       0       0       0       0       0
  2707 ;;      Totals:         0       0       0       0       0       0       0       0       0
  2708 ;;Total ram usage:        0 bytes
  2709 ;; Hardware stack levels used:    1
  2710 ;; Hardware stack levels required when called:    1
  2711 ;; This function calls:
  2712 ;;		Absolute function
  2713 ;;		_TMR3_DefaultInterruptHandler
  2714 ;;		_TMR3_WriteTimer
  2715 ;; This function is called by:
  2716 ;;		_INTERRUPT_InterruptManager
  2717 ;; This function uses a non-reentrant model
  2718 ;;
  2719                           
  2720                           	psect	text27
  2721  000A74                     __ptext27:
  2722                           	opt callstack 0
  2723  000A74                     _TMR3_ISR:
  2724                           	opt callstack 25
  2725                           
  2726                           ;mcc_generated_files/tmr3.c: 168:     PIR4bits.TMR3IF = 0;
  2727                           
  2728                           ;incstack = 0
  2729  000A74  010E               	movlb	14	; () banked
  2730  000A76  95C9               	bcf	201,2,b	;volatile
  2731                           
  2732                           ; BSR set to: 14
  2733                           ;mcc_generated_files/tmr3.c: 169:     TMR3_WriteTimer(timer3ReloadVal);
  2734  000A78  C04E  F001         	movff	_timer3ReloadVal,TMR3_WriteTimer@timerVal	;volatile
  2735  000A7C  C04F  F002         	movff	_timer3ReloadVal+1,TMR3_WriteTimer@timerVal+1	;volatile
  2736  000A80  EC41  F006         	call	_TMR3_WriteTimer	;wreg free
  2737                           
  2738                           ;mcc_generated_files/tmr3.c: 171:     if(TMR3_InterruptHandler)
  2739  000A84  504C               	movf	_TMR3_InterruptHandler,w,c
  2740  000A86  104D               	iorwf	_TMR3_InterruptHandler+1,w,c
  2741  000A88  B4D8               	btfsc	status,2,c
  2742  000A8A  0012               	return	
  2743                           
  2744                           ;mcc_generated_files/tmr3.c: 172:     {;mcc_generated_files/tmr3.c: 173:         TMR3_In
      +                          terruptHandler();
  2745  000A8C  D801               	call	i2u137_48
  2746  000A8E  0012               	return	
  2747  000A90                     i2u137_48:
  2748  000A90  0005               	push	
  2749  000A92  6EFA               	movwf	pclath,c
  2750  000A94  504C               	movf	_TMR3_InterruptHandler,w,c
  2751  000A96  6EFD               	movwf	tosl,c
  2752  000A98  504D               	movf	_TMR3_InterruptHandler+1,w,c
  2753  000A9A  6EFE               	movwf	tosh,c
  2754  000A9C  50F8               	movf	tblptru,w,c
  2755  000A9E  6EFF               	movwf	tosu,c
  2756  000AA0  50FA               	movf	pclath,w,c
  2757  000AA2  0012               	return		;indir
  2758  000AA4                     __end_of_TMR3_ISR:
  2759                           	opt callstack 0
  2760                           
  2761 ;; *************** function _TMR3_WriteTimer *****************
  2762 ;; Defined at:
  2763 ;;		line 127 in file "mcc_generated_files/tmr3.c"
  2764 ;; Parameters:    Size  Location     Type
  2765 ;;  timerVal        2    0[COMRAM] unsigned short 
  2766 ;; Auto vars:     Size  Location     Type
  2767 ;;		None
  2768 ;; Return value:  Size  Location     Type
  2769 ;;                  1    wreg      void 
  2770 ;; Registers used:
  2771 ;;		wreg, status,2
  2772 ;; Tracked objects:
  2773 ;;		On entry : 0/0
  2774 ;;		On exit  : 0/0
  2775 ;;		Unchanged: 0/0
  2776 ;; Data sizes:     COMRAM   BANK0   BANK1   BANK2   BANK3   BANK4   BANK5   BANK6   BANK7
  2777 ;;      Params:         2       0       0       0       0       0       0       0       0
  2778 ;;      Locals:         0       0       0       0       0       0       0       0       0
  2779 ;;      Temps:          0       0       0       0       0       0       0       0       0
  2780 ;;      Totals:         2       0       0       0       0       0       0       0       0
  2781 ;;Total ram usage:        2 bytes
  2782 ;; Hardware stack levels used:    1
  2783 ;; This function calls:
  2784 ;;		Nothing
  2785 ;; This function is called by:
  2786 ;;		_TMR3_ISR
  2787 ;;		_TMR3_Reload
  2788 ;; This function uses a non-reentrant model
  2789 ;;
  2790                           
  2791                           	psect	text28
  2792  000C82                     __ptext28:
  2793                           	opt callstack 0
  2794  000C82                     _TMR3_WriteTimer:
  2795                           	opt callstack 25
  2796                           
  2797                           ;mcc_generated_files/tmr3.c: 127: void TMR3_WriteTimer(uint16_t timerVal);mcc_generated_
      +                          files/tmr3.c: 128: {;mcc_generated_files/tmr3.c: 129:     if (T3CONbits.nT3SYNC == 1)
  2798                           
  2799                           ;incstack = 0
  2800  000C82  A4C8               	btfss	4040,2,c	;volatile
  2801  000C84  D007               	goto	i2l2863
  2802                           
  2803                           ;mcc_generated_files/tmr3.c: 130:     {;mcc_generated_files/tmr3.c: 132:         T3CONbi
      +                          ts.TMR3ON = 0;
  2804  000C86  90C8               	bcf	4040,0,c	;volatile
  2805                           
  2806                           ;mcc_generated_files/tmr3.c: 135:         TMR3H = (timerVal >> 8);
  2807  000C88  5002               	movf	TMR3_WriteTimer@timerVal+1,w,c
  2808  000C8A  6EC7               	movwf	4039,c	;volatile
  2809                           
  2810                           ;mcc_generated_files/tmr3.c: 136:         TMR3L = timerVal;
  2811  000C8C  C001  FFC6         	movff	TMR3_WriteTimer@timerVal,4038	;volatile
  2812                           
  2813                           ;mcc_generated_files/tmr3.c: 139:         T3CONbits.TMR3ON =1;
  2814  000C90  80C8               	bsf	4040,0,c	;volatile
  2815                           
  2816                           ;mcc_generated_files/tmr3.c: 140:     }
  2817  000C92  0012               	return	
  2818  000C94                     i2l2863:
  2819                           
  2820                           ;mcc_generated_files/tmr3.c: 142:     {;mcc_generated_files/tmr3.c: 144:         TMR3H =
      +                           (timerVal >> 8);
  2821  000C94  5002               	movf	TMR3_WriteTimer@timerVal+1,w,c
  2822  000C96  6EC7               	movwf	4039,c	;volatile
  2823                           
  2824                           ;mcc_generated_files/tmr3.c: 145:         TMR3L = timerVal;
  2825  000C98  C001  FFC6         	movff	TMR3_WriteTimer@timerVal,4038	;volatile
  2826  000C9C  0012               	return		;funcret
  2827  000C9E                     __end_of_TMR3_WriteTimer:
  2828                           	opt callstack 0
  2829                           
  2830 ;; *************** function _TMR3_DefaultInterruptHandler *****************
  2831 ;; Defined at:
  2832 ;;		line 182 in file "mcc_generated_files/tmr3.c"
  2833 ;; Parameters:    Size  Location     Type
  2834 ;;		None
  2835 ;; Auto vars:     Size  Location     Type
  2836 ;;		None
  2837 ;; Return value:  Size  Location     Type
  2838 ;;                  1    wreg      void 
  2839 ;; Registers used:
  2840 ;;		None
  2841 ;; Tracked objects:
  2842 ;;		On entry : 0/0
  2843 ;;		On exit  : 0/0
  2844 ;;		Unchanged: 0/0
  2845 ;; Data sizes:     COMRAM   BANK0   BANK1   BANK2   BANK3   BANK4   BANK5   BANK6   BANK7
  2846 ;;      Params:         0       0       0       0       0       0       0       0       0
  2847 ;;      Locals:         0       0       0       0       0       0       0       0       0
  2848 ;;      Temps:          0       0       0       0       0       0       0       0       0
  2849 ;;      Totals:         0       0       0       0       0       0       0       0       0
  2850 ;;Total ram usage:        0 bytes
  2851 ;; Hardware stack levels used:    1
  2852 ;; This function calls:
  2853 ;;		Nothing
  2854 ;; This function is called by:
  2855 ;;		_TMR3_Initialize
  2856 ;;		_TMR3_ISR
  2857 ;; This function uses a non-reentrant model
  2858 ;;
  2859                           
  2860                           	psect	text29
  2861  000D8E                     __ptext29:
  2862                           	opt callstack 0
  2863  000D8E                     _TMR3_DefaultInterruptHandler:
  2864                           	opt callstack 25
  2865                           
  2866                           ;incstack = 0
  2867  000D8E  0012               	return		;funcret
  2868  000D90                     __end_of_TMR3_DefaultInterruptHandler:
  2869                           	opt callstack 0
  2870                           
  2871 ;; *************** function _TMR2_ISR *****************
  2872 ;; Defined at:
  2873 ;;		line 165 in file "mcc_generated_files/tmr2.c"
  2874 ;; Parameters:    Size  Location     Type
  2875 ;;		None
  2876 ;; Auto vars:     Size  Location     Type
  2877 ;;		None
  2878 ;; Return value:  Size  Location     Type
  2879 ;;                  1    wreg      void 
  2880 ;; Registers used:
  2881 ;;		wreg, status,2, status,0, pclath, tosl, cstack
  2882 ;; Tracked objects:
  2883 ;;		On entry : 0/0
  2884 ;;		On exit  : 0/0
  2885 ;;		Unchanged: 0/0
  2886 ;; Data sizes:     COMRAM   BANK0   BANK1   BANK2   BANK3   BANK4   BANK5   BANK6   BANK7
  2887 ;;      Params:         0       0       0       0       0       0       0       0       0
  2888 ;;      Locals:         0       0       0       0       0       0       0       0       0
  2889 ;;      Temps:          0       0       0       0       0       0       0       0       0
  2890 ;;      Totals:         0       0       0       0       0       0       0       0       0
  2891 ;;Total ram usage:        0 bytes
  2892 ;; Hardware stack levels used:    1
  2893 ;; Hardware stack levels required when called:    1
  2894 ;; This function calls:
  2895 ;;		Absolute function
  2896 ;;		_TMR2_DefaultInterruptHandler
  2897 ;;		_carcontrol_ISR
  2898 ;; This function is called by:
  2899 ;;		_INTERRUPT_InterruptManager
  2900 ;; This function uses a non-reentrant model
  2901 ;;
  2902                           
  2903                           	psect	text30
  2904  000BB4                     __ptext30:
  2905                           	opt callstack 0
  2906  000BB4                     _TMR2_ISR:
  2907                           	opt callstack 25
  2908                           
  2909                           ;mcc_generated_files/tmr2.c: 169:     PIR4bits.TMR2IF = 0;
  2910                           
  2911                           ;incstack = 0
  2912  000BB4  010E               	movlb	14	; () banked
  2913  000BB6  93C9               	bcf	201,1,b	;volatile
  2914                           
  2915                           ; BSR set to: 14
  2916                           ;mcc_generated_files/tmr2.c: 171:     if(TMR2_InterruptHandler)
  2917  000BB8  0100               	movlb	0	; () banked
  2918  000BBA  517C               	movf	_TMR2_InterruptHandler& (0+255),w,b
  2919  000BBC  117D               	iorwf	(_TMR2_InterruptHandler+1)& (0+255),w,b
  2920  000BBE  B4D8               	btfsc	status,2,c
  2921  000BC0  0012               	return	
  2922                           
  2923                           ; BSR set to: 0
  2924                           ;mcc_generated_files/tmr2.c: 172:     {;mcc_generated_files/tmr2.c: 173:         TMR2_In
      +                          terruptHandler();
  2925  000BC2  D801               	call	i2u133_48
  2926  000BC4  0012               	return	
  2927  000BC6                     i2u133_48:
  2928  000BC6  0005               	push	
  2929  000BC8  6EFA               	movwf	pclath,c
  2930  000BCA  517C               	movf	_TMR2_InterruptHandler& (0+255),w,b
  2931  000BCC  6EFD               	movwf	tosl,c
  2932  000BCE  517D               	movf	(_TMR2_InterruptHandler+1)& (0+255),w,b
  2933  000BD0  6EFE               	movwf	tosh,c
  2934  000BD2  50F8               	movf	tblptru,w,c
  2935  000BD4  6EFF               	movwf	tosu,c
  2936  000BD6  50FA               	movf	pclath,w,c
  2937  000BD8  0012               	return		;indir
  2938  000BDA                     __end_of_TMR2_ISR:
  2939                           	opt callstack 0
  2940                           
  2941 ;; *************** function _TMR2_DefaultInterruptHandler *****************
  2942 ;; Defined at:
  2943 ;;		line 182 in file "mcc_generated_files/tmr2.c"
  2944 ;; Parameters:    Size  Location     Type
  2945 ;;		None
  2946 ;; Auto vars:     Size  Location     Type
  2947 ;;		None
  2948 ;; Return value:  Size  Location     Type
  2949 ;;                  1    wreg      void 
  2950 ;; Registers used:
  2951 ;;		None
  2952 ;; Tracked objects:
  2953 ;;		On entry : 0/0
  2954 ;;		On exit  : 0/0
  2955 ;;		Unchanged: 0/0
  2956 ;; Data sizes:     COMRAM   BANK0   BANK1   BANK2   BANK3   BANK4   BANK5   BANK6   BANK7
  2957 ;;      Params:         0       0       0       0       0       0       0       0       0
  2958 ;;      Locals:         0       0       0       0       0       0       0       0       0
  2959 ;;      Temps:          0       0       0       0       0       0       0       0       0
  2960 ;;      Totals:         0       0       0       0       0       0       0       0       0
  2961 ;;Total ram usage:        0 bytes
  2962 ;; Hardware stack levels used:    1
  2963 ;; This function calls:
  2964 ;;		Nothing
  2965 ;; This function is called by:
  2966 ;;		_TMR2_Initialize
  2967 ;;		_TMR2_ISR
  2968 ;; This function uses a non-reentrant model
  2969 ;;
  2970                           
  2971                           	psect	text31
  2972  000D90                     __ptext31:
  2973                           	opt callstack 0
  2974  000D90                     _TMR2_DefaultInterruptHandler:
  2975                           	opt callstack 25
  2976                           
  2977                           ;incstack = 0
  2978  000D90  0012               	return		;funcret
  2979  000D92                     __end_of_TMR2_DefaultInterruptHandler:
  2980                           	opt callstack 0
  2981                           
  2982 ;; *************** function _carcontrol_ISR *****************
  2983 ;; Defined at:
  2984 ;;		line 41 in file "car_ctrl.c"
  2985 ;; Parameters:    Size  Location     Type
  2986 ;;		None
  2987 ;; Auto vars:     Size  Location     Type
  2988 ;;		None
  2989 ;; Return value:  Size  Location     Type
  2990 ;;                  1    wreg      void 
  2991 ;; Registers used:
  2992 ;;		wreg, status,2, status,0
  2993 ;; Tracked objects:
  2994 ;;		On entry : 0/0
  2995 ;;		On exit  : 0/0
  2996 ;;		Unchanged: 0/0
  2997 ;; Data sizes:     COMRAM   BANK0   BANK1   BANK2   BANK3   BANK4   BANK5   BANK6   BANK7
  2998 ;;      Params:         0       0       0       0       0       0       0       0       0
  2999 ;;      Locals:         0       0       0       0       0       0       0       0       0
  3000 ;;      Temps:          3       0       0       0       0       0       0       0       0
  3001 ;;      Totals:         3       0       0       0       0       0       0       0       0
  3002 ;;Total ram usage:        3 bytes
  3003 ;; Hardware stack levels used:    1
  3004 ;; This function calls:
  3005 ;;		Nothing
  3006 ;; This function is called by:
  3007 ;;		_carcontrol_init
  3008 ;;		_TMR2_ISR
  3009 ;; This function uses a non-reentrant model
  3010 ;;
  3011                           
  3012                           	psect	text32
  3013  000554                     __ptext32:
  3014                           	opt callstack 0
  3015  000554                     _carcontrol_ISR:
  3016                           	opt callstack 25
  3017                           
  3018                           ;car_ctrl.c: 43:     switch (carctl.state) {
  3019                           
  3020                           ;incstack = 0
  3021  000554  D05C               	goto	i2l2929
  3022  000556                     i2l2887:
  3023                           
  3024                           ; BSR set to: 0
  3025                           ;car_ctrl.c: 46:             carctl.state = state_high;
  3026  000556  0E01               	movlw	1
  3027  000558  6F69               	movwf	(_carctl+1)& (0+255),b	;volatile
  3028                           
  3029                           ; BSR set to: 0
  3030  00055A  8082               	bsf	3970,0,c	;volatile
  3031                           
  3032                           ; BSR set to: 0
  3033  00055C  8282               	bsf	3970,1,c	;volatile
  3034                           
  3035                           ; BSR set to: 0
  3036                           ;car_ctrl.c: 49:             stateTime = 0;
  3037  00055E  0E00               	movlw	0
  3038  000560  6F6F               	movwf	(_stateTime+1)& (0+255),b
  3039  000562  0E00               	movlw	0
  3040  000564  6F6E               	movwf	_stateTime& (0+255),b
  3041                           
  3042                           ;car_ctrl.c: 50:         break;
  3043  000566  0012               	return	
  3044  000568                     i2l2893:
  3045                           
  3046                           ; BSR set to: 0
  3047                           ;car_ctrl.c: 52:             stateTime++;
  3048  000568  4B6E               	infsnz	_stateTime& (0+255),f,b
  3049  00056A  2B6F               	incf	(_stateTime+1)& (0+255),f,b
  3050                           
  3051                           ; BSR set to: 0
  3052  00056C  8082               	bsf	3970,0,c	;volatile
  3053                           
  3054                           ; BSR set to: 0
  3055  00056E  8282               	bsf	3970,1,c	;volatile
  3056                           
  3057                           ; BSR set to: 0
  3058                           ;car_ctrl.c: 55:             if (stateTime >= 100) {
  3059  000570  BF6F               	btfsc	(_stateTime+1)& (0+255),7,b
  3060  000572  0012               	return	
  3061  000574  516F               	movf	(_stateTime+1)& (0+255),w,b
  3062  000576  E104               	bnz	i2u126_40
  3063  000578  0E64               	movlw	100
  3064  00057A  5D6E               	subwf	_stateTime& (0+255),w,b
  3065  00057C  A0D8               	btfss	status,0,c
  3066  00057E  0012               	return	
  3067  000580                     i2u126_40:
  3068                           
  3069                           ; BSR set to: 0
  3070                           ;car_ctrl.c: 57:                 carctl.state = state_vary;
  3071  000580  0E02               	movlw	2
  3072  000582  6F69               	movwf	(_carctl+1)& (0+255),b	;volatile
  3073                           
  3074                           ;car_ctrl.c: 58:                 stateTime = 0;
  3075  000584  0E00               	movlw	0
  3076  000586  6F6F               	movwf	(_stateTime+1)& (0+255),b
  3077  000588  0E00               	movlw	0
  3078  00058A  6F6E               	movwf	_stateTime& (0+255),b
  3079  00058C  0012               	return	
  3080  00058E                     i2l2903:
  3081                           
  3082                           ; BSR set to: 0
  3083                           ;car_ctrl.c: 62:             stateTime++;
  3084  00058E  4B6E               	infsnz	_stateTime& (0+255),f,b
  3085  000590  2B6F               	incf	(_stateTime+1)& (0+255),f,b
  3086                           
  3087                           ; BSR set to: 0
  3088                           ;car_ctrl.c: 63:             if (stateTime > carctl.throttleHighTime) {
  3089  000592  516C               	movf	(_carctl+4)& (0+255),w,b	;volatile
  3090  000594  6E01               	movwf	??_carcontrol_ISR& (0+255),c
  3091  000596  6A02               	clrf	(??_carcontrol_ISR+1)& (0+255),c
  3092  000598  516E               	movf	_stateTime& (0+255),w,b
  3093  00059A  5C01               	subwf	??_carcontrol_ISR,w,c
  3094  00059C  5002               	movf	??_carcontrol_ISR+1,w,c
  3095  00059E  0A80               	xorlw	128
  3096  0005A0  6E03               	movwf	(??_carcontrol_ISR+2)& (0+255),c
  3097  0005A2  516F               	movf	(_stateTime+1)& (0+255),w,b
  3098  0005A4  0A80               	xorlw	128
  3099  0005A6  5803               	subwfb	(??_carcontrol_ISR+2)& (0+255),w,c
  3100  0005A8  A0D8               	btfss	status,0,c
  3101                           
  3102                           ; BSR set to: 0
  3103                           
  3104                           ;car_ctrl.c: 64:                 do { LATAbits.LATA0 = 0; } while(0);
  3105  0005AA  9082               	bcf	3970,0,c	;volatile
  3106                           
  3107                           ; BSR set to: 0
  3108                           ;car_ctrl.c: 66:             if (stateTime > carctl.servoHighTime) {
  3109  0005AC  516D               	movf	(_carctl+5)& (0+255),w,b	;volatile
  3110  0005AE  6E01               	movwf	??_carcontrol_ISR& (0+255),c
  3111  0005B0  6A02               	clrf	(??_carcontrol_ISR+1)& (0+255),c
  3112  0005B2  516E               	movf	_stateTime& (0+255),w,b
  3113  0005B4  5C01               	subwf	??_carcontrol_ISR,w,c
  3114  0005B6  5002               	movf	??_carcontrol_ISR+1,w,c
  3115  0005B8  0A80               	xorlw	128
  3116  0005BA  6E03               	movwf	(??_carcontrol_ISR+2)& (0+255),c
  3117  0005BC  516F               	movf	(_stateTime+1)& (0+255),w,b
  3118  0005BE  0A80               	xorlw	128
  3119  0005C0  5803               	subwfb	(??_carcontrol_ISR+2)& (0+255),w,c
  3120  0005C2  A0D8               	btfss	status,0,c
  3121                           
  3122                           ; BSR set to: 0
  3123                           
  3124                           ;car_ctrl.c: 67:                 do { LATAbits.LATA1 = 0; } while(0);
  3125  0005C4  9282               	bcf	3970,1,c	;volatile
  3126                           
  3127                           ; BSR set to: 0
  3128                           ;car_ctrl.c: 69:             if (stateTime >= 100) {
  3129  0005C6  BF6F               	btfsc	(_stateTime+1)& (0+255),7,b
  3130  0005C8  0012               	return	
  3131  0005CA  516F               	movf	(_stateTime+1)& (0+255),w,b
  3132  0005CC  E104               	bnz	i2u129_40
  3133  0005CE  0E64               	movlw	100
  3134  0005D0  5D6E               	subwf	_stateTime& (0+255),w,b
  3135  0005D2  A0D8               	btfss	status,0,c
  3136  0005D4  0012               	return	
  3137  0005D6                     i2u129_40:
  3138                           
  3139                           ; BSR set to: 0
  3140                           ;car_ctrl.c: 70:                 carctl.state = state_low;
  3141  0005D6  0E03               	movlw	3
  3142  0005D8  6F69               	movwf	(_carctl+1)& (0+255),b	;volatile
  3143                           
  3144                           ;car_ctrl.c: 71:                 stateTime = 0;
  3145  0005DA  0E00               	movlw	0
  3146  0005DC  6F6F               	movwf	(_stateTime+1)& (0+255),b
  3147  0005DE  0E00               	movlw	0
  3148  0005E0  6F6E               	movwf	_stateTime& (0+255),b
  3149  0005E2  0012               	return	
  3150  0005E4                     i2l2913:
  3151                           
  3152                           ; BSR set to: 0
  3153                           ;car_ctrl.c: 75:             stateTime++;
  3154  0005E4  4B6E               	infsnz	_stateTime& (0+255),f,b
  3155  0005E6  2B6F               	incf	(_stateTime+1)& (0+255),f,b
  3156                           
  3157                           ; BSR set to: 0
  3158  0005E8  9082               	bcf	3970,0,c	;volatile
  3159                           
  3160                           ; BSR set to: 0
  3161  0005EA  9282               	bcf	3970,1,c	;volatile
  3162                           
  3163                           ; BSR set to: 0
  3164                           ;car_ctrl.c: 78:             if (stateTime >= 1800) {
  3165  0005EC  BF6F               	btfsc	(_stateTime+1)& (0+255),7,b
  3166  0005EE  0012               	return	
  3167  0005F0  0E08               	movlw	8
  3168  0005F2  5D6E               	subwf	_stateTime& (0+255),w,b
  3169  0005F4  0E07               	movlw	7
  3170  0005F6  596F               	subwfb	(_stateTime+1)& (0+255),w,b
  3171  0005F8  A0D8               	btfss	status,0,c
  3172  0005FA  0012               	return	
  3173                           
  3174                           ; BSR set to: 0
  3175                           ;car_ctrl.c: 79:                 carctl.state = state_high;
  3176  0005FC  0E01               	movlw	1
  3177  0005FE  6F69               	movwf	(_carctl+1)& (0+255),b	;volatile
  3178                           
  3179                           ;car_ctrl.c: 80:                 stateTime = 0;
  3180  000600  0E00               	movlw	0
  3181  000602  6F6F               	movwf	(_stateTime+1)& (0+255),b
  3182  000604  0E00               	movlw	0
  3183  000606  6F6E               	movwf	_stateTime& (0+255),b
  3184                           
  3185                           ; BSR set to: 0
  3186  000608  8082               	bsf	3970,0,c	;volatile
  3187                           
  3188                           ; BSR set to: 0
  3189  00060A  9282               	bcf	3970,1,c	;volatile
  3190  00060C  0012               	return	
  3191  00060E                     i2l2929:
  3192  00060E  0100               	movlb	0	; () banked
  3193  000610  5169               	movf	(_carctl+1)& (0+255),w,b	;volatile
  3194  000612  6E01               	movwf	??_carcontrol_ISR& (0+255),c
  3195  000614  6A02               	clrf	(??_carcontrol_ISR+1)& (0+255),c
  3196                           
  3197                           ; Switch on 2 bytes has been partitioned into a top level switch of size 1, and 1 sub-sw
      +                          itches
  3198                           ; Switch size 1, requested type "simple"
  3199                           ; Number of cases is 1, Range of values is 0 to 0
  3200                           ; switch strategies available:
  3201                           ; Name         Instructions Cycles
  3202                           ; simple_byte            4     3 (average)
  3203                           ;	Chosen strategy is simple_byte
  3204  000616  5002               	movf	??_carcontrol_ISR+1,w,c
  3205  000618  0A00               	xorlw	0	; case 0
  3206  00061A  A4D8               	btfss	status,2,c
  3207  00061C  0012               	return	
  3208                           
  3209                           ; BSR set to: 0
  3210                           ; Switch size 1, requested type "simple"
  3211                           ; Number of cases is 4, Range of values is 0 to 3
  3212                           ; switch strategies available:
  3213                           ; Name         Instructions Cycles
  3214                           ; simple_byte           13     7 (average)
  3215                           ;	Chosen strategy is simple_byte
  3216  00061E  5001               	movf	??_carcontrol_ISR,w,c
  3217  000620  0A00               	xorlw	0	; case 0
  3218  000622  B4D8               	btfsc	status,2,c
  3219  000624  D798               	goto	i2l2887
  3220  000626  0A01               	xorlw	1	; case 1
  3221  000628  B4D8               	btfsc	status,2,c
  3222  00062A  D79E               	goto	i2l2893
  3223  00062C  0A03               	xorlw	3	; case 2
  3224  00062E  B4D8               	btfsc	status,2,c
  3225  000630  D7AE               	goto	i2l2903
  3226  000632  0A01               	xorlw	1	; case 3
  3227  000634  A4D8               	btfss	status,2,c
  3228  000636  0012               	return	
  3229  000638  D7D5               	goto	i2l2913
  3230  00063A                     __end_of_carcontrol_ISR:
  3231                           	opt callstack 0
  3232                           
  3233 ;; *************** function _TMR1_ISR *****************
  3234 ;; Defined at:
  3235 ;;		line 164 in file "mcc_generated_files/tmr1.c"
  3236 ;; Parameters:    Size  Location     Type
  3237 ;;		None
  3238 ;; Auto vars:     Size  Location     Type
  3239 ;;		None
  3240 ;; Return value:  Size  Location     Type
  3241 ;;                  1    wreg      void 
  3242 ;; Registers used:
  3243 ;;		wreg, status,2, status,0, pclath, tosl, cstack
  3244 ;; Tracked objects:
  3245 ;;		On entry : 0/0
  3246 ;;		On exit  : 0/0
  3247 ;;		Unchanged: 0/0
  3248 ;; Data sizes:     COMRAM   BANK0   BANK1   BANK2   BANK3   BANK4   BANK5   BANK6   BANK7
  3249 ;;      Params:         0       0       0       0       0       0       0       0       0
  3250 ;;      Locals:         0       0       0       0       0       0       0       0       0
  3251 ;;      Temps:          0       0       0       0       0       0       0       0       0
  3252 ;;      Totals:         0       0       0       0       0       0       0       0       0
  3253 ;;Total ram usage:        0 bytes
  3254 ;; Hardware stack levels used:    1
  3255 ;; Hardware stack levels required when called:    2
  3256 ;; This function calls:
  3257 ;;		Absolute function
  3258 ;;		_TMR1_DefaultInterruptHandler
  3259 ;;		_TMR1_WriteTimer
  3260 ;;		_ping_TMR1Overflow_isr
  3261 ;; This function is called by:
  3262 ;;		_INTERRUPT_InterruptManager
  3263 ;; This function uses a non-reentrant model
  3264 ;;
  3265                           
  3266                           	psect	text33
  3267  000AA4                     __ptext33:
  3268                           	opt callstack 0
  3269  000AA4                     _TMR1_ISR:
  3270                           	opt callstack 24
  3271                           
  3272                           ;mcc_generated_files/tmr1.c: 168:     PIR4bits.TMR1IF = 0;
  3273                           
  3274                           ; BSR set to: 0
  3275                           ;incstack = 0
  3276  000AA4  010E               	movlb	14	; () banked
  3277  000AA6  91C9               	bcf	201,0,b	;volatile
  3278                           
  3279                           ; BSR set to: 14
  3280                           ;mcc_generated_files/tmr1.c: 169:     TMR1_WriteTimer(timer1ReloadVal);
  3281  000AA8  C052  F001         	movff	_timer1ReloadVal,TMR1_WriteTimer@timerVal	;volatile
  3282  000AAC  C053  F002         	movff	_timer1ReloadVal+1,TMR1_WriteTimer@timerVal+1	;volatile
  3283  000AB0  EC4F  F006         	call	_TMR1_WriteTimer	;wreg free
  3284                           
  3285                           ;mcc_generated_files/tmr1.c: 171:     if(TMR1_InterruptHandler)
  3286  000AB4  5050               	movf	_TMR1_InterruptHandler,w,c
  3287  000AB6  1051               	iorwf	_TMR1_InterruptHandler+1,w,c
  3288  000AB8  B4D8               	btfsc	status,2,c
  3289  000ABA  0012               	return	
  3290                           
  3291                           ;mcc_generated_files/tmr1.c: 172:     {;mcc_generated_files/tmr1.c: 173:         TMR1_In
      +                          terruptHandler();
  3292  000ABC  D801               	call	i2u139_48
  3293  000ABE  0012               	return	
  3294  000AC0                     i2u139_48:
  3295  000AC0  0005               	push	
  3296  000AC2  6EFA               	movwf	pclath,c
  3297  000AC4  5050               	movf	_TMR1_InterruptHandler,w,c
  3298  000AC6  6EFD               	movwf	tosl,c
  3299  000AC8  5051               	movf	_TMR1_InterruptHandler+1,w,c
  3300  000ACA  6EFE               	movwf	tosh,c
  3301  000ACC  50F8               	movf	tblptru,w,c
  3302  000ACE  6EFF               	movwf	tosu,c
  3303  000AD0  50FA               	movf	pclath,w,c
  3304  000AD2  0012               	return		;indir
  3305  000AD4                     __end_of_TMR1_ISR:
  3306                           	opt callstack 0
  3307                           
  3308 ;; *************** function _TMR1_DefaultInterruptHandler *****************
  3309 ;; Defined at:
  3310 ;;		line 182 in file "mcc_generated_files/tmr1.c"
  3311 ;; Parameters:    Size  Location     Type
  3312 ;;		None
  3313 ;; Auto vars:     Size  Location     Type
  3314 ;;		None
  3315 ;; Return value:  Size  Location     Type
  3316 ;;                  1    wreg      void 
  3317 ;; Registers used:
  3318 ;;		None
  3319 ;; Tracked objects:
  3320 ;;		On entry : 0/0
  3321 ;;		On exit  : 0/0
  3322 ;;		Unchanged: 0/0
  3323 ;; Data sizes:     COMRAM   BANK0   BANK1   BANK2   BANK3   BANK4   BANK5   BANK6   BANK7
  3324 ;;      Params:         0       0       0       0       0       0       0       0       0
  3325 ;;      Locals:         0       0       0       0       0       0       0       0       0
  3326 ;;      Temps:          0       0       0       0       0       0       0       0       0
  3327 ;;      Totals:         0       0       0       0       0       0       0       0       0
  3328 ;;Total ram usage:        0 bytes
  3329 ;; Hardware stack levels used:    1
  3330 ;; This function calls:
  3331 ;;		Nothing
  3332 ;; This function is called by:
  3333 ;;		_TMR1_Initialize
  3334 ;;		_ping_TMR1Overflow_isr
  3335 ;;		_ping_RC2_went_HIGH
  3336 ;;		_ping_init
  3337 ;;		_TMR1_ISR
  3338 ;; This function uses a non-reentrant model
  3339 ;;
  3340                           
  3341                           	psect	text34
  3342  000D92                     __ptext34:
  3343                           	opt callstack 0
  3344  000D92                     _TMR1_DefaultInterruptHandler:
  3345                           	opt callstack 25
  3346                           
  3347                           ;incstack = 0
  3348  000D92  0012               	return		;funcret
  3349  000D94                     __end_of_TMR1_DefaultInterruptHandler:
  3350                           	opt callstack 0
  3351                           
  3352 ;; *************** function _ping_TMR1Overflow_isr *****************
  3353 ;; Defined at:
  3354 ;;		line 54 in file "ping.c"
  3355 ;; Parameters:    Size  Location     Type
  3356 ;;		None
  3357 ;; Auto vars:     Size  Location     Type
  3358 ;;		None
  3359 ;; Return value:  Size  Location     Type
  3360 ;;                  1    wreg      void 
  3361 ;; Registers used:
  3362 ;;		wreg, status,2, status,0, cstack
  3363 ;; Tracked objects:
  3364 ;;		On entry : 0/0
  3365 ;;		On exit  : 0/0
  3366 ;;		Unchanged: 0/0
  3367 ;; Data sizes:     COMRAM   BANK0   BANK1   BANK2   BANK3   BANK4   BANK5   BANK6   BANK7
  3368 ;;      Params:         0       0       0       0       0       0       0       0       0
  3369 ;;      Locals:         0       0       0       0       0       0       0       0       0
  3370 ;;      Temps:          0       0       0       0       0       0       0       0       0
  3371 ;;      Totals:         0       0       0       0       0       0       0       0       0
  3372 ;;Total ram usage:        0 bytes
  3373 ;; Hardware stack levels used:    1
  3374 ;; Hardware stack levels required when called:    1
  3375 ;; This function calls:
  3376 ;;		i2_IOCCF2_SetInterruptHandler
  3377 ;;		i2_TMR1_SetInterruptHandler
  3378 ;; This function is called by:
  3379 ;;		_ping_send
  3380 ;;		_TMR1_ISR
  3381 ;; This function uses a non-reentrant model
  3382 ;;
  3383                           
  3384                           	psect	text35
  3385  000C48                     __ptext35:
  3386                           	opt callstack 0
  3387  000C48                     _ping_TMR1Overflow_isr:
  3388                           	opt callstack 24
  3389                           
  3390                           ;ping.c: 55:     TMR1_SetInterruptHandler(TMR1_DefaultInterruptHandler);
  3391                           
  3392                           ;incstack = 0
  3393  000C48  0E92               	movlw	low _TMR1_DefaultInterruptHandler
  3394  000C4A  6E01               	movwf	i2TMR1_SetInterruptHandler@InterruptHandler,c
  3395  000C4C  0E0D               	movlw	high _TMR1_DefaultInterruptHandler
  3396  000C4E  6E02               	movwf	i2TMR1_SetInterruptHandler@InterruptHandler+1,c
  3397  000C50  ECB1  F006         	call	i2_TMR1_SetInterruptHandler	;wreg free
  3398  000C54  9484               	bcf	3972,2,c	;volatile
  3399  000C56  8489               	bsf	3977,2,c	;volatile
  3400                           
  3401                           ;ping.c: 60:     IOCCF2_SetInterruptHandler(ping_RC2_went_HIGH);
  3402  000C58  0E10               	movlw	low _ping_RC2_went_HIGH
  3403  000C5A  6E01               	movwf	i2IOCCF2_SetInterruptHandler@InterruptHandler,c
  3404  000C5C  0E0A               	movlw	high _ping_RC2_went_HIGH
  3405  000C5E  6E02               	movwf	i2IOCCF2_SetInterruptHandler@InterruptHandler+1,c
  3406  000C60  ECB6  F006         	call	i2_IOCCF2_SetInterruptHandler	;wreg free
  3407  000C64  0012               	return		;funcret
  3408  000C66                     __end_of_ping_TMR1Overflow_isr:
  3409                           	opt callstack 0
  3410                           
  3411 ;; *************** function _PIN_MANAGER_IOC *****************
  3412 ;; Defined at:
  3413 ;;		line 126 in file "mcc_generated_files/pin_manager.c"
  3414 ;; Parameters:    Size  Location     Type
  3415 ;;		None
  3416 ;; Auto vars:     Size  Location     Type
  3417 ;;		None
  3418 ;; Return value:  Size  Location     Type
  3419 ;;                  1    wreg      void 
  3420 ;; Registers used:
  3421 ;;		wreg, status,2, status,0, pclath, tosl, cstack
  3422 ;; Tracked objects:
  3423 ;;		On entry : 0/0
  3424 ;;		On exit  : 0/0
  3425 ;;		Unchanged: 0/0
  3426 ;; Data sizes:     COMRAM   BANK0   BANK1   BANK2   BANK3   BANK4   BANK5   BANK6   BANK7
  3427 ;;      Params:         0       0       0       0       0       0       0       0       0
  3428 ;;      Locals:         0       0       0       0       0       0       0       0       0
  3429 ;;      Temps:          0       0       0       0       0       0       0       0       0
  3430 ;;      Totals:         0       0       0       0       0       0       0       0       0
  3431 ;;Total ram usage:        0 bytes
  3432 ;; Hardware stack levels used:    1
  3433 ;; Hardware stack levels required when called:    3
  3434 ;; This function calls:
  3435 ;;		_IOCCF2_ISR
  3436 ;; This function is called by:
  3437 ;;		_INTERRUPT_InterruptManager
  3438 ;; This function uses a non-reentrant model
  3439 ;;
  3440                           
  3441                           	psect	text36
  3442  000CE8                     __ptext36:
  3443                           	opt callstack 0
  3444  000CE8                     _PIN_MANAGER_IOC:
  3445                           	opt callstack 23
  3446                           
  3447                           ;mcc_generated_files/pin_manager.c: 129:     if(IOCCFbits.IOCCF2 == 1)
  3448                           
  3449                           ;incstack = 0
  3450  000CE8  010F               	movlb	15	; () banked
  3451  000CEA  A515               	btfss	21,2,b	;volatile
  3452  000CEC  0012               	return	
  3453                           
  3454                           ; BSR set to: 15
  3455                           ;mcc_generated_files/pin_manager.c: 130:     {;mcc_generated_files/pin_manager.c: 131:  
      +                                 IOCCF2_ISR();
  3456  000CEE  ECED  F005         	call	_IOCCF2_ISR	;wreg free
  3457  000CF2  0012               	return		;funcret
  3458  000CF4                     __end_of_PIN_MANAGER_IOC:
  3459                           	opt callstack 0
  3460                           
  3461 ;; *************** function _IOCCF2_ISR *****************
  3462 ;; Defined at:
  3463 ;;		line 138 in file "mcc_generated_files/pin_manager.c"
  3464 ;; Parameters:    Size  Location     Type
  3465 ;;		None
  3466 ;; Auto vars:     Size  Location     Type
  3467 ;;		None
  3468 ;; Return value:  Size  Location     Type
  3469 ;;                  1    wreg      void 
  3470 ;; Registers used:
  3471 ;;		wreg, status,2, status,0, pclath, tosl, cstack
  3472 ;; Tracked objects:
  3473 ;;		On entry : 0/0
  3474 ;;		On exit  : 0/0
  3475 ;;		Unchanged: 0/0
  3476 ;; Data sizes:     COMRAM   BANK0   BANK1   BANK2   BANK3   BANK4   BANK5   BANK6   BANK7
  3477 ;;      Params:         0       0       0       0       0       0       0       0       0
  3478 ;;      Locals:         0       0       0       0       0       0       0       0       0
  3479 ;;      Temps:          0       0       0       0       0       0       0       0       0
  3480 ;;      Totals:         0       0       0       0       0       0       0       0       0
  3481 ;;Total ram usage:        0 bytes
  3482 ;; Hardware stack levels used:    1
  3483 ;; Hardware stack levels required when called:    2
  3484 ;; This function calls:
  3485 ;;		Absolute function
  3486 ;;		_IOCCF2_DefaultInterruptHandler
  3487 ;;		_ping_RC2_went_HIGH
  3488 ;; This function is called by:
  3489 ;;		_PIN_MANAGER_IOC
  3490 ;; This function uses a non-reentrant model
  3491 ;;
  3492                           
  3493                           	psect	text37
  3494  000BDA                     __ptext37:
  3495                           	opt callstack 0
  3496  000BDA                     _IOCCF2_ISR:
  3497                           	opt callstack 23
  3498                           
  3499                           ;mcc_generated_files/pin_manager.c: 143:     if(IOCCF2_InterruptHandler)
  3500                           
  3501                           ;incstack = 0
  3502  000BDA  5056               	movf	_IOCCF2_InterruptHandler,w,c
  3503  000BDC  1057               	iorwf	_IOCCF2_InterruptHandler+1,w,c
  3504  000BDE  B4D8               	btfsc	status,2,c
  3505  000BE0  D00C               	goto	i2u121_49
  3506                           
  3507                           ;mcc_generated_files/pin_manager.c: 144:     {;mcc_generated_files/pin_manager.c: 145:  
      +                                 IOCCF2_InterruptHandler();
  3508  000BE2  D801               	call	i2u121_48
  3509  000BE4  D00A               	goto	i2u121_49
  3510  000BE6                     i2u121_48:
  3511  000BE6  0005               	push	
  3512  000BE8  6EFA               	movwf	pclath,c
  3513  000BEA  5056               	movf	_IOCCF2_InterruptHandler,w,c
  3514  000BEC  6EFD               	movwf	tosl,c
  3515  000BEE  5057               	movf	_IOCCF2_InterruptHandler+1,w,c
  3516  000BF0  6EFE               	movwf	tosh,c
  3517  000BF2  50F8               	movf	tblptru,w,c
  3518  000BF4  6EFF               	movwf	tosu,c
  3519  000BF6  50FA               	movf	pclath,w,c
  3520  000BF8  0012               	return		;indir
  3521  000BFA                     i2u121_49:
  3522                           
  3523                           ;mcc_generated_files/pin_manager.c: 147:     IOCCFbits.IOCCF2 = 0;
  3524  000BFA  010F               	movlb	15	; () banked
  3525  000BFC  9515               	bcf	21,2,b	;volatile
  3526                           
  3527                           ; BSR set to: 15
  3528  000BFE  0012               	return		;funcret
  3529  000C00                     __end_of_IOCCF2_ISR:
  3530                           	opt callstack 0
  3531                           
  3532 ;; *************** function _IOCCF2_DefaultInterruptHandler *****************
  3533 ;; Defined at:
  3534 ;;		line 160 in file "mcc_generated_files/pin_manager.c"
  3535 ;; Parameters:    Size  Location     Type
  3536 ;;		None
  3537 ;; Auto vars:     Size  Location     Type
  3538 ;;		None
  3539 ;; Return value:  Size  Location     Type
  3540 ;;                  1    wreg      void 
  3541 ;; Registers used:
  3542 ;;		None
  3543 ;; Tracked objects:
  3544 ;;		On entry : 0/0
  3545 ;;		On exit  : 0/0
  3546 ;;		Unchanged: 0/0
  3547 ;; Data sizes:     COMRAM   BANK0   BANK1   BANK2   BANK3   BANK4   BANK5   BANK6   BANK7
  3548 ;;      Params:         0       0       0       0       0       0       0       0       0
  3549 ;;      Locals:         0       0       0       0       0       0       0       0       0
  3550 ;;      Temps:          0       0       0       0       0       0       0       0       0
  3551 ;;      Totals:         0       0       0       0       0       0       0       0       0
  3552 ;;Total ram usage:        0 bytes
  3553 ;; Hardware stack levels used:    1
  3554 ;; This function calls:
  3555 ;;		Nothing
  3556 ;; This function is called by:
  3557 ;;		_PIN_MANAGER_Initialize
  3558 ;;		_ping_RC2_went_HIGH
  3559 ;;		_ping_init
  3560 ;;		_IOCCF2_ISR
  3561 ;; This function uses a non-reentrant model
  3562 ;;
  3563                           
  3564                           	psect	text38
  3565  000D94                     __ptext38:
  3566                           	opt callstack 0
  3567  000D94                     _IOCCF2_DefaultInterruptHandler:
  3568                           	opt callstack 24
  3569                           
  3570                           ; BSR set to: 15
  3571                           ;incstack = 0
  3572  000D94  0012               	return		;funcret
  3573  000D96                     __end_of_IOCCF2_DefaultInterruptHandler:
  3574                           	opt callstack 0
  3575                           
  3576 ;; *************** function _ping_RC2_went_HIGH *****************
  3577 ;; Defined at:
  3578 ;;		line 66 in file "ping.c"
  3579 ;; Parameters:    Size  Location     Type
  3580 ;;		None
  3581 ;; Auto vars:     Size  Location     Type
  3582 ;;		None
  3583 ;; Return value:  Size  Location     Type
  3584 ;;                  1    wreg      void 
  3585 ;; Registers used:
  3586 ;;		wreg, status,2, status,0, cstack
  3587 ;; Tracked objects:
  3588 ;;		On entry : 0/0
  3589 ;;		On exit  : 0/0
  3590 ;;		Unchanged: 0/0
  3591 ;; Data sizes:     COMRAM   BANK0   BANK1   BANK2   BANK3   BANK4   BANK5   BANK6   BANK7
  3592 ;;      Params:         0       0       0       0       0       0       0       0       0
  3593 ;;      Locals:         0       0       0       0       0       0       0       0       0
  3594 ;;      Temps:          0       0       0       0       0       0       0       0       0
  3595 ;;      Totals:         0       0       0       0       0       0       0       0       0
  3596 ;;Total ram usage:        0 bytes
  3597 ;; Hardware stack levels used:    1
  3598 ;; Hardware stack levels required when called:    1
  3599 ;; This function calls:
  3600 ;;		_TMR1_StartTimer
  3601 ;;		_TMR1_WriteTimer
  3602 ;;		i2_IOCCF2_SetInterruptHandler
  3603 ;;		i2_TMR1_SetInterruptHandler
  3604 ;; This function is called by:
  3605 ;;		_ping_TMR1Overflow_isr
  3606 ;;		_IOCCF2_ISR
  3607 ;; This function uses a non-reentrant model
  3608 ;;
  3609                           
  3610                           	psect	text39
  3611  000A10                     __ptext39:
  3612                           	opt callstack 0
  3613  000A10                     _ping_RC2_went_HIGH:
  3614                           	opt callstack 23
  3615                           
  3616                           ;ping.c: 67:     IOCCF2_SetInterruptHandler(IOCCF2_DefaultInterruptHandler);
  3617                           
  3618                           ;incstack = 0
  3619  000A10  0E94               	movlw	low _IOCCF2_DefaultInterruptHandler
  3620  000A12  6E01               	movwf	i2IOCCF2_SetInterruptHandler@InterruptHandler,c
  3621  000A14  0E0D               	movlw	high _IOCCF2_DefaultInterruptHandler
  3622  000A16  6E02               	movwf	i2IOCCF2_SetInterruptHandler@InterruptHandler+1,c
  3623  000A18  ECB6  F006         	call	i2_IOCCF2_SetInterruptHandler	;wreg free
  3624                           
  3625                           ;ping.c: 68:     TMR1_SetInterruptHandler(TMR1_DefaultInterruptHandler);
  3626  000A1C  0E92               	movlw	low _TMR1_DefaultInterruptHandler
  3627  000A1E  6E01               	movwf	i2TMR1_SetInterruptHandler@InterruptHandler,c
  3628  000A20  0E0D               	movlw	high _TMR1_DefaultInterruptHandler
  3629  000A22  6E02               	movwf	i2TMR1_SetInterruptHandler@InterruptHandler+1,c
  3630  000A24  ECB1  F006         	call	i2_TMR1_SetInterruptHandler	;wreg free
  3631                           
  3632                           ;ping.c: 70:     TMR1_WriteTimer(0);
  3633  000A28  0E00               	movlw	0
  3634  000A2A  6E02               	movwf	TMR1_WriteTimer@timerVal+1,c
  3635  000A2C  0E00               	movlw	0
  3636  000A2E  6E01               	movwf	TMR1_WriteTimer@timerVal,c
  3637  000A30  EC4F  F006         	call	_TMR1_WriteTimer	;wreg free
  3638                           
  3639                           ;ping.c: 71:     TMR1_StartTimer();
  3640  000A34  ECC3  F006         	call	_TMR1_StartTimer	;wreg free
  3641  000A38  8482               	bsf	3970,2,c	;volatile
  3642                           
  3643                           ;ping.c: 74:     PIR6 = 0;
  3644  000A3A  0E00               	movlw	0
  3645  000A3C  010E               	movlb	14	; () banked
  3646  000A3E  6FCB               	movwf	203,b	;volatile
  3647                           
  3648                           ; BSR set to: 14
  3649                           ;ping.c: 75:     PIE6bits.CCP1IE = 1;
  3650  000A40  81C3               	bsf	195,0,b	;volatile
  3651                           
  3652                           ; BSR set to: 14
  3653  000A42  0012               	return		;funcret
  3654  000A44                     __end_of_ping_RC2_went_HIGH:
  3655                           	opt callstack 0
  3656                           
  3657 ;; *************** function i2_TMR1_SetInterruptHandler *****************
  3658 ;; Defined at:
  3659 ;;		line 178 in file "mcc_generated_files/tmr1.c"
  3660 ;; Parameters:    Size  Location     Type
  3661 ;;  InterruptHan    2    0[COMRAM] PTR FTN()void 
  3662 ;;		 -> ping_TMR1Overflow_isr(1), TMR1_DefaultInterruptHandler(1), 
  3663 ;; Auto vars:     Size  Location     Type
  3664 ;;		None
  3665 ;; Return value:  Size  Location     Type
  3666 ;;                  1    wreg      void 
  3667 ;; Registers used:
  3668 ;;		wreg, status,2, status,0
  3669 ;; Tracked objects:
  3670 ;;		On entry : 0/0
  3671 ;;		On exit  : 0/0
  3672 ;;		Unchanged: 0/0
  3673 ;; Data sizes:     COMRAM   BANK0   BANK1   BANK2   BANK3   BANK4   BANK5   BANK6   BANK7
  3674 ;;      Params:         2       0       0       0       0       0       0       0       0
  3675 ;;      Locals:         0       0       0       0       0       0       0       0       0
  3676 ;;      Temps:          0       0       0       0       0       0       0       0       0
  3677 ;;      Totals:         2       0       0       0       0       0       0       0       0
  3678 ;;Total ram usage:        2 bytes
  3679 ;; Hardware stack levels used:    1
  3680 ;; This function calls:
  3681 ;;		Nothing
  3682 ;; This function is called by:
  3683 ;;		_ping_TMR1Overflow_isr
  3684 ;;		_ping_RC2_went_HIGH
  3685 ;; This function uses a non-reentrant model
  3686 ;;
  3687                           
  3688                           	psect	text40
  3689  000D62                     __ptext40:
  3690                           	opt callstack 0
  3691  000D62                     i2_TMR1_SetInterruptHandler:
  3692                           	opt callstack 24
  3693                           
  3694                           ;mcc_generated_files/tmr1.c: 179:     TMR1_InterruptHandler = InterruptHandler;
  3695                           
  3696                           ; BSR set to: 14
  3697                           ;incstack = 0
  3698  000D62  C001  F050         	movff	i2TMR1_SetInterruptHandler@InterruptHandler,_TMR1_InterruptHandler
  3699  000D66  C002  F051         	movff	i2TMR1_SetInterruptHandler@InterruptHandler+1,_TMR1_InterruptHandler+1
  3700  000D6A  0012               	return		;funcret
  3701  000D6C                     __end_ofi2_TMR1_SetInterruptHandler:
  3702                           	opt callstack 0
  3703                           
  3704 ;; *************** function i2_IOCCF2_SetInterruptHandler *****************
  3705 ;; Defined at:
  3706 ;;		line 153 in file "mcc_generated_files/pin_manager.c"
  3707 ;; Parameters:    Size  Location     Type
  3708 ;;  InterruptHan    2    0[COMRAM] PTR FTN()void 
  3709 ;;		 -> ping_RC2_went_HIGH(1), IOCCF2_DefaultInterruptHandler(1), 
  3710 ;; Auto vars:     Size  Location     Type
  3711 ;;		None
  3712 ;; Return value:  Size  Location     Type
  3713 ;;                  1    wreg      void 
  3714 ;; Registers used:
  3715 ;;		wreg, status,2, status,0
  3716 ;; Tracked objects:
  3717 ;;		On entry : 0/0
  3718 ;;		On exit  : 0/0
  3719 ;;		Unchanged: 0/0
  3720 ;; Data sizes:     COMRAM   BANK0   BANK1   BANK2   BANK3   BANK4   BANK5   BANK6   BANK7
  3721 ;;      Params:         2       0       0       0       0       0       0       0       0
  3722 ;;      Locals:         0       0       0       0       0       0       0       0       0
  3723 ;;      Temps:          0       0       0       0       0       0       0       0       0
  3724 ;;      Totals:         2       0       0       0       0       0       0       0       0
  3725 ;;Total ram usage:        2 bytes
  3726 ;; Hardware stack levels used:    1
  3727 ;; This function calls:
  3728 ;;		Nothing
  3729 ;; This function is called by:
  3730 ;;		_ping_TMR1Overflow_isr
  3731 ;;		_ping_RC2_went_HIGH
  3732 ;; This function uses a non-reentrant model
  3733 ;;
  3734                           
  3735                           	psect	text41
  3736  000D6C                     __ptext41:
  3737                           	opt callstack 0
  3738  000D6C                     i2_IOCCF2_SetInterruptHandler:
  3739                           	opt callstack 24
  3740                           
  3741                           ;mcc_generated_files/pin_manager.c: 154:     IOCCF2_InterruptHandler = InterruptHandler;
  3742                           
  3743                           ;incstack = 0
  3744  000D6C  C001  F056         	movff	i2IOCCF2_SetInterruptHandler@InterruptHandler,_IOCCF2_InterruptHandler
  3745  000D70  C002  F057         	movff	i2IOCCF2_SetInterruptHandler@InterruptHandler+1,_IOCCF2_InterruptHandler+1
  3746  000D74  0012               	return		;funcret
  3747  000D76                     __end_ofi2_IOCCF2_SetInterruptHandler:
  3748                           	opt callstack 0
  3749                           
  3750 ;; *************** function _TMR1_WriteTimer *****************
  3751 ;; Defined at:
  3752 ;;		line 127 in file "mcc_generated_files/tmr1.c"
  3753 ;; Parameters:    Size  Location     Type
  3754 ;;  timerVal        2    0[COMRAM] unsigned short 
  3755 ;; Auto vars:     Size  Location     Type
  3756 ;;		None
  3757 ;; Return value:  Size  Location     Type
  3758 ;;                  1    wreg      void 
  3759 ;; Registers used:
  3760 ;;		wreg, status,2
  3761 ;; Tracked objects:
  3762 ;;		On entry : 0/0
  3763 ;;		On exit  : 0/0
  3764 ;;		Unchanged: 0/0
  3765 ;; Data sizes:     COMRAM   BANK0   BANK1   BANK2   BANK3   BANK4   BANK5   BANK6   BANK7
  3766 ;;      Params:         2       0       0       0       0       0       0       0       0
  3767 ;;      Locals:         0       0       0       0       0       0       0       0       0
  3768 ;;      Temps:          0       0       0       0       0       0       0       0       0
  3769 ;;      Totals:         2       0       0       0       0       0       0       0       0
  3770 ;;Total ram usage:        2 bytes
  3771 ;; Hardware stack levels used:    1
  3772 ;; This function calls:
  3773 ;;		Nothing
  3774 ;; This function is called by:
  3775 ;;		_TMR1_ISR
  3776 ;;		_ping_RC2_went_HIGH
  3777 ;;		_TMR1_Reload
  3778 ;;		_ping_send
  3779 ;; This function uses a non-reentrant model
  3780 ;;
  3781                           
  3782                           	psect	text42
  3783  000C9E                     __ptext42:
  3784                           	opt callstack 0
  3785  000C9E                     _TMR1_WriteTimer:
  3786                           	opt callstack 25
  3787                           
  3788                           ;mcc_generated_files/tmr1.c: 127: void TMR1_WriteTimer(uint16_t timerVal);mcc_generated_
      +                          files/tmr1.c: 128: {;mcc_generated_files/tmr1.c: 129:     if (T1CONbits.nT1SYNC == 1)
  3789                           
  3790                           ;incstack = 0
  3791  000C9E  A4CE               	btfss	4046,2,c	;volatile
  3792  000CA0  D007               	goto	i2l2507
  3793                           
  3794                           ;mcc_generated_files/tmr1.c: 130:     {;mcc_generated_files/tmr1.c: 132:         T1CONbi
      +                          ts.TMR1ON = 0;
  3795  000CA2  90CE               	bcf	4046,0,c	;volatile
  3796                           
  3797                           ;mcc_generated_files/tmr1.c: 135:         TMR1H = (timerVal >> 8);
  3798  000CA4  5002               	movf	TMR1_WriteTimer@timerVal+1,w,c
  3799  000CA6  6ECD               	movwf	4045,c	;volatile
  3800                           
  3801                           ;mcc_generated_files/tmr1.c: 136:         TMR1L = timerVal;
  3802  000CA8  C001  FFCC         	movff	TMR1_WriteTimer@timerVal,4044	;volatile
  3803                           
  3804                           ;mcc_generated_files/tmr1.c: 139:         T1CONbits.TMR1ON =1;
  3805  000CAC  80CE               	bsf	4046,0,c	;volatile
  3806                           
  3807                           ;mcc_generated_files/tmr1.c: 140:     }
  3808  000CAE  0012               	return	
  3809  000CB0                     i2l2507:
  3810                           
  3811                           ;mcc_generated_files/tmr1.c: 142:     {;mcc_generated_files/tmr1.c: 144:         TMR1H =
      +                           (timerVal >> 8);
  3812  000CB0  5002               	movf	TMR1_WriteTimer@timerVal+1,w,c
  3813  000CB2  6ECD               	movwf	4045,c	;volatile
  3814                           
  3815                           ;mcc_generated_files/tmr1.c: 145:         TMR1L = timerVal;
  3816  000CB4  C001  FFCC         	movff	TMR1_WriteTimer@timerVal,4044	;volatile
  3817  000CB8  0012               	return		;funcret
  3818  000CBA                     __end_of_TMR1_WriteTimer:
  3819                           	opt callstack 0
  3820                           
  3821 ;; *************** function _TMR1_StartTimer *****************
  3822 ;; Defined at:
  3823 ;;		line 99 in file "mcc_generated_files/tmr1.c"
  3824 ;; Parameters:    Size  Location     Type
  3825 ;;		None
  3826 ;; Auto vars:     Size  Location     Type
  3827 ;;		None
  3828 ;; Return value:  Size  Location     Type
  3829 ;;                  1    wreg      void 
  3830 ;; Registers used:
  3831 ;;		None
  3832 ;; Tracked objects:
  3833 ;;		On entry : 0/0
  3834 ;;		On exit  : 0/0
  3835 ;;		Unchanged: 0/0
  3836 ;; Data sizes:     COMRAM   BANK0   BANK1   BANK2   BANK3   BANK4   BANK5   BANK6   BANK7
  3837 ;;      Params:         0       0       0       0       0       0       0       0       0
  3838 ;;      Locals:         0       0       0       0       0       0       0       0       0
  3839 ;;      Temps:          0       0       0       0       0       0       0       0       0
  3840 ;;      Totals:         0       0       0       0       0       0       0       0       0
  3841 ;;Total ram usage:        0 bytes
  3842 ;; Hardware stack levels used:    1
  3843 ;; This function calls:
  3844 ;;		Nothing
  3845 ;; This function is called by:
  3846 ;;		_ping_RC2_went_HIGH
  3847 ;;		_ping_send
  3848 ;; This function uses a non-reentrant model
  3849 ;;
  3850                           
  3851                           	psect	text43
  3852  000D86                     __ptext43:
  3853                           	opt callstack 0
  3854  000D86                     _TMR1_StartTimer:
  3855                           	opt callstack 23
  3856                           
  3857                           ;mcc_generated_files/tmr1.c: 102:     T1CONbits.TMR1ON = 1;
  3858                           
  3859                           ;incstack = 0
  3860  000D86  80CE               	bsf	4046,0,c	;volatile
  3861  000D88  0012               	return		;funcret
  3862  000D8A                     __end_of_TMR1_StartTimer:
  3863                           	opt callstack 0
  3864                           
  3865 ;; *************** function _EUSART1_Transmit_ISR *****************
  3866 ;; Defined at:
  3867 ;;		line 203 in file "mcc_generated_files/eusart1.c"
  3868 ;; Parameters:    Size  Location     Type
  3869 ;;		None
  3870 ;; Auto vars:     Size  Location     Type
  3871 ;;		None
  3872 ;; Return value:  Size  Location     Type
  3873 ;;                  1    wreg      void 
  3874 ;; Registers used:
  3875 ;;		wreg, fsr2l, fsr2h, status,2, status,0
  3876 ;; Tracked objects:
  3877 ;;		On entry : 0/0
  3878 ;;		On exit  : 0/0
  3879 ;;		Unchanged: 0/0
  3880 ;; Data sizes:     COMRAM   BANK0   BANK1   BANK2   BANK3   BANK4   BANK5   BANK6   BANK7
  3881 ;;      Params:         0       0       0       0       0       0       0       0       0
  3882 ;;      Locals:         0       0       0       0       0       0       0       0       0
  3883 ;;      Temps:          0       0       0       0       0       0       0       0       0
  3884 ;;      Totals:         0       0       0       0       0       0       0       0       0
  3885 ;;Total ram usage:        0 bytes
  3886 ;; Hardware stack levels used:    1
  3887 ;; This function calls:
  3888 ;;		Nothing
  3889 ;; This function is called by:
  3890 ;;		_EUSART1_Initialize
  3891 ;;		_INTERRUPT_InterruptManager
  3892 ;; This function uses a non-reentrant model
  3893 ;;
  3894                           
  3895                           	psect	text44
  3896  000B30                     __ptext44:
  3897                           	opt callstack 0
  3898  000B30                     _EUSART1_Transmit_ISR:
  3899                           	opt callstack 26
  3900                           
  3901                           ;mcc_generated_files/eusart1.c: 207:     if(sizeof(eusart1TxBuffer) > eusart1TxBufferRem
      +                          aining)
  3902                           
  3903                           ;incstack = 0
  3904  000B30  0E08               	movlw	8
  3905  000B32  0100               	movlb	0	; () banked
  3906  000B34  617E               	cpfslt	_eusart1TxBufferRemaining& (0+255),b	;volatile
  3907  000B36  D010               	goto	i2l479
  3908                           
  3909                           ; BSR set to: 0
  3910                           ;mcc_generated_files/eusart1.c: 208:     {;mcc_generated_files/eusart1.c: 209:         T
      +                          X1REG = eusart1TxBuffer[eusart1TxTail++];
  3911  000B38  0E42               	movlw	low _eusart1TxBuffer
  3912  000B3A  2572               	addwf	_eusart1TxTail& (0+255),w,b	;volatile
  3913  000B3C  6ED9               	movwf	fsr2l,c
  3914  000B3E  6ADA               	clrf	fsr2h,c
  3915  000B40  0E00               	movlw	high _eusart1TxBuffer
  3916  000B42  22DA               	addwfc	fsr2h,f,c
  3917  000B44  50DF               	movf	indf2,w,c
  3918  000B46  6E99               	movwf	3993,c	;volatile
  3919                           
  3920                           ; BSR set to: 0
  3921  000B48  2B72               	incf	_eusart1TxTail& (0+255),f,b	;volatile
  3922                           
  3923                           ; BSR set to: 0
  3924                           ;mcc_generated_files/eusart1.c: 210:         if(sizeof(eusart1TxBuffer) <= eusart1TxTail
      +                          )
  3925  000B4A  0E07               	movlw	7
  3926  000B4C  6572               	cpfsgt	_eusart1TxTail& (0+255),b	;volatile
  3927  000B4E  D002               	goto	i2l3061
  3928                           
  3929                           ; BSR set to: 0
  3930                           ;mcc_generated_files/eusart1.c: 211:         {;mcc_generated_files/eusart1.c: 212:      
      +                                 eusart1TxTail = 0;
  3931  000B50  0E00               	movlw	0
  3932  000B52  6F72               	movwf	_eusart1TxTail& (0+255),b	;volatile
  3933  000B54                     i2l3061:
  3934                           
  3935                           ; BSR set to: 0
  3936                           ;mcc_generated_files/eusart1.c: 214:         eusart1TxBufferRemaining++;
  3937  000B54  2B7E               	incf	_eusart1TxBufferRemaining& (0+255),f,b	;volatile
  3938                           
  3939                           ;mcc_generated_files/eusart1.c: 215:     }
  3940  000B56  0012               	return	
  3941  000B58                     i2l479:
  3942                           
  3943                           ; BSR set to: 0
  3944                           ;mcc_generated_files/eusart1.c: 217:     {;mcc_generated_files/eusart1.c: 218:         P
      +                          IE3bits.TX1IE = 0;
  3945  000B58  010E               	movlb	14	; () banked
  3946  000B5A  99C0               	bcf	192,4,b	;volatile
  3947  000B5C  0012               	return		;funcret
  3948  000B5E                     __end_of_EUSART1_Transmit_ISR:
  3949                           	opt callstack 0
  3950                           
  3951 ;; *************** function _EUSART1_Receive_ISR *****************
  3952 ;; Defined at:
  3953 ;;		line 222 in file "mcc_generated_files/eusart1.c"
  3954 ;; Parameters:    Size  Location     Type
  3955 ;;		None
  3956 ;; Auto vars:     Size  Location     Type
  3957 ;;		None
  3958 ;; Return value:  Size  Location     Type
  3959 ;;                  1    wreg      void 
  3960 ;; Registers used:
  3961 ;;		wreg, fsr2l, fsr2h, status,2, status,0, pclath, tosl, cstack
  3962 ;; Tracked objects:
  3963 ;;		On entry : 0/0
  3964 ;;		On exit  : 0/0
  3965 ;;		Unchanged: 0/0
  3966 ;; Data sizes:     COMRAM   BANK0   BANK1   BANK2   BANK3   BANK4   BANK5   BANK6   BANK7
  3967 ;;      Params:         0       0       0       0       0       0       0       0       0
  3968 ;;      Locals:         0       0       0       0       0       0       0       0       0
  3969 ;;      Temps:          0       0       0       0       0       0       0       0       0
  3970 ;;      Totals:         0       0       0       0       0       0       0       0       0
  3971 ;;Total ram usage:        0 bytes
  3972 ;; Hardware stack levels used:    1
  3973 ;; Hardware stack levels required when called:    2
  3974 ;; This function calls:
  3975 ;;		Absolute function
  3976 ;;		_EUSART1_DefaultErrorHandler
  3977 ;;		_EUSART1_DefaultFramingErrorHandler
  3978 ;;		_EUSART1_DefaultOverrunErrorHandler
  3979 ;;		_EUSART1_RxDataHandler
  3980 ;; This function is called by:
  3981 ;;		_EUSART1_Initialize
  3982 ;;		_INTERRUPT_InterruptManager
  3983 ;; This function uses a non-reentrant model
  3984 ;;
  3985                           
  3986                           	psect	text45
  3987  00063A                     __ptext45:
  3988                           	opt callstack 0
  3989  00063A                     _EUSART1_Receive_ISR:
  3990                           	opt callstack 24
  3991                           
  3992                           ;mcc_generated_files/eusart1.c: 225:     eusart1RxStatusBuffer[eusart1RxHead].status = 0
      +                          ;
  3993                           
  3994                           ;incstack = 0
  3995  00063A  0E3A               	movlw	low _eusart1RxStatusBuffer
  3996  00063C  0100               	movlb	0	; () banked
  3997  00063E  2571               	addwf	_eusart1RxHead& (0+255),w,b	;volatile
  3998  000640  6ED9               	movwf	fsr2l,c
  3999  000642  6ADA               	clrf	fsr2h,c
  4000  000644  0E00               	movlw	high _eusart1RxStatusBuffer
  4001  000646  22DA               	addwfc	fsr2h,f,c
  4002  000648  0E00               	movlw	0
  4003  00064A  6EDF               	movwf	indf2,c
  4004                           
  4005                           ; BSR set to: 0
  4006                           ;mcc_generated_files/eusart1.c: 227:     if(RC1STAbits.FERR){
  4007  00064C  A49C               	btfss	3996,2,c	;volatile
  4008  00064E  D013               	goto	i2u149_49
  4009                           
  4010                           ; BSR set to: 0
  4011                           ;mcc_generated_files/eusart1.c: 228:         eusart1RxStatusBuffer[eusart1RxHead].ferr =
      +                           1;
  4012  000650  0E3A               	movlw	low _eusart1RxStatusBuffer
  4013  000652  2571               	addwf	_eusart1RxHead& (0+255),w,b	;volatile
  4014  000654  6ED9               	movwf	fsr2l,c
  4015  000656  6ADA               	clrf	fsr2h,c
  4016  000658  0E00               	movlw	high _eusart1RxStatusBuffer
  4017  00065A  22DA               	addwfc	fsr2h,f,c
  4018  00065C  82DF               	bsf	indf2,1,c
  4019                           
  4020                           ; BSR set to: 0
  4021                           ;mcc_generated_files/eusart1.c: 229:         EUSART1_FramingErrorHandler();
  4022  00065E  D801               	call	i2u149_48
  4023  000660  D00A               	goto	i2u149_49
  4024  000662                     i2u149_48:
  4025  000662  0005               	push	
  4026  000664  6EFA               	movwf	pclath,c
  4027  000666  517A               	movf	_EUSART1_FramingErrorHandler& (0+255),w,b
  4028  000668  6EFD               	movwf	tosl,c
  4029  00066A  517B               	movf	(_EUSART1_FramingErrorHandler+1)& (0+255),w,b
  4030  00066C  6EFE               	movwf	tosh,c
  4031  00066E  50F8               	movf	tblptru,w,c
  4032  000670  6EFF               	movwf	tosu,c
  4033  000672  50FA               	movf	pclath,w,c
  4034  000674  0012               	return		;indir
  4035  000676                     i2u149_49:
  4036                           
  4037                           ;mcc_generated_files/eusart1.c: 232:     if(RC1STAbits.OERR){
  4038  000676  A29C               	btfss	3996,1,c	;volatile
  4039  000678  D014               	goto	i2u151_49
  4040                           
  4041                           ;mcc_generated_files/eusart1.c: 233:         eusart1RxStatusBuffer[eusart1RxHead].oerr =
      +                           1;
  4042  00067A  0E3A               	movlw	low _eusart1RxStatusBuffer
  4043  00067C  0100               	movlb	0	; () banked
  4044  00067E  2571               	addwf	_eusart1RxHead& (0+255),w,b	;volatile
  4045  000680  6ED9               	movwf	fsr2l,c
  4046  000682  6ADA               	clrf	fsr2h,c
  4047  000684  0E00               	movlw	high _eusart1RxStatusBuffer
  4048  000686  22DA               	addwfc	fsr2h,f,c
  4049  000688  84DF               	bsf	indf2,2,c
  4050                           
  4051                           ; BSR set to: 0
  4052                           ;mcc_generated_files/eusart1.c: 234:         EUSART1_OverrunErrorHandler();
  4053  00068A  D801               	call	i2u151_48
  4054  00068C  D00A               	goto	i2u151_49
  4055  00068E                     i2u151_48:
  4056  00068E  0005               	push	
  4057  000690  6EFA               	movwf	pclath,c
  4058  000692  5178               	movf	_EUSART1_OverrunErrorHandler& (0+255),w,b
  4059  000694  6EFD               	movwf	tosl,c
  4060  000696  5179               	movf	(_EUSART1_OverrunErrorHandler+1)& (0+255),w,b
  4061  000698  6EFE               	movwf	tosh,c
  4062  00069A  50F8               	movf	tblptru,w,c
  4063  00069C  6EFF               	movwf	tosu,c
  4064  00069E  50FA               	movf	pclath,w,c
  4065  0006A0  0012               	return		;indir
  4066  0006A2                     i2u151_49:
  4067                           
  4068                           ;mcc_generated_files/eusart1.c: 237:     if(eusart1RxStatusBuffer[eusart1RxHead].status)
      +                          {
  4069  0006A2  0E3A               	movlw	low _eusart1RxStatusBuffer
  4070  0006A4  0100               	movlb	0	; () banked
  4071  0006A6  2571               	addwf	_eusart1RxHead& (0+255),w,b	;volatile
  4072  0006A8  6ED9               	movwf	fsr2l,c
  4073  0006AA  6ADA               	clrf	fsr2h,c
  4074  0006AC  0E00               	movlw	high _eusart1RxStatusBuffer
  4075  0006AE  22DA               	addwfc	fsr2h,f,c
  4076  0006B0  50DF               	movf	indf2,w,c
  4077  0006B2  B4D8               	btfsc	status,2,c
  4078  0006B4  D00C               	goto	i2l3081
  4079                           
  4080                           ; BSR set to: 0
  4081                           ;mcc_generated_files/eusart1.c: 238:         EUSART1_ErrorHandler();
  4082  0006B6  D801               	call	i2u153_48
  4083  0006B8  0012               	return	
  4084  0006BA                     i2u153_48:
  4085  0006BA  0005               	push	
  4086  0006BC  6EFA               	movwf	pclath,c
  4087  0006BE  5176               	movf	_EUSART1_ErrorHandler& (0+255),w,b
  4088  0006C0  6EFD               	movwf	tosl,c
  4089  0006C2  5177               	movf	(_EUSART1_ErrorHandler+1)& (0+255),w,b
  4090  0006C4  6EFE               	movwf	tosh,c
  4091  0006C6  50F8               	movf	tblptru,w,c
  4092  0006C8  6EFF               	movwf	tosu,c
  4093  0006CA  50FA               	movf	pclath,w,c
  4094  0006CC  0012               	return		;indir
  4095  0006CE                     i2l3081:
  4096                           
  4097                           ; BSR set to: 0
  4098                           ;mcc_generated_files/eusart1.c: 240:         EUSART1_RxDataHandler();
  4099  0006CE  EC13  F006         	call	_EUSART1_RxDataHandler	;wreg free
  4100  0006D2  0012               	return		;funcret
  4101  0006D4                     __end_of_EUSART1_Receive_ISR:
  4102                           	opt callstack 0
  4103                           
  4104 ;; *************** function _EUSART1_DefaultOverrunErrorHandler *****************
  4105 ;; Defined at:
  4106 ;;		line 258 in file "mcc_generated_files/eusart1.c"
  4107 ;; Parameters:    Size  Location     Type
  4108 ;;		None
  4109 ;; Auto vars:     Size  Location     Type
  4110 ;;		None
  4111 ;; Return value:  Size  Location     Type
  4112 ;;                  1    wreg      void 
  4113 ;; Registers used:
  4114 ;;		None
  4115 ;; Tracked objects:
  4116 ;;		On entry : 0/0
  4117 ;;		On exit  : 0/0
  4118 ;;		Unchanged: 0/0
  4119 ;; Data sizes:     COMRAM   BANK0   BANK1   BANK2   BANK3   BANK4   BANK5   BANK6   BANK7
  4120 ;;      Params:         0       0       0       0       0       0       0       0       0
  4121 ;;      Locals:         0       0       0       0       0       0       0       0       0
  4122 ;;      Temps:          0       0       0       0       0       0       0       0       0
  4123 ;;      Totals:         0       0       0       0       0       0       0       0       0
  4124 ;;Total ram usage:        0 bytes
  4125 ;; Hardware stack levels used:    1
  4126 ;; This function calls:
  4127 ;;		Nothing
  4128 ;; This function is called by:
  4129 ;;		_EUSART1_Initialize
  4130 ;;		_EUSART1_Receive_ISR
  4131 ;; This function uses a non-reentrant model
  4132 ;;
  4133                           
  4134                           	psect	text46
  4135  000D76                     __ptext46:
  4136                           	opt callstack 0
  4137  000D76                     _EUSART1_DefaultOverrunErrorHandler:
  4138                           	opt callstack 25
  4139                           
  4140                           ;mcc_generated_files/eusart1.c: 261:     RC1STAbits.CREN = 0;
  4141                           
  4142                           ;incstack = 0
  4143  000D76  989C               	bcf	3996,4,c	;volatile
  4144                           
  4145                           ;mcc_generated_files/eusart1.c: 262:     RC1STAbits.CREN = 1;
  4146  000D78  889C               	bsf	3996,4,c	;volatile
  4147  000D7A  0012               	return		;funcret
  4148  000D7C                     __end_of_EUSART1_DefaultOverrunErrorHandler:
  4149                           	opt callstack 0
  4150                           
  4151 ;; *************** function _EUSART1_DefaultFramingErrorHandler *****************
  4152 ;; Defined at:
  4153 ;;		line 256 in file "mcc_generated_files/eusart1.c"
  4154 ;; Parameters:    Size  Location     Type
  4155 ;;		None
  4156 ;; Auto vars:     Size  Location     Type
  4157 ;;		None
  4158 ;; Return value:  Size  Location     Type
  4159 ;;                  1    wreg      void 
  4160 ;; Registers used:
  4161 ;;		None
  4162 ;; Tracked objects:
  4163 ;;		On entry : 0/0
  4164 ;;		On exit  : 0/0
  4165 ;;		Unchanged: 0/0
  4166 ;; Data sizes:     COMRAM   BANK0   BANK1   BANK2   BANK3   BANK4   BANK5   BANK6   BANK7
  4167 ;;      Params:         0       0       0       0       0       0       0       0       0
  4168 ;;      Locals:         0       0       0       0       0       0       0       0       0
  4169 ;;      Temps:          0       0       0       0       0       0       0       0       0
  4170 ;;      Totals:         0       0       0       0       0       0       0       0       0
  4171 ;;Total ram usage:        0 bytes
  4172 ;; Hardware stack levels used:    1
  4173 ;; This function calls:
  4174 ;;		Nothing
  4175 ;; This function is called by:
  4176 ;;		_EUSART1_Initialize
  4177 ;;		_EUSART1_Receive_ISR
  4178 ;; This function uses a non-reentrant model
  4179 ;;
  4180                           
  4181                           	psect	text47
  4182  000D96                     __ptext47:
  4183                           	opt callstack 0
  4184  000D96                     _EUSART1_DefaultFramingErrorHandler:
  4185                           	opt callstack 25
  4186                           
  4187                           ;incstack = 0
  4188  000D96  0012               	return		;funcret
  4189  000D98                     __end_of_EUSART1_DefaultFramingErrorHandler:
  4190                           	opt callstack 0
  4191                           
  4192 ;; *************** function _EUSART1_DefaultErrorHandler *****************
  4193 ;; Defined at:
  4194 ;;		line 266 in file "mcc_generated_files/eusart1.c"
  4195 ;; Parameters:    Size  Location     Type
  4196 ;;		None
  4197 ;; Auto vars:     Size  Location     Type
  4198 ;;		None
  4199 ;; Return value:  Size  Location     Type
  4200 ;;                  1    wreg      void 
  4201 ;; Registers used:
  4202 ;;		wreg, fsr2l, fsr2h, status,2, status,0, cstack
  4203 ;; Tracked objects:
  4204 ;;		On entry : 0/0
  4205 ;;		On exit  : 0/0
  4206 ;;		Unchanged: 0/0
  4207 ;; Data sizes:     COMRAM   BANK0   BANK1   BANK2   BANK3   BANK4   BANK5   BANK6   BANK7
  4208 ;;      Params:         0       0       0       0       0       0       0       0       0
  4209 ;;      Locals:         0       0       0       0       0       0       0       0       0
  4210 ;;      Temps:          0       0       0       0       0       0       0       0       0
  4211 ;;      Totals:         0       0       0       0       0       0       0       0       0
  4212 ;;Total ram usage:        0 bytes
  4213 ;; Hardware stack levels used:    1
  4214 ;; Hardware stack levels required when called:    1
  4215 ;; This function calls:
  4216 ;;		_EUSART1_RxDataHandler
  4217 ;; This function is called by:
  4218 ;;		_EUSART1_Initialize
  4219 ;;		_EUSART1_Receive_ISR
  4220 ;; This function uses a non-reentrant model
  4221 ;;
  4222                           
  4223                           	psect	text48
  4224  000D7C                     __ptext48:
  4225                           	opt callstack 0
  4226  000D7C                     _EUSART1_DefaultErrorHandler:
  4227                           	opt callstack 24
  4228                           
  4229                           ;mcc_generated_files/eusart1.c: 267:     EUSART1_RxDataHandler();
  4230                           
  4231                           ;incstack = 0
  4232  000D7C  EC13  F006         	call	_EUSART1_RxDataHandler	;wreg free
  4233  000D80  0012               	return		;funcret
  4234  000D82                     __end_of_EUSART1_DefaultErrorHandler:
  4235                           	opt callstack 0
  4236                           
  4237 ;; *************** function _EUSART1_RxDataHandler *****************
  4238 ;; Defined at:
  4239 ;;		line 246 in file "mcc_generated_files/eusart1.c"
  4240 ;; Parameters:    Size  Location     Type
  4241 ;;		None
  4242 ;; Auto vars:     Size  Location     Type
  4243 ;;		None
  4244 ;; Return value:  Size  Location     Type
  4245 ;;                  1    wreg      void 
  4246 ;; Registers used:
  4247 ;;		wreg, fsr2l, fsr2h, status,2, status,0
  4248 ;; Tracked objects:
  4249 ;;		On entry : 0/0
  4250 ;;		On exit  : 0/0
  4251 ;;		Unchanged: 0/0
  4252 ;; Data sizes:     COMRAM   BANK0   BANK1   BANK2   BANK3   BANK4   BANK5   BANK6   BANK7
  4253 ;;      Params:         0       0       0       0       0       0       0       0       0
  4254 ;;      Locals:         0       0       0       0       0       0       0       0       0
  4255 ;;      Temps:          0       0       0       0       0       0       0       0       0
  4256 ;;      Totals:         0       0       0       0       0       0       0       0       0
  4257 ;;Total ram usage:        0 bytes
  4258 ;; Hardware stack levels used:    1
  4259 ;; This function calls:
  4260 ;;		Nothing
  4261 ;; This function is called by:
  4262 ;;		_EUSART1_Receive_ISR
  4263 ;;		_EUSART1_DefaultErrorHandler
  4264 ;; This function uses a non-reentrant model
  4265 ;;
  4266                           
  4267                           	psect	text49
  4268  000C26                     __ptext49:
  4269                           	opt callstack 0
  4270  000C26                     _EUSART1_RxDataHandler:
  4271                           	opt callstack 25
  4272                           
  4273                           ;mcc_generated_files/eusart1.c: 248:     eusart1RxBuffer[eusart1RxHead++] = RC1REG;
  4274                           
  4275                           ;incstack = 0
  4276  000C26  0E60               	movlw	low _eusart1RxBuffer
  4277  000C28  0100               	movlb	0	; () banked
  4278  000C2A  2571               	addwf	_eusart1RxHead& (0+255),w,b	;volatile
  4279  000C2C  6ED9               	movwf	fsr2l,c
  4280  000C2E  6ADA               	clrf	fsr2h,c
  4281  000C30  0E00               	movlw	high _eusart1RxBuffer
  4282  000C32  22DA               	addwfc	fsr2h,f,c
  4283  000C34  CF98 FFDF          	movff	3992,indf2	;volatile
  4284                           
  4285                           ; BSR set to: 0
  4286  000C38  2B71               	incf	_eusart1RxHead& (0+255),f,b	;volatile
  4287                           
  4288                           ; BSR set to: 0
  4289                           ;mcc_generated_files/eusart1.c: 249:     if(sizeof(eusart1RxBuffer) <= eusart1RxHead)
  4290  000C3A  0E07               	movlw	7
  4291  000C3C  6571               	cpfsgt	_eusart1RxHead& (0+255),b	;volatile
  4292  000C3E  D002               	goto	i2l2541
  4293                           
  4294                           ; BSR set to: 0
  4295                           ;mcc_generated_files/eusart1.c: 250:     {;mcc_generated_files/eusart1.c: 251:         e
      +                          usart1RxHead = 0;
  4296  000C40  0E00               	movlw	0
  4297  000C42  6F71               	movwf	_eusart1RxHead& (0+255),b	;volatile
  4298  000C44                     i2l2541:
  4299                           
  4300                           ; BSR set to: 0
  4301                           ;mcc_generated_files/eusart1.c: 253:     eusart1RxCount++;
  4302  000C44  2A4A               	incf	_eusart1RxCount,f,c	;volatile
  4303                           
  4304                           ; BSR set to: 0
  4305  000C46  0012               	return		;funcret
  4306  000C48                     __end_of_EUSART1_RxDataHandler:
  4307                           	opt callstack 0
  4308                           
  4309 ;; *************** function _CCP1_CaptureISR *****************
  4310 ;; Defined at:
  4311 ;;		line 94 in file "mcc_generated_files/ccp1.c"
  4312 ;; Parameters:    Size  Location     Type
  4313 ;;		None
  4314 ;; Auto vars:     Size  Location     Type
  4315 ;;  module          2   41[COMRAM] struct CCPR1Reg_tag
  4316 ;; Return value:  Size  Location     Type
  4317 ;;                  1    wreg      void 
  4318 ;; Registers used:
  4319 ;;		wreg, status,2, status,0, pclath, tosl, prodl, prodh, cstack
  4320 ;; Tracked objects:
  4321 ;;		On entry : 0/0
  4322 ;;		On exit  : 0/0
  4323 ;;		Unchanged: 0/0
  4324 ;; Data sizes:     COMRAM   BANK0   BANK1   BANK2   BANK3   BANK4   BANK5   BANK6   BANK7
  4325 ;;      Params:         0       0       0       0       0       0       0       0       0
  4326 ;;      Locals:         2       0       0       0       0       0       0       0       0
  4327 ;;      Temps:          0       0       0       0       0       0       0       0       0
  4328 ;;      Totals:         2       0       0       0       0       0       0       0       0
  4329 ;;Total ram usage:        2 bytes
  4330 ;; Hardware stack levels used:    1
  4331 ;; Hardware stack levels required when called:    2
  4332 ;; This function calls:
  4333 ;;		Absolute function
  4334 ;;		_CCP1_DefaultCallBack
  4335 ;;		_ping_CCP1_triggered
  4336 ;; This function is called by:
  4337 ;;		_INTERRUPT_InterruptManager
  4338 ;; This function uses a non-reentrant model
  4339 ;;
  4340                           
  4341                           	psect	text50
  4342  000B5E                     __ptext50:
  4343                           	opt callstack 0
  4344  000B5E                     _CCP1_CaptureISR:
  4345                           	opt callstack 24
  4346                           
  4347                           ;mcc_generated_files/ccp1.c: 96:     CCP1_PERIOD_REG_T module;;mcc_generated_files/ccp1.
      +                          c: 99:     PIR6bits.CCP1IF = 0;
  4348                           
  4349                           ; BSR set to: 0
  4350                           ;incstack = 0
  4351  000B5E  010E               	movlb	14	; () banked
  4352  000B60  91CB               	bcf	203,0,b	;volatile
  4353                           
  4354                           ;mcc_generated_files/ccp1.c: 102:     module.ccpr1l = CCPR1L;
  4355  000B62  CFA9 F02A          	movff	4009,CCP1_CaptureISR@module	;volatile
  4356                           
  4357                           ;mcc_generated_files/ccp1.c: 103:     module.ccpr1h = CCPR1H;
  4358  000B66  CFAA F02B          	movff	4010,CCP1_CaptureISR@module+1	;volatile
  4359                           
  4360                           ; BSR set to: 14
  4361                           ;mcc_generated_files/ccp1.c: 106:     CCP1_CallBack(module.ccpr1_16Bit);
  4362  000B6A  C02A  F028         	movff	CCP1_CaptureISR@module,ping_CCP1_triggered@timeOfFlight
  4363  000B6E  C02B  F029         	movff	CCP1_CaptureISR@module+1,ping_CCP1_triggered@timeOfFlight+1
  4364  000B72  D801               	call	i2u140_48
  4365  000B74  0012               	return	
  4366  000B76                     i2u140_48:
  4367  000B76  0005               	push	
  4368  000B78  6EFA               	movwf	pclath,c
  4369  000B7A  5054               	movf	_CCP1_CallBack,w,c
  4370  000B7C  6EFD               	movwf	tosl,c
  4371  000B7E  5055               	movf	_CCP1_CallBack+1,w,c
  4372  000B80  6EFE               	movwf	tosh,c
  4373  000B82  50F8               	movf	tblptru,w,c
  4374  000B84  6EFF               	movwf	tosu,c
  4375  000B86  50FA               	movf	pclath,w,c
  4376  000B88  0012               	return		;indir
  4377  000B8A                     __end_of_CCP1_CaptureISR:
  4378                           	opt callstack 0
  4379                           
  4380 ;; *************** function _CCP1_DefaultCallBack *****************
  4381 ;; Defined at:
  4382 ;;		line 60 in file "mcc_generated_files/ccp1.c"
  4383 ;; Parameters:    Size  Location     Type
  4384 ;;  capturedValu    2   39[COMRAM] unsigned short 
  4385 ;; Auto vars:     Size  Location     Type
  4386 ;;		None
  4387 ;; Return value:  Size  Location     Type
  4388 ;;                  1    wreg      void 
  4389 ;; Registers used:
  4390 ;;		None
  4391 ;; Tracked objects:
  4392 ;;		On entry : 0/0
  4393 ;;		On exit  : 0/0
  4394 ;;		Unchanged: 0/0
  4395 ;; Data sizes:     COMRAM   BANK0   BANK1   BANK2   BANK3   BANK4   BANK5   BANK6   BANK7
  4396 ;;      Params:         2       0       0       0       0       0       0       0       0
  4397 ;;      Locals:         0       0       0       0       0       0       0       0       0
  4398 ;;      Temps:          0       0       0       0       0       0       0       0       0
  4399 ;;      Totals:         2       0       0       0       0       0       0       0       0
  4400 ;;Total ram usage:        2 bytes
  4401 ;; Hardware stack levels used:    1
  4402 ;; This function calls:
  4403 ;;		Nothing
  4404 ;; This function is called by:
  4405 ;;		_CCP1_Initialize
  4406 ;;		_CCP1_CaptureISR
  4407 ;; This function uses a non-reentrant model
  4408 ;;
  4409                           
  4410                           	psect	text51
  4411  000D98                     __ptext51:
  4412                           	opt callstack 0
  4413  000D98                     _CCP1_DefaultCallBack:
  4414                           	opt callstack 25
  4415                           
  4416                           ;incstack = 0
  4417  000D98  0012               	return		;funcret
  4418  000D9A                     __end_of_CCP1_DefaultCallBack:
  4419                           	opt callstack 0
  4420                           
  4421 ;; *************** function _ping_CCP1_triggered *****************
  4422 ;; Defined at:
  4423 ;;		line 83 in file "ping.c"
  4424 ;; Parameters:    Size  Location     Type
  4425 ;;  timeOfFlight    2   39[COMRAM] unsigned short 
  4426 ;; Auto vars:     Size  Location     Type
  4427 ;;		None
  4428 ;; Return value:  Size  Location     Type
  4429 ;;                  1    wreg      void 
  4430 ;; Registers used:
  4431 ;;		wreg, status,2, status,0, prodl, prodh, cstack
  4432 ;; Tracked objects:
  4433 ;;		On entry : 0/0
  4434 ;;		On exit  : 0/0
  4435 ;;		Unchanged: 0/0
  4436 ;; Data sizes:     COMRAM   BANK0   BANK1   BANK2   BANK3   BANK4   BANK5   BANK6   BANK7
  4437 ;;      Params:         2       0       0       0       0       0       0       0       0
  4438 ;;      Locals:         0       0       0       0       0       0       0       0       0
  4439 ;;      Temps:          0       0       0       0       0       0       0       0       0
  4440 ;;      Totals:         2       0       0       0       0       0       0       0       0
  4441 ;;Total ram usage:        2 bytes
  4442 ;; Hardware stack levels used:    1
  4443 ;; Hardware stack levels required when called:    1
  4444 ;; This function calls:
  4445 ;;		___flmul
  4446 ;;		___xxtofl
  4447 ;; This function is called by:
  4448 ;;		_ping_init
  4449 ;;		_CCP1_CaptureISR
  4450 ;; This function uses a non-reentrant model
  4451 ;;
  4452                           
  4453                           	psect	text52
  4454  000848                     __ptext52:
  4455                           	opt callstack 0
  4456  000848                     _ping_CCP1_triggered:
  4457                           	opt callstack 24
  4458                           
  4459                           ;ping.c: 84:     status.tof = timeOfFlight;
  4460                           
  4461                           ;incstack = 0
  4462  000848  C028  F038         	movff	ping_CCP1_triggered@timeOfFlight,_status+6	;volatile
  4463  00084C  C029  F039         	movff	ping_CCP1_triggered@timeOfFlight+1,_status+7	;volatile
  4464                           
  4465                           ;ping.c: 85:     status.pingStarted = 0;
  4466  000850  0E00               	movlw	0
  4467  000852  6E37               	movwf	_status+5,c	;volatile
  4468                           
  4469                           ;ping.c: 86:     status.readReady = 1;
  4470  000854  0E01               	movlw	1
  4471  000856  6E32               	movwf	_status,c	;volatile
  4472                           
  4473                           ;ping.c: 87:     PIE6bits.CCP1IE = 0;
  4474  000858  010E               	movlb	14	; () banked
  4475  00085A  91C3               	bcf	195,0,b	;volatile
  4476                           
  4477                           ; BSR set to: 14
  4478  00085C  9482               	bcf	3970,2,c	;volatile
  4479                           
  4480                           ; BSR set to: 14
  4481                           ;ping.c: 89:     status.measurment = 0.009 * timeOfFlight;
  4482  00085E  C028  F001         	movff	ping_CCP1_triggered@timeOfFlight,___xxtofl@val
  4483  000862  C029  F002         	movff	ping_CCP1_triggered@timeOfFlight+1,___xxtofl@val+1
  4484  000866  6A03               	clrf	___xxtofl@val+2,c
  4485  000868  6A04               	clrf	___xxtofl@val+3,c
  4486  00086A  0E00               	movlw	0
  4487  00086C  EC0A  F002         	call	___xxtofl
  4488  000870  C001  F00F         	movff	?___xxtofl,___flmul@b
  4489  000874  C002  F010         	movff	?___xxtofl+1,___flmul@b+1
  4490  000878  C003  F011         	movff	?___xxtofl+2,___flmul@b+2
  4491  00087C  C004  F012         	movff	?___xxtofl+3,___flmul@b+3
  4492  000880  0EBC               	movlw	188
  4493  000882  6E13               	movwf	___flmul@a,c
  4494  000884  0E74               	movlw	116
  4495  000886  6E14               	movwf	___flmul@a+1,c
  4496  000888  0E13               	movlw	19
  4497  00088A  6E15               	movwf	___flmul@a+2,c
  4498  00088C  0E3C               	movlw	60
  4499  00088E  6E16               	movwf	___flmul@a+3,c
  4500  000890  EC61  F000         	call	___flmul	;wreg free
  4501  000894  C00F  F033         	movff	?___flmul,_status+1	;volatile
  4502  000898  C010  F034         	movff	?___flmul+1,_status+2	;volatile
  4503  00089C  C011  F035         	movff	?___flmul+2,_status+3	;volatile
  4504  0008A0  C012  F036         	movff	?___flmul+3,_status+4	;volatile
  4505                           
  4506                           ;ping.c: 90:     status.readReady = 1;
  4507  0008A4  0E01               	movlw	1
  4508  0008A6  6E32               	movwf	_status,c	;volatile
  4509                           
  4510                           ;ping.c: 91:     status.pingStarted = 0;
  4511  0008A8  0E00               	movlw	0
  4512  0008AA  6E37               	movwf	_status+5,c	;volatile
  4513  0008AC  0012               	return		;funcret
  4514  0008AE                     __end_of_ping_CCP1_triggered:
  4515                           	opt callstack 0
  4516                           
  4517 ;; *************** function ___xxtofl *****************
  4518 ;; Defined at:
  4519 ;;		line 10 in file "/Applications/microchip/xc8/v2.05/pic/sources/c99/common/xxtofl.c"
  4520 ;; Parameters:    Size  Location     Type
  4521 ;;  sign            1    wreg     unsigned char 
  4522 ;;  val             4    0[COMRAM] long 
  4523 ;; Auto vars:     Size  Location     Type
  4524 ;;  sign            1    8[COMRAM] unsigned char 
  4525 ;;  arg             4   10[COMRAM] unsigned long 
  4526 ;;  exp             1    9[COMRAM] unsigned char 
  4527 ;; Return value:  Size  Location     Type
  4528 ;;                  4    0[COMRAM] unsigned char 
  4529 ;; Registers used:
  4530 ;;		wreg, status,2, status,0
  4531 ;; Tracked objects:
  4532 ;;		On entry : 0/0
  4533 ;;		On exit  : 0/0
  4534 ;;		Unchanged: 0/0
  4535 ;; Data sizes:     COMRAM   BANK0   BANK1   BANK2   BANK3   BANK4   BANK5   BANK6   BANK7
  4536 ;;      Params:         4       0       0       0       0       0       0       0       0
  4537 ;;      Locals:         6       0       0       0       0       0       0       0       0
  4538 ;;      Temps:          4       0       0       0       0       0       0       0       0
  4539 ;;      Totals:        14       0       0       0       0       0       0       0       0
  4540 ;;Total ram usage:       14 bytes
  4541 ;; Hardware stack levels used:    1
  4542 ;; This function calls:
  4543 ;;		Nothing
  4544 ;; This function is called by:
  4545 ;;		_ping_CCP1_triggered
  4546 ;; This function uses a non-reentrant model
  4547 ;;
  4548                           
  4549                           	psect	text53
  4550  000414                     __ptext53:
  4551                           	opt callstack 0
  4552  000414                     ___xxtofl:
  4553                           	opt callstack 24
  4554                           
  4555                           ;incstack = 0
  4556                           ;___xxtofl@sign stored from wreg
  4557  000414  6E09               	movwf	___xxtofl@sign,c
  4558  000416  5009               	movf	___xxtofl@sign,w,c
  4559  000418  A4D8               	btfss	status,2,c
  4560  00041A  AE04               	btfss	___xxtofl@val+3,7,c
  4561  00041C  D01A               	goto	i2l1593
  4562  00041E  C001  F005         	movff	___xxtofl@val,??___xxtofl
  4563  000422  C002  F006         	movff	___xxtofl@val+1,??___xxtofl+1
  4564  000426  C003  F007         	movff	___xxtofl@val+2,??___xxtofl+2
  4565  00042A  C004  F008         	movff	___xxtofl@val+3,??___xxtofl+3
  4566  00042E  1E05               	comf	??___xxtofl,f,c
  4567  000430  1E06               	comf	??___xxtofl+1,f,c
  4568  000432  1E07               	comf	??___xxtofl+2,f,c
  4569  000434  1E08               	comf	??___xxtofl+3,f,c
  4570  000436  2A05               	incf	??___xxtofl,f,c
  4571  000438  0E00               	movlw	0
  4572  00043A  2206               	addwfc	??___xxtofl+1,f,c
  4573  00043C  2207               	addwfc	??___xxtofl+2,f,c
  4574  00043E  2208               	addwfc	??___xxtofl+3,f,c
  4575  000440  C005  F00B         	movff	??___xxtofl,___xxtofl@arg
  4576  000444  C006  F00C         	movff	??___xxtofl+1,___xxtofl@arg+1
  4577  000448  C007  F00D         	movff	??___xxtofl+2,___xxtofl@arg+2
  4578  00044C  C008  F00E         	movff	??___xxtofl+3,___xxtofl@arg+3
  4579  000450  D008               	goto	i2l2695
  4580  000452                     i2l1593:
  4581  000452  C001  F00B         	movff	___xxtofl@val,___xxtofl@arg
  4582  000456  C002  F00C         	movff	___xxtofl@val+1,___xxtofl@arg+1
  4583  00045A  C003  F00D         	movff	___xxtofl@val+2,___xxtofl@arg+2
  4584  00045E  C004  F00E         	movff	___xxtofl@val+3,___xxtofl@arg+3
  4585  000462                     i2l2695:
  4586  000462  5001               	movf	___xxtofl@val,w,c
  4587  000464  1002               	iorwf	___xxtofl@val+1,w,c
  4588  000466  1003               	iorwf	___xxtofl@val+2,w,c
  4589  000468  1004               	iorwf	___xxtofl@val+3,w,c
  4590  00046A  A4D8               	btfss	status,2,c
  4591  00046C  D009               	goto	i2l2701
  4592  00046E  0E00               	movlw	0
  4593  000470  6E01               	movwf	?___xxtofl,c
  4594  000472  0E00               	movlw	0
  4595  000474  6E02               	movwf	?___xxtofl+1,c
  4596  000476  0E00               	movlw	0
  4597  000478  6E03               	movwf	?___xxtofl+2,c
  4598  00047A  0E00               	movlw	0
  4599  00047C  6E04               	movwf	?___xxtofl+3,c
  4600  00047E  0012               	return	
  4601  000480                     i2l2701:
  4602  000480  0E96               	movlw	150
  4603  000482  6E0A               	movwf	___xxtofl@exp,c
  4604  000484  D006               	goto	i2l2705
  4605  000486                     i2l2703:
  4606  000486  2A0A               	incf	___xxtofl@exp,f,c
  4607  000488  90D8               	bcf	status,0,c
  4608  00048A  320E               	rrcf	___xxtofl@arg+3,f,c
  4609  00048C  320D               	rrcf	___xxtofl@arg+2,f,c
  4610  00048E  320C               	rrcf	___xxtofl@arg+1,f,c
  4611  000490  320B               	rrcf	___xxtofl@arg,f,c
  4612  000492                     i2l2705:
  4613  000492  0E00               	movlw	0
  4614  000494  140B               	andwf	___xxtofl@arg,w,c
  4615  000496  6E05               	movwf	??___xxtofl& (0+255),c
  4616  000498  0E00               	movlw	0
  4617  00049A  140C               	andwf	___xxtofl@arg+1,w,c
  4618  00049C  6E06               	movwf	(??___xxtofl+1)& (0+255),c
  4619  00049E  0E00               	movlw	0
  4620  0004A0  140D               	andwf	___xxtofl@arg+2,w,c
  4621  0004A2  6E07               	movwf	(??___xxtofl+2)& (0+255),c
  4622  0004A4  0EFE               	movlw	254
  4623  0004A6  140E               	andwf	___xxtofl@arg+3,w,c
  4624  0004A8  6E08               	movwf	(??___xxtofl+3)& (0+255),c
  4625  0004AA  5005               	movf	??___xxtofl,w,c
  4626  0004AC  1006               	iorwf	??___xxtofl+1,w,c
  4627  0004AE  1007               	iorwf	??___xxtofl+2,w,c
  4628  0004B0  1008               	iorwf	??___xxtofl+3,w,c
  4629  0004B2  B4D8               	btfsc	status,2,c
  4630  0004B4  D00D               	goto	i2l1600
  4631  0004B6  D7E7               	goto	i2l2703
  4632  0004B8                     i2l2707:
  4633  0004B8  2A0A               	incf	___xxtofl@exp,f,c
  4634  0004BA  0E01               	movlw	1
  4635  0004BC  260B               	addwf	___xxtofl@arg,f,c
  4636  0004BE  0E00               	movlw	0
  4637  0004C0  220C               	addwfc	___xxtofl@arg+1,f,c
  4638  0004C2  220D               	addwfc	___xxtofl@arg+2,f,c
  4639  0004C4  220E               	addwfc	___xxtofl@arg+3,f,c
  4640  0004C6  90D8               	bcf	status,0,c
  4641  0004C8  320E               	rrcf	___xxtofl@arg+3,f,c
  4642  0004CA  320D               	rrcf	___xxtofl@arg+2,f,c
  4643  0004CC  320C               	rrcf	___xxtofl@arg+1,f,c
  4644  0004CE  320B               	rrcf	___xxtofl@arg,f,c
  4645  0004D0                     i2l1600:
  4646  0004D0  0E00               	movlw	0
  4647  0004D2  140B               	andwf	___xxtofl@arg,w,c
  4648  0004D4  6E05               	movwf	??___xxtofl& (0+255),c
  4649  0004D6  0E00               	movlw	0
  4650  0004D8  140C               	andwf	___xxtofl@arg+1,w,c
  4651  0004DA  6E06               	movwf	(??___xxtofl+1)& (0+255),c
  4652  0004DC  0E00               	movlw	0
  4653  0004DE  140D               	andwf	___xxtofl@arg+2,w,c
  4654  0004E0  6E07               	movwf	(??___xxtofl+2)& (0+255),c
  4655  0004E2  0EFF               	movlw	255
  4656  0004E4  140E               	andwf	___xxtofl@arg+3,w,c
  4657  0004E6  6E08               	movwf	(??___xxtofl+3)& (0+255),c
  4658  0004E8  5005               	movf	??___xxtofl,w,c
  4659  0004EA  1006               	iorwf	??___xxtofl+1,w,c
  4660  0004EC  1007               	iorwf	??___xxtofl+2,w,c
  4661  0004EE  1008               	iorwf	??___xxtofl+3,w,c
  4662  0004F0  B4D8               	btfsc	status,2,c
  4663  0004F2  D007               	goto	i2l2715
  4664  0004F4  D7E1               	goto	i2l2707
  4665  0004F6                     i2l2713:
  4666  0004F6  060A               	decf	___xxtofl@exp,f,c
  4667  0004F8  90D8               	bcf	status,0,c
  4668  0004FA  360B               	rlcf	___xxtofl@arg,f,c
  4669  0004FC  360C               	rlcf	___xxtofl@arg+1,f,c
  4670  0004FE  360D               	rlcf	___xxtofl@arg+2,f,c
  4671  000500  360E               	rlcf	___xxtofl@arg+3,f,c
  4672  000502                     i2l2715:
  4673  000502  BE0D               	btfsc	___xxtofl@arg+2,7,c
  4674  000504  D003               	goto	i2u116_40
  4675  000506  0E02               	movlw	2
  4676  000508  600A               	cpfslt	___xxtofl@exp,c
  4677  00050A  D7F5               	goto	i2l2713
  4678  00050C                     i2u116_40:
  4679  00050C  A00A               	btfss	___xxtofl@exp,0,c
  4680  00050E  9E0D               	bcf	___xxtofl@arg+2,7,c
  4681  000510  90D8               	bcf	status,0,c
  4682  000512  320A               	rrcf	___xxtofl@exp,f,c
  4683  000514  C00A  F005         	movff	___xxtofl@exp,??___xxtofl
  4684  000518  6A06               	clrf	(??___xxtofl+1)& (0+255),c
  4685  00051A  6A07               	clrf	(??___xxtofl+2)& (0+255),c
  4686  00051C  6A08               	clrf	(??___xxtofl+3)& (0+255),c
  4687  00051E  C005  F008         	movff	??___xxtofl,??___xxtofl+3
  4688  000522  6A07               	clrf	??___xxtofl+2,c
  4689  000524  6A06               	clrf	??___xxtofl+1,c
  4690  000526  6A05               	clrf	??___xxtofl,c
  4691  000528  5005               	movf	??___xxtofl,w,c
  4692  00052A  120B               	iorwf	___xxtofl@arg,f,c
  4693  00052C  5006               	movf	??___xxtofl+1,w,c
  4694  00052E  120C               	iorwf	___xxtofl@arg+1,f,c
  4695  000530  5007               	movf	??___xxtofl+2,w,c
  4696  000532  120D               	iorwf	___xxtofl@arg+2,f,c
  4697  000534  5008               	movf	??___xxtofl+3,w,c
  4698  000536  120E               	iorwf	___xxtofl@arg+3,f,c
  4699  000538  5009               	movf	___xxtofl@sign,w,c
  4700  00053A  A4D8               	btfss	status,2,c
  4701  00053C  AE04               	btfss	___xxtofl@val+3,7,c
  4702  00053E  D001               	goto	i2l2731
  4703  000540  8E0E               	bsf	___xxtofl@arg+3,7,c
  4704  000542                     i2l2731:
  4705  000542  C00B  F001         	movff	___xxtofl@arg,?___xxtofl
  4706  000546  C00C  F002         	movff	___xxtofl@arg+1,?___xxtofl+1
  4707  00054A  C00D  F003         	movff	___xxtofl@arg+2,?___xxtofl+2
  4708  00054E  C00E  F004         	movff	___xxtofl@arg+3,?___xxtofl+3
  4709  000552  0012               	return		;funcret
  4710  000554                     __end_of___xxtofl:
  4711                           	opt callstack 0
  4712                           
  4713 ;; *************** function ___flmul *****************
  4714 ;; Defined at:
  4715 ;;		line 8 in file "/Applications/microchip/xc8/v2.05/pic/sources/c99/common/sprcmul.c"
  4716 ;; Parameters:    Size  Location     Type
  4717 ;;  b               4   14[COMRAM] unsigned char 
  4718 ;;  a               4   18[COMRAM] unsigned char 
  4719 ;; Auto vars:     Size  Location     Type
  4720 ;;  prod            4   33[COMRAM] struct .
  4721 ;;  grs             4   27[COMRAM] unsigned long 
  4722 ;;  temp            2   37[COMRAM] struct .
  4723 ;;  bexp            1   32[COMRAM] unsigned char 
  4724 ;;  aexp            1   31[COMRAM] unsigned char 
  4725 ;;  sign            1   26[COMRAM] unsigned char 
  4726 ;; Return value:  Size  Location     Type
  4727 ;;                  4   14[COMRAM] unsigned char 
  4728 ;; Registers used:
  4729 ;;		wreg, status,2, status,0, prodl, prodh
  4730 ;; Tracked objects:
  4731 ;;		On entry : 0/0
  4732 ;;		On exit  : 0/0
  4733 ;;		Unchanged: 0/0
  4734 ;; Data sizes:     COMRAM   BANK0   BANK1   BANK2   BANK3   BANK4   BANK5   BANK6   BANK7
  4735 ;;      Params:         8       0       0       0       0       0       0       0       0
  4736 ;;      Locals:        13       0       0       0       0       0       0       0       0
  4737 ;;      Temps:          4       0       0       0       0       0       0       0       0
  4738 ;;      Totals:        25       0       0       0       0       0       0       0       0
  4739 ;;Total ram usage:       25 bytes
  4740 ;; Hardware stack levels used:    1
  4741 ;; This function calls:
  4742 ;;		Nothing
  4743 ;; This function is called by:
  4744 ;;		_ping_CCP1_triggered
  4745 ;; This function uses a non-reentrant model
  4746 ;;
  4747                           
  4748                           	psect	text54
  4749  0000C2                     __ptext54:
  4750                           	opt callstack 0
  4751  0000C2                     ___flmul:
  4752                           	opt callstack 24
  4753                           
  4754                           ;incstack = 0
  4755  0000C2  5012               	movf	___flmul@b+3,w,c
  4756  0000C4  0B80               	andlw	128
  4757  0000C6  6E1B               	movwf	___flmul@sign,c
  4758  0000C8  5012               	movf	___flmul@b+3,w,c
  4759  0000CA  2412               	addwf	___flmul@b+3,w,c
  4760  0000CC  6E21               	movwf	___flmul@bexp,c
  4761  0000CE  BE11               	btfsc	___flmul@b+2,7,c
  4762  0000D0  8021               	bsf	___flmul@bexp,0,c
  4763  0000D2  5021               	movf	___flmul@bexp,w,c
  4764  0000D4  B4D8               	btfsc	status,2,c
  4765  0000D6  D00D               	goto	i2l2573
  4766  0000D8  2821               	incf	___flmul@bexp,w,c
  4767  0000DA  A4D8               	btfss	status,2,c
  4768  0000DC  D008               	goto	i2l2571
  4769  0000DE  0E00               	movlw	0
  4770  0000E0  6E0F               	movwf	___flmul@b,c
  4771  0000E2  0E00               	movlw	0
  4772  0000E4  6E10               	movwf	___flmul@b+1,c
  4773  0000E6  0E00               	movlw	0
  4774  0000E8  6E11               	movwf	___flmul@b+2,c
  4775  0000EA  0E00               	movlw	0
  4776  0000EC  6E12               	movwf	___flmul@b+3,c
  4777  0000EE                     i2l2571:
  4778  0000EE  8E11               	bsf	___flmul@b+2,7,c
  4779  0000F0  D008               	goto	i2l2575
  4780  0000F2                     i2l2573:
  4781  0000F2  0E00               	movlw	0
  4782  0000F4  6E0F               	movwf	___flmul@b,c
  4783  0000F6  0E00               	movlw	0
  4784  0000F8  6E10               	movwf	___flmul@b+1,c
  4785  0000FA  0E00               	movlw	0
  4786  0000FC  6E11               	movwf	___flmul@b+2,c
  4787  0000FE  0E00               	movlw	0
  4788  000100  6E12               	movwf	___flmul@b+3,c
  4789  000102                     i2l2575:
  4790  000102  5016               	movf	___flmul@a+3,w,c
  4791  000104  0B80               	andlw	128
  4792  000106  1A1B               	xorwf	___flmul@sign,f,c
  4793  000108  5016               	movf	___flmul@a+3,w,c
  4794  00010A  2416               	addwf	___flmul@a+3,w,c
  4795  00010C  6E20               	movwf	___flmul@aexp,c
  4796  00010E  BE15               	btfsc	___flmul@a+2,7,c
  4797  000110  8020               	bsf	___flmul@aexp,0,c
  4798  000112  5020               	movf	___flmul@aexp,w,c
  4799  000114  B4D8               	btfsc	status,2,c
  4800  000116  D00D               	goto	i2l2591
  4801  000118  2820               	incf	___flmul@aexp,w,c
  4802  00011A  A4D8               	btfss	status,2,c
  4803  00011C  D008               	goto	i2l2589
  4804  00011E  0E00               	movlw	0
  4805  000120  6E13               	movwf	___flmul@a,c
  4806  000122  0E00               	movlw	0
  4807  000124  6E14               	movwf	___flmul@a+1,c
  4808  000126  0E00               	movlw	0
  4809  000128  6E15               	movwf	___flmul@a+2,c
  4810  00012A  0E00               	movlw	0
  4811  00012C  6E16               	movwf	___flmul@a+3,c
  4812  00012E                     i2l2589:
  4813  00012E  8E15               	bsf	___flmul@a+2,7,c
  4814  000130  D008               	goto	i2l1552
  4815  000132                     i2l2591:
  4816  000132  0E00               	movlw	0
  4817  000134  6E13               	movwf	___flmul@a,c
  4818  000136  0E00               	movlw	0
  4819  000138  6E14               	movwf	___flmul@a+1,c
  4820  00013A  0E00               	movlw	0
  4821  00013C  6E15               	movwf	___flmul@a+2,c
  4822  00013E  0E00               	movlw	0
  4823  000140  6E16               	movwf	___flmul@a+3,c
  4824  000142                     i2l1552:
  4825  000142  5020               	movf	___flmul@aexp,w,c
  4826  000144  B4D8               	btfsc	status,2,c
  4827  000146  D003               	goto	i2u98_40
  4828  000148  5021               	movf	___flmul@bexp,w,c
  4829  00014A  A4D8               	btfss	status,2,c
  4830  00014C  D009               	goto	i2l2599
  4831  00014E                     i2u98_40:
  4832  00014E  0E00               	movlw	0
  4833  000150  6E0F               	movwf	?___flmul,c
  4834  000152  0E00               	movlw	0
  4835  000154  6E10               	movwf	?___flmul+1,c
  4836  000156  0E00               	movlw	0
  4837  000158  6E11               	movwf	?___flmul+2,c
  4838  00015A  0E00               	movlw	0
  4839  00015C  6E12               	movwf	?___flmul+3,c
  4840  00015E  0012               	return	
  4841  000160                     i2l2599:
  4842  000160  5015               	movf	___flmul@a+2,w,c
  4843  000162  020F               	mulwf	___flmul@b,c
  4844  000164  CFF3 F026          	movff	prodl,___flmul@temp
  4845  000168  CFF4 F027          	movff	prodh,___flmul@temp+1
  4846  00016C  5026               	movf	___flmul@temp,w,c
  4847  00016E  6E1C               	movwf	___flmul@grs,c
  4848  000170  6A1D               	clrf	___flmul@grs+1,c
  4849  000172  6A1E               	clrf	___flmul@grs+2,c
  4850  000174  6A1F               	clrf	___flmul@grs+3,c
  4851  000176  5027               	movf	___flmul@temp+1,w,c
  4852  000178  6E22               	movwf	___flmul@prod,c
  4853  00017A  6A23               	clrf	___flmul@prod+1,c
  4854  00017C  6A24               	clrf	___flmul@prod+2,c
  4855  00017E  6A25               	clrf	___flmul@prod+3,c
  4856  000180  5014               	movf	___flmul@a+1,w,c
  4857  000182  0210               	mulwf	___flmul@b+1,c
  4858  000184  CFF3 F026          	movff	prodl,___flmul@temp
  4859  000188  CFF4 F027          	movff	prodh,___flmul@temp+1
  4860  00018C  5026               	movf	___flmul@temp,w,c
  4861  00018E  261C               	addwf	___flmul@grs,f,c
  4862  000190  0E00               	movlw	0
  4863  000192  221D               	addwfc	___flmul@grs+1,f,c
  4864  000194  221E               	addwfc	___flmul@grs+2,f,c
  4865  000196  221F               	addwfc	___flmul@grs+3,f,c
  4866  000198  5027               	movf	___flmul@temp+1,w,c
  4867  00019A  2622               	addwf	___flmul@prod,f,c
  4868  00019C  0E00               	movlw	0
  4869  00019E  2223               	addwfc	___flmul@prod+1,f,c
  4870  0001A0  2224               	addwfc	___flmul@prod+2,f,c
  4871  0001A2  2225               	addwfc	___flmul@prod+3,f,c
  4872  0001A4  5013               	movf	___flmul@a,w,c
  4873  0001A6  0211               	mulwf	___flmul@b+2,c
  4874  0001A8  CFF3 F026          	movff	prodl,___flmul@temp
  4875  0001AC  CFF4 F027          	movff	prodh,___flmul@temp+1
  4876  0001B0  5026               	movf	___flmul@temp,w,c
  4877  0001B2  261C               	addwf	___flmul@grs,f,c
  4878  0001B4  0E00               	movlw	0
  4879  0001B6  221D               	addwfc	___flmul@grs+1,f,c
  4880  0001B8  221E               	addwfc	___flmul@grs+2,f,c
  4881  0001BA  221F               	addwfc	___flmul@grs+3,f,c
  4882  0001BC  5027               	movf	___flmul@temp+1,w,c
  4883  0001BE  2622               	addwf	___flmul@prod,f,c
  4884  0001C0  0E00               	movlw	0
  4885  0001C2  2223               	addwfc	___flmul@prod+1,f,c
  4886  0001C4  2224               	addwfc	___flmul@prod+2,f,c
  4887  0001C6  2225               	addwfc	___flmul@prod+3,f,c
  4888  0001C8  C01E  F01F         	movff	___flmul@grs+2,___flmul@grs+3
  4889  0001CC  C01D  F01E         	movff	___flmul@grs+1,___flmul@grs+2
  4890  0001D0  C01C  F01D         	movff	___flmul@grs,___flmul@grs+1
  4891  0001D4  6A1C               	clrf	___flmul@grs,c
  4892  0001D6  5013               	movf	___flmul@a,w,c
  4893  0001D8  0210               	mulwf	___flmul@b+1,c
  4894  0001DA  CFF3 F026          	movff	prodl,___flmul@temp
  4895  0001DE  CFF4 F027          	movff	prodh,___flmul@temp+1
  4896  0001E2  5026               	movf	___flmul@temp,w,c
  4897  0001E4  261C               	addwf	___flmul@grs,f,c
  4898  0001E6  5027               	movf	___flmul@temp+1,w,c
  4899  0001E8  221D               	addwfc	___flmul@grs+1,f,c
  4900  0001EA  0E00               	movlw	0
  4901  0001EC  221E               	addwfc	___flmul@grs+2,f,c
  4902  0001EE  0E00               	movlw	0
  4903  0001F0  221F               	addwfc	___flmul@grs+3,f,c
  4904  0001F2  5014               	movf	___flmul@a+1,w,c
  4905  0001F4  020F               	mulwf	___flmul@b,c
  4906  0001F6  CFF3 F026          	movff	prodl,___flmul@temp
  4907  0001FA  CFF4 F027          	movff	prodh,___flmul@temp+1
  4908  0001FE  5026               	movf	___flmul@temp,w,c
  4909  000200  261C               	addwf	___flmul@grs,f,c
  4910  000202  5027               	movf	___flmul@temp+1,w,c
  4911  000204  221D               	addwfc	___flmul@grs+1,f,c
  4912  000206  0E00               	movlw	0
  4913  000208  221E               	addwfc	___flmul@grs+2,f,c
  4914  00020A  0E00               	movlw	0
  4915  00020C  221F               	addwfc	___flmul@grs+3,f,c
  4916  00020E  C01E  F01F         	movff	___flmul@grs+2,___flmul@grs+3
  4917  000212  C01D  F01E         	movff	___flmul@grs+1,___flmul@grs+2
  4918  000216  C01C  F01D         	movff	___flmul@grs,___flmul@grs+1
  4919  00021A  6A1C               	clrf	___flmul@grs,c
  4920  00021C  5013               	movf	___flmul@a,w,c
  4921  00021E  020F               	mulwf	___flmul@b,c
  4922  000220  CFF3 F026          	movff	prodl,___flmul@temp
  4923  000224  CFF4 F027          	movff	prodh,___flmul@temp+1
  4924  000228  5026               	movf	___flmul@temp,w,c
  4925  00022A  261C               	addwf	___flmul@grs,f,c
  4926  00022C  5027               	movf	___flmul@temp+1,w,c
  4927  00022E  221D               	addwfc	___flmul@grs+1,f,c
  4928  000230  0E00               	movlw	0
  4929  000232  221E               	addwfc	___flmul@grs+2,f,c
  4930  000234  0E00               	movlw	0
  4931  000236  221F               	addwfc	___flmul@grs+3,f,c
  4932  000238  5015               	movf	___flmul@a+2,w,c
  4933  00023A  0210               	mulwf	___flmul@b+1,c
  4934  00023C  CFF3 F026          	movff	prodl,___flmul@temp
  4935  000240  CFF4 F027          	movff	prodh,___flmul@temp+1
  4936  000244  5026               	movf	___flmul@temp,w,c
  4937  000246  2622               	addwf	___flmul@prod,f,c
  4938  000248  5027               	movf	___flmul@temp+1,w,c
  4939  00024A  2223               	addwfc	___flmul@prod+1,f,c
  4940  00024C  0E00               	movlw	0
  4941  00024E  2224               	addwfc	___flmul@prod+2,f,c
  4942  000250  0E00               	movlw	0
  4943  000252  2225               	addwfc	___flmul@prod+3,f,c
  4944  000254  5014               	movf	___flmul@a+1,w,c
  4945  000256  0211               	mulwf	___flmul@b+2,c
  4946  000258  CFF3 F026          	movff	prodl,___flmul@temp
  4947  00025C  CFF4 F027          	movff	prodh,___flmul@temp+1
  4948  000260  5026               	movf	___flmul@temp,w,c
  4949  000262  2622               	addwf	___flmul@prod,f,c
  4950  000264  5027               	movf	___flmul@temp+1,w,c
  4951  000266  2223               	addwfc	___flmul@prod+1,f,c
  4952  000268  0E00               	movlw	0
  4953  00026A  2224               	addwfc	___flmul@prod+2,f,c
  4954  00026C  0E00               	movlw	0
  4955  00026E  2225               	addwfc	___flmul@prod+3,f,c
  4956  000270  5015               	movf	___flmul@a+2,w,c
  4957  000272  0211               	mulwf	___flmul@b+2,c
  4958  000274  CFF3 F026          	movff	prodl,___flmul@temp
  4959  000278  CFF4 F027          	movff	prodh,___flmul@temp+1
  4960  00027C  5026               	movf	___flmul@temp,w,c
  4961  00027E  6E17               	movwf	??___flmul& (0+255),c
  4962  000280  5027               	movf	___flmul@temp+1,w,c
  4963  000282  6E18               	movwf	(??___flmul+1)& (0+255),c
  4964  000284  6A19               	clrf	(??___flmul+2)& (0+255),c
  4965  000286  6A1A               	clrf	(??___flmul+3)& (0+255),c
  4966  000288  C019  F01A         	movff	??___flmul+2,??___flmul+3
  4967  00028C  C018  F019         	movff	??___flmul+1,??___flmul+2
  4968  000290  C017  F018         	movff	??___flmul,??___flmul+1
  4969  000294  6A17               	clrf	??___flmul,c
  4970  000296  5017               	movf	??___flmul,w,c
  4971  000298  2622               	addwf	___flmul@prod,f,c
  4972  00029A  5018               	movf	??___flmul+1,w,c
  4973  00029C  2223               	addwfc	___flmul@prod+1,f,c
  4974  00029E  5019               	movf	??___flmul+2,w,c
  4975  0002A0  2224               	addwfc	___flmul@prod+2,f,c
  4976  0002A2  501A               	movf	??___flmul+3,w,c
  4977  0002A4  2225               	addwfc	___flmul@prod+3,f,c
  4978  0002A6  C01C  F017         	movff	___flmul@grs,??___flmul
  4979  0002AA  C01D  F018         	movff	___flmul@grs+1,??___flmul+1
  4980  0002AE  C01E  F019         	movff	___flmul@grs+2,??___flmul+2
  4981  0002B2  C01F  F01A         	movff	___flmul@grs+3,??___flmul+3
  4982  0002B6  0E19               	movlw	25
  4983  0002B8  D005               	goto	i2u99_40
  4984  0002BA                     i2u99_45:
  4985  0002BA  90D8               	bcf	status,0,c
  4986  0002BC  321A               	rrcf	??___flmul+3,f,c
  4987  0002BE  3219               	rrcf	??___flmul+2,f,c
  4988  0002C0  3218               	rrcf	??___flmul+1,f,c
  4989  0002C2  3217               	rrcf	??___flmul,f,c
  4990  0002C4                     i2u99_40:
  4991  0002C4  2EE8               	decfsz	wreg,f,c
  4992  0002C6  D7F9               	goto	i2u99_45
  4993  0002C8  5017               	movf	??___flmul,w,c
  4994  0002CA  2622               	addwf	___flmul@prod,f,c
  4995  0002CC  5018               	movf	??___flmul+1,w,c
  4996  0002CE  2223               	addwfc	___flmul@prod+1,f,c
  4997  0002D0  5019               	movf	??___flmul+2,w,c
  4998  0002D2  2224               	addwfc	___flmul@prod+2,f,c
  4999  0002D4  501A               	movf	??___flmul+3,w,c
  5000  0002D6  2225               	addwfc	___flmul@prod+3,f,c
  5001  0002D8  C01E  F01F         	movff	___flmul@grs+2,___flmul@grs+3
  5002  0002DC  C01D  F01E         	movff	___flmul@grs+1,___flmul@grs+2
  5003  0002E0  C01C  F01D         	movff	___flmul@grs,___flmul@grs+1
  5004  0002E4  6A1C               	clrf	___flmul@grs,c
  5005  0002E6  5020               	movf	___flmul@aexp,w,c
  5006  0002E8  C021  F017         	movff	___flmul@bexp,??___flmul
  5007  0002EC  6A18               	clrf	(??___flmul+1)& (0+255),c
  5008  0002EE  2617               	addwf	??___flmul,f,c
  5009  0002F0  0E00               	movlw	0
  5010  0002F2  2218               	addwfc	??___flmul+1,f,c
  5011  0002F4  0E82               	movlw	130
  5012  0002F6  2417               	addwf	??___flmul,w,c
  5013  0002F8  6E26               	movwf	___flmul@temp,c
  5014  0002FA  0EFF               	movlw	255
  5015  0002FC  2018               	addwfc	??___flmul+1,w,c
  5016  0002FE  6E27               	movwf	___flmul@temp+1,c
  5017  000300  D00F               	goto	i2l2647
  5018  000302                     i2l2641:
  5019  000302  90D8               	bcf	status,0,c
  5020  000304  3622               	rlcf	___flmul@prod,f,c
  5021  000306  3623               	rlcf	___flmul@prod+1,f,c
  5022  000308  3624               	rlcf	___flmul@prod+2,f,c
  5023  00030A  3625               	rlcf	___flmul@prod+3,f,c
  5024  00030C  BE1F               	btfsc	___flmul@grs+3,7,c
  5025  00030E  8022               	bsf	___flmul@prod,0,c
  5026  000310  90D8               	bcf	status,0,c
  5027  000312  361C               	rlcf	___flmul@grs,f,c
  5028  000314  361D               	rlcf	___flmul@grs+1,f,c
  5029  000316  361E               	rlcf	___flmul@grs+2,f,c
  5030  000318  361F               	rlcf	___flmul@grs+3,f,c
  5031  00031A  0626               	decf	___flmul@temp,f,c
  5032  00031C  A0D8               	btfss	status,0,c
  5033  00031E  0627               	decf	___flmul@temp+1,f,c
  5034  000320                     i2l2647:
  5035  000320  AE24               	btfss	___flmul@prod+2,7,c
  5036  000322  D7EF               	goto	i2l2641
  5037  000324  0E00               	movlw	0
  5038  000326  6E20               	movwf	___flmul@aexp,c
  5039  000328  AE1F               	btfss	___flmul@grs+3,7,c
  5040  00032A  D017               	goto	i2l1561
  5041  00032C  0EFF               	movlw	255
  5042  00032E  141C               	andwf	___flmul@grs,w,c
  5043  000330  6E17               	movwf	??___flmul& (0+255),c
  5044  000332  0EFF               	movlw	255
  5045  000334  141D               	andwf	___flmul@grs+1,w,c
  5046  000336  6E18               	movwf	(??___flmul+1)& (0+255),c
  5047  000338  0EFF               	movlw	255
  5048  00033A  141E               	andwf	___flmul@grs+2,w,c
  5049  00033C  6E19               	movwf	(??___flmul+2)& (0+255),c
  5050  00033E  0E7F               	movlw	127
  5051  000340  141F               	andwf	___flmul@grs+3,w,c
  5052  000342  6E1A               	movwf	(??___flmul+3)& (0+255),c
  5053  000344  5017               	movf	??___flmul,w,c
  5054  000346  1018               	iorwf	??___flmul+1,w,c
  5055  000348  1019               	iorwf	??___flmul+2,w,c
  5056  00034A  101A               	iorwf	??___flmul+3,w,c
  5057  00034C  B4D8               	btfsc	status,2,c
  5058  00034E  D003               	goto	i2l1562
  5059  000350                     i2u103_40:
  5060  000350  0E01               	movlw	1
  5061  000352  6E20               	movwf	___flmul@aexp,c
  5062  000354  D002               	goto	i2l1561
  5063  000356                     i2l1562:
  5064  000356  B022               	btfsc	___flmul@prod,0,c
  5065  000358  D7FB               	goto	i2u103_40
  5066  00035A                     i2l1561:
  5067  00035A  5020               	movf	___flmul@aexp,w,c
  5068  00035C  B4D8               	btfsc	status,2,c
  5069  00035E  D01F               	goto	i2l2667
  5070  000360  0E01               	movlw	1
  5071  000362  2622               	addwf	___flmul@prod,f,c
  5072  000364  0E00               	movlw	0
  5073  000366  2223               	addwfc	___flmul@prod+1,f,c
  5074  000368  2224               	addwfc	___flmul@prod+2,f,c
  5075  00036A  2225               	addwfc	___flmul@prod+3,f,c
  5076  00036C  A025               	btfss	___flmul@prod+3,0,c
  5077  00036E  D017               	goto	i2l2667
  5078  000370  C022  F017         	movff	___flmul@prod,??___flmul
  5079  000374  C023  F018         	movff	___flmul@prod+1,??___flmul+1
  5080  000378  C024  F019         	movff	___flmul@prod+2,??___flmul+2
  5081  00037C  C025  F01A         	movff	___flmul@prod+3,??___flmul+3
  5082  000380  341A               	rlcf	??___flmul+3,w,c
  5083  000382  321A               	rrcf	??___flmul+3,f,c
  5084  000384  3219               	rrcf	??___flmul+2,f,c
  5085  000386  3218               	rrcf	??___flmul+1,f,c
  5086  000388  3217               	rrcf	??___flmul,f,c
  5087  00038A  C017  F022         	movff	??___flmul,___flmul@prod
  5088  00038E  C018  F023         	movff	??___flmul+1,___flmul@prod+1
  5089  000392  C019  F024         	movff	??___flmul+2,___flmul@prod+2
  5090  000396  C01A  F025         	movff	??___flmul+3,___flmul@prod+3
  5091  00039A  4A26               	infsnz	___flmul@temp,f,c
  5092  00039C  2A27               	incf	___flmul@temp+1,f,c
  5093  00039E                     i2l2667:
  5094  00039E  BE27               	btfsc	___flmul@temp+1,7,c
  5095  0003A0  D00D               	goto	i2l2671
  5096  0003A2  5027               	movf	___flmul@temp+1,w,c
  5097  0003A4  E103               	bnz	i2u107_40
  5098  0003A6  2826               	incf	___flmul@temp,w,c
  5099  0003A8  A0D8               	btfss	status,0,c
  5100  0003AA  D008               	goto	i2l2671
  5101  0003AC                     i2u107_40:
  5102  0003AC  0E00               	movlw	0
  5103  0003AE  6E22               	movwf	___flmul@prod,c
  5104  0003B0  0E00               	movlw	0
  5105  0003B2  6E23               	movwf	___flmul@prod+1,c
  5106  0003B4  0E80               	movlw	128
  5107  0003B6  6E24               	movwf	___flmul@prod+2,c
  5108  0003B8  0E7F               	movlw	127
  5109  0003BA  D020               	goto	L2
  5110  0003BC                     i2l2671:
  5111  0003BC  BE27               	btfsc	___flmul@temp+1,7,c
  5112  0003BE  D005               	goto	i2u108_40
  5113  0003C0  5027               	movf	___flmul@temp+1,w,c
  5114  0003C2  E10E               	bnz	i2l1569
  5115  0003C4  0426               	decf	___flmul@temp,w,c
  5116  0003C6  B0D8               	btfsc	status,0,c
  5117  0003C8  D00B               	goto	i2l1569
  5118  0003CA                     i2u108_40:
  5119  0003CA  0E00               	movlw	0
  5120  0003CC  6E22               	movwf	___flmul@prod,c
  5121  0003CE  0E00               	movlw	0
  5122  0003D0  6E23               	movwf	___flmul@prod+1,c
  5123  0003D2  0E00               	movlw	0
  5124  0003D4  6E24               	movwf	___flmul@prod+2,c
  5125  0003D6  0E00               	movlw	0
  5126  0003D8  6E25               	movwf	___flmul@prod+3,c
  5127  0003DA  0E00               	movlw	0
  5128  0003DC  6E1B               	movwf	___flmul@sign,c
  5129  0003DE  D00F               	goto	i2l2683
  5130  0003E0                     i2l1569:
  5131  0003E0  C026  F021         	movff	___flmul@temp,___flmul@bexp
  5132  0003E4  0EFF               	movlw	255
  5133  0003E6  1622               	andwf	___flmul@prod,f,c
  5134  0003E8  0EFF               	movlw	255
  5135  0003EA  1623               	andwf	___flmul@prod+1,f,c
  5136  0003EC  0E7F               	movlw	127
  5137  0003EE  1624               	andwf	___flmul@prod+2,f,c
  5138  0003F0  0E00               	movlw	0
  5139  0003F2  1625               	andwf	___flmul@prod+3,f,c
  5140  0003F4  B021               	btfsc	___flmul@bexp,0,c
  5141  0003F6  8E24               	bsf	___flmul@prod+2,7,c
  5142  0003F8  90D8               	bcf	status,0,c
  5143  0003FA  3021               	rrcf	___flmul@bexp,w,c
  5144  0003FC                     L2:
  5145  0003FC  6E25               	movwf	___flmul@prod+3,c
  5146  0003FE                     i2l2683:
  5147  0003FE  501B               	movf	___flmul@sign,w,c
  5148  000400  1225               	iorwf	___flmul@prod+3,f,c
  5149  000402  C022  F00F         	movff	___flmul@prod,?___flmul
  5150  000406  C023  F010         	movff	___flmul@prod+1,?___flmul+1
  5151  00040A  C024  F011         	movff	___flmul@prod+2,?___flmul+2
  5152  00040E  C025  F012         	movff	___flmul@prod+3,?___flmul+3
  5153  000412  0012               	return		;funcret
  5154  000414                     __end_of___flmul:
  5155                           	opt callstack 0
  5156                           
  5157 ;; *************** function _ADCC_ISR *****************
  5158 ;; Defined at:
  5159 ;;		line 296 in file "mcc_generated_files/adcc.c"
  5160 ;; Parameters:    Size  Location     Type
  5161 ;;		None
  5162 ;; Auto vars:     Size  Location     Type
  5163 ;;		None
  5164 ;; Return value:  Size  Location     Type
  5165 ;;                  1    wreg      void 
  5166 ;; Registers used:
  5167 ;;		wreg, status,2, status,0, pclath, tosl, cstack
  5168 ;; Tracked objects:
  5169 ;;		On entry : 0/0
  5170 ;;		On exit  : 0/0
  5171 ;;		Unchanged: 0/0
  5172 ;; Data sizes:     COMRAM   BANK0   BANK1   BANK2   BANK3   BANK4   BANK5   BANK6   BANK7
  5173 ;;      Params:         0       0       0       0       0       0       0       0       0
  5174 ;;      Locals:         0       0       0       0       0       0       0       0       0
  5175 ;;      Temps:          0       0       0       0       0       0       0       0       0
  5176 ;;      Totals:         0       0       0       0       0       0       0       0       0
  5177 ;;Total ram usage:        0 bytes
  5178 ;; Hardware stack levels used:    1
  5179 ;; Hardware stack levels required when called:    1
  5180 ;; This function calls:
  5181 ;;		Absolute function
  5182 ;;		_ADCC_DefaultInterruptHandler
  5183 ;; This function is called by:
  5184 ;;		_INTERRUPT_InterruptManager
  5185 ;; This function uses a non-reentrant model
  5186 ;;
  5187                           
  5188                           	psect	text55
  5189  000C00                     __ptext55:
  5190                           	opt callstack 0
  5191  000C00                     _ADCC_ISR:
  5192                           	opt callstack 25
  5193                           
  5194                           ;mcc_generated_files/adcc.c: 299:     PIR1bits.ADIF = 0;
  5195                           
  5196                           ;incstack = 0
  5197  000C00  010E               	movlb	14	; () banked
  5198  000C02  91C6               	bcf	198,0,b	;volatile
  5199                           
  5200                           ; BSR set to: 14
  5201                           ;mcc_generated_files/adcc.c: 301:     if (ADCC_ADI_InterruptHandler)
  5202  000C04  0100               	movlb	0	; () banked
  5203  000C06  5174               	movf	_ADCC_ADI_InterruptHandler& (0+255),w,b
  5204  000C08  1175               	iorwf	(_ADCC_ADI_InterruptHandler+1)& (0+255),w,b
  5205  000C0A  B4D8               	btfsc	status,2,c
  5206  000C0C  0012               	return	
  5207                           
  5208                           ; BSR set to: 0
  5209                           ;mcc_generated_files/adcc.c: 302:             ADCC_ADI_InterruptHandler();
  5210  000C0E  D801               	call	i2u135_48
  5211  000C10  0012               	return	
  5212  000C12                     i2u135_48:
  5213  000C12  0005               	push	
  5214  000C14  6EFA               	movwf	pclath,c
  5215  000C16  5174               	movf	_ADCC_ADI_InterruptHandler& (0+255),w,b
  5216  000C18  6EFD               	movwf	tosl,c
  5217  000C1A  5175               	movf	(_ADCC_ADI_InterruptHandler+1)& (0+255),w,b
  5218  000C1C  6EFE               	movwf	tosh,c
  5219  000C1E  50F8               	movf	tblptru,w,c
  5220  000C20  6EFF               	movwf	tosu,c
  5221  000C22  50FA               	movf	pclath,w,c
  5222  000C24  0012               	return		;indir
  5223  000C26                     __end_of_ADCC_ISR:
  5224                           	opt callstack 0
  5225                           
  5226 ;; *************** function _ADCC_DefaultInterruptHandler *****************
  5227 ;; Defined at:
  5228 ;;		line 309 in file "mcc_generated_files/adcc.c"
  5229 ;; Parameters:    Size  Location     Type
  5230 ;;		None
  5231 ;; Auto vars:     Size  Location     Type
  5232 ;;		None
  5233 ;; Return value:  Size  Location     Type
  5234 ;;                  1    wreg      void 
  5235 ;; Registers used:
  5236 ;;		None
  5237 ;; Tracked objects:
  5238 ;;		On entry : 0/0
  5239 ;;		On exit  : 0/0
  5240 ;;		Unchanged: 0/0
  5241 ;; Data sizes:     COMRAM   BANK0   BANK1   BANK2   BANK3   BANK4   BANK5   BANK6   BANK7
  5242 ;;      Params:         0       0       0       0       0       0       0       0       0
  5243 ;;      Locals:         0       0       0       0       0       0       0       0       0
  5244 ;;      Temps:          0       0       0       0       0       0       0       0       0
  5245 ;;      Totals:         0       0       0       0       0       0       0       0       0
  5246 ;;Total ram usage:        0 bytes
  5247 ;; Hardware stack levels used:    1
  5248 ;; This function calls:
  5249 ;;		Nothing
  5250 ;; This function is called by:
  5251 ;;		_ADCC_Initialize
  5252 ;;		_ADCC_ISR
  5253 ;; This function uses a non-reentrant model
  5254 ;;
  5255                           
  5256                           	psect	text56
  5257  000D9A                     __ptext56:
  5258                           	opt callstack 0
  5259  000D9A                     _ADCC_DefaultInterruptHandler:
  5260                           	opt callstack 25
  5261                           
  5262                           ;incstack = 0
  5263  000D9A  0012               	return		;funcret
  5264  000D9C                     __end_of_ADCC_DefaultInterruptHandler:
  5265                           	opt callstack 0
  5266  0000                     
  5267                           	psect	text57
  5268  000000                     __ptext57:
  5269                           	opt callstack 0
  5270                           
  5271                           	psect	rparam
  5272  0000                     
  5273                           	psect	temp
  5274  00005F                     btemp:
  5275                           	opt callstack 0
  5276  00005F                     	ds	1
  5277  0000                     int$flags	set	btemp
  5278  0000                     wtemp8	set	btemp+1
  5279  0000                     ttemp5	set	btemp+1
  5280  0000                     ttemp6	set	btemp+4
  5281  0000                     ttemp7	set	btemp+8
  5282                           tosu	equ	0xFFF
  5283                           tosh	equ	0xFFE
  5284                           tosl	equ	0xFFD
  5285                           stkptr	equ	0xFFC
  5286                           pclatu	equ	0xFFB
  5287                           pclath	equ	0xFFA
  5288                           pcl	equ	0xFF9
  5289                           tblptru	equ	0xFF8
  5290                           tblptrh	equ	0xFF7
  5291                           tblptrl	equ	0xFF6
  5292                           tablat	equ	0xFF5
  5293                           prodh	equ	0xFF4
  5294                           prodl	equ	0xFF3
  5295                           indf0	equ	0xFEF
  5296                           postinc0	equ	0xFEE
  5297                           postdec0	equ	0xFED
  5298                           preinc0	equ	0xFEC
  5299                           plusw0	equ	0xFEB
  5300                           fsr0h	equ	0xFEA
  5301                           fsr0l	equ	0xFE9
  5302                           wreg	equ	0xFE8
  5303                           indf1	equ	0xFE7
  5304                           postinc1	equ	0xFE6
  5305                           postdec1	equ	0xFE5
  5306                           preinc1	equ	0xFE4
  5307                           plusw1	equ	0xFE3
  5308                           fsr1h	equ	0xFE2
  5309                           fsr1l	equ	0xFE1
  5310                           bsr	equ	0xFE0
  5311                           indf2	equ	0xFDF
  5312                           postinc2	equ	0xFDE
  5313                           postdec2	equ	0xFDD
  5314                           preinc2	equ	0xFDC
  5315                           plusw2	equ	0xFDB
  5316                           fsr2h	equ	0xFDA
  5317                           fsr2l	equ	0xFD9
  5318                           status	equ	0xFD8


Data Sizes:
    Strings     0
    Constant    0
    Data        3
    BSS         46
    Persistent  27
    Stack       0

Auto Spaces:
    Space          Size  Autos    Used
    COMRAM           94     49      94
    BANK0           160      6      37
    BANK1           256      0       0
    BANK2           256      0       0
    BANK3           256      0       0
    BANK4           256      0       0
    BANK5           256      0       0
    BANK6           256      0       0
    BANK7           256      0       0

Pointer List with Targets:

    TMR3_SetInterruptHandler@InterruptHandler	PTR FTN()void  size(2) Largest target is 1
		 -> TMR3_DefaultInterruptHandler(), 

    TMR3_InterruptHandler	PTR FTN()void  size(2) Largest target is 1
		 -> TMR3_DefaultInterruptHandler(), Absolute function(), 

    ADCC_SetADIInterruptHandler@InterruptHandler	PTR FTN()void  size(2) Largest target is 1
		 -> ADCC_DefaultInterruptHandler(), 

    ADCC_ADI_InterruptHandler	PTR FTN()void  size(2) Largest target is 1
		 -> ADCC_DefaultInterruptHandler(), Absolute function(), 

    EUSART1_SetRxInterruptHandler@interruptHandler	PTR FTN()void  size(2) Largest target is 1
		 -> EUSART1_Receive_ISR(), 

    EUSART1_SetTxInterruptHandler@interruptHandler	PTR FTN()void  size(2) Largest target is 1
		 -> EUSART1_Transmit_ISR(), 

    EUSART1_SetErrorHandler@interruptHandler	PTR FTN()void  size(2) Largest target is 1
		 -> EUSART1_DefaultErrorHandler(), 

    EUSART1_SetOverrunErrorHandler@interruptHandler	PTR FTN()void  size(2) Largest target is 1
		 -> EUSART1_DefaultOverrunErrorHandler(), 

    EUSART1_SetFramingErrorHandler@interruptHandler	PTR FTN()void  size(2) Largest target is 1
		 -> EUSART1_DefaultFramingErrorHandler(), 

    EUSART1_ErrorHandler	PTR FTN()void  size(2) Largest target is 1
		 -> EUSART1_DefaultErrorHandler(), Absolute function(), 

    EUSART1_OverrunErrorHandler	PTR FTN()void  size(2) Largest target is 1
		 -> EUSART1_DefaultOverrunErrorHandler(), Absolute function(), 

    EUSART1_FramingErrorHandler	PTR FTN()void  size(2) Largest target is 1
		 -> EUSART1_DefaultFramingErrorHandler(), Absolute function(), 

    TMR1_SetInterruptHandler@InterruptHandler	PTR FTN()void  size(2) Largest target is 1
		 -> ping_TMR1Overflow_isr(), TMR1_DefaultInterruptHandler(), 

    TMR1_InterruptHandler	PTR FTN()void  size(2) Largest target is 1
		 -> ping_TMR1Overflow_isr(), TMR1_DefaultInterruptHandler(), Absolute function(), 

    CCP1_SetCallBack@customCallBack	PTR FTN(unsigned short ,)void  size(2) Largest target is 1
		 -> ping_CCP1_triggered(), CCP1_DefaultCallBack(), 

    CCP1_CallBack	PTR FTN(unsigned short ,)void  size(2) Largest target is 1
		 -> ping_CCP1_triggered(), CCP1_DefaultCallBack(), Absolute function(), 

    EUSART1_RxDefaultInterruptHandler	PTR FTN()void  size(2) Largest target is 1
		 -> EUSART1_Receive_ISR(), Absolute function(), 

    EUSART1_TxDefaultInterruptHandler	PTR FTN()void  size(2) Largest target is 1
		 -> EUSART1_Transmit_ISR(), Absolute function(), 

    TMR2_SetInterruptHandler@InterruptHandler	PTR FTN()void  size(2) Largest target is 1
		 -> carcontrol_ISR(), TMR2_DefaultInterruptHandler(), 

    TMR2_InterruptHandler	PTR FTN()void  size(2) Largest target is 1
		 -> carcontrol_ISR(), TMR2_DefaultInterruptHandler(), Absolute function(), 

    IOCCF2_SetInterruptHandler@InterruptHandler	PTR FTN()void  size(2) Largest target is 1
		 -> ping_RC2_went_HIGH(), IOCCF2_DefaultInterruptHandler(), 

    IOCCF2_InterruptHandler	PTR FTN()void  size(2) Largest target is 1
		 -> ping_RC2_went_HIGH(), Absolute function(), IOCCF2_DefaultInterruptHandler(), 


Critical Paths under _main in COMRAM

    None.

Critical Paths under _INTERRUPT_InterruptManager in COMRAM

    _INTERRUPT_InterruptManager->_CCP1_CaptureISR
    _TMR3_ISR->_TMR3_WriteTimer
    _TMR2_ISR->_carcontrol_ISR
    _TMR1_ISR->_TMR1_WriteTimer
    _ping_TMR1Overflow_isr->i2_IOCCF2_SetInterruptHandler
    _ping_TMR1Overflow_isr->i2_TMR1_SetInterruptHandler
    _ping_RC2_went_HIGH->_TMR1_WriteTimer
    _ping_RC2_went_HIGH->i2_IOCCF2_SetInterruptHandler
    _ping_RC2_went_HIGH->i2_TMR1_SetInterruptHandler
    _CCP1_CaptureISR->_CCP1_DefaultCallBack
    _CCP1_CaptureISR->_ping_CCP1_triggered
    _ping_CCP1_triggered->___flmul
    ___flmul->___xxtofl

Critical Paths under _main in BANK0

    _carcontrol_init->_TMR2_SetInterruptHandler
    _SYSTEM_Initialize->_TMR1_Initialize
    _SYSTEM_Initialize->_TMR3_Initialize
    _TMR3_Initialize->_TMR3_SetInterruptHandler
    _TMR2_Initialize->_TMR2_SetInterruptHandler
    _TMR1_Initialize->_TMR1_SetInterruptHandler
    _PIN_MANAGER_Initialize->_IOCCF2_SetInterruptHandler
    _EUSART1_Initialize->_EUSART1_SetErrorHandler
    _EUSART1_Initialize->_EUSART1_SetFramingErrorHandler
    _EUSART1_Initialize->_EUSART1_SetOverrunErrorHandler
    _EUSART1_Initialize->_EUSART1_SetRxInterruptHandler
    _EUSART1_Initialize->_EUSART1_SetTxInterruptHandler
    _CCP1_Initialize->_CCP1_SetCallBack
    _ADCC_Initialize->_ADCC_SetADIInterruptHandler

Critical Paths under _INTERRUPT_InterruptManager in BANK0

    None.

Critical Paths under _main in BANK1

    None.

Critical Paths under _INTERRUPT_InterruptManager in BANK1

    None.

Critical Paths under _main in BANK2

    None.

Critical Paths under _INTERRUPT_InterruptManager in BANK2

    None.

Critical Paths under _main in BANK3

    None.

Critical Paths under _INTERRUPT_InterruptManager in BANK3

    None.

Critical Paths under _main in BANK4

    None.

Critical Paths under _INTERRUPT_InterruptManager in BANK4

    None.

Critical Paths under _main in BANK5

    None.

Critical Paths under _INTERRUPT_InterruptManager in BANK5

    None.

Critical Paths under _main in BANK6

    None.

Critical Paths under _INTERRUPT_InterruptManager in BANK6

    None.

Critical Paths under _main in BANK7

    None.

Critical Paths under _INTERRUPT_InterruptManager in BANK7

    None.

Call Graph Tables:

 ---------------------------------------------------------------------------------
 (Depth) Function   	        Calls       Base Space   Used Autos Params    Refs
 ---------------------------------------------------------------------------------
 (0) _main                                                 2     2      0    2104
                                              4 BANK0      2     2      0
                  _SYSTEM_Initialize
                    _carcontrol_init
                _carcontrol_steering
                _carcontrol_throttle
 ---------------------------------------------------------------------------------
 (1) _carcontrol_init                                      0     0      0     310
           _TMR2_SetInterruptHandler
                _carcontrol_steering
                _carcontrol_throttle
 ---------------------------------------------------------------------------------
 (1) _carcontrol_throttle                                  1     1      0      45
                                              0 BANK0      1     1      0
 ---------------------------------------------------------------------------------
 (1) _carcontrol_steering                                  1     1      0      91
                                              0 BANK0      1     1      0
 ---------------------------------------------------------------------------------
 (1) _SYSTEM_Initialize                                    0     0      0    1658
                    _ADCC_Initialize
                    _CCP1_Initialize
                 _EUSART1_Initialize
               _INTERRUPT_Initialize
              _OSCILLATOR_Initialize
             _PIN_MANAGER_Initialize
                     _PMD_Initialize
                    _TMR1_Initialize
                    _TMR2_Initialize
                    _TMR3_Initialize
 ---------------------------------------------------------------------------------
 (2) _TMR3_Initialize                                      2     2      0      98
                                              2 BANK0      2     2      0
           _TMR3_SetInterruptHandler
 ---------------------------------------------------------------------------------
 (3) _TMR3_SetInterruptHandler                             2     0      2      98
                                              0 BANK0      2     0      2
 ---------------------------------------------------------------------------------
 (2) _TMR2_Initialize                                      0     0      0     174
           _TMR2_SetInterruptHandler
 ---------------------------------------------------------------------------------
 (2) _TMR2_SetInterruptHandler                             2     0      2     174
                                              0 BANK0      2     0      2
 ---------------------------------------------------------------------------------
 (2) _TMR1_Initialize                                      2     2      0     350
                                              2 BANK0      2     2      0
           _TMR1_SetInterruptHandler
 ---------------------------------------------------------------------------------
 (3) _TMR1_SetInterruptHandler                             2     0      2     350
                                              0 BANK0      2     0      2
 ---------------------------------------------------------------------------------
 (2) _PMD_Initialize                                       0     0      0       0
 ---------------------------------------------------------------------------------
 (2) _PIN_MANAGER_Initialize                               0     0      0     274
         _IOCCF2_SetInterruptHandler
 ---------------------------------------------------------------------------------
 (3) _IOCCF2_SetInterruptHandler                           2     0      2     274
                                              0 BANK0      2     0      2
 ---------------------------------------------------------------------------------
 (2) _OSCILLATOR_Initialize                                0     0      0       0
 ---------------------------------------------------------------------------------
 (2) _INTERRUPT_Initialize                                 0     0      0       0
 ---------------------------------------------------------------------------------
 (2) _EUSART1_Initialize                                   0     0      0     490
            _EUSART1_SetErrorHandler
     _EUSART1_SetFramingErrorHandler
     _EUSART1_SetOverrunErrorHandler
      _EUSART1_SetRxInterruptHandler
      _EUSART1_SetTxInterruptHandler
 ---------------------------------------------------------------------------------
 (3) _EUSART1_SetTxInterruptHandler                        2     0      2      98
                                              0 BANK0      2     0      2
 ---------------------------------------------------------------------------------
 (3) _EUSART1_SetRxInterruptHandler                        2     0      2      98
                                              0 BANK0      2     0      2
 ---------------------------------------------------------------------------------
 (3) _EUSART1_SetOverrunErrorHandler                       2     0      2      98
                                              0 BANK0      2     0      2
 ---------------------------------------------------------------------------------
 (3) _EUSART1_SetFramingErrorHandler                       2     0      2      98
                                              0 BANK0      2     0      2
 ---------------------------------------------------------------------------------
 (3) _EUSART1_SetErrorHandler                              2     0      2      98
                                              0 BANK0      2     0      2
 ---------------------------------------------------------------------------------
 (2) _CCP1_Initialize                                      0     0      0     174
                   _CCP1_SetCallBack
 ---------------------------------------------------------------------------------
 (3) _CCP1_SetCallBack                                     2     0      2     174
                                              0 BANK0      2     0      2
 ---------------------------------------------------------------------------------
 (2) _ADCC_Initialize                                      0     0      0      98
        _ADCC_SetADIInterruptHandler
 ---------------------------------------------------------------------------------
 (3) _ADCC_SetADIInterruptHandler                          2     0      2      98
                                              0 BANK0      2     0      2
 ---------------------------------------------------------------------------------
 Estimated maximum stack depth 3
 ---------------------------------------------------------------------------------
 (Depth) Function   	        Calls       Base Space   Used Autos Params    Refs
 ---------------------------------------------------------------------------------
 (4) _INTERRUPT_InterruptManager                           6     6      0    3606
                                             43 COMRAM     6     6      0
                   Absolute function *
                           _ADCC_ISR
                    _CCP1_CaptureISR
                _EUSART1_Receive_ISR *
               _EUSART1_Transmit_ISR *
                    _PIN_MANAGER_IOC
                           _TMR1_ISR
                           _TMR2_ISR
                           _TMR3_ISR
 ---------------------------------------------------------------------------------
 (5) _TMR3_ISR                                             0     0      0     240
                   Absolute function *
       _TMR3_DefaultInterruptHandler *
                    _TMR3_WriteTimer
 ---------------------------------------------------------------------------------
 (6) _TMR3_WriteTimer                                      2     0      2     240
                                              0 COMRAM     2     0      2
 ---------------------------------------------------------------------------------
 (6) _TMR3_DefaultInterruptHandler                         0     0      0       0
 ---------------------------------------------------------------------------------
 (5) _TMR2_ISR                                             0     0      0       0
                   Absolute function *
       _TMR2_DefaultInterruptHandler *
                     _carcontrol_ISR *
 ---------------------------------------------------------------------------------
 (6) _carcontrol_ISR                                       3     3      0       0
                                              0 COMRAM     3     3      0
 ---------------------------------------------------------------------------------
 (6) _TMR2_DefaultInterruptHandler                         0     0      0       0
 ---------------------------------------------------------------------------------
 (5) _TMR1_ISR                                             0     0      0     540
                   Absolute function *
       _TMR1_DefaultInterruptHandler *
                    _TMR1_WriteTimer
              _ping_TMR1Overflow_isr *
 ---------------------------------------------------------------------------------
 (6) _ping_TMR1Overflow_isr                                0     0      0     148
       i2_IOCCF2_SetInterruptHandler
         i2_TMR1_SetInterruptHandler
 ---------------------------------------------------------------------------------
 (6) _TMR1_DefaultInterruptHandler                         0     0      0       0
 ---------------------------------------------------------------------------------
 (5) _PIN_MANAGER_IOC                                      0     0      0     540
                         _IOCCF2_ISR
 ---------------------------------------------------------------------------------
 (6) _IOCCF2_ISR                                           0     0      0     540
                   Absolute function *
     _IOCCF2_DefaultInterruptHandler *
                 _ping_RC2_went_HIGH *
 ---------------------------------------------------------------------------------
 (7) _ping_RC2_went_HIGH                                   0     0      0     540
                    _TMR1_StartTimer
                    _TMR1_WriteTimer
       i2_IOCCF2_SetInterruptHandler
         i2_TMR1_SetInterruptHandler
 ---------------------------------------------------------------------------------
 (7) i2_TMR1_SetInterruptHandler                           2     0      2      74
                                              0 COMRAM     2     0      2
 ---------------------------------------------------------------------------------
 (7) i2_IOCCF2_SetInterruptHandler                         2     0      2      74
                                              0 COMRAM     2     0      2
 ---------------------------------------------------------------------------------
 (6) _TMR1_WriteTimer                                      2     0      2     392
                                              0 COMRAM     2     0      2
 ---------------------------------------------------------------------------------
 (8) _TMR1_StartTimer                                      0     0      0       0
 ---------------------------------------------------------------------------------
 (7) _IOCCF2_DefaultInterruptHandler                       0     0      0       0
 ---------------------------------------------------------------------------------
 (5) _EUSART1_Transmit_ISR                                 0     0      0       0
 ---------------------------------------------------------------------------------
 (5) _EUSART1_Receive_ISR                                  0     0      0       0
                   Absolute function *
        _EUSART1_DefaultErrorHandler *
 _EUSART1_DefaultFramingErrorHandler *
 _EUSART1_DefaultOverrunErrorHandler *
              _EUSART1_RxDataHandler
 ---------------------------------------------------------------------------------
 (6) _EUSART1_DefaultOverrunErrorHandler                   0     0      0       0
 ---------------------------------------------------------------------------------
 (6) _EUSART1_DefaultFramingErrorHandler                   0     0      0       0
 ---------------------------------------------------------------------------------
 (6) _EUSART1_DefaultErrorHandler                          0     0      0       0
              _EUSART1_RxDataHandler
 ---------------------------------------------------------------------------------
 (6) _EUSART1_RxDataHandler                                0     0      0       0
 ---------------------------------------------------------------------------------
 (5) _CCP1_CaptureISR                                      2     2      0    2286
                                             41 COMRAM     2     2      0
                   Absolute function *
               _CCP1_DefaultCallBack *
                _ping_CCP1_triggered *
 ---------------------------------------------------------------------------------
 (6) _ping_CCP1_triggered                                  2     0      2    2239
                                             39 COMRAM     2     0      2
                            ___flmul
                           ___xxtofl
 ---------------------------------------------------------------------------------
 (7) ___xxtofl                                            14    10      4     398
                                              0 COMRAM    14    10      4
 ---------------------------------------------------------------------------------
 (7) ___flmul                                             25    17      8    1744
                                             14 COMRAM    25    17      8
                           ___xxtofl (ARG)
 ---------------------------------------------------------------------------------
 (6) _CCP1_DefaultCallBack                                 2     0      2       0
                                             39 COMRAM     2     0      2
 ---------------------------------------------------------------------------------
 (5) _ADCC_ISR                                             0     0      0       0
                   Absolute function *
       _ADCC_DefaultInterruptHandler *
 ---------------------------------------------------------------------------------
 (6) _ADCC_DefaultInterruptHandler                         0     0      0       0
 ---------------------------------------------------------------------------------
 (6) Absolute function(Fake)                               0     0      0       0
 ---------------------------------------------------------------------------------
 Estimated maximum stack depth 8
 ---------------------------------------------------------------------------------

 Call Graph Graphs:

 _main (ROOT)
   _SYSTEM_Initialize
     _ADCC_Initialize
       _ADCC_SetADIInterruptHandler
     _CCP1_Initialize
       _CCP1_SetCallBack
     _EUSART1_Initialize
       _EUSART1_SetErrorHandler
       _EUSART1_SetFramingErrorHandler
       _EUSART1_SetOverrunErrorHandler
       _EUSART1_SetRxInterruptHandler
       _EUSART1_SetTxInterruptHandler
     _INTERRUPT_Initialize
     _OSCILLATOR_Initialize
     _PIN_MANAGER_Initialize
       _IOCCF2_SetInterruptHandler
     _PMD_Initialize
     _TMR1_Initialize
       _TMR1_SetInterruptHandler
     _TMR2_Initialize
       _TMR2_SetInterruptHandler
     _TMR3_Initialize
       _TMR3_SetInterruptHandler
   _carcontrol_init
     _TMR2_SetInterruptHandler
     _carcontrol_steering
     _carcontrol_throttle
   _carcontrol_steering
   _carcontrol_throttle

 _INTERRUPT_InterruptManager (ROOT)
   Absolute function(Fake) *
   _ADCC_ISR *
     Absolute function(Fake) *
     _ADCC_DefaultInterruptHandler *
   _CCP1_CaptureISR *
     Absolute function(Fake) *
     _CCP1_DefaultCallBack *
     _ping_CCP1_triggered *
       ___flmul
         ___xxtofl (ARG)
       ___xxtofl
   _EUSART1_Receive_ISR *
     Absolute function(Fake) *
     _EUSART1_DefaultErrorHandler *
       _EUSART1_RxDataHandler
     _EUSART1_DefaultFramingErrorHandler *
     _EUSART1_DefaultOverrunErrorHandler *
     _EUSART1_RxDataHandler *
   _EUSART1_Transmit_ISR *
   _PIN_MANAGER_IOC *
     _IOCCF2_ISR
       Absolute function(Fake) *
       _IOCCF2_DefaultInterruptHandler *
       _ping_RC2_went_HIGH *
         _TMR1_StartTimer
         _TMR1_WriteTimer
         i2_IOCCF2_SetInterruptHandler
         i2_TMR1_SetInterruptHandler
   _TMR1_ISR *
     Absolute function(Fake) *
     _TMR1_DefaultInterruptHandler *
     _TMR1_WriteTimer *
     _ping_TMR1Overflow_isr *
       i2_IOCCF2_SetInterruptHandler
       i2_TMR1_SetInterruptHandler
   _TMR2_ISR *
     Absolute function(Fake) *
     _TMR2_DefaultInterruptHandler *
     _carcontrol_ISR *
   _TMR3_ISR *
     Absolute function(Fake) *
     _TMR3_DefaultInterruptHandler *
     _TMR3_WriteTimer *

 Address spaces:
Name               Size   Autos  Total    Cost      Usage
BIGRAM             7FF      0       0      21        0.0%
EEDATA             100      0       0       0        0.0%
BITBANK7           100      0       0      19        0.0%
BANK7              100      0       0      20        0.0%
BITBANK6           100      0       0      16        0.0%
BANK6              100      0       0      17        0.0%
BITBANK5           100      0       0      14        0.0%
BANK5              100      0       0      15        0.0%
BITBANK4           100      0       0      12        0.0%
BANK4              100      0       0      13        0.0%
BITBANK3           100      0       0      10        0.0%
BANK3              100      0       0      11        0.0%
BITBANK2           100      0       0       8        0.0%
BANK2              100      0       0       9        0.0%
BITBANK1           100      0       0       6        0.0%
BANK1              100      0       0       7        0.0%
BITBANK0            A0      0       0       4        0.0%
BANK0               A0      6      25       5       23.1%
BITCOMRAM           5E      0       0       0        0.0%
COMRAM              5E     31      5E       1      100.0%
BITSFR_2             0      0       0     200        0.0%
SFR_2                0      0       0     200        0.0%
BITSFR_1             0      0       0     200        0.0%
SFR_1                0      0       0     200        0.0%
BITSFR               0      0       0     200        0.0%
SFR                  0      0       0     200        0.0%
STACK                0      0       0       2        0.0%
NULL                 0      0       0       0        0.0%
ABS                  0      0      83      18        0.0%
DATA                 0      0      83       3        0.0%
CODE                 0      0       0       0        0.0%


Microchip Technology PIC18 Macro Assembler V2.05 build -831301201 
Symbol Table                                                                                   Mon Apr 22 17:33:42 2019

              __end_of_TMR2_SetInterruptHandler 0D08                        _eusart1TxBufferRemaining 007E  
                             ??_carcontrol_init 0081                                     __CFG_CP$OFF 000000  
                           _carcontrol_throttle 0CD2                             _carcontrol_steering 0A44  
                       __end_of_CCP1_Initialize 0B30                                     __CFG_LVP$ON 000000  
                                           l778 071C                                             _PR2 000FBB  
                                  __CFG_CPD$OFF 000000                                 _timer1ReloadVal 0052  
                       __size_of_PMD_Initialize 001C                                 _TMR2_Initialize 0AD4  
                                           tosl 000FFD                                             wreg 000FE8  
              ??_IOCCF2_DefaultInterruptHandler 0001                 ?_IOCCF2_DefaultInterruptHandler 0001  
                                  ___flmul@aexp 0020                                    ___flmul@bexp 0021  
                  ?_ADCC_SetADIInterruptHandler 007F                                    ___flmul@sign 001B  
                                  ___flmul@temp 0026                                    ___flmul@prod 0022  
                   carcontrol_steering@steering 007F                                    __CFG_ZCD$OFF 000000  
                               _timer3ReloadVal 004E                                            l2871 0CE2  
                                          l2881 0A66                                            l2877 0A58  
                                          _LATA 000F82                                            _LATB 000F83  
                                          _LATC 000F84                                            _T2PR 000FBB  
                                          u1747 06F2                                            u1757 0710  
                                          u1767 0728                                            u1777 0746  
                                          _PMD0 000EDC                                            _PMD1 000EDD  
                                          _PMD2 000EDE                                            _PMD3 000EDF  
                                          _PMD4 000EE0                                            _PMD5 000EE1  
                                          _PIR6 000ECB                                            _TMR2 000FBA  
                                          _WPUA 000F0B                                            _WPUB 000F13  
                                          _WPUC 000F1B                                            _WPUE 000F28  
                              __end_of_ADCC_ISR 0C26                            ?_carcontrol_throttle 0001  
                          ?_carcontrol_steering 0001                                   __CFG_FCMEN$ON 000000  
                                          _main 06D4                                            fsr2h 000FDA  
                                          indf2 000FDF                                            fsr2l 000FD9  
                                          btemp 005F                                            prodh 000FF4  
                                          prodl 000FF3                                            start 00BE  
                               _TMR3_Initialize 0998                        __end_of_CCP1_SetCallBack 0D58  
                    ??_TMR1_SetInterruptHandler 0081                                   __CFG_CSWEN$ON 000000  
                                  ___param_bank 000000                                ?_CCP1_CaptureISR 0001  
                                 __CFG_SCANE$ON 000000                  __size_of_OSCILLATOR_Initialize 0018  
                 __end_of_OSCILLATOR_Initialize 0CD2                             __size_of_IOCCF2_ISR 0026  
                         _eusart1RxStatusBuffer 003A                                           _ADACQ 000F57  
                                         _ADCAP 000F58                                           _ADACT 000F51  
                                         ?_main 0001                                           _ADCLK 000F52  
                                         _ADCNT 000F62                                           _ADPCH 000F5A  
                                         _ADREF 000F53                                           _ADPRE 000F59  
                                 __CFG_WDTE$OFF 000000                                           _ADRPT 000F61  
                               __end_of___flmul 0414                                 _TMR1_StartTimer 0D86  
                                         _T1CLK 000FD1                                           _T1CON 000FCE  
                                         _T3CLK 000FCB                                           _T2CON 000FBC  
                                         _T3CON 000FC8                                           _T2HLT 000FBD  
                                __CFG_DEBUG$OFF 000000                                           _T2TMR 000FBA  
                                         _T2RST 000FBF                                           i2l260 004A  
                                         i2l270 0098                                           i2l262 0068  
                                         i2l264 0074                                           i2l257 0030  
                                         i2l266 0080                                           i2l267 00A2  
                                         i2l268 008C                                           i2l479 0B58  
                                         _OSCEN 000ED7                                           _TMR1H 000FCD  
                                         _TMR1L 000FCC                                           _TMR3H 000FC7  
                                         _TMR3L 000FC6                                           _TRISA 000F87  
                                         _TRISB 000F88                                           _TRISC 000F89  
                                 __CFG_WRT0$OFF 000000                                   __CFG_WRT1$OFF 000000  
                                 __CFG_WRT2$OFF 000000               __size_of_TMR3_SetInterruptHandler 000A  
                                 __CFG_WRT3$OFF 000000                            _EUSART1_Transmit_ISR 0B30  
                     ?_TMR3_SetInterruptHandler 007F                                  __CFG_EBTR0$OFF 000000  
                                __CFG_EBTR1$OFF 000000                                  __CFG_EBTR2$OFF 000000  
                                __CFG_EBTR3$OFF 000000                                __end_of_TMR1_ISR 0AD4  
                              __end_of_TMR2_ISR 0BDA                                   __CFG_WRTB$OFF 000000  
                              __end_of_TMR3_ISR 0AA4                                   __CFG_WRTC$OFF 000000  
                                 __CFG_WRTD$OFF 000000                                  __CFG_EBTRB$OFF 000000  
                ??_TMR3_DefaultInterruptHandler 0001                         __end_of_PIN_MANAGER_IOC 0CF4  
                            __CFG_MCLRE$EXTMCLR 000000                         __end_of_TMR1_Initialize 0954  
                         ??_carcontrol_throttle 007F                           ??_carcontrol_steering 007F  
                                         pclath 000FFA                                           tablat 000FF5  
                                         ttemp5 0060                                           ttemp6 0063  
                                         ttemp7 0067                                           status 000FD8  
                                         wtemp8 0060                                  _carcontrol_ISR 0554  
    __end_of_EUSART1_DefaultFramingErrorHandler 0D98     __size_of_EUSART1_DefaultFramingErrorHandler 0002  
          ??_EUSART1_DefaultFramingErrorHandler 0001             ?_EUSART1_DefaultFramingErrorHandler 0001  
            _EUSART1_DefaultFramingErrorHandler 0D96                                 _TMR1_WriteTimer 0C9E  
                               __initialization 0954                      __end_of_EUSART1_Initialize 07E0  
                                  __end_of_main 075A                         __end_of_TMR2_Initialize 0B02  
                   ?_INTERRUPT_InterruptManager 0001                        _TMR2_SetInterruptHandler 0CFE  
                                        ??_main 0083                                ?_CCP1_Initialize 0001  
                                 __activetblptr 000002                           _TMR3_InterruptHandler 004C  
                       _IOCCF2_InterruptHandler 0056                           ?_EUSART1_Transmit_ISR 0001  
                                        _ADACCH 000F6C                                          _ADACCL 000F6B  
                                        _ADCON0 000F5B                                          _ADCON1 000F54  
                                        _ADCON2 000F55                                          _ADCON3 000F56  
                                        _ADERRH 000F6A                                          _ADERRL 000F69  
                                        _ADLTHH 000F66                                          _ADLTHL 000F65  
                                        _ADRESH 000F5F                                          _ADRESL 000F5E  
                                        _CCPR1H 000FAA                                          _CCPR1L 000FA9  
                                        _ADSTAT 000F60                                          _ADUTHH 000F68  
                                        _ADUTHL 000F67                                          _ANSELA 000F0C  
                                        _ANSELB 000F14                                          _ANSELC 000F1C  
                                        _T1GATE 000FD0                                          _T1GCON 000FCF  
                                        _T3GATE 000FCA                                          _T3GCON 000FC9  
                                        _RC1REG 000F98                   __size_of_CCP1_DefaultCallBack 0002  
                                        _RC1STA 000F9C                         TMR1_WriteTimer@timerVal 0001  
                                        _ODCONA 000F0A                                          _ODCONB 000F12  
                                        _ODCONC 000F1A                                          _RC6PPS 000EF8  
                        __end_of_carcontrol_ISR 063A                         __end_of_TMR3_Initialize 09DC  
                                        i2l1600 04D0                                  __CFG_WDTCCS$SC 000000  
                                        i2l3061 0B54                                          i2l1552 0142  
                                        i2l1561 035A                                          i2l3081 06CE  
                                        i2l1562 0356                                          i2l2507 0CB0  
                                        i2l2701 0480                                          i2l2541 0C44  
                                        i2l2703 0486                                          i2l1569 03E0  
                                        i2l2641 0302                                          i2l2713 04F6  
                                        i2l2705 0492                                          i2l1593 0452  
                                        i2l2571 00EE                                          i2l2731 0542  
                                        i2l2715 0502                                          i2l2707 04B8  
                                        i2l2573 00F2                                          i2l2671 03BC  
                                        i2l2647 0320                                          i2l2591 0132  
                                        i2l2575 0102                                          i2l2903 058E  
                                        i2l2913 05E4                                          i2l2683 03FE  
                                        i2l2667 039E                                          i2l2589 012E  
                                        i2l2599 0160                                          i2l2695 0462  
                                        i2l2863 0C94                                          i2l2929 060E  
                                        i2l2893 0568                                          i2l2887 0556  
                                        _OSCFRQ 000ED9                                          _TX1REG 000F99  
                                        _TX1STA 000F9D                                __end_of___xxtofl 0554  
                               _TMR3_WriteTimer 0C82                                   _CCP1_CallBack 0054  
                                __CFG_PWRTE$OFF 000000                                  __CFG_XINST$OFF 000000  
          __end_of_TMR1_DefaultInterruptHandler 0D94           __size_of_TMR1_DefaultInterruptHandler 0002  
                  _TMR1_DefaultInterruptHandler 0D92            __size_of_ADCC_SetADIInterruptHandler 000A  
                       __end_of_TMR1_StartTimer 0D8A                                  __CFG_STVREN$ON 000000  
                                     ??___flmul 0017                                          _carctl 0068  
                      ?_EUSART1_SetErrorHandler 007F                                          clear_0 0978  
                                        clear_1 0984                ??_EUSART1_SetOverrunErrorHandler 0081  
               ?_EUSART1_SetOverrunErrorHandler 007F                                          _status 0032  
                                     ?_ADCC_ISR 0001                     __end_of_ping_CCP1_triggered 08AE  
                               _ADCC_Initialize 08AE                                  _PMD_Initialize 0C66  
                                  __pdataCOMRAM 005C                                          tblptrh 000FF7  
                                        tblptrl 000FF6                                          tblptru 000FF8  
                       ??_ping_TMR1Overflow_isr 0003      i2TMR1_SetInterruptHandler@InterruptHandler 0001  
  i2IOCCF2_SetInterruptHandler@InterruptHandler 0001        TMR3_SetInterruptHandler@InterruptHandler 007F  
   ADCC_SetADIInterruptHandler@InterruptHandler 007F        TMR1_SetInterruptHandler@InterruptHandler 007F  
      TMR2_SetInterruptHandler@InterruptHandler 007F      IOCCF2_SetInterruptHandler@InterruptHandler 007F  
                              ?_PIN_MANAGER_IOC 0001                         __end_of_TMR1_WriteTimer 0CBA  
                               _eusart1RxBuffer 0060                   __size_of_INTERRUPT_Initialize 0004  
                                  ??_IOCCF2_ISR 0003                                 _eusart1TxBuffer 0042  
                   __size_of_ping_RC2_went_HIGH 0034                                ?_TMR1_Initialize 0001  
                               ?_carcontrol_ISR 0001                                    ___xxtofl@arg 000B  
                                  ___xxtofl@exp 000A                               _SYSTEM_Initialize 0B8A  
                                  ___xxtofl@val 0001                                 _carcontrol_init 09DC  
                                    __accesstop 0060                         __end_of__initialization 098A  
                            ?_SYSTEM_Initialize 0001                                   ___rparam_used 000001  
                __size_of_EUSART1_RxDataHandler 0022                   __end_of_EUSART1_RxDataHandler 0C48  
                                __pcstackCOMRAM 0001                             ??_SYSTEM_Initialize 0083  
                                     ?_TMR1_ISR 0001                                       ?_TMR2_ISR 0001  
                 ?_TMR1_DefaultInterruptHandler 0001                                       ?_TMR3_ISR 0001  
                              ?_TMR2_Initialize 0001                          __end_of_PMD_Initialize 0C82  
                                    ??_ADCC_ISR 0001                              __end_of_IOCCF2_ISR 0C00  
                        ??_EUSART1_Transmit_ISR 0001                     __end_of_EUSART1_Receive_ISR 06D4  
                     __end_of_SYSTEM_Initialize 0BB4                         __end_of_TMR3_WriteTimer 0C9E  
                                 _eusart1RxHead 0071                                   _eusart1TxHead 0073  
                                 _eusart1RxTail 004B                                      __pbssBANK0 0060  
                                 _eusart1TxTail 0072               _EUSART1_TxDefaultInterruptHandler 005A  
               ??_EUSART1_SetRxInterruptHandler 0081                                ?_TMR3_Initialize 0001  
                                    __pnvCOMRAM 004C          __end_of_IOCCF2_DefaultInterruptHandler 0D96  
       __size_of_IOCCF2_DefaultInterruptHandler 0002                  _IOCCF2_DefaultInterruptHandler 0D94  
               __end_of_EUSART1_SetErrorHandler 0D4E                               ?_CCP1_SetCallBack 007F  
              __end_of_TMR3_SetInterruptHandler 0CFE                                ?_TMR1_StartTimer 0001  
                                    ??_TMR1_ISR 0003                                 __CFG_PPS1WAY$ON 000000  
                                    ??_TMR2_ISR 0004                                      ??_TMR3_ISR 0003  
                            ??_CCP1_SetCallBack 0081                         __end_of_ADCC_Initialize 090E  
                                       _CCP1CAP 000FAC                                         _CCP1CON 000FAB  
                                       _ADFLTRH 000F6E                                         _ADFLTRL 000F6D  
                                       _CCP1PPS 000EAA                                         _ADPREVH 000F5D  
                                       _ADPREVL 000F5C                                         _ADSTPTH 000F64  
                                       _ADSTPTL 000F63                                 ?_PMD_Initialize 0001  
        __end_of_EUSART1_SetFramingErrorHandler 0D44         __size_of_EUSART1_SetFramingErrorHandler 000A  
                _EUSART1_SetFramingErrorHandler 0D3A                    ??i2_TMR1_SetInterruptHandler 0003  
                                     ?___xxtofl 0001                    ?_EUSART1_DefaultErrorHandler 0001  
                                       _SP1BRGH 000F9B                                         _SP1BRGL 000F9A  
                                       _OSCCON1 000ED3                                         _OSCCON3 000ED5  
                       __end_of_carcontrol_init 0A10                                         _OSCTUNE 000ED8  
                                       i2u98_40 014E                                         i2u99_40 02C4  
                                       i2u99_45 02BA                                         _SLRCONA 000F09  
                                       _SLRCONB 000F11                                         _SLRCONC 000F19  
                              ?_TMR1_WriteTimer 0001               CCP1_DefaultCallBack@capturedValue 0028  
                                       __Hparam 0000                                         __Lparam 0000  
                    ??_TMR2_SetInterruptHandler 0081                      __CFG_RSTOSC$HFINTOSC_64MHZ 000000  
           __size_ofi2_TMR1_SetInterruptHandler 000A                                         ___flmul 00C2  
                                       __pcinit 0954                                         __ramtop 0800  
                                       __ptext0 06D4                                         __ptext1 09DC  
                                       __ptext2 0CD2                                         __ptext3 0A44  
                                       __ptext4 0B8A                                         __ptext5 0998  
                                       __ptext6 0CF4                                         __ptext7 0AD4  
                                       __ptext8 0CFE                                         __ptext9 090E  
                      __size_of_CCP1_CaptureISR 002C                  ??_TMR1_DefaultInterruptHandler 0001  
                                     _T1CONbits 000FCE                           _OSCILLATOR_Initialize 0CBA  
                                     _T2CONbits 000FBC                                      ??___xxtofl 0005  
                                     _T3CONbits 000FC8               __size_of_TMR1_SetInterruptHandler 000A  
                            _EUSART1_Initialize 075A                     __end_of_carcontrol_throttle 0CE8  
                      ??_PIN_MANAGER_Initialize 0081                       ?_TMR1_SetInterruptHandler 007F  
                   __end_of_carcontrol_steering 0A74                                       _T2HLTbits 000FBD  
                                     _IOCCFbits 000F15                                       _IOCCNbits 000F16  
                                     _IOCCPbits 000F17                   ??_EUSART1_DefaultErrorHandler 0001  
                    __size_of_SYSTEM_Initialize 002A                            end_of_initialization 098A  
                              ?_TMR3_WriteTimer 0001                                       _T2RSTbits 000FBF  
                           ?_EUSART1_Initialize 0001                                   __Lmediumconst 0000  
                   _EUSART1_OverrunErrorHandler 0078           __end_of_EUSART1_SetRxInterruptHandler 0D30  
        __size_of_EUSART1_SetRxInterruptHandler 000A                   _EUSART1_SetRxInterruptHandler 0D26  
                                       postinc0 000FEE                    __end_of_CCP1_DefaultCallBack 0D9A  
                              ?_ADCC_Initialize 0001                            ??_EUSART1_Initialize 0081  
                         __CFG_WDTCPS$WDTCPS_31 000000                        _TMR3_SetInterruptHandler 0CF4  
                                    _servo_trim 005E                               __size_of_ADCC_ISR 0026  
           __end_of_ADCC_SetADIInterruptHandler 0D62                     _ADCC_SetADIInterruptHandler 0D58  
                                 ___xxtofl@sign 0009                                       _TRISCbits 000F89  
                              ??_carcontrol_ISR 0001                                ?_carcontrol_init 0001  
              __size_of_EUSART1_SetErrorHandler 000A                        __size_of_CCP1_Initialize 002E  
                  ??_IOCCF2_SetInterruptHandler 0081                                __CFG_FEXTOSC$OFF 000000  
                __size_of_ping_TMR1Overflow_isr 001E                   __end_of_ping_TMR1Overflow_isr 0C66  
                                   ___flmul@grs 001C                   ??_ADCC_SetADIInterruptHandler 0081  
          __size_of_EUSART1_DefaultErrorHandler 0006                    __end_of_INTERRUPT_Initialize 0D86  
          __end_of_TMR2_DefaultInterruptHandler 0D92           __size_of_TMR2_DefaultInterruptHandler 0002  
                  _TMR2_DefaultInterruptHandler 0D90                  ??_ADCC_DefaultInterruptHandler 0001  
                                 __pidataCOMRAM 0D8A                               __size_of_TMR1_ISR 0030  
                             __size_of_TMR2_ISR 0026              __end_ofi2_TMR1_SetInterruptHandler 0D6C  
                    i2_TMR1_SetInterruptHandler 0D62                               __size_of_TMR3_ISR 0030  
                        ?_OSCILLATOR_Initialize 0001             __size_of_IOCCF2_SetInterruptHandler 000A  
                           start_initialization 0954                 __size_of_PIN_MANAGER_Initialize 0068  
                    __end_of_ping_RC2_went_HIGH 0A44                               ??_CCP1_CaptureISR 002A  
 EUSART1_SetRxInterruptHandler@interruptHandler 007F   EUSART1_SetTxInterruptHandler@interruptHandler 007F  
                  __size_of_ping_CCP1_triggered 0066                        __size_of_PIN_MANAGER_IOC 000C  
                              __CFG_LPBOREN$OFF 000000                        __size_of_TMR1_Initialize 0046  
                              ??_PMD_Initialize 007F                           _EUSART1_RxDataHandler 0C26  
                                   _CCPTMRSbits 000FAD                  ?_EUSART1_SetRxInterruptHandler 007F  
                 ?_TMR2_DefaultInterruptHandler 0001                                  _eusart1RxCount 004A  
                         CCP1_CaptureISR@module 002A            __end_ofi2_IOCCF2_SetInterruptHandler 0D76  
         __size_ofi2_IOCCF2_SetInterruptHandler 000A                    i2_IOCCF2_SetInterruptHandler 0D6C  
                                     ___flmul@a 0013                                       ___flmul@b 000F  
                                   __pbssCOMRAM 0032                       __size_of_CCP1_SetCallBack 000A  
             _EUSART1_RxDefaultInterruptHandler 0058                   __size_of_EUSART1_Transmit_ISR 002E  
                                 __pcstackBANK0 007F                        __size_of_TMR2_Initialize 002E  
                             __size_of___xxtofl 0140                            _CCP1_DefaultCallBack 0D98  
               ??_EUSART1_SetTxInterruptHandler 0081                ??_EUSART1_SetFramingErrorHandler 0081  
               ?_EUSART1_SetFramingErrorHandler 007F                    __size_of_EUSART1_Receive_ISR 009A  
                             ??_CCP1_Initialize 0081                                       __pnvBANK0 0074  
                        _PIN_MANAGER_Initialize 07E0                        __size_of_TMR3_Initialize 0044  
                                     __pintcode 0008                __end_of_TMR1_SetInterruptHandler 0D12  
                                      ?___flmul 000F                    ??_INTERRUPT_InterruptManager 002C  
                                      _ADCC_ISR 0C00                                        _BAUD1CON 000F9E  
                      __size_of_TMR1_StartTimer 0004      __end_of_EUSART1_DefaultOverrunErrorHandler 0D7C  
   __size_of_EUSART1_DefaultOverrunErrorHandler 0006            ??_EUSART1_DefaultOverrunErrorHandler 0001  
           ?_EUSART1_DefaultOverrunErrorHandler 0001              _EUSART1_DefaultOverrunErrorHandler 0D76  
                          _EUSART1_ErrorHandler 0076                         _EUSART1_SetErrorHandler 0D44  
            __end_of_IOCCF2_SetInterruptHandler 0D1C                   ?i2_IOCCF2_SetInterruptHandler 0001  
                    _IOCCF2_SetInterruptHandler 0D12                                        _T2CLKCON 000FBE  
                         ?_CCP1_DefaultCallBack 0028                            _INTERRUPT_Initialize 0D82  
                                      _LATAbits 000F82         EUSART1_SetErrorHandler@interruptHandler 007F  
                                      _LATCbits 000F84                                        _PIE0bits 000EBD  
                                      _PIE1bits 000EBE                                        _PIE3bits 000EC0  
                                      _PIE4bits 000EC1                                        _PIE6bits 000EC3  
                      __size_of_TMR1_WriteTimer 001C                                        i2u103_40 0350  
                                      i2u121_48 0BE6                                        i2u121_49 0BFA  
                                      i2u107_40 03AC                                        i2u108_40 03CA  
                                      i2u116_40 050C                                        i2u140_48 0B76  
                                      i2u126_40 0580                                        i2u133_48 0BC6  
           __size_of_INTERRUPT_InterruptManager 00B6                                        i2u135_48 0C12  
                                      i2u151_48 068E                                        i2u151_49 06A2  
                                      i2u129_40 05D6                                        i2u153_48 06BA  
                                      i2u137_48 0A90                                        i2u162_48 0054  
                                      i2u139_48 0AC0                                        i2u149_48 0662  
                                      i2u149_49 0676                                        _PIR0bits 000EC5  
                                      i2u159_48 003E                                        _PIR1bits 000EC6  
                                      _PIR3bits 000EC8                                        _PIR4bits 000EC9  
                    ??_TMR3_SetInterruptHandler 0081                                        _PIR6bits 000ECB  
                        ?_EUSART1_RxDataHandler 0001                                        _TMR1_ISR 0AA4  
                                      _TMR2_ISR 0BB4                                        _TMR3_ISR 0A74  
                                     _servo_max 005C                                       _servo_min 005D  
                             ??_PIN_MANAGER_IOC 0003                               ??_TMR1_Initialize 0081  
                                     _stateTime 006E                                      _ADCON0bits 000F5B  
                                    _ADCON1bits 000F54                                      _ADCON2bits 000F55  
                                    _ADCON3bits 000F56                  ??_TMR2_DefaultInterruptHandler 0001  
             __size_of_TMR2_SetInterruptHandler 000A                       ?_TMR2_SetInterruptHandler 007F  
                         ?_INTERRUPT_Initialize 0001                    __size_of_carcontrol_throttle 0016  
                  __size_of_carcontrol_steering 0030                               ??_TMR2_Initialize 0081  
                                    _ADSTATbits 000F60           __end_of_EUSART1_SetTxInterruptHandler 0D26  
        __size_of_EUSART1_SetTxInterruptHandler 000A                   _EUSART1_SetTxInterruptHandler 0D1C  
                                      __Hrparam 0000                        __size_of_TMR3_WriteTimer 001C  
                                      __Lrparam 0000                              __CFG_BOREN$SBORDIS 000000  
                       ??_OSCILLATOR_Initialize 007F                             _ping_CCP1_triggered 0848  
                              __size_of___flmul 0352                     __size_of_EUSART1_Initialize 0086  
                               _CCP1_CaptureISR 0B5E                               ??_TMR3_Initialize 0081  
                   ?i2_TMR1_SetInterruptHandler 0001                        _TMR1_SetInterruptHandler 0D08  
                         _TMR1_InterruptHandler 0050                       ??_EUSART1_SetErrorHandler 0081  
           __end_of_EUSART1_DefaultErrorHandler 0D82                     _EUSART1_DefaultErrorHandler 0D7C  
                                      ___xxtofl 0414                                _CCP1_SetCallBack 0D4E  
                      __size_of_ADCC_Initialize 0060                  CCP1_SetCallBack@customCallBack 007F  
                                      __ptext10 0D08                                        __ptext11 0C66  
                                      __ptext20 0D3A                                        __ptext12 07E0  
                                      __ptext21 0D44                                        __ptext13 0D12  
                                    _T1GCONbits 000FCF                                        __ptext30 0BB4  
                                      __ptext22 0B02                                        __ptext14 0CBA  
                                      __ptext31 0D90                                        __ptext23 0D4E  
                                      __ptext15 0D82                                        __ptext40 0D62  
                                      __ptext32 0554                                        __ptext24 08AE  
                                      __ptext16 075A                                        __ptext41 0D6C  
                                      __ptext33 0AA4                                        __ptext25 0D58  
                                      __ptext17 0D1C                                        __ptext50 0B5E  
                                      __ptext42 0C9E                                        __ptext34 0D92  
                                      __ptext18 0D26                                        __ptext51 0D98  
                                      __ptext43 0D86                                        __ptext35 0C48  
                                      __ptext27 0A74                                        __ptext19 0D30  
                                      __ptext52 0848                                        __ptext44 0B30  
                                      __ptext36 0CE8                                        __ptext28 0C82  
                                      __ptext53 0414                                        __ptext45 063A  
                                      __ptext37 0BDA                                        __ptext29 0D8E  
                                      __ptext54 00C2                                        __ptext46 0D76  
                                      __ptext38 0D94                                        __ptext55 0C00  
                                      __ptext47 0D96                                        __ptext39 0A10  
                                      __ptext56 0D9A                                        __ptext48 0D7C  
                                      __ptext57 0000                                        __ptext49 0C26  
                        ??_CCP1_DefaultCallBack 002A                            ?_ping_CCP1_triggered 0028  
                             ??_TMR1_StartTimer 0001                                      _T3GCONbits 000FC9  
                                    _IOCCF2_ISR 0BDA                         TMR3_WriteTimer@timerVal 0001  
                ??i2_IOCCF2_SetInterruptHandler 0003                                   __size_of_main 0086  
                         _ping_TMR1Overflow_isr 0C48                        __size_of_carcontrol_init 0034  
                          __CFG_WDTCWS$WDTCWS_7 000000                              __CFG_BORV$VBOR_190 000000  
                            _ping_RC2_went_HIGH 0A10                                      _RC1STAbits 000F9C  
                     _ADCC_ADI_InterruptHandler 0074  EUSART1_SetOverrunErrorHandler@interruptHandler 007F  
               ping_CCP1_triggered@timeOfFlight 0028                                        int$flags 005F  
            __end_of_INTERRUPT_InterruptManager 00BE                      _INTERRUPT_InterruptManager 0008  
                           ?_ping_RC2_went_HIGH 0001                               ??_TMR1_WriteTimer 0003  
          __end_of_TMR3_DefaultInterruptHandler 0D90           __size_of_TMR3_DefaultInterruptHandler 0002  
                  _TMR3_DefaultInterruptHandler 0D8E                     _EUSART1_FramingErrorHandler 007A  
                           _EUSART1_Receive_ISR 063A                                      _INTCONbits 000FF2  
                               _CCP1_Initialize 0B02                          ??_INTERRUPT_Initialize 007F  
                         ??_ping_CCP1_triggered 002A                            ??_ping_RC2_went_HIGH 0003  
          __end_of_ADCC_DefaultInterruptHandler 0D9C           __size_of_ADCC_DefaultInterruptHandler 0002  
                  _ADCC_DefaultInterruptHandler 0D9A                                        intlevel2 0000  
                          ?_EUSART1_Receive_ISR 0001                         ?_PIN_MANAGER_Initialize 0001  
                             __CFG_CLKOUTEN$OFF 000000          __end_of_EUSART1_SetOverrunErrorHandler 0D3A  
       __size_of_EUSART1_SetOverrunErrorHandler 000A                  _EUSART1_SetOverrunErrorHandler 0D30  
                       __size_of_carcontrol_ISR 00E6                    __end_of_EUSART1_Transmit_ISR 0B5E  
                       __end_of_CCP1_CaptureISR 0B8A  EUSART1_SetFramingErrorHandler@interruptHandler 007F  
                ?_EUSART1_SetTxInterruptHandler 007F                               ??_TMR3_WriteTimer 0003  
                            _eusart1RxLastError 0070                     carcontrol_throttle@throttle 007F  
                 ?_TMR3_DefaultInterruptHandler 0001                     ?_IOCCF2_SetInterruptHandler 007F  
                                    _TX1STAbits 000F9D                                     ?_IOCCF2_ISR 0001  
                         ??_EUSART1_Receive_ISR 0001                  __end_of_PIN_MANAGER_Initialize 0848  
                             ??_ADCC_Initialize 0081                          ?_ping_TMR1Overflow_isr 0001  
                 ?_ADCC_DefaultInterruptHandler 0001                                 _PIN_MANAGER_IOC 0CE8  
                         _TMR2_InterruptHandler 007C                         ??_EUSART1_RxDataHandler 0001  
                               _TMR1_Initialize 090E  
