

Microchip MPLAB XC8 Assembler V2.05 build -831301201 
                                                                                               Tue Apr  9 19:13:31 2019

Microchip MPLAB XC8 C Compiler v2.05 (Free license) build 20181220022703 Og1 
     1                           	processor	18F25Q10
     2                           	fnconf	rparam,??,?,0
     3                           	opt	pw 120
     4                           	opt	flic
     5                           	psect	idataCOMRAM,global,class=CODE,delta=1,noexec
     6                           	psect	nvCOMRAM,global,class=COMRAM,space=1,delta=1,noexec
     7                           	psect	nvBANK0,global,class=BANK0,space=1,delta=1,lowdata,noexec
     8                           	psect	cinit,global,reloc=2,class=CODE,delta=1
     9                           	psect	bssCOMRAM,global,class=COMRAM,space=1,delta=1,noexec
    10                           	psect	dataCOMRAM,global,class=COMRAM,space=1,delta=1,noexec
    11                           	psect	bssBANK0,global,class=BANK0,space=1,delta=1,lowdata,noexec
    12                           	psect	cstackBANK0,global,class=BANK0,space=1,delta=1,noexec
    13                           	psect	cstackCOMRAM,global,class=COMRAM,space=1,delta=1,noexec
    14                           	psect	text0,global,reloc=2,class=CODE,delta=1
    15                           	psect	text1,global,reloc=2,class=CODE,delta=1
    16                           	psect	text2,global,reloc=2,class=CODE,delta=1
    17                           	psect	text3,global,reloc=2,class=CODE,delta=1
    18                           	psect	text4,global,reloc=2,class=CODE,delta=1
    19                           	psect	text5,global,reloc=2,class=CODE,delta=1
    20                           	psect	text6,global,reloc=2,class=CODE,delta=1
    21                           	psect	text7,global,reloc=2,class=CODE,delta=1
    22                           	psect	text8,global,reloc=2,class=CODE,delta=1
    23                           	psect	text9,global,reloc=2,class=CODE,delta=1
    24                           	psect	text10,global,reloc=2,class=CODE,delta=1
    25                           	psect	text11,global,reloc=2,class=CODE,delta=1
    26                           	psect	text12,global,reloc=2,class=CODE,delta=1
    27                           	psect	text13,global,reloc=2,class=CODE,delta=1
    28                           	psect	text14,global,reloc=2,class=CODE,delta=1
    29                           	psect	text15,global,reloc=2,class=CODE,delta=1
    30                           	psect	text16,global,reloc=2,class=CODE,delta=1
    31                           	psect	text17,global,reloc=2,class=CODE,delta=1
    32                           	psect	text18,global,reloc=2,class=CODE,delta=1
    33                           	psect	text19,global,reloc=2,class=CODE,delta=1
    34                           	psect	intcode,global,reloc=2,class=CODE,delta=1
    35                           	psect	text21,global,reloc=2,class=CODE,delta=1
    36                           	psect	text22,global,reloc=2,class=CODE,delta=1
    37                           	psect	text23,global,reloc=2,class=CODE,delta=1
    38                           	psect	text24,global,reloc=2,class=CODE,delta=1
    39                           	psect	text25,global,reloc=2,class=CODE,delta=1
    40                           	psect	text26,global,reloc=2,class=CODE,delta=1
    41                           	psect	text27,global,reloc=2,class=CODE,delta=1
    42                           	psect	text28,global,reloc=2,class=CODE,delta=1
    43                           	psect	text29,global,reloc=2,class=CODE,delta=1
    44                           	psect	text30,global,reloc=2,class=CODE,delta=1
    45                           	psect	text31,global,reloc=2,class=CODE,delta=1
    46                           	psect	text32,global,reloc=2,class=CODE,delta=1
    47                           	psect	text33,global,reloc=2,class=CODE,delta=1
    48                           	psect	text34,global,reloc=2,class=CODE,delta=1
    49                           	psect	text35,global,reloc=2,class=CODE,delta=1
    50                           	psect	text36,global,reloc=2,class=CODE,delta=1
    51                           	psect	text37,global,reloc=2,class=CODE,delta=1,group=1
    52                           	psect	text38,global,reloc=2,class=CODE,delta=1,group=1
    53                           	psect	text39,global,reloc=2,class=CODE,delta=1
    54                           	psect	intsave_regs,global,class=BIGRAM,space=1,delta=1,noexec
    55                           	psect	text40,global,reloc=2,class=CODE,delta=1
    56                           	psect	rparam,global,class=COMRAM,space=1,delta=1,noexec
    57                           	psect	temp,global,ovrld,common,class=COMRAM,space=1,delta=1
    58  0000                     
    59                           ; Version 2.05
    60                           ; Generated 20/12/2018 GMT
    61                           ; 
    62                           ; Copyright © 2018, Microchip Technology Inc. and its subsidiaries ("Microchip")
    63                           ; All rights reserved.
    64                           ; 
    65                           ; This software is developed by Microchip Technology Inc. and its subsidiaries ("Microch
      +                          ip").
    66                           ; 
    67                           ; Redistribution and use in source and binary forms, with or without modification, are
    68                           ; permitted provided that the following conditions are met:
    69                           ; 
    70                           ;     1. Redistributions of source code must retain the above copyright notice, this lis
      +                          t of
    71                           ;        conditions and the following disclaimer.
    72                           ; 
    73                           ;     2. Redistributions in binary form must reproduce the above copyright notice, this 
      +                          list
    74                           ;        of conditions and the following disclaimer in the documentation and/or other
    75                           ;        materials provided with the distribution.
    76                           ; 
    77                           ;     3. Microchip's name may not be used to endorse or promote products derived from th
      +                          is
    78                           ;        software without specific prior written permission.
    79                           ; 
    80                           ; THIS SOFTWARE IS PROVIDED BY MICROCHIP "AS IS" AND ANY EXPRESS OR IMPLIED WARRANTIES,
    81                           ; INCLUDING, BUT NOT LIMITED TO, THE IMPLIED WARRANTIES OF MERCHANTABILITY AND FITNESS F
      +                          OR
    82                           ; PURPOSE ARE DISCLAIMED.  IN NO EVENT SHALL MICROCHIP BE LIABLE FOR ANY DIRECT, INDIREC
      +                          T,
    83                           ; INCIDENTAL, SPECIAL, EXEMPLARY, OR CONSEQUENTIAL DAMAGES (INCLUDING BUT NOT LIMITED TO
    84                           ; PROCUREMENT OF SUBSTITUTE GOODS OR SERVICES; LOSS OF USE, DATA OR PROFITS; OR BUSINESS
    85                           ; INTERRUPTION) HOWSOEVER CAUSED AND ON ANY THEORY OF LIABILITY, WHETHER IN CONTRACT, ST
      +                          RICT
    86                           ; LIABILITY, OR TORT (INCLUDING NEGLIGENCE OR OTHERWISE) ARISING IN ANY WAY OUT OF THE U
      +                          SE OF
    87                           ; THIS SOFTWARE, EVEN IF ADVISED OF THE POSSIBILITY OF SUCH DAMAGE.
    88                           ; 
    89                           ; 
    90                           ; Code-generator required, PIC18F25Q10 Definitions
    91                           ; 
    92                           ; SFR Addresses
    93  0000                     
    94                           	psect	idataCOMRAM
    95  000A7E                     __pidataCOMRAM:
    96                           	opt callstack 0
    97                           
    98                           ;initializer for _servo_max
    99  000A7E  1C                 	db	28
   100                           
   101                           ;initializer for _servo_min
   102  000A7F  E2                 	db	226
   103                           
   104                           ;initializer for _servo_trim
   105  000A80  EF                 	db	239
   106                           
   107                           	psect	nvCOMRAM
   108  000030                     __pnvCOMRAM:
   109                           	opt callstack 0
   110  000030                     _TMR1_InterruptHandler:
   111                           	opt callstack 0
   112  000030                     	ds	2
   113  000032                     _timer1ReloadVal:
   114                           	opt callstack 0
   115  000032                     	ds	2
   116  000034                     _CCP1_CallBack:
   117                           	opt callstack 0
   118  000034                     	ds	2
   119  000036                     _IOCCF2_InterruptHandler:
   120                           	opt callstack 0
   121  000036                     	ds	2
   122                           
   123                           	psect	nvBANK0
   124  00006F                     __pnvBANK0:
   125                           	opt callstack 0
   126  00006F                     _TMR2_InterruptHandler:
   127                           	opt callstack 0
   128  00006F                     	ds	2
   129  0000                     _PIR6bits	set	3787
   130  0000                     _PIE6bits	set	3779
   131  0000                     _PIR0bits	set	3781
   132  0000                     _PIE4bits	set	3777
   133  0000                     _PIR4bits	set	3785
   134  0000                     _CCP1PPS	set	3754
   135  0000                     _PIE0bits	set	3773
   136  0000                     _PMD5	set	3809
   137  0000                     _PMD4	set	3808
   138  0000                     _PMD3	set	3807
   139  0000                     _PMD2	set	3806
   140  0000                     _PMD1	set	3805
   141  0000                     _PMD0	set	3804
   142  0000                     _OSCTUNE	set	3800
   143  0000                     _OSCFRQ	set	3801
   144  0000                     _OSCEN	set	3799
   145  0000                     _OSCCON3	set	3797
   146  0000                     _OSCCON1	set	3795
   147  0000                     _IOCCPbits	set	3863
   148  0000                     _IOCCNbits	set	3862
   149  0000                     _IOCCFbits	set	3861
   150  0000                     _SLRCONC	set	3865
   151  0000                     _SLRCONB	set	3857
   152  0000                     _SLRCONA	set	3849
   153  0000                     _ODCONC	set	3866
   154  0000                     _ODCONB	set	3858
   155  0000                     _ODCONA	set	3850
   156  0000                     _WPUC	set	3867
   157  0000                     _WPUA	set	3851
   158  0000                     _WPUB	set	3859
   159  0000                     _WPUE	set	3880
   160  0000                     _ANSELA	set	3852
   161  0000                     _ANSELB	set	3860
   162  0000                     _ANSELC	set	3868
   163  0000                     _T1GCONbits	set	4047
   164  0000                     _T1CONbits	set	4046
   165  0000                     _T1CON	set	4046
   166  0000                     _TMR1L	set	4044
   167  0000                     _TMR1H	set	4045
   168  0000                     _T1CLK	set	4049
   169  0000                     _T1GATE	set	4048
   170  0000                     _T1GCON	set	4047
   171  0000                     _TRISCbits	set	3977
   172  0000                     _LATCbits	set	3972
   173  0000                     _LATAbits	set	3970
   174  0000                     _CCPTMRSbits	set	4013
   175  0000                     _CCPR1L	set	4009
   176  0000                     _CCPR1H	set	4010
   177  0000                     _CCP1CAP	set	4012
   178  0000                     _CCP1CON	set	4011
   179  0000                     _INTCONbits	set	4082
   180  0000                     _PR2	set	4027
   181  0000                     _TMR2	set	4026
   182  0000                     _T2CONbits	set	4028
   183  0000                     _T2RSTbits	set	4031
   184  0000                     _T2HLTbits	set	4029
   185  0000                     _T2CON	set	4028
   186  0000                     _T2TMR	set	4026
   187  0000                     _T2PR	set	4027
   188  0000                     _T2RST	set	4031
   189  0000                     _T2HLT	set	4029
   190  0000                     _T2CLKCON	set	4030
   191  0000                     _TRISC	set	3977
   192  0000                     _TRISB	set	3976
   193  0000                     _TRISA	set	3975
   194  0000                     _LATC	set	3972
   195  0000                     _LATB	set	3971
   196  0000                     _LATA	set	3970
   197                           
   198                           ; #config settings
   199  0000                     
   200                           	psect	cinit
   201  000736                     __pcinit:
   202                           	opt callstack 0
   203  000736                     start_initialization:
   204                           	opt callstack 0
   205  000736                     __initialization:
   206                           	opt callstack 0
   207                           
   208                           ; Initialize objects allocated to COMRAM (3 bytes)
   209                           ; load TBLPTR registers with __pidataCOMRAM
   210  000736  0E7E               	movlw	low __pidataCOMRAM
   211  000738  6EF6               	movwf	tblptrl,c
   212  00073A  0E0A               	movlw	high __pidataCOMRAM
   213  00073C  6EF7               	movwf	tblptrh,c
   214  00073E  0E00               	movlw	low (__pidataCOMRAM shr (0+16))
   215  000740  6EF8               	movwf	tblptru,c
   216  000742  0009               	tblrd		*+	;fetch initializer
   217  000744  CFF5 F03F          	movff	tablat,__pdataCOMRAM
   218  000748  0009               	tblrd		*+	;fetch initializer
   219  00074A  CFF5 F040          	movff	tablat,__pdataCOMRAM+1
   220  00074E  0009               	tblrd		*+	;fetch initializer
   221  000750  CFF5 F041          	movff	tablat,__pdataCOMRAM+2
   222                           
   223                           ; Clear objects allocated to BANK0 (9 bytes)
   224  000754  EE00  F060         	lfsr	0,__pbssBANK0
   225  000758  0E09               	movlw	9
   226  00075A                     clear_0:
   227  00075A  6AEE               	clrf	postinc0,c
   228  00075C  06E8               	decf	wreg,f,c
   229  00075E  E1FD               	bnz	clear_0
   230                           
   231                           ; Clear objects allocated to COMRAM (7 bytes)
   232  000760  EE00  F038         	lfsr	0,__pbssCOMRAM
   233  000764  0E07               	movlw	7
   234  000766                     clear_1:
   235  000766  6AEE               	clrf	postinc0,c
   236  000768  06E8               	decf	wreg,f,c
   237  00076A  E1FD               	bnz	clear_1
   238  00076C                     end_of_initialization:
   239                           	opt callstack 0
   240  00076C                     __end_of__initialization:
   241                           	opt callstack 0
   242  00076C  9042               	bcf	int$flags,0,c	;clear compiler interrupt flag (level 1)
   243  00076E  9242               	bcf	int$flags,1,c	;clear compiler interrupt flag (level 2)
   244  000770  0E00               	movlw	low (__Lmediumconst shr (0+16))
   245  000772  6EF8               	movwf	tblptru,c
   246  000774  0100               	movlb	0
   247  000776  EF4D  F003         	goto	_main	;jump to C main() function
   248                           
   249                           	psect	bssCOMRAM
   250  000038                     __pbssCOMRAM:
   251                           	opt callstack 0
   252  000038                     _status:
   253                           	opt callstack 0
   254  000038                     	ds	7
   255                           
   256                           	psect	dataCOMRAM
   257  00003F                     __pdataCOMRAM:
   258                           	opt callstack 0
   259  00003F                     _servo_max:
   260                           	opt callstack 0
   261  00003F                     	ds	1
   262  000040                     _servo_min:
   263                           	opt callstack 0
   264  000040                     	ds	1
   265  000041                     _servo_trim:
   266                           	opt callstack 0
   267  000041                     	ds	1
   268                           
   269                           	psect	bssBANK0
   270  000060                     __pbssBANK0:
   271                           	opt callstack 0
   272  000060                     _carctl:
   273                           	opt callstack 0
   274  000060                     	ds	6
   275  000066                     _stateTime:
   276                           	opt callstack 0
   277  000066                     	ds	2
   278  000068                     ping_init@initialized:
   279                           	opt callstack 0
   280  000068                     	ds	1
   281                           
   282                           	psect	cstackBANK0
   283  000069                     __pcstackBANK0:
   284                           	opt callstack 0
   285  000069                     carcontrol_steering@steering:
   286                           	opt callstack 0
   287  000069                     carcontrol_throttle@throttle:
   288                           	opt callstack 0
   289  000069                     IOCCF2_SetInterruptHandler@InterruptHandler:
   290                           	opt callstack 0
   291  000069                     TMR2_SetInterruptHandler@InterruptHandler:
   292                           	opt callstack 0
   293  000069                     CCP1_SetCallBack@customCallBack:
   294                           	opt callstack 0
   295  000069                     TMR1_WriteTimer@timerVal:
   296                           	opt callstack 0
   297  000069                     TMR1_SetInterruptHandler@InterruptHandler:
   298                           	opt callstack 0
   299                           
   300                           ; 2 bytes @ 0x0
   301  000069                     	ds	2
   302  00006B                     ??_TMR1_Initialize:
   303  00006B                     
   304                           ; 1 bytes @ 0x2
   305  00006B                     	ds	2
   306  00006D                     ??_main:
   307                           
   308                           ; 1 bytes @ 0x4
   309  00006D                     	ds	2
   310                           
   311                           	psect	cstackCOMRAM
   312  000001                     __pcstackCOMRAM:
   313                           	opt callstack 0
   314  000001                     ??_carcontrol_ISR:
   315  000001                     ?___xxtofl:
   316                           	opt callstack 0
   317  000001                     i2IOCCF2_SetInterruptHandler@InterruptHandler:
   318                           	opt callstack 0
   319  000001                     i2TMR1_WriteTimer@timerVal:
   320                           	opt callstack 0
   321  000001                     ___xxtofl@val:
   322                           	opt callstack 0
   323                           
   324                           ; 4 bytes @ 0x0
   325  000001                     	ds	2
   326  000003                     
   327                           ; 1 bytes @ 0x2
   328  000003                     	ds	1
   329  000004                     
   330                           ; 1 bytes @ 0x3
   331  000004                     	ds	1
   332  000005                     ??___xxtofl:
   333                           
   334                           ; 1 bytes @ 0x4
   335  000005                     	ds	4
   336  000009                     ___xxtofl@sign:
   337                           	opt callstack 0
   338                           
   339                           ; 1 bytes @ 0x8
   340  000009                     	ds	1
   341  00000A                     ___xxtofl@exp:
   342                           	opt callstack 0
   343                           
   344                           ; 1 bytes @ 0x9
   345  00000A                     	ds	1
   346  00000B                     ___xxtofl@arg:
   347                           	opt callstack 0
   348                           
   349                           ; 4 bytes @ 0xA
   350  00000B                     	ds	4
   351  00000F                     ?___flmul:
   352                           	opt callstack 0
   353  00000F                     ___flmul@b:
   354                           	opt callstack 0
   355                           
   356                           ; 4 bytes @ 0xE
   357  00000F                     	ds	4
   358  000013                     ___flmul@a:
   359                           	opt callstack 0
   360                           
   361                           ; 4 bytes @ 0x12
   362  000013                     	ds	4
   363  000017                     ??___flmul:
   364                           
   365                           ; 1 bytes @ 0x16
   366  000017                     	ds	4
   367  00001B                     ___flmul@sign:
   368                           	opt callstack 0
   369                           
   370                           ; 1 bytes @ 0x1A
   371  00001B                     	ds	1
   372  00001C                     ___flmul@grs:
   373                           	opt callstack 0
   374                           
   375                           ; 4 bytes @ 0x1B
   376  00001C                     	ds	4
   377  000020                     ___flmul@aexp:
   378                           	opt callstack 0
   379                           
   380                           ; 1 bytes @ 0x1F
   381  000020                     	ds	1
   382  000021                     ___flmul@bexp:
   383                           	opt callstack 0
   384                           
   385                           ; 1 bytes @ 0x20
   386  000021                     	ds	1
   387  000022                     ___flmul@prod:
   388                           	opt callstack 0
   389                           
   390                           ; 4 bytes @ 0x21
   391  000022                     	ds	4
   392  000026                     ___flmul@temp:
   393                           	opt callstack 0
   394                           
   395                           ; 2 bytes @ 0x25
   396  000026                     	ds	2
   397  000028                     ping_CCP1_triggered@timeOfFlight:
   398                           	opt callstack 0
   399                           
   400                           ; 2 bytes @ 0x27
   401  000028                     	ds	2
   402  00002A                     CCP1_CaptureISR@module:
   403                           	opt callstack 0
   404                           
   405                           ; 2 bytes @ 0x29
   406  00002A                     	ds	2
   407  00002C                     ??_INTERRUPT_InterruptManager:
   408                           
   409                           ; 1 bytes @ 0x2B
   410  00002C                     	ds	4
   411                           
   412 ;;
   413 ;;Main: autosize = 0, tempsize = 2, incstack = 0, save=0
   414 ;;
   415 ;; *************** function _main *****************
   416 ;; Defined at:
   417 ;;		line 51 in file "main.c"
   418 ;; Parameters:    Size  Location     Type
   419 ;;		None
   420 ;; Auto vars:     Size  Location     Type
   421 ;;		None
   422 ;; Return value:  Size  Location     Type
   423 ;;                  1    wreg      void 
   424 ;; Registers used:
   425 ;;		wreg, status,2, status,0, cstack
   426 ;; Tracked objects:
   427 ;;		On entry : 0/0
   428 ;;		On exit  : 0/0
   429 ;;		Unchanged: 0/0
   430 ;; Data sizes:     COMRAM   BANK0   BANK1   BANK2   BANK3   BANK4   BANK5   BANK6   BANK7
   431 ;;      Params:         0       0       0       0       0       0       0       0       0
   432 ;;      Locals:         0       0       0       0       0       0       0       0       0
   433 ;;      Temps:          0       2       0       0       0       0       0       0       0
   434 ;;      Totals:         0       2       0       0       0       0       0       0       0
   435 ;;Total ram usage:        2 bytes
   436 ;; Hardware stack levels required when called:    8
   437 ;; This function calls:
   438 ;;		_SYSTEM_Initialize
   439 ;;		_carcontrol_init
   440 ;;		_carcontrol_steering
   441 ;;		_ping_init
   442 ;;		_ping_send
   443 ;; This function is called by:
   444 ;;		Startup code after reset
   445 ;; This function uses a non-reentrant model
   446 ;;
   447                           
   448                           	psect	text0
   449  00069A                     __ptext0:
   450                           	opt callstack 0
   451  00069A                     _main:
   452                           	opt callstack 23
   453                           
   454                           ;main.c: 54:     SYSTEM_Initialize();
   455                           
   456                           ;incstack = 0
   457  00069A  ECC8  F004         	call	_SYSTEM_Initialize	;wreg free
   458                           
   459                           ;main.c: 61:     (INTCONbits.GIE = 1);
   460  00069E  8EF2               	bsf	4082,7,c	;volatile
   461                           
   462                           ;main.c: 67:     (INTCONbits.PEIE = 1);
   463  0006A0  8CF2               	bsf	4082,6,c	;volatile
   464                           
   465                           ;main.c: 72:     carcontrol_init();
   466  0006A2  ECDE  F003         	call	_carcontrol_init	;wreg free
   467                           
   468                           ;main.c: 73:     ping_init();
   469  0006A6  ECBD  F003         	call	_ping_init	;wreg free
   470                           
   471                           ;main.c: 74:     _delay((unsigned long)((1000)*(64000000/4000.0)));
   472  0006AA  0E52               	movlw	82
   473  0006AC  0100               	movlb	0	; () banked
   474  0006AE  6F6E               	movwf	(??_main+1)& (0+255),b
   475  0006B0  0E2B               	movlw	43
   476  0006B2  6F6D               	movwf	??_main& (0+255),b
   477  0006B4  0E00               	movlw	0
   478  0006B6                     u1237:
   479  0006B6  2EE8               	decfsz	wreg,f,c
   480  0006B8  D7FE               	bra	u1237
   481  0006BA  2F6D               	decfsz	??_main& (0+255),f,b
   482  0006BC  D7FC               	bra	u1237
   483  0006BE  2F6E               	decfsz	(??_main+1)& (0+255),f,b
   484  0006C0  D7FA               	bra	u1237
   485  0006C2  F000               	nop	
   486                           
   487                           ;main.c: 76:     carcontrol_steering(0);
   488  0006C4  0E00               	movlw	0
   489  0006C6  ECF8  F003         	call	_carcontrol_steering
   490                           
   491                           ;main.c: 78:     _delay((unsigned long)((10)*(64000000/4000000.0)));
   492  0006CA  0E35               	movlw	53
   493  0006CC                     u1247:
   494  0006CC  2EE8               	decfsz	wreg,f,c
   495  0006CE  D7FE               	bra	u1247
   496  0006D0  F000               	nop	
   497                           
   498                           ;main.c: 81:     {;main.c: 82:         ping_send();
   499  0006D2  EC6C  F004         	call	_ping_send	;wreg free
   500                           
   501                           ;main.c: 87:         _delay((unsigned long)((250)*(64000000/4000.0)));
   502  0006D6  0E15               	movlw	21
   503  0006D8  0100               	movlb	0	; () banked
   504  0006DA  6F6E               	movwf	(??_main+1)& (0+255),b
   505  0006DC  0E4B               	movlw	75
   506  0006DE  6F6D               	movwf	??_main& (0+255),b
   507  0006E0  0EBE               	movlw	190
   508  0006E2                     u1257:
   509  0006E2  2EE8               	decfsz	wreg,f,c
   510  0006E4  D7FE               	bra	u1257
   511  0006E6  2F6D               	decfsz	??_main& (0+255),f,b
   512  0006E8  D7FC               	bra	u1257
   513  0006EA  2F6E               	decfsz	(??_main+1)& (0+255),f,b
   514  0006EC  D7FA               	bra	u1257
   515  0006EE  D7F0               	goto	L1
   516  0006F0                     __end_of_main:
   517                           	opt callstack 0
   518                           
   519 ;; *************** function _ping_send *****************
   520 ;; Defined at:
   521 ;;		line 87 in file "ping.c"
   522 ;; Parameters:    Size  Location     Type
   523 ;;		None
   524 ;; Auto vars:     Size  Location     Type
   525 ;;		None
   526 ;; Return value:  Size  Location     Type
   527 ;;                  1    wreg      void 
   528 ;; Registers used:
   529 ;;		wreg, status,2, status,0, cstack
   530 ;; Tracked objects:
   531 ;;		On entry : 0/0
   532 ;;		On exit  : 0/0
   533 ;;		Unchanged: 0/0
   534 ;; Data sizes:     COMRAM   BANK0   BANK1   BANK2   BANK3   BANK4   BANK5   BANK6   BANK7
   535 ;;      Params:         0       0       0       0       0       0       0       0       0
   536 ;;      Locals:         0       0       0       0       0       0       0       0       0
   537 ;;      Temps:          0       0       0       0       0       0       0       0       0
   538 ;;      Totals:         0       0       0       0       0       0       0       0       0
   539 ;;Total ram usage:        0 bytes
   540 ;; Hardware stack levels used:    1
   541 ;; Hardware stack levels required when called:    7
   542 ;; This function calls:
   543 ;;		_TMR1_StartTimer
   544 ;;		_TMR1_WriteTimer
   545 ;;		_ping_init
   546 ;; This function is called by:
   547 ;;		_main
   548 ;; This function uses a non-reentrant model
   549 ;;
   550                           
   551                           	psect	text1
   552  0008D8                     __ptext1:
   553                           	opt callstack 0
   554  0008D8                     _ping_send:
   555                           	opt callstack 23
   556                           
   557                           ;ping.c: 89:     ping_init();
   558                           
   559                           ;incstack = 0
   560  0008D8  ECBD  F003         	call	_ping_init	;wreg free
   561                           
   562                           ;ping.c: 91:     if (!status.pingStarted){
   563  0008DC  503E               	movf	_status+6,w,c	;volatile
   564  0008DE  A4D8               	btfss	status,2,c
   565  0008E0  0012               	return	
   566                           
   567                           ;ping.c: 93:         PIE6bits.CCP1IE = 0;
   568  0008E2  010E               	movlb	14	; () banked
   569  0008E4  91C3               	bcf	195,0,b	;volatile
   570                           
   571                           ; BSR set to: 14
   572                           ;ping.c: 95:         TMR1_WriteTimer(0xFFFC);
   573  0008E6  0EFF               	movlw	255
   574  0008E8  0100               	movlb	0	; () banked
   575  0008EA  6F6A               	movwf	(TMR1_WriteTimer@timerVal+1)& (0+255),b
   576  0008EC  0EFC               	movlw	252
   577  0008EE  6F69               	movwf	TMR1_WriteTimer@timerVal& (0+255),b
   578  0008F0  ECB8  F004         	call	_TMR1_WriteTimer	;wreg free
   579  0008F4  8484               	bsf	3972,2,c	;volatile
   580  0008F6  9489               	bcf	3977,2,c	;volatile
   581                           
   582                           ;ping.c: 98:         TMR1_StartTimer();
   583  0008F8  EC37  F005         	call	_TMR1_StartTimer	;wreg free
   584                           
   585                           ;ping.c: 99:         status.pingStarted = 1;
   586  0008FC  0E01               	movlw	1
   587  0008FE  6E3E               	movwf	_status+6,c	;volatile
   588  000900  0012               	return		;funcret
   589  000902                     __end_of_ping_send:
   590                           	opt callstack 0
   591                           
   592 ;; *************** function _ping_init *****************
   593 ;; Defined at:
   594 ;;		line 71 in file "ping.c"
   595 ;; Parameters:    Size  Location     Type
   596 ;;		None
   597 ;; Auto vars:     Size  Location     Type
   598 ;;		None
   599 ;; Return value:  Size  Location     Type
   600 ;;                  1    wreg      void 
   601 ;; Registers used:
   602 ;;		wreg, status,2, status,0, cstack
   603 ;; Tracked objects:
   604 ;;		On entry : 0/0
   605 ;;		On exit  : 0/0
   606 ;;		Unchanged: 0/0
   607 ;; Data sizes:     COMRAM   BANK0   BANK1   BANK2   BANK3   BANK4   BANK5   BANK6   BANK7
   608 ;;      Params:         0       0       0       0       0       0       0       0       0
   609 ;;      Locals:         0       0       0       0       0       0       0       0       0
   610 ;;      Temps:          0       0       0       0       0       0       0       0       0
   611 ;;      Totals:         0       0       0       0       0       0       0       0       0
   612 ;;Total ram usage:        0 bytes
   613 ;; Hardware stack levels used:    1
   614 ;; Hardware stack levels required when called:    6
   615 ;; This function calls:
   616 ;;		_CCP1_SetCallBack
   617 ;;		_IOCCF2_SetInterruptHandler
   618 ;;		_TMR1_SetInterruptHandler
   619 ;; This function is called by:
   620 ;;		_main
   621 ;;		_ping_send
   622 ;; This function uses a non-reentrant model
   623 ;;
   624                           
   625                           	psect	text2
   626  00077A                     __ptext2:
   627                           	opt callstack 0
   628  00077A                     _ping_init:
   629                           	opt callstack 23
   630                           
   631                           ;ping.c: 72:     static _Bool initialized = 0;;ping.c: 73:     CCP1_SetCallBack(ping_CCP
      +                          1_triggered);
   632                           
   633                           ;incstack = 0
   634  00077A  0E3E               	movlw	low _ping_CCP1_triggered
   635  00077C  0100               	movlb	0	; () banked
   636  00077E  6F69               	movwf	CCP1_SetCallBack@customCallBack& (0+255),b
   637  000780  0E06               	movlw	high _ping_CCP1_triggered
   638  000782  6F6A               	movwf	(CCP1_SetCallBack@customCallBack+1)& (0+255),b
   639  000784  EC2D  F005         	call	_CCP1_SetCallBack	;wreg free
   640                           
   641                           ;ping.c: 74:     PIE6bits.CCP1IE = 0;
   642  000788  010E               	movlb	14	; () banked
   643  00078A  91C3               	bcf	195,0,b	;volatile
   644                           
   645                           ;ping.c: 75:     TMR1_SetInterruptHandler(ping_TMR1Overflow_isr);
   646  00078C  0ECA               	movlw	low _ping_TMR1Overflow_isr
   647  00078E  0100               	movlb	0	; () banked
   648  000790  6F69               	movwf	TMR1_SetInterruptHandler@InterruptHandler& (0+255),b
   649  000792  0E09               	movlw	high _ping_TMR1Overflow_isr
   650  000794  6F6A               	movwf	(TMR1_SetInterruptHandler@InterruptHandler+1)& (0+255),b
   651  000796  EC23  F005         	call	_TMR1_SetInterruptHandler	;wreg free
   652                           
   653                           ;ping.c: 76:     IOCCF2_SetInterruptHandler(IOCCF2_DefaultInterruptHandler);
   654  00079A  0E86               	movlw	low _IOCCF2_DefaultInterruptHandler
   655  00079C  0100               	movlb	0	; () banked
   656  00079E  6F69               	movwf	IOCCF2_SetInterruptHandler@InterruptHandler& (0+255),b
   657  0007A0  0E0A               	movlw	high _IOCCF2_DefaultInterruptHandler
   658  0007A2  6F6A               	movwf	(IOCCF2_SetInterruptHandler@InterruptHandler+1)& (0+255),b
   659  0007A4  EC28  F005         	call	_IOCCF2_SetInterruptHandler	;wreg free
   660                           
   661                           ;ping.c: 77:     status.readReady = 0;
   662  0007A8  0E00               	movlw	0
   663  0007AA  6E38               	movwf	_status,c	;volatile
   664                           
   665                           ;ping.c: 78:     status.pingInAir = 0;
   666  0007AC  0E00               	movlw	0
   667  0007AE  6E39               	movwf	_status+1,c	;volatile
   668                           
   669                           ;ping.c: 79:     status.pingStarted = 0;
   670  0007B0  0E00               	movlw	0
   671  0007B2  6E3E               	movwf	_status+6,c	;volatile
   672                           
   673                           ;ping.c: 80:     initialized = 1;
   674  0007B4  0E01               	movlw	1
   675  0007B6  0100               	movlb	0	; () banked
   676  0007B8  6F68               	movwf	ping_init@initialized& (0+255),b
   677                           
   678                           ; BSR set to: 0
   679  0007BA  0012               	return		;funcret
   680  0007BC                     __end_of_ping_init:
   681                           	opt callstack 0
   682                           
   683 ;; *************** function _TMR1_WriteTimer *****************
   684 ;; Defined at:
   685 ;;		line 127 in file "mcc_generated_files/tmr1.c"
   686 ;; Parameters:    Size  Location     Type
   687 ;;  timerVal        2    0[BANK0 ] unsigned short 
   688 ;; Auto vars:     Size  Location     Type
   689 ;;		None
   690 ;; Return value:  Size  Location     Type
   691 ;;                  1    wreg      void 
   692 ;; Registers used:
   693 ;;		wreg, status,2
   694 ;; Tracked objects:
   695 ;;		On entry : 0/0
   696 ;;		On exit  : 0/0
   697 ;;		Unchanged: 0/0
   698 ;; Data sizes:     COMRAM   BANK0   BANK1   BANK2   BANK3   BANK4   BANK5   BANK6   BANK7
   699 ;;      Params:         0       2       0       0       0       0       0       0       0
   700 ;;      Locals:         0       0       0       0       0       0       0       0       0
   701 ;;      Temps:          0       0       0       0       0       0       0       0       0
   702 ;;      Totals:         0       2       0       0       0       0       0       0       0
   703 ;;Total ram usage:        2 bytes
   704 ;; Hardware stack levels used:    1
   705 ;; Hardware stack levels required when called:    5
   706 ;; This function calls:
   707 ;;		Nothing
   708 ;; This function is called by:
   709 ;;		_ping_send
   710 ;;		_TMR1_Reload
   711 ;; This function uses a non-reentrant model
   712 ;;
   713                           
   714                           	psect	text3
   715  000970                     __ptext3:
   716                           	opt callstack 0
   717  000970                     _TMR1_WriteTimer:
   718                           	opt callstack 24
   719                           
   720                           ;mcc_generated_files/tmr1.c: 127: void TMR1_WriteTimer(uint16_t timerVal);mcc_generated_
      +                          files/tmr1.c: 128: {;mcc_generated_files/tmr1.c: 129:     if (T1CONbits.nT1SYNC == 1)
   721                           
   722                           ; BSR set to: 0
   723                           ;incstack = 0
   724  000970  A4CE               	btfss	4046,2,c	;volatile
   725  000972  D008               	goto	l2334
   726                           
   727                           ;mcc_generated_files/tmr1.c: 130:     {;mcc_generated_files/tmr1.c: 132:         T1CONbi
      +                          ts.TMR1ON = 0;
   728  000974  90CE               	bcf	4046,0,c	;volatile
   729                           
   730                           ;mcc_generated_files/tmr1.c: 135:         TMR1H = (timerVal >> 8);
   731  000976  0100               	movlb	0	; () banked
   732  000978  516A               	movf	(TMR1_WriteTimer@timerVal+1)& (0+255),w,b
   733  00097A  6ECD               	movwf	4045,c	;volatile
   734                           
   735                           ; BSR set to: 0
   736                           ;mcc_generated_files/tmr1.c: 136:         TMR1L = timerVal;
   737  00097C  C069  FFCC         	movff	TMR1_WriteTimer@timerVal,4044	;volatile
   738                           
   739                           ; BSR set to: 0
   740                           ;mcc_generated_files/tmr1.c: 139:         T1CONbits.TMR1ON =1;
   741  000980  80CE               	bsf	4046,0,c	;volatile
   742                           
   743                           ;mcc_generated_files/tmr1.c: 140:     }
   744  000982  0012               	return	
   745  000984                     l2334:
   746                           
   747                           ;mcc_generated_files/tmr1.c: 142:     {;mcc_generated_files/tmr1.c: 144:         TMR1H =
      +                           (timerVal >> 8);
   748  000984  0100               	movlb	0	; () banked
   749  000986  516A               	movf	(TMR1_WriteTimer@timerVal+1)& (0+255),w,b
   750  000988  6ECD               	movwf	4045,c	;volatile
   751                           
   752                           ; BSR set to: 0
   753                           ;mcc_generated_files/tmr1.c: 145:         TMR1L = timerVal;
   754  00098A  C069  FFCC         	movff	TMR1_WriteTimer@timerVal,4044	;volatile
   755                           
   756                           ; BSR set to: 0
   757  00098E  0012               	return		;funcret
   758  000990                     __end_of_TMR1_WriteTimer:
   759                           	opt callstack 0
   760                           
   761 ;; *************** function _TMR1_StartTimer *****************
   762 ;; Defined at:
   763 ;;		line 99 in file "mcc_generated_files/tmr1.c"
   764 ;; Parameters:    Size  Location     Type
   765 ;;		None
   766 ;; Auto vars:     Size  Location     Type
   767 ;;		None
   768 ;; Return value:  Size  Location     Type
   769 ;;                  1    wreg      void 
   770 ;; Registers used:
   771 ;;		None
   772 ;; Tracked objects:
   773 ;;		On entry : 0/0
   774 ;;		On exit  : 0/0
   775 ;;		Unchanged: 0/0
   776 ;; Data sizes:     COMRAM   BANK0   BANK1   BANK2   BANK3   BANK4   BANK5   BANK6   BANK7
   777 ;;      Params:         0       0       0       0       0       0       0       0       0
   778 ;;      Locals:         0       0       0       0       0       0       0       0       0
   779 ;;      Temps:          0       0       0       0       0       0       0       0       0
   780 ;;      Totals:         0       0       0       0       0       0       0       0       0
   781 ;;Total ram usage:        0 bytes
   782 ;; Hardware stack levels used:    1
   783 ;; Hardware stack levels required when called:    5
   784 ;; This function calls:
   785 ;;		Nothing
   786 ;; This function is called by:
   787 ;;		_ping_send
   788 ;; This function uses a non-reentrant model
   789 ;;
   790                           
   791                           	psect	text4
   792  000A6E                     __ptext4:
   793                           	opt callstack 0
   794  000A6E                     _TMR1_StartTimer:
   795                           	opt callstack 24
   796                           
   797                           ;mcc_generated_files/tmr1.c: 102:     T1CONbits.TMR1ON = 1;
   798                           
   799                           ; BSR set to: 0
   800                           ;incstack = 0
   801  000A6E  80CE               	bsf	4046,0,c	;volatile
   802  000A70  0012               	return		;funcret
   803  000A72                     __end_of_TMR1_StartTimer:
   804                           	opt callstack 0
   805                           
   806 ;; *************** function _carcontrol_init *****************
   807 ;; Defined at:
   808 ;;		line 27 in file "car_ctrl.c"
   809 ;; Parameters:    Size  Location     Type
   810 ;;		None
   811 ;; Auto vars:     Size  Location     Type
   812 ;;		None
   813 ;; Return value:  Size  Location     Type
   814 ;;                  1    wreg      void 
   815 ;; Registers used:
   816 ;;		wreg, status,2, status,0, cstack
   817 ;; Tracked objects:
   818 ;;		On entry : 0/0
   819 ;;		On exit  : 0/0
   820 ;;		Unchanged: 0/0
   821 ;; Data sizes:     COMRAM   BANK0   BANK1   BANK2   BANK3   BANK4   BANK5   BANK6   BANK7
   822 ;;      Params:         0       0       0       0       0       0       0       0       0
   823 ;;      Locals:         0       0       0       0       0       0       0       0       0
   824 ;;      Temps:          0       0       0       0       0       0       0       0       0
   825 ;;      Totals:         0       0       0       0       0       0       0       0       0
   826 ;;Total ram usage:        0 bytes
   827 ;; Hardware stack levels used:    1
   828 ;; Hardware stack levels required when called:    6
   829 ;; This function calls:
   830 ;;		_TMR2_SetInterruptHandler
   831 ;;		_carcontrol_steering
   832 ;;		_carcontrol_throttle
   833 ;; This function is called by:
   834 ;;		_main
   835 ;; This function uses a non-reentrant model
   836 ;;
   837                           
   838                           	psect	text5
   839  0007BC                     __ptext5:
   840                           	opt callstack 0
   841  0007BC                     _carcontrol_init:
   842                           	opt callstack 24
   843                           
   844                           ;car_ctrl.c: 28:     carctl.state = state_unset;
   845                           
   846                           ;incstack = 0
   847  0007BC  0E00               	movlw	0
   848  0007BE  0100               	movlb	0	; () banked
   849  0007C0  6F61               	movwf	(_carctl+1)& (0+255),b	;volatile
   850                           
   851                           ; BSR set to: 0
   852                           ;car_ctrl.c: 29:     carcontrol_throttle(0);
   853  0007C2  0E00               	movlw	0
   854  0007C4  EC0D  F005         	call	_carcontrol_throttle
   855                           
   856                           ;car_ctrl.c: 30:     carcontrol_steering(0);
   857  0007C8  0E00               	movlw	0
   858  0007CA  ECF8  F003         	call	_carcontrol_steering
   859                           
   860                           ;car_ctrl.c: 31:     carctl.servoHighTime = 50;
   861  0007CE  0E32               	movlw	50
   862  0007D0  0100               	movlb	0	; () banked
   863  0007D2  6F65               	movwf	(_carctl+5)& (0+255),b	;volatile
   864                           
   865                           ; BSR set to: 0
   866                           ;car_ctrl.c: 33:     TMR2_SetInterruptHandler(carcontrol_ISR);
   867  0007D4  0EF8               	movlw	low _carcontrol_ISR
   868  0007D6  6F69               	movwf	TMR2_SetInterruptHandler@InterruptHandler& (0+255),b
   869  0007D8  0E04               	movlw	high _carcontrol_ISR
   870  0007DA  6F6A               	movwf	(TMR2_SetInterruptHandler@InterruptHandler+1)& (0+255),b
   871  0007DC  EC1E  F005         	call	_TMR2_SetInterruptHandler	;wreg free
   872                           
   873                           ;car_ctrl.c: 34:     stateTime = 0;
   874  0007E0  0E00               	movlw	0
   875  0007E2  0100               	movlb	0	; () banked
   876  0007E4  6F67               	movwf	(_stateTime+1)& (0+255),b
   877  0007E6  0E00               	movlw	0
   878  0007E8  6F66               	movwf	_stateTime& (0+255),b
   879                           
   880                           ; BSR set to: 0
   881                           ;car_ctrl.c: 35:     carctl.initialized = 1;
   882  0007EA  0E01               	movlw	1
   883  0007EC  6F60               	movwf	_carctl& (0+255),b	;volatile
   884                           
   885                           ; BSR set to: 0
   886  0007EE  0012               	return		;funcret
   887  0007F0                     __end_of_carcontrol_init:
   888                           	opt callstack 0
   889                           
   890 ;; *************** function _carcontrol_throttle *****************
   891 ;; Defined at:
   892 ;;		line 118 in file "car_ctrl.c"
   893 ;; Parameters:    Size  Location     Type
   894 ;;  throttle        1    wreg     unsigned char 
   895 ;; Auto vars:     Size  Location     Type
   896 ;;  throttle        1    0[BANK0 ] unsigned char 
   897 ;; Return value:  Size  Location     Type
   898 ;;                  1    wreg      void 
   899 ;; Registers used:
   900 ;;		wreg, status,2, status,0
   901 ;; Tracked objects:
   902 ;;		On entry : 0/0
   903 ;;		On exit  : 0/0
   904 ;;		Unchanged: 0/0
   905 ;; Data sizes:     COMRAM   BANK0   BANK1   BANK2   BANK3   BANK4   BANK5   BANK6   BANK7
   906 ;;      Params:         0       0       0       0       0       0       0       0       0
   907 ;;      Locals:         0       1       0       0       0       0       0       0       0
   908 ;;      Temps:          0       0       0       0       0       0       0       0       0
   909 ;;      Totals:         0       1       0       0       0       0       0       0       0
   910 ;;Total ram usage:        1 bytes
   911 ;; Hardware stack levels used:    1
   912 ;; Hardware stack levels required when called:    5
   913 ;; This function calls:
   914 ;;		Nothing
   915 ;; This function is called by:
   916 ;;		_carcontrol_init
   917 ;; This function uses a non-reentrant model
   918 ;;
   919                           
   920                           	psect	text6
   921  000A1A                     __ptext6:
   922                           	opt callstack 0
   923  000A1A                     _carcontrol_throttle:
   924                           	opt callstack 24
   925                           
   926                           ; BSR set to: 0
   927                           ;incstack = 0
   928                           ;carcontrol_throttle@throttle stored from wreg
   929  000A1A  0100               	movlb	0	; () banked
   930  000A1C  6F69               	movwf	carcontrol_throttle@throttle& (0+255),b
   931                           
   932                           ;car_ctrl.c: 120:     if (throttle > 100) throttle = 100;
   933  000A1E  0E64               	movlw	100
   934  000A20  0100               	movlb	0	; () banked
   935  000A22  6569               	cpfsgt	carcontrol_throttle@throttle& (0+255),b
   936  000A24  D002               	goto	l2322
   937                           
   938                           ; BSR set to: 0
   939  000A26  0E64               	movlw	100
   940  000A28  6F69               	movwf	carcontrol_throttle@throttle& (0+255),b
   941  000A2A                     l2322:
   942                           
   943                           ; BSR set to: 0
   944                           ;car_ctrl.c: 121:     carctl.throttleHighTime = throttle;
   945  000A2A  C069  F064         	movff	carcontrol_throttle@throttle,_carctl+4	;volatile
   946                           
   947                           ; BSR set to: 0
   948  000A2E  0012               	return		;funcret
   949  000A30                     __end_of_carcontrol_throttle:
   950                           	opt callstack 0
   951                           
   952 ;; *************** function _carcontrol_steering *****************
   953 ;; Defined at:
   954 ;;		line 93 in file "car_ctrl.c"
   955 ;; Parameters:    Size  Location     Type
   956 ;;  steering        1    wreg     char 
   957 ;; Auto vars:     Size  Location     Type
   958 ;;  steering        1    0[BANK0 ] char 
   959 ;; Return value:  Size  Location     Type
   960 ;;                  1    wreg      void 
   961 ;; Registers used:
   962 ;;		wreg, status,2, status,0
   963 ;; Tracked objects:
   964 ;;		On entry : 0/0
   965 ;;		On exit  : 0/0
   966 ;;		Unchanged: 0/0
   967 ;; Data sizes:     COMRAM   BANK0   BANK1   BANK2   BANK3   BANK4   BANK5   BANK6   BANK7
   968 ;;      Params:         0       0       0       0       0       0       0       0       0
   969 ;;      Locals:         0       1       0       0       0       0       0       0       0
   970 ;;      Temps:          0       0       0       0       0       0       0       0       0
   971 ;;      Totals:         0       1       0       0       0       0       0       0       0
   972 ;;Total ram usage:        1 bytes
   973 ;; Hardware stack levels used:    1
   974 ;; Hardware stack levels required when called:    5
   975 ;; This function calls:
   976 ;;		Nothing
   977 ;; This function is called by:
   978 ;;		_main
   979 ;;		_carcontrol_init
   980 ;; This function uses a non-reentrant model
   981 ;;
   982                           
   983                           	psect	text7
   984  0007F0                     __ptext7:
   985                           	opt callstack 0
   986  0007F0                     _carcontrol_steering:
   987                           	opt callstack 25
   988                           
   989                           ; BSR set to: 0
   990                           ;incstack = 0
   991                           ;carcontrol_steering@steering stored from wreg
   992  0007F0  0100               	movlb	0	; () banked
   993  0007F2  6F69               	movwf	carcontrol_steering@steering& (0+255),b
   994                           
   995                           ;car_ctrl.c: 106:     if (steering < servo_min) steering = servo_min;
   996  0007F4  0100               	movlb	0	; () banked
   997  0007F6  5169               	movf	carcontrol_steering@steering& (0+255),w,b
   998  0007F8  0A80               	xorlw	128
   999  0007FA  0F9E               	addlw	158
  1000  0007FC  B0D8               	btfsc	status,0,c
  1001  0007FE  D002               	goto	l2310
  1002                           
  1003                           ; BSR set to: 0
  1004  000800  0EE2               	movlw	226
  1005  000802  6F69               	movwf	carcontrol_steering@steering& (0+255),b
  1006  000804                     l2310:
  1007                           
  1008                           ; BSR set to: 0
  1009                           ;car_ctrl.c: 107:     if (steering > servo_max) steering = servo_max;
  1010  000804  5169               	movf	carcontrol_steering@steering& (0+255),w,b
  1011  000806  0A80               	xorlw	128
  1012  000808  0F63               	addlw	-157
  1013  00080A  A0D8               	btfss	status,0,c
  1014  00080C  D002               	goto	l2314
  1015                           
  1016                           ; BSR set to: 0
  1017  00080E  0E1C               	movlw	28
  1018  000810  6F69               	movwf	carcontrol_steering@steering& (0+255),b
  1019  000812                     l2314:
  1020                           
  1021                           ; BSR set to: 0
  1022                           ;car_ctrl.c: 109:     steering = steering + servo_trim;
  1023  000812  5169               	movf	carcontrol_steering@steering& (0+255),w,b
  1024  000814  0FEF               	addlw	239
  1025  000816  6F69               	movwf	carcontrol_steering@steering& (0+255),b
  1026                           
  1027                           ; BSR set to: 0
  1028                           ;car_ctrl.c: 111:     carctl.servoHighTime = steering + 50;
  1029  000818  5169               	movf	carcontrol_steering@steering& (0+255),w,b
  1030  00081A  0F32               	addlw	50
  1031  00081C  6F65               	movwf	(_carctl+5)& (0+255),b	;volatile
  1032                           
  1033                           ; BSR set to: 0
  1034  00081E  0012               	return		;funcret
  1035  000820                     __end_of_carcontrol_steering:
  1036                           	opt callstack 0
  1037                           
  1038 ;; *************** function _SYSTEM_Initialize *****************
  1039 ;; Defined at:
  1040 ;;		line 50 in file "mcc_generated_files/mcc.c"
  1041 ;; Parameters:    Size  Location     Type
  1042 ;;		None
  1043 ;; Auto vars:     Size  Location     Type
  1044 ;;		None
  1045 ;; Return value:  Size  Location     Type
  1046 ;;                  1    wreg      void 
  1047 ;; Registers used:
  1048 ;;		wreg, status,2, status,0, cstack
  1049 ;; Tracked objects:
  1050 ;;		On entry : 0/0
  1051 ;;		On exit  : 0/0
  1052 ;;		Unchanged: 0/0
  1053 ;; Data sizes:     COMRAM   BANK0   BANK1   BANK2   BANK3   BANK4   BANK5   BANK6   BANK7
  1054 ;;      Params:         0       0       0       0       0       0       0       0       0
  1055 ;;      Locals:         0       0       0       0       0       0       0       0       0
  1056 ;;      Temps:          0       0       0       0       0       0       0       0       0
  1057 ;;      Totals:         0       0       0       0       0       0       0       0       0
  1058 ;;Total ram usage:        0 bytes
  1059 ;; Hardware stack levels used:    1
  1060 ;; Hardware stack levels required when called:    7
  1061 ;; This function calls:
  1062 ;;		_CCP1_Initialize
  1063 ;;		_INTERRUPT_Initialize
  1064 ;;		_OSCILLATOR_Initialize
  1065 ;;		_PIN_MANAGER_Initialize
  1066 ;;		_PMD_Initialize
  1067 ;;		_TMR1_Initialize
  1068 ;;		_TMR2_Initialize
  1069 ;; This function is called by:
  1070 ;;		_main
  1071 ;; This function uses a non-reentrant model
  1072 ;;
  1073                           
  1074                           	psect	text8
  1075  000990                     __ptext8:
  1076                           	opt callstack 0
  1077  000990                     _SYSTEM_Initialize:
  1078                           	opt callstack 23
  1079                           
  1080                           ;mcc_generated_files/mcc.c: 52:     INTERRUPT_Initialize();
  1081                           
  1082                           ; BSR set to: 0
  1083                           ;incstack = 0
  1084  000990  EC39  F005         	call	_INTERRUPT_Initialize	;wreg free
  1085                           
  1086                           ;mcc_generated_files/mcc.c: 53:     PMD_Initialize();
  1087  000994  ECD7  F004         	call	_PMD_Initialize	;wreg free
  1088                           
  1089                           ;mcc_generated_files/mcc.c: 54:     PIN_MANAGER_Initialize();
  1090  000998  ECEF  F002         	call	_PIN_MANAGER_Initialize	;wreg free
  1091                           
  1092                           ;mcc_generated_files/mcc.c: 55:     OSCILLATOR_Initialize();
  1093  00099C  EC01  F005         	call	_OSCILLATOR_Initialize	;wreg free
  1094                           
  1095                           ;mcc_generated_files/mcc.c: 56:     CCP1_Initialize();
  1096  0009A0  EC3F  F004         	call	_CCP1_Initialize	;wreg free
  1097                           
  1098                           ;mcc_generated_files/mcc.c: 57:     TMR2_Initialize();
  1099  0009A4  EC28  F004         	call	_TMR2_Initialize	;wreg free
  1100                           
  1101                           ;mcc_generated_files/mcc.c: 58:     TMR1_Initialize();
  1102  0009A8  EC78  F003         	call	_TMR1_Initialize	;wreg free
  1103  0009AC  0012               	return		;funcret
  1104  0009AE                     __end_of_SYSTEM_Initialize:
  1105                           	opt callstack 0
  1106                           
  1107 ;; *************** function _TMR2_Initialize *****************
  1108 ;; Defined at:
  1109 ;;		line 64 in file "mcc_generated_files/tmr2.c"
  1110 ;; Parameters:    Size  Location     Type
  1111 ;;		None
  1112 ;; Auto vars:     Size  Location     Type
  1113 ;;		None
  1114 ;; Return value:  Size  Location     Type
  1115 ;;                  1    wreg      void 
  1116 ;; Registers used:
  1117 ;;		wreg, status,2, status,0, cstack
  1118 ;; Tracked objects:
  1119 ;;		On entry : 0/0
  1120 ;;		On exit  : 0/0
  1121 ;;		Unchanged: 0/0
  1122 ;; Data sizes:     COMRAM   BANK0   BANK1   BANK2   BANK3   BANK4   BANK5   BANK6   BANK7
  1123 ;;      Params:         0       0       0       0       0       0       0       0       0
  1124 ;;      Locals:         0       0       0       0       0       0       0       0       0
  1125 ;;      Temps:          0       0       0       0       0       0       0       0       0
  1126 ;;      Totals:         0       0       0       0       0       0       0       0       0
  1127 ;;Total ram usage:        0 bytes
  1128 ;; Hardware stack levels used:    1
  1129 ;; Hardware stack levels required when called:    6
  1130 ;; This function calls:
  1131 ;;		_TMR2_SetInterruptHandler
  1132 ;; This function is called by:
  1133 ;;		_SYSTEM_Initialize
  1134 ;; This function uses a non-reentrant model
  1135 ;;
  1136                           
  1137                           	psect	text9
  1138  000850                     __ptext9:
  1139                           	opt callstack 0
  1140  000850                     _TMR2_Initialize:
  1141                           	opt callstack 23
  1142                           
  1143                           ;mcc_generated_files/tmr2.c: 69:     T2CLKCON = 0x01;
  1144                           
  1145                           ;incstack = 0
  1146  000850  0E01               	movlw	1
  1147  000852  6EBE               	movwf	4030,c	;volatile
  1148                           
  1149                           ;mcc_generated_files/tmr2.c: 72:     T2HLT = 0x00;
  1150  000854  0E00               	movlw	0
  1151  000856  6EBD               	movwf	4029,c	;volatile
  1152                           
  1153                           ;mcc_generated_files/tmr2.c: 75:     T2RST = 0x00;
  1154  000858  0E00               	movlw	0
  1155  00085A  6EBF               	movwf	4031,c	;volatile
  1156                           
  1157                           ;mcc_generated_files/tmr2.c: 78:     T2PR = 0x9F;
  1158  00085C  0E9F               	movlw	159
  1159  00085E  6EBB               	movwf	4027,c	;volatile
  1160                           
  1161                           ;mcc_generated_files/tmr2.c: 81:     T2TMR = 0x00;
  1162  000860  0E00               	movlw	0
  1163  000862  6EBA               	movwf	4026,c	;volatile
  1164                           
  1165                           ;mcc_generated_files/tmr2.c: 84:     PIR4bits.TMR2IF = 0;
  1166  000864  010E               	movlb	14	; () banked
  1167  000866  93C9               	bcf	201,1,b	;volatile
  1168                           
  1169                           ; BSR set to: 14
  1170                           ;mcc_generated_files/tmr2.c: 87:     PIE4bits.TMR2IE = 1;
  1171  000868  83C1               	bsf	193,1,b	;volatile
  1172                           
  1173                           ; BSR set to: 14
  1174                           ;mcc_generated_files/tmr2.c: 90:     TMR2_SetInterruptHandler(TMR2_DefaultInterruptHandl
      +                          er);
  1175  00086A  0E82               	movlw	low _TMR2_DefaultInterruptHandler
  1176  00086C  0100               	movlb	0	; () banked
  1177  00086E  6F69               	movwf	TMR2_SetInterruptHandler@InterruptHandler& (0+255),b
  1178  000870  0E0A               	movlw	high _TMR2_DefaultInterruptHandler
  1179  000872  6F6A               	movwf	(TMR2_SetInterruptHandler@InterruptHandler+1)& (0+255),b
  1180  000874  EC1E  F005         	call	_TMR2_SetInterruptHandler	;wreg free
  1181                           
  1182                           ;mcc_generated_files/tmr2.c: 93:     T2CON = 0x80;
  1183  000878  0E80               	movlw	128
  1184  00087A  6EBC               	movwf	4028,c	;volatile
  1185  00087C  0012               	return		;funcret
  1186  00087E                     __end_of_TMR2_Initialize:
  1187                           	opt callstack 0
  1188                           
  1189 ;; *************** function _TMR2_SetInterruptHandler *****************
  1190 ;; Defined at:
  1191 ;;		line 178 in file "mcc_generated_files/tmr2.c"
  1192 ;; Parameters:    Size  Location     Type
  1193 ;;  InterruptHan    2    0[BANK0 ] PTR FTN()void 
  1194 ;;		 -> carcontrol_ISR(1), TMR2_DefaultInterruptHandler(1), 
  1195 ;; Auto vars:     Size  Location     Type
  1196 ;;		None
  1197 ;; Return value:  Size  Location     Type
  1198 ;;                  1    wreg      void 
  1199 ;; Registers used:
  1200 ;;		wreg, status,2, status,0
  1201 ;; Tracked objects:
  1202 ;;		On entry : 0/0
  1203 ;;		On exit  : 0/0
  1204 ;;		Unchanged: 0/0
  1205 ;; Data sizes:     COMRAM   BANK0   BANK1   BANK2   BANK3   BANK4   BANK5   BANK6   BANK7
  1206 ;;      Params:         0       2       0       0       0       0       0       0       0
  1207 ;;      Locals:         0       0       0       0       0       0       0       0       0
  1208 ;;      Temps:          0       0       0       0       0       0       0       0       0
  1209 ;;      Totals:         0       2       0       0       0       0       0       0       0
  1210 ;;Total ram usage:        2 bytes
  1211 ;; Hardware stack levels used:    1
  1212 ;; Hardware stack levels required when called:    5
  1213 ;; This function calls:
  1214 ;;		Nothing
  1215 ;; This function is called by:
  1216 ;;		_TMR2_Initialize
  1217 ;;		_carcontrol_init
  1218 ;; This function uses a non-reentrant model
  1219 ;;
  1220                           
  1221                           	psect	text10
  1222  000A3C                     __ptext10:
  1223                           	opt callstack 0
  1224  000A3C                     _TMR2_SetInterruptHandler:
  1225                           	opt callstack 24
  1226                           
  1227                           ;mcc_generated_files/tmr2.c: 179:     TMR2_InterruptHandler = InterruptHandler;
  1228                           
  1229                           ;incstack = 0
  1230  000A3C  C069  F06F         	movff	TMR2_SetInterruptHandler@InterruptHandler,_TMR2_InterruptHandler
  1231  000A40  C06A  F070         	movff	TMR2_SetInterruptHandler@InterruptHandler+1,_TMR2_InterruptHandler+1
  1232  000A44  0012               	return		;funcret
  1233  000A46                     __end_of_TMR2_SetInterruptHandler:
  1234                           	opt callstack 0
  1235                           
  1236 ;; *************** function _TMR1_Initialize *****************
  1237 ;; Defined at:
  1238 ;;		line 64 in file "mcc_generated_files/tmr1.c"
  1239 ;; Parameters:    Size  Location     Type
  1240 ;;		None
  1241 ;; Auto vars:     Size  Location     Type
  1242 ;;		None
  1243 ;; Return value:  Size  Location     Type
  1244 ;;                  1    wreg      void 
  1245 ;; Registers used:
  1246 ;;		wreg, status,2, status,0, cstack
  1247 ;; Tracked objects:
  1248 ;;		On entry : 0/0
  1249 ;;		On exit  : 0/0
  1250 ;;		Unchanged: 0/0
  1251 ;; Data sizes:     COMRAM   BANK0   BANK1   BANK2   BANK3   BANK4   BANK5   BANK6   BANK7
  1252 ;;      Params:         0       0       0       0       0       0       0       0       0
  1253 ;;      Locals:         0       0       0       0       0       0       0       0       0
  1254 ;;      Temps:          0       2       0       0       0       0       0       0       0
  1255 ;;      Totals:         0       2       0       0       0       0       0       0       0
  1256 ;;Total ram usage:        2 bytes
  1257 ;; Hardware stack levels used:    1
  1258 ;; Hardware stack levels required when called:    6
  1259 ;; This function calls:
  1260 ;;		_TMR1_SetInterruptHandler
  1261 ;; This function is called by:
  1262 ;;		_SYSTEM_Initialize
  1263 ;; This function uses a non-reentrant model
  1264 ;;
  1265                           
  1266                           	psect	text11
  1267  0006F0                     __ptext11:
  1268                           	opt callstack 0
  1269  0006F0                     _TMR1_Initialize:
  1270                           	opt callstack 23
  1271                           
  1272                           ;mcc_generated_files/tmr1.c: 69:     T1GCON = 0x00;
  1273                           
  1274                           ;incstack = 0
  1275  0006F0  0E00               	movlw	0
  1276  0006F2  6ECF               	movwf	4047,c	;volatile
  1277                           
  1278                           ;mcc_generated_files/tmr1.c: 72:     T1GATE = 0x00;
  1279  0006F4  0E00               	movlw	0
  1280  0006F6  6ED0               	movwf	4048,c	;volatile
  1281                           
  1282                           ;mcc_generated_files/tmr1.c: 75:     T1CLK = 0x01;
  1283  0006F8  0E01               	movlw	1
  1284  0006FA  6ED1               	movwf	4049,c	;volatile
  1285                           
  1286                           ;mcc_generated_files/tmr1.c: 78:     TMR1H = 0x63;
  1287  0006FC  0E63               	movlw	99
  1288  0006FE  6ECD               	movwf	4045,c	;volatile
  1289                           
  1290                           ;mcc_generated_files/tmr1.c: 81:     TMR1L = 0xC0;
  1291  000700  0EC0               	movlw	192
  1292  000702  6ECC               	movwf	4044,c	;volatile
  1293                           
  1294                           ;mcc_generated_files/tmr1.c: 84:     timer1ReloadVal=(uint16_t)((TMR1H << 8) | TMR1L);
  1295  000704  50CC               	movf	4044,w,c	;volatile
  1296  000706  CFCD F06B          	movff	4045,??_TMR1_Initialize	;volatile
  1297  00070A  0100               	movlb	0	; () banked
  1298  00070C  6B6C               	clrf	(??_TMR1_Initialize+1)& (0+255),b
  1299  00070E  C06B  F06C         	movff	??_TMR1_Initialize,??_TMR1_Initialize+1
  1300  000712  6B6B               	clrf	??_TMR1_Initialize& (0+255),b
  1301  000714  116B               	iorwf	??_TMR1_Initialize& (0+255),w,b
  1302  000716  6E32               	movwf	_timer1ReloadVal,c	;volatile
  1303  000718  516C               	movf	(??_TMR1_Initialize+1)& (0+255),w,b
  1304  00071A  6E33               	movwf	_timer1ReloadVal+1,c	;volatile
  1305                           
  1306                           ; BSR set to: 0
  1307                           ;mcc_generated_files/tmr1.c: 87:     PIR4bits.TMR1IF = 0;
  1308  00071C  010E               	movlb	14	; () banked
  1309  00071E  91C9               	bcf	201,0,b	;volatile
  1310                           
  1311                           ; BSR set to: 14
  1312                           ;mcc_generated_files/tmr1.c: 90:     PIE4bits.TMR1IE = 1;
  1313  000720  81C1               	bsf	193,0,b	;volatile
  1314                           
  1315                           ; BSR set to: 14
  1316                           ;mcc_generated_files/tmr1.c: 93:     TMR1_SetInterruptHandler(TMR1_DefaultInterruptHandl
      +                          er);
  1317  000722  0E84               	movlw	low _TMR1_DefaultInterruptHandler
  1318  000724  0100               	movlb	0	; () banked
  1319  000726  6F69               	movwf	TMR1_SetInterruptHandler@InterruptHandler& (0+255),b
  1320  000728  0E0A               	movlw	high _TMR1_DefaultInterruptHandler
  1321  00072A  6F6A               	movwf	(TMR1_SetInterruptHandler@InterruptHandler+1)& (0+255),b
  1322  00072C  EC23  F005         	call	_TMR1_SetInterruptHandler	;wreg free
  1323                           
  1324                           ;mcc_generated_files/tmr1.c: 96:     T1CON = 0x31;
  1325  000730  0E31               	movlw	49
  1326  000732  6ECE               	movwf	4046,c	;volatile
  1327  000734  0012               	return		;funcret
  1328  000736                     __end_of_TMR1_Initialize:
  1329                           	opt callstack 0
  1330                           
  1331 ;; *************** function _TMR1_SetInterruptHandler *****************
  1332 ;; Defined at:
  1333 ;;		line 178 in file "mcc_generated_files/tmr1.c"
  1334 ;; Parameters:    Size  Location     Type
  1335 ;;  InterruptHan    2    0[BANK0 ] PTR FTN()void 
  1336 ;;		 -> TMR1_DefaultInterruptHandler(1), ping_TMR1Overflow_isr(1), 
  1337 ;; Auto vars:     Size  Location     Type
  1338 ;;		None
  1339 ;; Return value:  Size  Location     Type
  1340 ;;                  1    wreg      void 
  1341 ;; Registers used:
  1342 ;;		wreg, status,2, status,0
  1343 ;; Tracked objects:
  1344 ;;		On entry : 0/0
  1345 ;;		On exit  : 0/0
  1346 ;;		Unchanged: 0/0
  1347 ;; Data sizes:     COMRAM   BANK0   BANK1   BANK2   BANK3   BANK4   BANK5   BANK6   BANK7
  1348 ;;      Params:         0       2       0       0       0       0       0       0       0
  1349 ;;      Locals:         0       0       0       0       0       0       0       0       0
  1350 ;;      Temps:          0       0       0       0       0       0       0       0       0
  1351 ;;      Totals:         0       2       0       0       0       0       0       0       0
  1352 ;;Total ram usage:        2 bytes
  1353 ;; Hardware stack levels used:    1
  1354 ;; Hardware stack levels required when called:    5
  1355 ;; This function calls:
  1356 ;;		Nothing
  1357 ;; This function is called by:
  1358 ;;		_ping_init
  1359 ;;		_TMR1_Initialize
  1360 ;; This function uses a non-reentrant model
  1361 ;;
  1362                           
  1363                           	psect	text12
  1364  000A46                     __ptext12:
  1365                           	opt callstack 0
  1366  000A46                     _TMR1_SetInterruptHandler:
  1367                           	opt callstack 23
  1368                           
  1369                           ;mcc_generated_files/tmr1.c: 179:     TMR1_InterruptHandler = InterruptHandler;
  1370                           
  1371                           ;incstack = 0
  1372  000A46  C069  F030         	movff	TMR1_SetInterruptHandler@InterruptHandler,_TMR1_InterruptHandler
  1373  000A4A  C06A  F031         	movff	TMR1_SetInterruptHandler@InterruptHandler+1,_TMR1_InterruptHandler+1
  1374  000A4E  0012               	return		;funcret
  1375  000A50                     __end_of_TMR1_SetInterruptHandler:
  1376                           	opt callstack 0
  1377                           
  1378 ;; *************** function _PMD_Initialize *****************
  1379 ;; Defined at:
  1380 ;;		line 75 in file "mcc_generated_files/mcc.c"
  1381 ;; Parameters:    Size  Location     Type
  1382 ;;		None
  1383 ;; Auto vars:     Size  Location     Type
  1384 ;;		None
  1385 ;; Return value:  Size  Location     Type
  1386 ;;                  1    wreg      void 
  1387 ;; Registers used:
  1388 ;;		wreg, status,2
  1389 ;; Tracked objects:
  1390 ;;		On entry : 0/0
  1391 ;;		On exit  : 0/0
  1392 ;;		Unchanged: 0/0
  1393 ;; Data sizes:     COMRAM   BANK0   BANK1   BANK2   BANK3   BANK4   BANK5   BANK6   BANK7
  1394 ;;      Params:         0       0       0       0       0       0       0       0       0
  1395 ;;      Locals:         0       0       0       0       0       0       0       0       0
  1396 ;;      Temps:          0       0       0       0       0       0       0       0       0
  1397 ;;      Totals:         0       0       0       0       0       0       0       0       0
  1398 ;;Total ram usage:        0 bytes
  1399 ;; Hardware stack levels used:    1
  1400 ;; Hardware stack levels required when called:    5
  1401 ;; This function calls:
  1402 ;;		Nothing
  1403 ;; This function is called by:
  1404 ;;		_SYSTEM_Initialize
  1405 ;; This function uses a non-reentrant model
  1406 ;;
  1407                           
  1408                           	psect	text13
  1409  0009AE                     __ptext13:
  1410                           	opt callstack 0
  1411  0009AE                     _PMD_Initialize:
  1412                           	opt callstack 24
  1413                           
  1414                           ;mcc_generated_files/mcc.c: 78:     PMD0 = 0x00;
  1415                           
  1416                           ;incstack = 0
  1417  0009AE  0E00               	movlw	0
  1418  0009B0  010E               	movlb	14	; () banked
  1419  0009B2  6FDC               	movwf	220,b	;volatile
  1420                           
  1421                           ;mcc_generated_files/mcc.c: 80:     PMD1 = 0x00;
  1422  0009B4  0E00               	movlw	0
  1423  0009B6  6FDD               	movwf	221,b	;volatile
  1424                           
  1425                           ;mcc_generated_files/mcc.c: 82:     PMD2 = 0x00;
  1426  0009B8  0E00               	movlw	0
  1427  0009BA  6FDE               	movwf	222,b	;volatile
  1428                           
  1429                           ;mcc_generated_files/mcc.c: 84:     PMD3 = 0x00;
  1430  0009BC  0E00               	movlw	0
  1431  0009BE  6FDF               	movwf	223,b	;volatile
  1432                           
  1433                           ;mcc_generated_files/mcc.c: 86:     PMD4 = 0x00;
  1434  0009C0  0E00               	movlw	0
  1435  0009C2  6FE0               	movwf	224,b	;volatile
  1436                           
  1437                           ;mcc_generated_files/mcc.c: 88:     PMD5 = 0x00;
  1438  0009C4  0E00               	movlw	0
  1439  0009C6  6FE1               	movwf	225,b	;volatile
  1440                           
  1441                           ; BSR set to: 14
  1442  0009C8  0012               	return		;funcret
  1443  0009CA                     __end_of_PMD_Initialize:
  1444                           	opt callstack 0
  1445                           
  1446 ;; *************** function _PIN_MANAGER_Initialize *****************
  1447 ;; Defined at:
  1448 ;;		line 57 in file "mcc_generated_files/pin_manager.c"
  1449 ;; Parameters:    Size  Location     Type
  1450 ;;		None
  1451 ;; Auto vars:     Size  Location     Type
  1452 ;;		None
  1453 ;; Return value:  Size  Location     Type
  1454 ;;                  1    wreg      void 
  1455 ;; Registers used:
  1456 ;;		wreg, status,2, status,0, cstack
  1457 ;; Tracked objects:
  1458 ;;		On entry : 0/0
  1459 ;;		On exit  : 0/0
  1460 ;;		Unchanged: 0/0
  1461 ;; Data sizes:     COMRAM   BANK0   BANK1   BANK2   BANK3   BANK4   BANK5   BANK6   BANK7
  1462 ;;      Params:         0       0       0       0       0       0       0       0       0
  1463 ;;      Locals:         0       0       0       0       0       0       0       0       0
  1464 ;;      Temps:          0       0       0       0       0       0       0       0       0
  1465 ;;      Totals:         0       0       0       0       0       0       0       0       0
  1466 ;;Total ram usage:        0 bytes
  1467 ;; Hardware stack levels used:    1
  1468 ;; Hardware stack levels required when called:    6
  1469 ;; This function calls:
  1470 ;;		_IOCCF2_SetInterruptHandler
  1471 ;; This function is called by:
  1472 ;;		_SYSTEM_Initialize
  1473 ;; This function uses a non-reentrant model
  1474 ;;
  1475                           
  1476                           	psect	text14
  1477  0005DE                     __ptext14:
  1478                           	opt callstack 0
  1479  0005DE                     _PIN_MANAGER_Initialize:
  1480                           	opt callstack 23
  1481                           
  1482                           ;mcc_generated_files/pin_manager.c: 62:     LATA = 0x00;
  1483                           
  1484                           ; BSR set to: 14
  1485                           ;incstack = 0
  1486  0005DE  0E00               	movlw	0
  1487  0005E0  6E82               	movwf	3970,c	;volatile
  1488                           
  1489                           ;mcc_generated_files/pin_manager.c: 63:     LATB = 0x00;
  1490  0005E2  0E00               	movlw	0
  1491  0005E4  6E83               	movwf	3971,c	;volatile
  1492                           
  1493                           ;mcc_generated_files/pin_manager.c: 64:     LATC = 0x00;
  1494  0005E6  0E00               	movlw	0
  1495  0005E8  6E84               	movwf	3972,c	;volatile
  1496                           
  1497                           ;mcc_generated_files/pin_manager.c: 69:     TRISA = 0xFC;
  1498  0005EA  0EFC               	movlw	252
  1499  0005EC  6E87               	movwf	3975,c	;volatile
  1500                           
  1501                           ;mcc_generated_files/pin_manager.c: 70:     TRISB = 0xFF;
  1502  0005EE  6888               	setf	3976,c	;volatile
  1503                           
  1504                           ;mcc_generated_files/pin_manager.c: 71:     TRISC = 0xFF;
  1505  0005F0  6889               	setf	3977,c	;volatile
  1506                           
  1507                           ;mcc_generated_files/pin_manager.c: 76:     ANSELC = 0xFB;
  1508  0005F2  0EFB               	movlw	251
  1509  0005F4  010F               	movlb	15	; () banked
  1510  0005F6  6F1C               	movwf	28,b	;volatile
  1511                           
  1512                           ; BSR set to: 15
  1513                           ;mcc_generated_files/pin_manager.c: 77:     ANSELB = 0xFF;
  1514  0005F8  6914               	setf	20,b	;volatile
  1515                           
  1516                           ;mcc_generated_files/pin_manager.c: 78:     ANSELA = 0xFE;
  1517  0005FA  0EFE               	movlw	254
  1518  0005FC  6F0C               	movwf	12,b	;volatile
  1519                           
  1520                           ;mcc_generated_files/pin_manager.c: 83:     WPUE = 0x00;
  1521  0005FE  0E00               	movlw	0
  1522  000600  6F28               	movwf	40,b	;volatile
  1523                           
  1524                           ;mcc_generated_files/pin_manager.c: 84:     WPUB = 0x00;
  1525  000602  0E00               	movlw	0
  1526  000604  6F13               	movwf	19,b	;volatile
  1527                           
  1528                           ;mcc_generated_files/pin_manager.c: 85:     WPUA = 0x00;
  1529  000606  0E00               	movlw	0
  1530  000608  6F0B               	movwf	11,b	;volatile
  1531                           
  1532                           ;mcc_generated_files/pin_manager.c: 86:     WPUC = 0x00;
  1533  00060A  0E00               	movlw	0
  1534  00060C  6F1B               	movwf	27,b	;volatile
  1535                           
  1536                           ;mcc_generated_files/pin_manager.c: 91:     ODCONA = 0x00;
  1537  00060E  0E00               	movlw	0
  1538  000610  6F0A               	movwf	10,b	;volatile
  1539                           
  1540                           ;mcc_generated_files/pin_manager.c: 92:     ODCONB = 0x00;
  1541  000612  0E00               	movlw	0
  1542  000614  6F12               	movwf	18,b	;volatile
  1543                           
  1544                           ;mcc_generated_files/pin_manager.c: 93:     ODCONC = 0x00;
  1545  000616  0E00               	movlw	0
  1546  000618  6F1A               	movwf	26,b	;volatile
  1547                           
  1548                           ; BSR set to: 15
  1549                           ;mcc_generated_files/pin_manager.c: 98:     SLRCONA = 0xFF;
  1550  00061A  6909               	setf	9,b	;volatile
  1551                           
  1552                           ; BSR set to: 15
  1553                           ;mcc_generated_files/pin_manager.c: 99:     SLRCONB = 0xFF;
  1554  00061C  6911               	setf	17,b	;volatile
  1555                           
  1556                           ; BSR set to: 15
  1557                           ;mcc_generated_files/pin_manager.c: 100:     SLRCONC = 0xFF;
  1558  00061E  6919               	setf	25,b	;volatile
  1559                           
  1560                           ; BSR set to: 15
  1561                           ;mcc_generated_files/pin_manager.c: 107:     IOCCFbits.IOCCF2 = 0;
  1562  000620  9515               	bcf	21,2,b	;volatile
  1563                           
  1564                           ; BSR set to: 15
  1565                           ;mcc_generated_files/pin_manager.c: 109:     IOCCNbits.IOCCN2 = 0;
  1566  000622  9516               	bcf	22,2,b	;volatile
  1567                           
  1568                           ; BSR set to: 15
  1569                           ;mcc_generated_files/pin_manager.c: 111:     IOCCPbits.IOCCP2 = 1;
  1570  000624  8517               	bsf	23,2,b	;volatile
  1571                           
  1572                           ; BSR set to: 15
  1573                           ;mcc_generated_files/pin_manager.c: 116:     IOCCF2_SetInterruptHandler(IOCCF2_DefaultIn
      +                          terruptHandler);
  1574  000626  0E86               	movlw	low _IOCCF2_DefaultInterruptHandler
  1575  000628  0100               	movlb	0	; () banked
  1576  00062A  6F69               	movwf	IOCCF2_SetInterruptHandler@InterruptHandler& (0+255),b
  1577  00062C  0E0A               	movlw	high _IOCCF2_DefaultInterruptHandler
  1578  00062E  6F6A               	movwf	(IOCCF2_SetInterruptHandler@InterruptHandler+1)& (0+255),b
  1579  000630  EC28  F005         	call	_IOCCF2_SetInterruptHandler	;wreg free
  1580                           
  1581                           ;mcc_generated_files/pin_manager.c: 119:     PIE0bits.IOCIE = 1;
  1582  000634  010E               	movlb	14	; () banked
  1583  000636  89BD               	bsf	189,4,b	;volatile
  1584                           
  1585                           ; BSR set to: 14
  1586                           ;mcc_generated_files/pin_manager.c: 122:     CCP1PPS = 0x12;
  1587  000638  0E12               	movlw	18
  1588  00063A  6FAA               	movwf	170,b	;volatile
  1589                           
  1590                           ; BSR set to: 14
  1591  00063C  0012               	return		;funcret
  1592  00063E                     __end_of_PIN_MANAGER_Initialize:
  1593                           	opt callstack 0
  1594                           
  1595 ;; *************** function _IOCCF2_SetInterruptHandler *****************
  1596 ;; Defined at:
  1597 ;;		line 152 in file "mcc_generated_files/pin_manager.c"
  1598 ;; Parameters:    Size  Location     Type
  1599 ;;  InterruptHan    2    0[BANK0 ] PTR FTN()void 
  1600 ;;		 -> ping_RC2_went_HIGH(1), IOCCF2_DefaultInterruptHandler(1), 
  1601 ;; Auto vars:     Size  Location     Type
  1602 ;;		None
  1603 ;; Return value:  Size  Location     Type
  1604 ;;                  1    wreg      void 
  1605 ;; Registers used:
  1606 ;;		wreg, status,2, status,0
  1607 ;; Tracked objects:
  1608 ;;		On entry : 0/0
  1609 ;;		On exit  : 0/0
  1610 ;;		Unchanged: 0/0
  1611 ;; Data sizes:     COMRAM   BANK0   BANK1   BANK2   BANK3   BANK4   BANK5   BANK6   BANK7
  1612 ;;      Params:         0       2       0       0       0       0       0       0       0
  1613 ;;      Locals:         0       0       0       0       0       0       0       0       0
  1614 ;;      Temps:          0       0       0       0       0       0       0       0       0
  1615 ;;      Totals:         0       2       0       0       0       0       0       0       0
  1616 ;;Total ram usage:        2 bytes
  1617 ;; Hardware stack levels used:    1
  1618 ;; Hardware stack levels required when called:    5
  1619 ;; This function calls:
  1620 ;;		Nothing
  1621 ;; This function is called by:
  1622 ;;		_PIN_MANAGER_Initialize
  1623 ;;		_ping_init
  1624 ;; This function uses a non-reentrant model
  1625 ;;
  1626                           
  1627                           	psect	text15
  1628  000A50                     __ptext15:
  1629                           	opt callstack 0
  1630  000A50                     _IOCCF2_SetInterruptHandler:
  1631                           	opt callstack 23
  1632                           
  1633                           ;mcc_generated_files/pin_manager.c: 153:     IOCCF2_InterruptHandler = InterruptHandler;
  1634                           
  1635                           ; BSR set to: 14
  1636                           ;incstack = 0
  1637  000A50  C069  F036         	movff	IOCCF2_SetInterruptHandler@InterruptHandler,_IOCCF2_InterruptHandler
  1638  000A54  C06A  F037         	movff	IOCCF2_SetInterruptHandler@InterruptHandler+1,_IOCCF2_InterruptHandler+1
  1639  000A58  0012               	return		;funcret
  1640  000A5A                     __end_of_IOCCF2_SetInterruptHandler:
  1641                           	opt callstack 0
  1642                           
  1643 ;; *************** function _OSCILLATOR_Initialize *****************
  1644 ;; Defined at:
  1645 ;;		line 61 in file "mcc_generated_files/mcc.c"
  1646 ;; Parameters:    Size  Location     Type
  1647 ;;		None
  1648 ;; Auto vars:     Size  Location     Type
  1649 ;;		None
  1650 ;; Return value:  Size  Location     Type
  1651 ;;                  1    wreg      void 
  1652 ;; Registers used:
  1653 ;;		wreg, status,2
  1654 ;; Tracked objects:
  1655 ;;		On entry : 0/0
  1656 ;;		On exit  : 0/0
  1657 ;;		Unchanged: 0/0
  1658 ;; Data sizes:     COMRAM   BANK0   BANK1   BANK2   BANK3   BANK4   BANK5   BANK6   BANK7
  1659 ;;      Params:         0       0       0       0       0       0       0       0       0
  1660 ;;      Locals:         0       0       0       0       0       0       0       0       0
  1661 ;;      Temps:          0       0       0       0       0       0       0       0       0
  1662 ;;      Totals:         0       0       0       0       0       0       0       0       0
  1663 ;;Total ram usage:        0 bytes
  1664 ;; Hardware stack levels used:    1
  1665 ;; Hardware stack levels required when called:    5
  1666 ;; This function calls:
  1667 ;;		Nothing
  1668 ;; This function is called by:
  1669 ;;		_SYSTEM_Initialize
  1670 ;; This function uses a non-reentrant model
  1671 ;;
  1672                           
  1673                           	psect	text16
  1674  000A02                     __ptext16:
  1675                           	opt callstack 0
  1676  000A02                     _OSCILLATOR_Initialize:
  1677                           	opt callstack 24
  1678                           
  1679                           ;mcc_generated_files/mcc.c: 64:     OSCCON1 = 0x60;
  1680                           
  1681                           ;incstack = 0
  1682  000A02  0E60               	movlw	96
  1683  000A04  010E               	movlb	14	; () banked
  1684  000A06  6FD3               	movwf	211,b	;volatile
  1685                           
  1686                           ;mcc_generated_files/mcc.c: 66:     OSCCON3 = 0x00;
  1687  000A08  0E00               	movlw	0
  1688  000A0A  6FD5               	movwf	213,b	;volatile
  1689                           
  1690                           ;mcc_generated_files/mcc.c: 68:     OSCEN = 0x00;
  1691  000A0C  0E00               	movlw	0
  1692  000A0E  6FD7               	movwf	215,b	;volatile
  1693                           
  1694                           ;mcc_generated_files/mcc.c: 70:     OSCFRQ = 0x08;
  1695  000A10  0E08               	movlw	8
  1696  000A12  6FD9               	movwf	217,b	;volatile
  1697                           
  1698                           ;mcc_generated_files/mcc.c: 72:     OSCTUNE = 0x00;
  1699  000A14  0E00               	movlw	0
  1700  000A16  6FD8               	movwf	216,b	;volatile
  1701                           
  1702                           ; BSR set to: 14
  1703  000A18  0012               	return		;funcret
  1704  000A1A                     __end_of_OSCILLATOR_Initialize:
  1705                           	opt callstack 0
  1706                           
  1707 ;; *************** function _INTERRUPT_Initialize *****************
  1708 ;; Defined at:
  1709 ;;		line 52 in file "mcc_generated_files/interrupt_manager.c"
  1710 ;; Parameters:    Size  Location     Type
  1711 ;;		None
  1712 ;; Auto vars:     Size  Location     Type
  1713 ;;		None
  1714 ;; Return value:  Size  Location     Type
  1715 ;;                  1    wreg      void 
  1716 ;; Registers used:
  1717 ;;		None
  1718 ;; Tracked objects:
  1719 ;;		On entry : 0/0
  1720 ;;		On exit  : 0/0
  1721 ;;		Unchanged: 0/0
  1722 ;; Data sizes:     COMRAM   BANK0   BANK1   BANK2   BANK3   BANK4   BANK5   BANK6   BANK7
  1723 ;;      Params:         0       0       0       0       0       0       0       0       0
  1724 ;;      Locals:         0       0       0       0       0       0       0       0       0
  1725 ;;      Temps:          0       0       0       0       0       0       0       0       0
  1726 ;;      Totals:         0       0       0       0       0       0       0       0       0
  1727 ;;Total ram usage:        0 bytes
  1728 ;; Hardware stack levels used:    1
  1729 ;; Hardware stack levels required when called:    5
  1730 ;; This function calls:
  1731 ;;		Nothing
  1732 ;; This function is called by:
  1733 ;;		_SYSTEM_Initialize
  1734 ;; This function uses a non-reentrant model
  1735 ;;
  1736                           
  1737                           	psect	text17
  1738  000A72                     __ptext17:
  1739                           	opt callstack 0
  1740  000A72                     _INTERRUPT_Initialize:
  1741                           	opt callstack 24
  1742                           
  1743                           ;mcc_generated_files/interrupt_manager.c: 55:     INTCONbits.IPEN = 0;
  1744                           
  1745                           ; BSR set to: 14
  1746                           ;incstack = 0
  1747  000A72  9AF2               	bcf	4082,5,c	;volatile
  1748  000A74  0012               	return		;funcret
  1749  000A76                     __end_of_INTERRUPT_Initialize:
  1750                           	opt callstack 0
  1751                           
  1752 ;; *************** function _CCP1_Initialize *****************
  1753 ;; Defined at:
  1754 ;;		line 65 in file "mcc_generated_files/ccp1.c"
  1755 ;; Parameters:    Size  Location     Type
  1756 ;;		None
  1757 ;; Auto vars:     Size  Location     Type
  1758 ;;		None
  1759 ;; Return value:  Size  Location     Type
  1760 ;;                  1    wreg      void 
  1761 ;; Registers used:
  1762 ;;		wreg, status,2, status,0, cstack
  1763 ;; Tracked objects:
  1764 ;;		On entry : 0/0
  1765 ;;		On exit  : 0/0
  1766 ;;		Unchanged: 0/0
  1767 ;; Data sizes:     COMRAM   BANK0   BANK1   BANK2   BANK3   BANK4   BANK5   BANK6   BANK7
  1768 ;;      Params:         0       0       0       0       0       0       0       0       0
  1769 ;;      Locals:         0       0       0       0       0       0       0       0       0
  1770 ;;      Temps:          0       0       0       0       0       0       0       0       0
  1771 ;;      Totals:         0       0       0       0       0       0       0       0       0
  1772 ;;Total ram usage:        0 bytes
  1773 ;; Hardware stack levels used:    1
  1774 ;; Hardware stack levels required when called:    6
  1775 ;; This function calls:
  1776 ;;		_CCP1_SetCallBack
  1777 ;; This function is called by:
  1778 ;;		_SYSTEM_Initialize
  1779 ;; This function uses a non-reentrant model
  1780 ;;
  1781                           
  1782                           	psect	text18
  1783  00087E                     __ptext18:
  1784                           	opt callstack 0
  1785  00087E                     _CCP1_Initialize:
  1786                           	opt callstack 23
  1787                           
  1788                           ;mcc_generated_files/ccp1.c: 70:  CCP1CON = 0x84;
  1789                           
  1790                           ;incstack = 0
  1791  00087E  0E84               	movlw	132
  1792  000880  6EAB               	movwf	4011,c	;volatile
  1793                           
  1794                           ;mcc_generated_files/ccp1.c: 73:  CCP1CAP = 0x00;
  1795  000882  0E00               	movlw	0
  1796  000884  6EAC               	movwf	4012,c	;volatile
  1797                           
  1798                           ;mcc_generated_files/ccp1.c: 76:  CCPR1H = 0x00;
  1799  000886  0E00               	movlw	0
  1800  000888  6EAA               	movwf	4010,c	;volatile
  1801                           
  1802                           ;mcc_generated_files/ccp1.c: 79:  CCPR1L = 0x00;
  1803  00088A  0E00               	movlw	0
  1804  00088C  6EA9               	movwf	4009,c	;volatile
  1805                           
  1806                           ;mcc_generated_files/ccp1.c: 82:     CCP1_SetCallBack(CCP1_DefaultCallBack);
  1807  00088E  0E88               	movlw	low _CCP1_DefaultCallBack
  1808  000890  0100               	movlb	0	; () banked
  1809  000892  6F69               	movwf	CCP1_SetCallBack@customCallBack& (0+255),b
  1810  000894  0E0A               	movlw	high _CCP1_DefaultCallBack
  1811  000896  6F6A               	movwf	(CCP1_SetCallBack@customCallBack+1)& (0+255),b
  1812  000898  EC2D  F005         	call	_CCP1_SetCallBack	;wreg free
  1813                           
  1814                           ;mcc_generated_files/ccp1.c: 85:  CCPTMRSbits.C1TSEL = 0x1;
  1815  00089C  50AD               	movf	4013,w,c	;volatile
  1816  00089E  0BFC               	andlw	-4
  1817  0008A0  0901               	iorlw	1
  1818  0008A2  6EAD               	movwf	4013,c	;volatile
  1819                           
  1820                           ;mcc_generated_files/ccp1.c: 88:     PIR6bits.CCP1IF = 0;
  1821  0008A4  010E               	movlb	14	; () banked
  1822  0008A6  91CB               	bcf	203,0,b	;volatile
  1823                           
  1824                           ; BSR set to: 14
  1825                           ;mcc_generated_files/ccp1.c: 91:     PIE6bits.CCP1IE = 1;
  1826  0008A8  81C3               	bsf	195,0,b	;volatile
  1827                           
  1828                           ; BSR set to: 14
  1829  0008AA  0012               	return		;funcret
  1830  0008AC                     __end_of_CCP1_Initialize:
  1831                           	opt callstack 0
  1832                           
  1833 ;; *************** function _CCP1_SetCallBack *****************
  1834 ;; Defined at:
  1835 ;;		line 109 in file "mcc_generated_files/ccp1.c"
  1836 ;; Parameters:    Size  Location     Type
  1837 ;;  customCallBa    2    0[BANK0 ] PTR FTN(unsigned short ,
  1838 ;;		 -> ping_CCP1_triggered(1), CCP1_DefaultCallBack(1), 
  1839 ;; Auto vars:     Size  Location     Type
  1840 ;;		None
  1841 ;; Return value:  Size  Location     Type
  1842 ;;                  1    wreg      void 
  1843 ;; Registers used:
  1844 ;;		wreg, status,2, status,0
  1845 ;; Tracked objects:
  1846 ;;		On entry : 0/0
  1847 ;;		On exit  : 0/0
  1848 ;;		Unchanged: 0/0
  1849 ;; Data sizes:     COMRAM   BANK0   BANK1   BANK2   BANK3   BANK4   BANK5   BANK6   BANK7
  1850 ;;      Params:         0       2       0       0       0       0       0       0       0
  1851 ;;      Locals:         0       0       0       0       0       0       0       0       0
  1852 ;;      Temps:          0       0       0       0       0       0       0       0       0
  1853 ;;      Totals:         0       2       0       0       0       0       0       0       0
  1854 ;;Total ram usage:        2 bytes
  1855 ;; Hardware stack levels used:    1
  1856 ;; Hardware stack levels required when called:    5
  1857 ;; This function calls:
  1858 ;;		Nothing
  1859 ;; This function is called by:
  1860 ;;		_CCP1_Initialize
  1861 ;;		_ping_init
  1862 ;; This function uses a non-reentrant model
  1863 ;;
  1864                           
  1865                           	psect	text19
  1866  000A5A                     __ptext19:
  1867                           	opt callstack 0
  1868  000A5A                     _CCP1_SetCallBack:
  1869                           	opt callstack 23
  1870                           
  1871                           ;mcc_generated_files/ccp1.c: 110:     CCP1_CallBack = customCallBack;
  1872                           
  1873                           ; BSR set to: 14
  1874                           ;incstack = 0
  1875  000A5A  C069  F034         	movff	CCP1_SetCallBack@customCallBack,_CCP1_CallBack
  1876  000A5E  C06A  F035         	movff	CCP1_SetCallBack@customCallBack+1,_CCP1_CallBack+1
  1877  000A62  0012               	return		;funcret
  1878  000A64                     __end_of_CCP1_SetCallBack:
  1879                           	opt callstack 0
  1880                           
  1881 ;; *************** function _INTERRUPT_InterruptManager *****************
  1882 ;; Defined at:
  1883 ;;		line 58 in file "mcc_generated_files/interrupt_manager.c"
  1884 ;; Parameters:    Size  Location     Type
  1885 ;;		None
  1886 ;; Auto vars:     Size  Location     Type
  1887 ;;		None
  1888 ;; Return value:  Size  Location     Type
  1889 ;;                  1    wreg      void 
  1890 ;; Registers used:
  1891 ;;		wreg, status,2, status,0, pclath, tosl, prodl, prodh, cstack
  1892 ;; Tracked objects:
  1893 ;;		On entry : 0/0
  1894 ;;		On exit  : 0/0
  1895 ;;		Unchanged: 0/0
  1896 ;; Data sizes:     COMRAM   BANK0   BANK1   BANK2   BANK3   BANK4   BANK5   BANK6   BANK7
  1897 ;;      Params:         0       0       0       0       0       0       0       0       0
  1898 ;;      Locals:         0       0       0       0       0       0       0       0       0
  1899 ;;      Temps:          4       0       0       0       0       0       0       0       0
  1900 ;;      Totals:         4       0       0       0       0       0       0       0       0
  1901 ;;Total ram usage:        4 bytes
  1902 ;; Hardware stack levels used:    1
  1903 ;; Hardware stack levels required when called:    4
  1904 ;; This function calls:
  1905 ;;		_CCP1_CaptureISR
  1906 ;;		_PIN_MANAGER_IOC
  1907 ;;		_TMR1_ISR
  1908 ;;		_TMR2_ISR
  1909 ;; This function is called by:
  1910 ;;		Interrupt level 2
  1911 ;; This function uses a non-reentrant model
  1912 ;;
  1913                           
  1914                           	psect	intcode
  1915  000008                     __pintcode:
  1916                           	opt callstack 0
  1917  000008                     _INTERRUPT_InterruptManager:
  1918                           	opt callstack 23
  1919                           
  1920                           ;incstack = 0
  1921  000008  8242               	bsf	btemp,1,c	;set compiler interrupt flag (level 2)
  1922  00000A  CFFA F02C          	movff	pclath,??_INTERRUPT_InterruptManager
  1923  00000E  CFFB F02D          	movff	pclatu,??_INTERRUPT_InterruptManager+1
  1924  000012  CFF3 F02E          	movff	prodl,??_INTERRUPT_InterruptManager+2
  1925  000016  CFF4 F02F          	movff	prodh,??_INTERRUPT_InterruptManager+3
  1926                           
  1927                           ;mcc_generated_files/interrupt_manager.c: 61:     if(PIE0bits.IOCIE == 1 && PIR0bits.IOC
      +                          IF == 1)
  1928  00001A  010E               	movlb	14	; () banked
  1929  00001C  B9BD               	btfsc	189,4,b	;volatile
  1930                           
  1931                           ; BSR set to: 14
  1932  00001E  A9C5               	btfss	197,4,b	;volatile
  1933  000020  D003               	goto	i2l229
  1934                           
  1935                           ; BSR set to: 14
  1936                           ;mcc_generated_files/interrupt_manager.c: 62:     {;mcc_generated_files/interrupt_manage
      +                          r.c: 63:         PIN_MANAGER_IOC();
  1937  000022  EC18  F005         	call	_PIN_MANAGER_IOC	;wreg free
  1938                           
  1939                           ;mcc_generated_files/interrupt_manager.c: 64:     }
  1940  000026  D013               	goto	i2l231
  1941  000028                     i2l229:
  1942                           
  1943                           ; BSR set to: 14
  1944  000028  ACF2               	btfss	4082,6,c	;volatile
  1945  00002A  D011               	goto	i2l231
  1946                           
  1947                           ; BSR set to: 14
  1948                           ;mcc_generated_files/interrupt_manager.c: 66:     {;mcc_generated_files/interrupt_manage
      +                          r.c: 67:         if(PIE6bits.CCP1IE == 1 && PIR6bits.CCP1IF == 1)
  1949  00002C  B1C3               	btfsc	195,0,b	;volatile
  1950                           
  1951                           ; BSR set to: 14
  1952  00002E  A1CB               	btfss	203,0,b	;volatile
  1953  000030  D003               	goto	i2l232
  1954                           
  1955                           ; BSR set to: 14
  1956                           ;mcc_generated_files/interrupt_manager.c: 68:         {;mcc_generated_files/interrupt_ma
      +                          nager.c: 69:             CCP1_CaptureISR();
  1957  000032  EC56  F004         	call	_CCP1_CaptureISR	;wreg free
  1958                           
  1959                           ;mcc_generated_files/interrupt_manager.c: 70:         }
  1960  000036  D00B               	goto	i2l231
  1961  000038                     i2l232:
  1962                           
  1963                           ; BSR set to: 14
  1964  000038  B1C1               	btfsc	193,0,b	;volatile
  1965                           
  1966                           ; BSR set to: 14
  1967  00003A  A1C9               	btfss	201,0,b	;volatile
  1968  00003C  D003               	goto	i2l234
  1969                           
  1970                           ; BSR set to: 14
  1971                           ;mcc_generated_files/interrupt_manager.c: 72:         {;mcc_generated_files/interrupt_ma
      +                          nager.c: 73:             TMR1_ISR();
  1972  00003E  EC10  F004         	call	_TMR1_ISR	;wreg free
  1973                           
  1974                           ;mcc_generated_files/interrupt_manager.c: 74:         }
  1975  000042  D005               	goto	i2l231
  1976  000044                     i2l234:
  1977                           
  1978                           ; BSR set to: 14
  1979  000044  B3C1               	btfsc	193,1,b	;volatile
  1980                           
  1981                           ; BSR set to: 14
  1982  000046  A3C9               	btfss	201,1,b	;volatile
  1983  000048  D002               	goto	i2l231
  1984                           
  1985                           ; BSR set to: 14
  1986                           ;mcc_generated_files/interrupt_manager.c: 76:         {;mcc_generated_files/interrupt_ma
      +                          nager.c: 77:             TMR2_ISR();
  1987  00004A  EC81  F004         	call	_TMR2_ISR	;wreg free
  1988  00004E                     i2l231:
  1989                           
  1990                           ; BSR set to: 14
  1991  00004E  C02F  FFF4         	movff	??_INTERRUPT_InterruptManager+3,prodh
  1992  000052  C02E  FFF3         	movff	??_INTERRUPT_InterruptManager+2,prodl
  1993  000056  C02D  FFFB         	movff	??_INTERRUPT_InterruptManager+1,pclatu
  1994  00005A  C02C  FFFA         	movff	??_INTERRUPT_InterruptManager,pclath
  1995  00005E  9242               	bcf	btemp,1,c	;clear compiler interrupt flag (level 2)
  1996  000060  0011               	retfie		f
  1997  000062                     __end_of_INTERRUPT_InterruptManager:
  1998                           	opt callstack 0
  1999                           
  2000 ;; *************** function _TMR2_ISR *****************
  2001 ;; Defined at:
  2002 ;;		line 165 in file "mcc_generated_files/tmr2.c"
  2003 ;; Parameters:    Size  Location     Type
  2004 ;;		None
  2005 ;; Auto vars:     Size  Location     Type
  2006 ;;		None
  2007 ;; Return value:  Size  Location     Type
  2008 ;;                  1    wreg      void 
  2009 ;; Registers used:
  2010 ;;		wreg, status,2, status,0, pclath, tosl, cstack
  2011 ;; Tracked objects:
  2012 ;;		On entry : 0/0
  2013 ;;		On exit  : 0/0
  2014 ;;		Unchanged: 0/0
  2015 ;; Data sizes:     COMRAM   BANK0   BANK1   BANK2   BANK3   BANK4   BANK5   BANK6   BANK7
  2016 ;;      Params:         0       0       0       0       0       0       0       0       0
  2017 ;;      Locals:         0       0       0       0       0       0       0       0       0
  2018 ;;      Temps:          0       0       0       0       0       0       0       0       0
  2019 ;;      Totals:         0       0       0       0       0       0       0       0       0
  2020 ;;Total ram usage:        0 bytes
  2021 ;; Hardware stack levels used:    1
  2022 ;; Hardware stack levels required when called:    1
  2023 ;; This function calls:
  2024 ;;		Absolute function
  2025 ;;		_TMR2_DefaultInterruptHandler
  2026 ;;		_carcontrol_ISR
  2027 ;; This function is called by:
  2028 ;;		_INTERRUPT_InterruptManager
  2029 ;; This function uses a non-reentrant model
  2030 ;;
  2031                           
  2032                           	psect	text21
  2033  000902                     __ptext21:
  2034                           	opt callstack 0
  2035  000902                     _TMR2_ISR:
  2036                           	opt callstack 25
  2037                           
  2038                           ;mcc_generated_files/tmr2.c: 169:     PIR4bits.TMR2IF = 0;
  2039                           
  2040                           ;incstack = 0
  2041  000902  010E               	movlb	14	; () banked
  2042  000904  93C9               	bcf	201,1,b	;volatile
  2043                           
  2044                           ; BSR set to: 14
  2045                           ;mcc_generated_files/tmr2.c: 171:     if(TMR2_InterruptHandler)
  2046  000906  0100               	movlb	0	; () banked
  2047  000908  516F               	movf	_TMR2_InterruptHandler& (0+255),w,b
  2048  00090A  1170               	iorwf	(_TMR2_InterruptHandler+1)& (0+255),w,b
  2049  00090C  B4D8               	btfsc	status,2,c
  2050  00090E  0012               	return	
  2051                           
  2052                           ; BSR set to: 0
  2053                           ;mcc_generated_files/tmr2.c: 172:     {;mcc_generated_files/tmr2.c: 173:         TMR2_In
      +                          terruptHandler();
  2054  000910  D801               	call	i2u104_48
  2055  000912  0012               	return	
  2056  000914                     i2u104_48:
  2057  000914  0005               	push	
  2058  000916  6EFA               	movwf	pclath,c
  2059  000918  516F               	movf	_TMR2_InterruptHandler& (0+255),w,b
  2060  00091A  6EFD               	movwf	tosl,c
  2061  00091C  5170               	movf	(_TMR2_InterruptHandler+1)& (0+255),w,b
  2062  00091E  6EFE               	movwf	tosh,c
  2063  000920  50F8               	movf	tblptru,w,c
  2064  000922  6EFF               	movwf	tosu,c
  2065  000924  50FA               	movf	pclath,w,c
  2066  000926  0012               	return		;indir
  2067  000928                     __end_of_TMR2_ISR:
  2068                           	opt callstack 0
  2069                           
  2070 ;; *************** function _TMR2_DefaultInterruptHandler *****************
  2071 ;; Defined at:
  2072 ;;		line 182 in file "mcc_generated_files/tmr2.c"
  2073 ;; Parameters:    Size  Location     Type
  2074 ;;		None
  2075 ;; Auto vars:     Size  Location     Type
  2076 ;;		None
  2077 ;; Return value:  Size  Location     Type
  2078 ;;                  1    wreg      void 
  2079 ;; Registers used:
  2080 ;;		None
  2081 ;; Tracked objects:
  2082 ;;		On entry : 0/0
  2083 ;;		On exit  : 0/0
  2084 ;;		Unchanged: 0/0
  2085 ;; Data sizes:     COMRAM   BANK0   BANK1   BANK2   BANK3   BANK4   BANK5   BANK6   BANK7
  2086 ;;      Params:         0       0       0       0       0       0       0       0       0
  2087 ;;      Locals:         0       0       0       0       0       0       0       0       0
  2088 ;;      Temps:          0       0       0       0       0       0       0       0       0
  2089 ;;      Totals:         0       0       0       0       0       0       0       0       0
  2090 ;;Total ram usage:        0 bytes
  2091 ;; Hardware stack levels used:    1
  2092 ;; This function calls:
  2093 ;;		Nothing
  2094 ;; This function is called by:
  2095 ;;		_TMR2_Initialize
  2096 ;;		_TMR2_ISR
  2097 ;; This function uses a non-reentrant model
  2098 ;;
  2099                           
  2100                           	psect	text22
  2101  000A82                     __ptext22:
  2102                           	opt callstack 0
  2103  000A82                     _TMR2_DefaultInterruptHandler:
  2104                           	opt callstack 25
  2105                           
  2106                           ;incstack = 0
  2107  000A82  0012               	return		;funcret
  2108  000A84                     __end_of_TMR2_DefaultInterruptHandler:
  2109                           	opt callstack 0
  2110                           
  2111 ;; *************** function _carcontrol_ISR *****************
  2112 ;; Defined at:
  2113 ;;		line 41 in file "car_ctrl.c"
  2114 ;; Parameters:    Size  Location     Type
  2115 ;;		None
  2116 ;; Auto vars:     Size  Location     Type
  2117 ;;		None
  2118 ;; Return value:  Size  Location     Type
  2119 ;;                  1    wreg      void 
  2120 ;; Registers used:
  2121 ;;		wreg, status,2, status,0
  2122 ;; Tracked objects:
  2123 ;;		On entry : 0/0
  2124 ;;		On exit  : 0/0
  2125 ;;		Unchanged: 0/0
  2126 ;; Data sizes:     COMRAM   BANK0   BANK1   BANK2   BANK3   BANK4   BANK5   BANK6   BANK7
  2127 ;;      Params:         0       0       0       0       0       0       0       0       0
  2128 ;;      Locals:         0       0       0       0       0       0       0       0       0
  2129 ;;      Temps:          3       0       0       0       0       0       0       0       0
  2130 ;;      Totals:         3       0       0       0       0       0       0       0       0
  2131 ;;Total ram usage:        3 bytes
  2132 ;; Hardware stack levels used:    1
  2133 ;; This function calls:
  2134 ;;		Nothing
  2135 ;; This function is called by:
  2136 ;;		_carcontrol_init
  2137 ;;		_TMR2_ISR
  2138 ;; This function uses a non-reentrant model
  2139 ;;
  2140                           
  2141                           	psect	text23
  2142  0004F8                     __ptext23:
  2143                           	opt callstack 0
  2144  0004F8                     _carcontrol_ISR:
  2145                           	opt callstack 25
  2146                           
  2147                           ;car_ctrl.c: 43:     switch (carctl.state) {
  2148                           
  2149                           ;incstack = 0
  2150  0004F8  D05C               	goto	i2l2064
  2151  0004FA                     i2l2022:
  2152                           
  2153                           ; BSR set to: 0
  2154                           ;car_ctrl.c: 46:             carctl.state = state_high;
  2155  0004FA  0E01               	movlw	1
  2156  0004FC  6F61               	movwf	(_carctl+1)& (0+255),b	;volatile
  2157                           
  2158                           ; BSR set to: 0
  2159  0004FE  8082               	bsf	3970,0,c	;volatile
  2160                           
  2161                           ; BSR set to: 0
  2162  000500  8282               	bsf	3970,1,c	;volatile
  2163                           
  2164                           ; BSR set to: 0
  2165                           ;car_ctrl.c: 49:             stateTime = 0;
  2166  000502  0E00               	movlw	0
  2167  000504  6F67               	movwf	(_stateTime+1)& (0+255),b
  2168  000506  0E00               	movlw	0
  2169  000508  6F66               	movwf	_stateTime& (0+255),b
  2170                           
  2171                           ;car_ctrl.c: 50:         break;
  2172  00050A  0012               	return	
  2173  00050C                     i2l2028:
  2174                           
  2175                           ; BSR set to: 0
  2176                           ;car_ctrl.c: 52:             stateTime++;
  2177  00050C  4B66               	infsnz	_stateTime& (0+255),f,b
  2178  00050E  2B67               	incf	(_stateTime+1)& (0+255),f,b
  2179                           
  2180                           ; BSR set to: 0
  2181  000510  8082               	bsf	3970,0,c	;volatile
  2182                           
  2183                           ; BSR set to: 0
  2184  000512  8282               	bsf	3970,1,c	;volatile
  2185                           
  2186                           ; BSR set to: 0
  2187                           ;car_ctrl.c: 55:             if (stateTime >= 100) {
  2188  000514  BF67               	btfsc	(_stateTime+1)& (0+255),7,b
  2189  000516  0012               	return	
  2190  000518  5167               	movf	(_stateTime+1)& (0+255),w,b
  2191  00051A  E104               	bnz	i2u95_40
  2192  00051C  0E64               	movlw	100
  2193  00051E  5D66               	subwf	_stateTime& (0+255),w,b
  2194  000520  A0D8               	btfss	status,0,c
  2195  000522  0012               	return	
  2196  000524                     i2u95_40:
  2197                           
  2198                           ; BSR set to: 0
  2199                           ;car_ctrl.c: 57:                 carctl.state = state_vary;
  2200  000524  0E02               	movlw	2
  2201  000526  6F61               	movwf	(_carctl+1)& (0+255),b	;volatile
  2202                           
  2203                           ;car_ctrl.c: 58:                 stateTime = 0;
  2204  000528  0E00               	movlw	0
  2205  00052A  6F67               	movwf	(_stateTime+1)& (0+255),b
  2206  00052C  0E00               	movlw	0
  2207  00052E  6F66               	movwf	_stateTime& (0+255),b
  2208  000530  0012               	return	
  2209  000532                     i2l2038:
  2210                           
  2211                           ; BSR set to: 0
  2212                           ;car_ctrl.c: 62:             stateTime++;
  2213  000532  4B66               	infsnz	_stateTime& (0+255),f,b
  2214  000534  2B67               	incf	(_stateTime+1)& (0+255),f,b
  2215                           
  2216                           ; BSR set to: 0
  2217                           ;car_ctrl.c: 63:             if (stateTime > carctl.throttleHighTime) {
  2218  000536  5164               	movf	(_carctl+4)& (0+255),w,b	;volatile
  2219  000538  6E01               	movwf	??_carcontrol_ISR& (0+255),c
  2220  00053A  6A02               	clrf	(??_carcontrol_ISR+1)& (0+255),c
  2221  00053C  5166               	movf	_stateTime& (0+255),w,b
  2222  00053E  5C01               	subwf	??_carcontrol_ISR,w,c
  2223  000540  5002               	movf	??_carcontrol_ISR+1,w,c
  2224  000542  0A80               	xorlw	128
  2225  000544  6E03               	movwf	(??_carcontrol_ISR+2)& (0+255),c
  2226  000546  5167               	movf	(_stateTime+1)& (0+255),w,b
  2227  000548  0A80               	xorlw	128
  2228  00054A  5803               	subwfb	(??_carcontrol_ISR+2)& (0+255),w,c
  2229  00054C  A0D8               	btfss	status,0,c
  2230                           
  2231                           ; BSR set to: 0
  2232                           
  2233                           ;car_ctrl.c: 64:                 do { LATAbits.LATA0 = 0; } while(0);
  2234  00054E  9082               	bcf	3970,0,c	;volatile
  2235                           
  2236                           ; BSR set to: 0
  2237                           ;car_ctrl.c: 66:             if (stateTime > carctl.servoHighTime) {
  2238  000550  5165               	movf	(_carctl+5)& (0+255),w,b	;volatile
  2239  000552  6E01               	movwf	??_carcontrol_ISR& (0+255),c
  2240  000554  6A02               	clrf	(??_carcontrol_ISR+1)& (0+255),c
  2241  000556  5166               	movf	_stateTime& (0+255),w,b
  2242  000558  5C01               	subwf	??_carcontrol_ISR,w,c
  2243  00055A  5002               	movf	??_carcontrol_ISR+1,w,c
  2244  00055C  0A80               	xorlw	128
  2245  00055E  6E03               	movwf	(??_carcontrol_ISR+2)& (0+255),c
  2246  000560  5167               	movf	(_stateTime+1)& (0+255),w,b
  2247  000562  0A80               	xorlw	128
  2248  000564  5803               	subwfb	(??_carcontrol_ISR+2)& (0+255),w,c
  2249  000566  A0D8               	btfss	status,0,c
  2250                           
  2251                           ; BSR set to: 0
  2252                           
  2253                           ;car_ctrl.c: 67:                 do { LATAbits.LATA1 = 0; } while(0);
  2254  000568  9282               	bcf	3970,1,c	;volatile
  2255                           
  2256                           ; BSR set to: 0
  2257                           ;car_ctrl.c: 69:             if (stateTime >= 100) {
  2258  00056A  BF67               	btfsc	(_stateTime+1)& (0+255),7,b
  2259  00056C  0012               	return	
  2260  00056E  5167               	movf	(_stateTime+1)& (0+255),w,b
  2261  000570  E104               	bnz	i2u98_40
  2262  000572  0E64               	movlw	100
  2263  000574  5D66               	subwf	_stateTime& (0+255),w,b
  2264  000576  A0D8               	btfss	status,0,c
  2265  000578  0012               	return	
  2266  00057A                     i2u98_40:
  2267                           
  2268                           ; BSR set to: 0
  2269                           ;car_ctrl.c: 70:                 carctl.state = state_low;
  2270  00057A  0E03               	movlw	3
  2271  00057C  6F61               	movwf	(_carctl+1)& (0+255),b	;volatile
  2272                           
  2273                           ;car_ctrl.c: 71:                 stateTime = 0;
  2274  00057E  0E00               	movlw	0
  2275  000580  6F67               	movwf	(_stateTime+1)& (0+255),b
  2276  000582  0E00               	movlw	0
  2277  000584  6F66               	movwf	_stateTime& (0+255),b
  2278  000586  0012               	return	
  2279  000588                     i2l2048:
  2280                           
  2281                           ; BSR set to: 0
  2282                           ;car_ctrl.c: 75:             stateTime++;
  2283  000588  4B66               	infsnz	_stateTime& (0+255),f,b
  2284  00058A  2B67               	incf	(_stateTime+1)& (0+255),f,b
  2285                           
  2286                           ; BSR set to: 0
  2287  00058C  9082               	bcf	3970,0,c	;volatile
  2288                           
  2289                           ; BSR set to: 0
  2290  00058E  9282               	bcf	3970,1,c	;volatile
  2291                           
  2292                           ; BSR set to: 0
  2293                           ;car_ctrl.c: 78:             if (stateTime >= 1800) {
  2294  000590  BF67               	btfsc	(_stateTime+1)& (0+255),7,b
  2295  000592  0012               	return	
  2296  000594  0E08               	movlw	8
  2297  000596  5D66               	subwf	_stateTime& (0+255),w,b
  2298  000598  0E07               	movlw	7
  2299  00059A  5967               	subwfb	(_stateTime+1)& (0+255),w,b
  2300  00059C  A0D8               	btfss	status,0,c
  2301  00059E  0012               	return	
  2302                           
  2303                           ; BSR set to: 0
  2304                           ;car_ctrl.c: 79:                 carctl.state = state_high;
  2305  0005A0  0E01               	movlw	1
  2306  0005A2  6F61               	movwf	(_carctl+1)& (0+255),b	;volatile
  2307                           
  2308                           ;car_ctrl.c: 80:                 stateTime = 0;
  2309  0005A4  0E00               	movlw	0
  2310  0005A6  6F67               	movwf	(_stateTime+1)& (0+255),b
  2311  0005A8  0E00               	movlw	0
  2312  0005AA  6F66               	movwf	_stateTime& (0+255),b
  2313                           
  2314                           ; BSR set to: 0
  2315  0005AC  8082               	bsf	3970,0,c	;volatile
  2316                           
  2317                           ; BSR set to: 0
  2318  0005AE  9282               	bcf	3970,1,c	;volatile
  2319  0005B0  0012               	return	
  2320  0005B2                     i2l2064:
  2321  0005B2  0100               	movlb	0	; () banked
  2322  0005B4  5161               	movf	(_carctl+1)& (0+255),w,b	;volatile
  2323  0005B6  6E01               	movwf	??_carcontrol_ISR& (0+255),c
  2324  0005B8  6A02               	clrf	(??_carcontrol_ISR+1)& (0+255),c
  2325                           
  2326                           ; Switch on 2 bytes has been partitioned into a top level switch of size 1, and 1 sub-sw
      +                          itches
  2327                           ; Switch size 1, requested type "simple"
  2328                           ; Number of cases is 1, Range of values is 0 to 0
  2329                           ; switch strategies available:
  2330                           ; Name         Instructions Cycles
  2331                           ; simple_byte            4     3 (average)
  2332                           ;	Chosen strategy is simple_byte
  2333  0005BA  5002               	movf	??_carcontrol_ISR+1,w,c
  2334  0005BC  0A00               	xorlw	0	; case 0
  2335  0005BE  A4D8               	btfss	status,2,c
  2336  0005C0  0012               	return	
  2337                           
  2338                           ; BSR set to: 0
  2339                           ; Switch size 1, requested type "simple"
  2340                           ; Number of cases is 4, Range of values is 0 to 3
  2341                           ; switch strategies available:
  2342                           ; Name         Instructions Cycles
  2343                           ; simple_byte           13     7 (average)
  2344                           ;	Chosen strategy is simple_byte
  2345  0005C2  5001               	movf	??_carcontrol_ISR,w,c
  2346  0005C4  0A00               	xorlw	0	; case 0
  2347  0005C6  B4D8               	btfsc	status,2,c
  2348  0005C8  D798               	goto	i2l2022
  2349  0005CA  0A01               	xorlw	1	; case 1
  2350  0005CC  B4D8               	btfsc	status,2,c
  2351  0005CE  D79E               	goto	i2l2028
  2352  0005D0  0A03               	xorlw	3	; case 2
  2353  0005D2  B4D8               	btfsc	status,2,c
  2354  0005D4  D7AE               	goto	i2l2038
  2355  0005D6  0A01               	xorlw	1	; case 3
  2356  0005D8  A4D8               	btfss	status,2,c
  2357  0005DA  0012               	return	
  2358  0005DC  D7D5               	goto	i2l2048
  2359  0005DE                     __end_of_carcontrol_ISR:
  2360                           	opt callstack 0
  2361                           
  2362 ;; *************** function _TMR1_ISR *****************
  2363 ;; Defined at:
  2364 ;;		line 164 in file "mcc_generated_files/tmr1.c"
  2365 ;; Parameters:    Size  Location     Type
  2366 ;;		None
  2367 ;; Auto vars:     Size  Location     Type
  2368 ;;		None
  2369 ;; Return value:  Size  Location     Type
  2370 ;;                  1    wreg      void 
  2371 ;; Registers used:
  2372 ;;		wreg, status,2, status,0, pclath, tosl, cstack
  2373 ;; Tracked objects:
  2374 ;;		On entry : 0/0
  2375 ;;		On exit  : 0/0
  2376 ;;		Unchanged: 0/0
  2377 ;; Data sizes:     COMRAM   BANK0   BANK1   BANK2   BANK3   BANK4   BANK5   BANK6   BANK7
  2378 ;;      Params:         0       0       0       0       0       0       0       0       0
  2379 ;;      Locals:         0       0       0       0       0       0       0       0       0
  2380 ;;      Temps:          0       0       0       0       0       0       0       0       0
  2381 ;;      Totals:         0       0       0       0       0       0       0       0       0
  2382 ;;Total ram usage:        0 bytes
  2383 ;; Hardware stack levels used:    1
  2384 ;; Hardware stack levels required when called:    2
  2385 ;; This function calls:
  2386 ;;		Absolute function
  2387 ;;		_TMR1_DefaultInterruptHandler
  2388 ;;		_ping_TMR1Overflow_isr
  2389 ;;		i2_TMR1_WriteTimer
  2390 ;; This function is called by:
  2391 ;;		_INTERRUPT_InterruptManager
  2392 ;; This function uses a non-reentrant model
  2393 ;;
  2394                           
  2395                           	psect	text24
  2396  000820                     __ptext24:
  2397                           	opt callstack 0
  2398  000820                     _TMR1_ISR:
  2399                           	opt callstack 24
  2400                           
  2401                           ;mcc_generated_files/tmr1.c: 168:     PIR4bits.TMR1IF = 0;
  2402                           
  2403                           ; BSR set to: 0
  2404                           ;incstack = 0
  2405  000820  010E               	movlb	14	; () banked
  2406  000822  91C9               	bcf	201,0,b	;volatile
  2407                           
  2408                           ; BSR set to: 14
  2409                           ;mcc_generated_files/tmr1.c: 169:     TMR1_WriteTimer(timer1ReloadVal);
  2410  000824  C032  F001         	movff	_timer1ReloadVal,i2TMR1_WriteTimer@timerVal	;volatile
  2411  000828  C033  F002         	movff	_timer1ReloadVal+1,i2TMR1_WriteTimer@timerVal+1	;volatile
  2412  00082C  ECF3  F004         	call	i2_TMR1_WriteTimer	;wreg free
  2413                           
  2414                           ;mcc_generated_files/tmr1.c: 171:     if(TMR1_InterruptHandler)
  2415  000830  5030               	movf	_TMR1_InterruptHandler,w,c
  2416  000832  1031               	iorwf	_TMR1_InterruptHandler+1,w,c
  2417  000834  B4D8               	btfsc	status,2,c
  2418  000836  0012               	return	
  2419                           
  2420                           ;mcc_generated_files/tmr1.c: 172:     {;mcc_generated_files/tmr1.c: 173:         TMR1_In
      +                          terruptHandler();
  2421  000838  D801               	call	i2u107_48
  2422  00083A  0012               	return	
  2423  00083C                     i2u107_48:
  2424  00083C  0005               	push	
  2425  00083E  6EFA               	movwf	pclath,c
  2426  000840  5030               	movf	_TMR1_InterruptHandler,w,c
  2427  000842  6EFD               	movwf	tosl,c
  2428  000844  5031               	movf	_TMR1_InterruptHandler+1,w,c
  2429  000846  6EFE               	movwf	tosh,c
  2430  000848  50F8               	movf	tblptru,w,c
  2431  00084A  6EFF               	movwf	tosu,c
  2432  00084C  50FA               	movf	pclath,w,c
  2433  00084E  0012               	return		;indir
  2434  000850                     __end_of_TMR1_ISR:
  2435                           	opt callstack 0
  2436                           
  2437 ;; *************** function _TMR1_DefaultInterruptHandler *****************
  2438 ;; Defined at:
  2439 ;;		line 182 in file "mcc_generated_files/tmr1.c"
  2440 ;; Parameters:    Size  Location     Type
  2441 ;;		None
  2442 ;; Auto vars:     Size  Location     Type
  2443 ;;		None
  2444 ;; Return value:  Size  Location     Type
  2445 ;;                  1    wreg      void 
  2446 ;; Registers used:
  2447 ;;		None
  2448 ;; Tracked objects:
  2449 ;;		On entry : 0/0
  2450 ;;		On exit  : 0/0
  2451 ;;		Unchanged: 0/0
  2452 ;; Data sizes:     COMRAM   BANK0   BANK1   BANK2   BANK3   BANK4   BANK5   BANK6   BANK7
  2453 ;;      Params:         0       0       0       0       0       0       0       0       0
  2454 ;;      Locals:         0       0       0       0       0       0       0       0       0
  2455 ;;      Temps:          0       0       0       0       0       0       0       0       0
  2456 ;;      Totals:         0       0       0       0       0       0       0       0       0
  2457 ;;Total ram usage:        0 bytes
  2458 ;; Hardware stack levels used:    1
  2459 ;; This function calls:
  2460 ;;		Nothing
  2461 ;; This function is called by:
  2462 ;;		_TMR1_Initialize
  2463 ;;		_TMR1_ISR
  2464 ;; This function uses a non-reentrant model
  2465 ;;
  2466                           
  2467                           	psect	text25
  2468  000A84                     __ptext25:
  2469                           	opt callstack 0
  2470  000A84                     _TMR1_DefaultInterruptHandler:
  2471                           	opt callstack 25
  2472                           
  2473                           ;incstack = 0
  2474  000A84  0012               	return		;funcret
  2475  000A86                     __end_of_TMR1_DefaultInterruptHandler:
  2476                           	opt callstack 0
  2477                           
  2478 ;; *************** function _ping_TMR1Overflow_isr *****************
  2479 ;; Defined at:
  2480 ;;		line 37 in file "ping.c"
  2481 ;; Parameters:    Size  Location     Type
  2482 ;;		None
  2483 ;; Auto vars:     Size  Location     Type
  2484 ;;		None
  2485 ;; Return value:  Size  Location     Type
  2486 ;;                  1    wreg      void 
  2487 ;; Registers used:
  2488 ;;		wreg, status,2, status,0, cstack
  2489 ;; Tracked objects:
  2490 ;;		On entry : 0/0
  2491 ;;		On exit  : 0/0
  2492 ;;		Unchanged: 0/0
  2493 ;; Data sizes:     COMRAM   BANK0   BANK1   BANK2   BANK3   BANK4   BANK5   BANK6   BANK7
  2494 ;;      Params:         0       0       0       0       0       0       0       0       0
  2495 ;;      Locals:         0       0       0       0       0       0       0       0       0
  2496 ;;      Temps:          0       0       0       0       0       0       0       0       0
  2497 ;;      Totals:         0       0       0       0       0       0       0       0       0
  2498 ;;Total ram usage:        0 bytes
  2499 ;; Hardware stack levels used:    1
  2500 ;; Hardware stack levels required when called:    1
  2501 ;; This function calls:
  2502 ;;		i2_IOCCF2_SetInterruptHandler
  2503 ;; This function is called by:
  2504 ;;		_ping_init
  2505 ;;		_TMR1_ISR
  2506 ;; This function uses a non-reentrant model
  2507 ;;
  2508                           
  2509                           	psect	text26
  2510  0009CA                     __ptext26:
  2511                           	opt callstack 0
  2512  0009CA                     _ping_TMR1Overflow_isr:
  2513                           	opt callstack 24
  2514                           
  2515                           ;ping.c: 38:     if (status.pingInAir) {
  2516                           
  2517                           ;incstack = 0
  2518  0009CA  5039               	movf	_status+1,w,c	;volatile
  2519  0009CC  A4D8               	btfss	status,2,c
  2520  0009CE  0012               	return	
  2521                           
  2522                           ;ping.c: 43:         do { LATCbits.LATC2 = 0; } while(0);
  2523  0009D0  9484               	bcf	3972,2,c	;volatile
  2524                           
  2525                           ;ping.c: 44:         do { TRISCbits.TRISC2 = 1; } while(0);
  2526  0009D2  8489               	bsf	3977,2,c	;volatile
  2527                           
  2528                           ;ping.c: 47:         IOCCF2_SetInterruptHandler(ping_RC2_went_HIGH);
  2529  0009D4  0E4E               	movlw	low _ping_RC2_went_HIGH
  2530  0009D6  6E01               	movwf	i2IOCCF2_SetInterruptHandler@InterruptHandler,c
  2531  0009D8  0E09               	movlw	high _ping_RC2_went_HIGH
  2532  0009DA  6E02               	movwf	i2IOCCF2_SetInterruptHandler@InterruptHandler+1,c
  2533  0009DC  EC32  F005         	call	i2_IOCCF2_SetInterruptHandler	;wreg free
  2534                           
  2535                           ;ping.c: 48:         status.pingInAir = 1;
  2536  0009E0  0E01               	movlw	1
  2537  0009E2  6E39               	movwf	_status+1,c	;volatile
  2538  0009E4  0012               	return		;funcret
  2539  0009E6                     __end_of_ping_TMR1Overflow_isr:
  2540                           	opt callstack 0
  2541                           
  2542 ;; *************** function _PIN_MANAGER_IOC *****************
  2543 ;; Defined at:
  2544 ;;		line 125 in file "mcc_generated_files/pin_manager.c"
  2545 ;; Parameters:    Size  Location     Type
  2546 ;;		None
  2547 ;; Auto vars:     Size  Location     Type
  2548 ;;		None
  2549 ;; Return value:  Size  Location     Type
  2550 ;;                  1    wreg      void 
  2551 ;; Registers used:
  2552 ;;		wreg, status,2, status,0, pclath, tosl, cstack
  2553 ;; Tracked objects:
  2554 ;;		On entry : 0/0
  2555 ;;		On exit  : 0/0
  2556 ;;		Unchanged: 0/0
  2557 ;; Data sizes:     COMRAM   BANK0   BANK1   BANK2   BANK3   BANK4   BANK5   BANK6   BANK7
  2558 ;;      Params:         0       0       0       0       0       0       0       0       0
  2559 ;;      Locals:         0       0       0       0       0       0       0       0       0
  2560 ;;      Temps:          0       0       0       0       0       0       0       0       0
  2561 ;;      Totals:         0       0       0       0       0       0       0       0       0
  2562 ;;Total ram usage:        0 bytes
  2563 ;; Hardware stack levels used:    1
  2564 ;; Hardware stack levels required when called:    3
  2565 ;; This function calls:
  2566 ;;		_IOCCF2_ISR
  2567 ;; This function is called by:
  2568 ;;		_INTERRUPT_InterruptManager
  2569 ;; This function uses a non-reentrant model
  2570 ;;
  2571                           
  2572                           	psect	text27
  2573  000A30                     __ptext27:
  2574                           	opt callstack 0
  2575  000A30                     _PIN_MANAGER_IOC:
  2576                           	opt callstack 23
  2577                           
  2578                           ;mcc_generated_files/pin_manager.c: 128:     if(IOCCFbits.IOCCF2 == 1)
  2579                           
  2580                           ;incstack = 0
  2581  000A30  010F               	movlb	15	; () banked
  2582  000A32  A515               	btfss	21,2,b	;volatile
  2583  000A34  0012               	return	
  2584                           
  2585                           ; BSR set to: 15
  2586                           ;mcc_generated_files/pin_manager.c: 129:     {;mcc_generated_files/pin_manager.c: 130:  
      +                                 IOCCF2_ISR();
  2587  000A36  EC94  F004         	call	_IOCCF2_ISR	;wreg free
  2588  000A3A  0012               	return		;funcret
  2589  000A3C                     __end_of_PIN_MANAGER_IOC:
  2590                           	opt callstack 0
  2591                           
  2592 ;; *************** function _IOCCF2_ISR *****************
  2593 ;; Defined at:
  2594 ;;		line 137 in file "mcc_generated_files/pin_manager.c"
  2595 ;; Parameters:    Size  Location     Type
  2596 ;;		None
  2597 ;; Auto vars:     Size  Location     Type
  2598 ;;		None
  2599 ;; Return value:  Size  Location     Type
  2600 ;;                  1    wreg      void 
  2601 ;; Registers used:
  2602 ;;		wreg, status,2, status,0, pclath, tosl, cstack
  2603 ;; Tracked objects:
  2604 ;;		On entry : 0/0
  2605 ;;		On exit  : 0/0
  2606 ;;		Unchanged: 0/0
  2607 ;; Data sizes:     COMRAM   BANK0   BANK1   BANK2   BANK3   BANK4   BANK5   BANK6   BANK7
  2608 ;;      Params:         0       0       0       0       0       0       0       0       0
  2609 ;;      Locals:         0       0       0       0       0       0       0       0       0
  2610 ;;      Temps:          0       0       0       0       0       0       0       0       0
  2611 ;;      Totals:         0       0       0       0       0       0       0       0       0
  2612 ;;Total ram usage:        0 bytes
  2613 ;; Hardware stack levels used:    1
  2614 ;; Hardware stack levels required when called:    2
  2615 ;; This function calls:
  2616 ;;		Absolute function
  2617 ;;		_IOCCF2_DefaultInterruptHandler
  2618 ;;		_ping_RC2_went_HIGH
  2619 ;; This function is called by:
  2620 ;;		_PIN_MANAGER_IOC
  2621 ;; This function uses a non-reentrant model
  2622 ;;
  2623                           
  2624                           	psect	text28
  2625  000928                     __ptext28:
  2626                           	opt callstack 0
  2627  000928                     _IOCCF2_ISR:
  2628                           	opt callstack 23
  2629                           
  2630                           ;mcc_generated_files/pin_manager.c: 142:     if(IOCCF2_InterruptHandler)
  2631                           
  2632                           ;incstack = 0
  2633  000928  5036               	movf	_IOCCF2_InterruptHandler,w,c
  2634  00092A  1037               	iorwf	_IOCCF2_InterruptHandler+1,w,c
  2635  00092C  B4D8               	btfsc	status,2,c
  2636  00092E  D00C               	goto	i2u91_49
  2637                           
  2638                           ;mcc_generated_files/pin_manager.c: 143:     {;mcc_generated_files/pin_manager.c: 144:  
      +                                 IOCCF2_InterruptHandler();
  2639  000930  D801               	call	i2u91_48
  2640  000932  D00A               	goto	i2u91_49
  2641  000934                     i2u91_48:
  2642  000934  0005               	push	
  2643  000936  6EFA               	movwf	pclath,c
  2644  000938  5036               	movf	_IOCCF2_InterruptHandler,w,c
  2645  00093A  6EFD               	movwf	tosl,c
  2646  00093C  5037               	movf	_IOCCF2_InterruptHandler+1,w,c
  2647  00093E  6EFE               	movwf	tosh,c
  2648  000940  50F8               	movf	tblptru,w,c
  2649  000942  6EFF               	movwf	tosu,c
  2650  000944  50FA               	movf	pclath,w,c
  2651  000946  0012               	return		;indir
  2652  000948                     i2u91_49:
  2653                           
  2654                           ;mcc_generated_files/pin_manager.c: 146:     IOCCFbits.IOCCF2 = 0;
  2655  000948  010F               	movlb	15	; () banked
  2656  00094A  9515               	bcf	21,2,b	;volatile
  2657                           
  2658                           ; BSR set to: 15
  2659  00094C  0012               	return		;funcret
  2660  00094E                     __end_of_IOCCF2_ISR:
  2661                           	opt callstack 0
  2662                           
  2663 ;; *************** function _IOCCF2_DefaultInterruptHandler *****************
  2664 ;; Defined at:
  2665 ;;		line 159 in file "mcc_generated_files/pin_manager.c"
  2666 ;; Parameters:    Size  Location     Type
  2667 ;;		None
  2668 ;; Auto vars:     Size  Location     Type
  2669 ;;		None
  2670 ;; Return value:  Size  Location     Type
  2671 ;;                  1    wreg      void 
  2672 ;; Registers used:
  2673 ;;		None
  2674 ;; Tracked objects:
  2675 ;;		On entry : 0/0
  2676 ;;		On exit  : 0/0
  2677 ;;		Unchanged: 0/0
  2678 ;; Data sizes:     COMRAM   BANK0   BANK1   BANK2   BANK3   BANK4   BANK5   BANK6   BANK7
  2679 ;;      Params:         0       0       0       0       0       0       0       0       0
  2680 ;;      Locals:         0       0       0       0       0       0       0       0       0
  2681 ;;      Temps:          0       0       0       0       0       0       0       0       0
  2682 ;;      Totals:         0       0       0       0       0       0       0       0       0
  2683 ;;Total ram usage:        0 bytes
  2684 ;; Hardware stack levels used:    1
  2685 ;; This function calls:
  2686 ;;		Nothing
  2687 ;; This function is called by:
  2688 ;;		_PIN_MANAGER_Initialize
  2689 ;;		_ping_RC2_went_HIGH
  2690 ;;		_ping_init
  2691 ;;		_IOCCF2_ISR
  2692 ;; This function uses a non-reentrant model
  2693 ;;
  2694                           
  2695                           	psect	text29
  2696  000A86                     __ptext29:
  2697                           	opt callstack 0
  2698  000A86                     _IOCCF2_DefaultInterruptHandler:
  2699                           	opt callstack 24
  2700                           
  2701                           ; BSR set to: 15
  2702                           ;incstack = 0
  2703  000A86  0012               	return		;funcret
  2704  000A88                     __end_of_IOCCF2_DefaultInterruptHandler:
  2705                           	opt callstack 0
  2706                           
  2707 ;; *************** function _ping_RC2_went_HIGH *****************
  2708 ;; Defined at:
  2709 ;;		line 22 in file "ping.c"
  2710 ;; Parameters:    Size  Location     Type
  2711 ;;		None
  2712 ;; Auto vars:     Size  Location     Type
  2713 ;;		None
  2714 ;; Return value:  Size  Location     Type
  2715 ;;                  1    wreg      void 
  2716 ;; Registers used:
  2717 ;;		wreg, status,2, status,0, cstack
  2718 ;; Tracked objects:
  2719 ;;		On entry : 0/0
  2720 ;;		On exit  : 0/0
  2721 ;;		Unchanged: 0/0
  2722 ;; Data sizes:     COMRAM   BANK0   BANK1   BANK2   BANK3   BANK4   BANK5   BANK6   BANK7
  2723 ;;      Params:         0       0       0       0       0       0       0       0       0
  2724 ;;      Locals:         0       0       0       0       0       0       0       0       0
  2725 ;;      Temps:          0       0       0       0       0       0       0       0       0
  2726 ;;      Totals:         0       0       0       0       0       0       0       0       0
  2727 ;;Total ram usage:        0 bytes
  2728 ;; Hardware stack levels used:    1
  2729 ;; Hardware stack levels required when called:    1
  2730 ;; This function calls:
  2731 ;;		i2_IOCCF2_SetInterruptHandler
  2732 ;;		i2_TMR1_StartTimer
  2733 ;;		i2_TMR1_WriteTimer
  2734 ;; This function is called by:
  2735 ;;		_ping_TMR1Overflow_isr
  2736 ;;		_IOCCF2_ISR
  2737 ;; This function uses a non-reentrant model
  2738 ;;
  2739                           
  2740                           	psect	text30
  2741  00094E                     __ptext30:
  2742                           	opt callstack 0
  2743  00094E                     _ping_RC2_went_HIGH:
  2744                           	opt callstack 23
  2745                           
  2746                           ;ping.c: 23:     IOCCF2_SetInterruptHandler(IOCCF2_DefaultInterruptHandler);
  2747                           
  2748                           ;incstack = 0
  2749  00094E  0E86               	movlw	low _IOCCF2_DefaultInterruptHandler
  2750  000950  6E01               	movwf	i2IOCCF2_SetInterruptHandler@InterruptHandler,c
  2751  000952  0E0A               	movlw	high _IOCCF2_DefaultInterruptHandler
  2752  000954  6E02               	movwf	i2IOCCF2_SetInterruptHandler@InterruptHandler+1,c
  2753  000956  EC32  F005         	call	i2_IOCCF2_SetInterruptHandler	;wreg free
  2754                           
  2755                           ;ping.c: 25:     TMR1_WriteTimer(0);
  2756  00095A  0E00               	movlw	0
  2757  00095C  6E02               	movwf	i2TMR1_WriteTimer@timerVal+1,c
  2758  00095E  0E00               	movlw	0
  2759  000960  6E01               	movwf	i2TMR1_WriteTimer@timerVal,c
  2760  000962  ECF3  F004         	call	i2_TMR1_WriteTimer	;wreg free
  2761                           
  2762                           ;ping.c: 26:     PIE6bits.CCP1IE = 1;
  2763  000966  010E               	movlb	14	; () banked
  2764  000968  81C3               	bsf	195,0,b	;volatile
  2765                           
  2766                           ; BSR set to: 14
  2767                           ;ping.c: 27:     TMR1_StartTimer();
  2768  00096A  EC3B  F005         	call	i2_TMR1_StartTimer	;wreg free
  2769  00096E  0012               	return		;funcret
  2770  000970                     __end_of_ping_RC2_went_HIGH:
  2771                           	opt callstack 0
  2772                           
  2773 ;; *************** function i2_TMR1_WriteTimer *****************
  2774 ;; Defined at:
  2775 ;;		line 127 in file "mcc_generated_files/tmr1.c"
  2776 ;; Parameters:    Size  Location     Type
  2777 ;;  timerVal        2    0[COMRAM] unsigned short 
  2778 ;; Auto vars:     Size  Location     Type
  2779 ;;		None
  2780 ;; Return value:  Size  Location     Type
  2781 ;;                  1    wreg      void 
  2782 ;; Registers used:
  2783 ;;		wreg, status,2
  2784 ;; Tracked objects:
  2785 ;;		On entry : 0/0
  2786 ;;		On exit  : 0/0
  2787 ;;		Unchanged: 0/0
  2788 ;; Data sizes:     COMRAM   BANK0   BANK1   BANK2   BANK3   BANK4   BANK5   BANK6   BANK7
  2789 ;;      Params:         2       0       0       0       0       0       0       0       0
  2790 ;;      Locals:         0       0       0       0       0       0       0       0       0
  2791 ;;      Temps:          0       0       0       0       0       0       0       0       0
  2792 ;;      Totals:         2       0       0       0       0       0       0       0       0
  2793 ;;Total ram usage:        2 bytes
  2794 ;; Hardware stack levels used:    1
  2795 ;; This function calls:
  2796 ;;		Nothing
  2797 ;; This function is called by:
  2798 ;;		_ping_RC2_went_HIGH
  2799 ;;		_TMR1_ISR
  2800 ;; This function uses a non-reentrant model
  2801 ;;
  2802                           
  2803                           	psect	text31
  2804  0009E6                     __ptext31:
  2805                           	opt callstack 0
  2806  0009E6                     i2_TMR1_WriteTimer:
  2807                           	opt callstack 25
  2808                           
  2809                           ;mcc_generated_files/tmr1.c: 127: void TMR1_WriteTimer(uint16_t timerVal);mcc_generated_
      +                          files/tmr1.c: 128: {;mcc_generated_files/tmr1.c: 129:     if (T1CONbits.nT1SYNC == 1)
  2810                           
  2811                           ;incstack = 0
  2812  0009E6  A4CE               	btfss	4046,2,c	;volatile
  2813  0009E8  D007               	goto	i2l1730
  2814                           
  2815                           ;mcc_generated_files/tmr1.c: 130:     {;mcc_generated_files/tmr1.c: 132:         T1CONbi
      +                          ts.TMR1ON = 0;
  2816  0009EA  90CE               	bcf	4046,0,c	;volatile
  2817                           
  2818                           ;mcc_generated_files/tmr1.c: 135:         TMR1H = (timerVal >> 8);
  2819  0009EC  5002               	movf	i2TMR1_WriteTimer@timerVal+1,w,c
  2820  0009EE  6ECD               	movwf	4045,c	;volatile
  2821                           
  2822                           ;mcc_generated_files/tmr1.c: 136:         TMR1L = timerVal;
  2823  0009F0  C001  FFCC         	movff	i2TMR1_WriteTimer@timerVal,4044	;volatile
  2824                           
  2825                           ;mcc_generated_files/tmr1.c: 139:         T1CONbits.TMR1ON =1;
  2826  0009F4  80CE               	bsf	4046,0,c	;volatile
  2827                           
  2828                           ;mcc_generated_files/tmr1.c: 140:     }
  2829  0009F6  0012               	return	
  2830  0009F8                     i2l1730:
  2831                           
  2832                           ;mcc_generated_files/tmr1.c: 142:     {;mcc_generated_files/tmr1.c: 144:         TMR1H =
      +                           (timerVal >> 8);
  2833  0009F8  5002               	movf	i2TMR1_WriteTimer@timerVal+1,w,c
  2834  0009FA  6ECD               	movwf	4045,c	;volatile
  2835                           
  2836                           ;mcc_generated_files/tmr1.c: 145:         TMR1L = timerVal;
  2837  0009FC  C001  FFCC         	movff	i2TMR1_WriteTimer@timerVal,4044	;volatile
  2838  000A00  0012               	return		;funcret
  2839  000A02                     __end_ofi2_TMR1_WriteTimer:
  2840                           	opt callstack 0
  2841                           
  2842 ;; *************** function i2_TMR1_StartTimer *****************
  2843 ;; Defined at:
  2844 ;;		line 99 in file "mcc_generated_files/tmr1.c"
  2845 ;; Parameters:    Size  Location     Type
  2846 ;;		None
  2847 ;; Auto vars:     Size  Location     Type
  2848 ;;		None
  2849 ;; Return value:  Size  Location     Type
  2850 ;;                  1    wreg      void 
  2851 ;; Registers used:
  2852 ;;		None
  2853 ;; Tracked objects:
  2854 ;;		On entry : 0/0
  2855 ;;		On exit  : 0/0
  2856 ;;		Unchanged: 0/0
  2857 ;; Data sizes:     COMRAM   BANK0   BANK1   BANK2   BANK3   BANK4   BANK5   BANK6   BANK7
  2858 ;;      Params:         0       0       0       0       0       0       0       0       0
  2859 ;;      Locals:         0       0       0       0       0       0       0       0       0
  2860 ;;      Temps:          0       0       0       0       0       0       0       0       0
  2861 ;;      Totals:         0       0       0       0       0       0       0       0       0
  2862 ;;Total ram usage:        0 bytes
  2863 ;; Hardware stack levels used:    1
  2864 ;; This function calls:
  2865 ;;		Nothing
  2866 ;; This function is called by:
  2867 ;;		_ping_RC2_went_HIGH
  2868 ;; This function uses a non-reentrant model
  2869 ;;
  2870                           
  2871                           	psect	text32
  2872  000A76                     __ptext32:
  2873                           	opt callstack 0
  2874  000A76                     i2_TMR1_StartTimer:
  2875                           	opt callstack 23
  2876                           
  2877                           ;mcc_generated_files/tmr1.c: 102:     T1CONbits.TMR1ON = 1;
  2878                           
  2879                           ;incstack = 0
  2880  000A76  80CE               	bsf	4046,0,c	;volatile
  2881  000A78  0012               	return		;funcret
  2882  000A7A                     __end_ofi2_TMR1_StartTimer:
  2883                           	opt callstack 0
  2884                           
  2885 ;; *************** function i2_IOCCF2_SetInterruptHandler *****************
  2886 ;; Defined at:
  2887 ;;		line 152 in file "mcc_generated_files/pin_manager.c"
  2888 ;; Parameters:    Size  Location     Type
  2889 ;;  InterruptHan    2    0[COMRAM] PTR FTN()void 
  2890 ;;		 -> ping_RC2_went_HIGH(1), IOCCF2_DefaultInterruptHandler(1), 
  2891 ;; Auto vars:     Size  Location     Type
  2892 ;;		None
  2893 ;; Return value:  Size  Location     Type
  2894 ;;                  1    wreg      void 
  2895 ;; Registers used:
  2896 ;;		wreg, status,2, status,0
  2897 ;; Tracked objects:
  2898 ;;		On entry : 0/0
  2899 ;;		On exit  : 0/0
  2900 ;;		Unchanged: 0/0
  2901 ;; Data sizes:     COMRAM   BANK0   BANK1   BANK2   BANK3   BANK4   BANK5   BANK6   BANK7
  2902 ;;      Params:         2       0       0       0       0       0       0       0       0
  2903 ;;      Locals:         0       0       0       0       0       0       0       0       0
  2904 ;;      Temps:          0       0       0       0       0       0       0       0       0
  2905 ;;      Totals:         2       0       0       0       0       0       0       0       0
  2906 ;;Total ram usage:        2 bytes
  2907 ;; Hardware stack levels used:    1
  2908 ;; This function calls:
  2909 ;;		Nothing
  2910 ;; This function is called by:
  2911 ;;		_ping_RC2_went_HIGH
  2912 ;;		_ping_TMR1Overflow_isr
  2913 ;; This function uses a non-reentrant model
  2914 ;;
  2915                           
  2916                           	psect	text33
  2917  000A64                     __ptext33:
  2918                           	opt callstack 0
  2919  000A64                     i2_IOCCF2_SetInterruptHandler:
  2920                           	opt callstack 24
  2921                           
  2922                           ;mcc_generated_files/pin_manager.c: 153:     IOCCF2_InterruptHandler = InterruptHandler;
  2923                           
  2924                           ;incstack = 0
  2925  000A64  C001  F036         	movff	i2IOCCF2_SetInterruptHandler@InterruptHandler,_IOCCF2_InterruptHandler
  2926  000A68  C002  F037         	movff	i2IOCCF2_SetInterruptHandler@InterruptHandler+1,_IOCCF2_InterruptHandler+1
  2927  000A6C  0012               	return		;funcret
  2928  000A6E                     __end_ofi2_IOCCF2_SetInterruptHandler:
  2929                           	opt callstack 0
  2930                           
  2931 ;; *************** function _CCP1_CaptureISR *****************
  2932 ;; Defined at:
  2933 ;;		line 94 in file "mcc_generated_files/ccp1.c"
  2934 ;; Parameters:    Size  Location     Type
  2935 ;;		None
  2936 ;; Auto vars:     Size  Location     Type
  2937 ;;  module          2   41[COMRAM] struct CCPR1Reg_tag
  2938 ;; Return value:  Size  Location     Type
  2939 ;;                  1    wreg      void 
  2940 ;; Registers used:
  2941 ;;		wreg, status,2, status,0, pclath, tosl, prodl, prodh, cstack
  2942 ;; Tracked objects:
  2943 ;;		On entry : 0/0
  2944 ;;		On exit  : 0/0
  2945 ;;		Unchanged: 0/0
  2946 ;; Data sizes:     COMRAM   BANK0   BANK1   BANK2   BANK3   BANK4   BANK5   BANK6   BANK7
  2947 ;;      Params:         0       0       0       0       0       0       0       0       0
  2948 ;;      Locals:         2       0       0       0       0       0       0       0       0
  2949 ;;      Temps:          0       0       0       0       0       0       0       0       0
  2950 ;;      Totals:         2       0       0       0       0       0       0       0       0
  2951 ;;Total ram usage:        2 bytes
  2952 ;; Hardware stack levels used:    1
  2953 ;; Hardware stack levels required when called:    2
  2954 ;; This function calls:
  2955 ;;		Absolute function
  2956 ;;		_CCP1_DefaultCallBack
  2957 ;;		_ping_CCP1_triggered
  2958 ;; This function is called by:
  2959 ;;		_INTERRUPT_InterruptManager
  2960 ;; This function uses a non-reentrant model
  2961 ;;
  2962                           
  2963                           	psect	text34
  2964  0008AC                     __ptext34:
  2965                           	opt callstack 0
  2966  0008AC                     _CCP1_CaptureISR:
  2967                           	opt callstack 24
  2968                           
  2969                           ;mcc_generated_files/ccp1.c: 96:     CCP1_PERIOD_REG_T module;;mcc_generated_files/ccp1.
      +                          c: 99:     PIR6bits.CCP1IF = 0;
  2970                           
  2971                           ;incstack = 0
  2972  0008AC  010E               	movlb	14	; () banked
  2973  0008AE  91CB               	bcf	203,0,b	;volatile
  2974                           
  2975                           ;mcc_generated_files/ccp1.c: 102:     module.ccpr1l = CCPR1L;
  2976  0008B0  CFA9 F02A          	movff	4009,CCP1_CaptureISR@module	;volatile
  2977                           
  2978                           ;mcc_generated_files/ccp1.c: 103:     module.ccpr1h = CCPR1H;
  2979  0008B4  CFAA F02B          	movff	4010,CCP1_CaptureISR@module+1	;volatile
  2980                           
  2981                           ; BSR set to: 14
  2982                           ;mcc_generated_files/ccp1.c: 106:     CCP1_CallBack(module.ccpr1_16Bit);
  2983  0008B8  C02A  F028         	movff	CCP1_CaptureISR@module,ping_CCP1_triggered@timeOfFlight
  2984  0008BC  C02B  F029         	movff	CCP1_CaptureISR@module+1,ping_CCP1_triggered@timeOfFlight+1
  2985  0008C0  D801               	call	i2u105_48
  2986  0008C2  0012               	return	
  2987  0008C4                     i2u105_48:
  2988  0008C4  0005               	push	
  2989  0008C6  6EFA               	movwf	pclath,c
  2990  0008C8  5034               	movf	_CCP1_CallBack,w,c
  2991  0008CA  6EFD               	movwf	tosl,c
  2992  0008CC  5035               	movf	_CCP1_CallBack+1,w,c
  2993  0008CE  6EFE               	movwf	tosh,c
  2994  0008D0  50F8               	movf	tblptru,w,c
  2995  0008D2  6EFF               	movwf	tosu,c
  2996  0008D4  50FA               	movf	pclath,w,c
  2997  0008D6  0012               	return		;indir
  2998  0008D8                     __end_of_CCP1_CaptureISR:
  2999                           	opt callstack 0
  3000                           
  3001 ;; *************** function _CCP1_DefaultCallBack *****************
  3002 ;; Defined at:
  3003 ;;		line 60 in file "mcc_generated_files/ccp1.c"
  3004 ;; Parameters:    Size  Location     Type
  3005 ;;  capturedValu    2   39[COMRAM] unsigned short 
  3006 ;; Auto vars:     Size  Location     Type
  3007 ;;		None
  3008 ;; Return value:  Size  Location     Type
  3009 ;;                  1    wreg      void 
  3010 ;; Registers used:
  3011 ;;		None
  3012 ;; Tracked objects:
  3013 ;;		On entry : 0/0
  3014 ;;		On exit  : 0/0
  3015 ;;		Unchanged: 0/0
  3016 ;; Data sizes:     COMRAM   BANK0   BANK1   BANK2   BANK3   BANK4   BANK5   BANK6   BANK7
  3017 ;;      Params:         2       0       0       0       0       0       0       0       0
  3018 ;;      Locals:         0       0       0       0       0       0       0       0       0
  3019 ;;      Temps:          0       0       0       0       0       0       0       0       0
  3020 ;;      Totals:         2       0       0       0       0       0       0       0       0
  3021 ;;Total ram usage:        2 bytes
  3022 ;; Hardware stack levels used:    1
  3023 ;; This function calls:
  3024 ;;		Nothing
  3025 ;; This function is called by:
  3026 ;;		_CCP1_Initialize
  3027 ;;		_CCP1_CaptureISR
  3028 ;; This function uses a non-reentrant model
  3029 ;;
  3030                           
  3031                           	psect	text35
  3032  000A88                     __ptext35:
  3033                           	opt callstack 0
  3034  000A88                     _CCP1_DefaultCallBack:
  3035                           	opt callstack 25
  3036                           
  3037                           ;incstack = 0
  3038  000A88  0012               	return		;funcret
  3039  000A8A                     __end_of_CCP1_DefaultCallBack:
  3040                           	opt callstack 0
  3041                           
  3042 ;; *************** function _ping_CCP1_triggered *****************
  3043 ;; Defined at:
  3044 ;;		line 56 in file "ping.c"
  3045 ;; Parameters:    Size  Location     Type
  3046 ;;  timeOfFlight    2   39[COMRAM] unsigned short 
  3047 ;; Auto vars:     Size  Location     Type
  3048 ;;		None
  3049 ;; Return value:  Size  Location     Type
  3050 ;;                  1    wreg      void 
  3051 ;; Registers used:
  3052 ;;		wreg, status,2, status,0, prodl, prodh, cstack
  3053 ;; Tracked objects:
  3054 ;;		On entry : 0/0
  3055 ;;		On exit  : 0/0
  3056 ;;		Unchanged: 0/0
  3057 ;; Data sizes:     COMRAM   BANK0   BANK1   BANK2   BANK3   BANK4   BANK5   BANK6   BANK7
  3058 ;;      Params:         2       0       0       0       0       0       0       0       0
  3059 ;;      Locals:         0       0       0       0       0       0       0       0       0
  3060 ;;      Temps:          0       0       0       0       0       0       0       0       0
  3061 ;;      Totals:         2       0       0       0       0       0       0       0       0
  3062 ;;Total ram usage:        2 bytes
  3063 ;; Hardware stack levels used:    1
  3064 ;; Hardware stack levels required when called:    1
  3065 ;; This function calls:
  3066 ;;		_TMR1_StopTimer
  3067 ;;		___flmul
  3068 ;;		___xxtofl
  3069 ;; This function is called by:
  3070 ;;		_ping_init
  3071 ;;		_CCP1_CaptureISR
  3072 ;; This function uses a non-reentrant model
  3073 ;;
  3074                           
  3075                           	psect	text36
  3076  00063E                     __ptext36:
  3077                           	opt callstack 0
  3078  00063E                     _ping_CCP1_triggered:
  3079                           	opt callstack 24
  3080                           
  3081                           ;ping.c: 58:     TMR1_StopTimer();
  3082                           
  3083                           ;incstack = 0
  3084  00063E  EC3D  F005         	call	_TMR1_StopTimer	;wreg free
  3085                           
  3086                           ;ping.c: 60:     status.measurment = 0.0000214375 * (float) timeOfFlight;
  3087  000642  C028  F001         	movff	ping_CCP1_triggered@timeOfFlight,___xxtofl@val
  3088  000646  C029  F002         	movff	ping_CCP1_triggered@timeOfFlight+1,___xxtofl@val+1
  3089  00064A  6A03               	clrf	___xxtofl@val+2,c
  3090  00064C  6A04               	clrf	___xxtofl@val+3,c
  3091  00064E  0E00               	movlw	0
  3092  000650  ECDC  F001         	call	___xxtofl
  3093  000654  C001  F00F         	movff	?___xxtofl,___flmul@b
  3094  000658  C002  F010         	movff	?___xxtofl+1,___flmul@b+1
  3095  00065C  C003  F011         	movff	?___xxtofl+2,___flmul@b+2
  3096  000660  C004  F012         	movff	?___xxtofl+3,___flmul@b+3
  3097  000664  0EAE               	movlw	174
  3098  000666  6E13               	movwf	___flmul@a,c
  3099  000668  0ED4               	movlw	212
  3100  00066A  6E14               	movwf	___flmul@a+1,c
  3101  00066C  0EB3               	movlw	179
  3102  00066E  6E15               	movwf	___flmul@a+2,c
  3103  000670  0E37               	movlw	55
  3104  000672  6E16               	movwf	___flmul@a+3,c
  3105  000674  EC33  F000         	call	___flmul	;wreg free
  3106  000678  C00F  F03A         	movff	?___flmul,_status+2	;volatile
  3107  00067C  C010  F03B         	movff	?___flmul+1,_status+3	;volatile
  3108  000680  C011  F03C         	movff	?___flmul+2,_status+4	;volatile
  3109  000684  C012  F03D         	movff	?___flmul+3,_status+5	;volatile
  3110                           
  3111                           ;ping.c: 62:     PIE6bits.CCP1IE = 0;
  3112  000688  010E               	movlb	14	; () banked
  3113  00068A  91C3               	bcf	195,0,b	;volatile
  3114                           
  3115                           ; BSR set to: 14
  3116                           ;ping.c: 63:     status.pingInAir = 0;
  3117  00068C  0E00               	movlw	0
  3118  00068E  6E39               	movwf	_status+1,c	;volatile
  3119                           
  3120                           ; BSR set to: 14
  3121                           ;ping.c: 64:     status.pingStarted = 0;
  3122  000690  0E00               	movlw	0
  3123  000692  6E3E               	movwf	_status+6,c	;volatile
  3124                           
  3125                           ; BSR set to: 14
  3126                           ;ping.c: 65:     status.readReady = 1;
  3127  000694  0E01               	movlw	1
  3128  000696  6E38               	movwf	_status,c	;volatile
  3129                           
  3130                           ; BSR set to: 14
  3131  000698  0012               	return		;funcret
  3132  00069A                     __end_of_ping_CCP1_triggered:
  3133                           	opt callstack 0
  3134                           
  3135 ;; *************** function ___xxtofl *****************
  3136 ;; Defined at:
  3137 ;;		line 10 in file "/Applications/microchip/xc8/v2.05/pic/sources/c99/common/xxtofl.c"
  3138 ;; Parameters:    Size  Location     Type
  3139 ;;  sign            1    wreg     unsigned char 
  3140 ;;  val             4    0[COMRAM] long 
  3141 ;; Auto vars:     Size  Location     Type
  3142 ;;  sign            1    8[COMRAM] unsigned char 
  3143 ;;  arg             4   10[COMRAM] unsigned long 
  3144 ;;  exp             1    9[COMRAM] unsigned char 
  3145 ;; Return value:  Size  Location     Type
  3146 ;;                  4    0[COMRAM] unsigned char 
  3147 ;; Registers used:
  3148 ;;		wreg, status,2, status,0
  3149 ;; Tracked objects:
  3150 ;;		On entry : 0/0
  3151 ;;		On exit  : 0/0
  3152 ;;		Unchanged: 0/0
  3153 ;; Data sizes:     COMRAM   BANK0   BANK1   BANK2   BANK3   BANK4   BANK5   BANK6   BANK7
  3154 ;;      Params:         4       0       0       0       0       0       0       0       0
  3155 ;;      Locals:         6       0       0       0       0       0       0       0       0
  3156 ;;      Temps:          4       0       0       0       0       0       0       0       0
  3157 ;;      Totals:        14       0       0       0       0       0       0       0       0
  3158 ;;Total ram usage:       14 bytes
  3159 ;; Hardware stack levels used:    1
  3160 ;; This function calls:
  3161 ;;		Nothing
  3162 ;; This function is called by:
  3163 ;;		_ping_CCP1_triggered
  3164 ;; This function uses a non-reentrant model
  3165 ;;
  3166                           
  3167                           	psect	text37
  3168  0003B8                     __ptext37:
  3169                           	opt callstack 0
  3170  0003B8                     ___xxtofl:
  3171                           	opt callstack 24
  3172                           
  3173                           ; BSR set to: 14
  3174                           ;incstack = 0
  3175                           ;___xxtofl@sign stored from wreg
  3176  0003B8  6E09               	movwf	___xxtofl@sign,c
  3177  0003BA  5009               	movf	___xxtofl@sign,w,c
  3178  0003BC  A4D8               	btfss	status,2,c
  3179  0003BE  AE04               	btfss	___xxtofl@val+3,7,c
  3180  0003C0  D01A               	goto	i2l1136
  3181  0003C2  C001  F005         	movff	___xxtofl@val,??___xxtofl
  3182  0003C6  C002  F006         	movff	___xxtofl@val+1,??___xxtofl+1
  3183  0003CA  C003  F007         	movff	___xxtofl@val+2,??___xxtofl+2
  3184  0003CE  C004  F008         	movff	___xxtofl@val+3,??___xxtofl+3
  3185  0003D2  1E05               	comf	??___xxtofl,f,c
  3186  0003D4  1E06               	comf	??___xxtofl+1,f,c
  3187  0003D6  1E07               	comf	??___xxtofl+2,f,c
  3188  0003D8  1E08               	comf	??___xxtofl+3,f,c
  3189  0003DA  2A05               	incf	??___xxtofl,f,c
  3190  0003DC  0E00               	movlw	0
  3191  0003DE  2206               	addwfc	??___xxtofl+1,f,c
  3192  0003E0  2207               	addwfc	??___xxtofl+2,f,c
  3193  0003E2  2208               	addwfc	??___xxtofl+3,f,c
  3194  0003E4  C005  F00B         	movff	??___xxtofl,___xxtofl@arg
  3195  0003E8  C006  F00C         	movff	??___xxtofl+1,___xxtofl@arg+1
  3196  0003EC  C007  F00D         	movff	??___xxtofl+2,___xxtofl@arg+2
  3197  0003F0  C008  F00E         	movff	??___xxtofl+3,___xxtofl@arg+3
  3198  0003F4  D008               	goto	i2l1886
  3199  0003F6                     i2l1136:
  3200  0003F6  C001  F00B         	movff	___xxtofl@val,___xxtofl@arg
  3201  0003FA  C002  F00C         	movff	___xxtofl@val+1,___xxtofl@arg+1
  3202  0003FE  C003  F00D         	movff	___xxtofl@val+2,___xxtofl@arg+2
  3203  000402  C004  F00E         	movff	___xxtofl@val+3,___xxtofl@arg+3
  3204  000406                     i2l1886:
  3205  000406  5001               	movf	___xxtofl@val,w,c
  3206  000408  1002               	iorwf	___xxtofl@val+1,w,c
  3207  00040A  1003               	iorwf	___xxtofl@val+2,w,c
  3208  00040C  1004               	iorwf	___xxtofl@val+3,w,c
  3209  00040E  A4D8               	btfss	status,2,c
  3210  000410  D009               	goto	i2l1892
  3211  000412  0E00               	movlw	0
  3212  000414  6E01               	movwf	?___xxtofl,c
  3213  000416  0E00               	movlw	0
  3214  000418  6E02               	movwf	?___xxtofl+1,c
  3215  00041A  0E00               	movlw	0
  3216  00041C  6E03               	movwf	?___xxtofl+2,c
  3217  00041E  0E00               	movlw	0
  3218  000420  6E04               	movwf	?___xxtofl+3,c
  3219  000422  0012               	return	
  3220  000424                     i2l1892:
  3221  000424  0E96               	movlw	150
  3222  000426  6E0A               	movwf	___xxtofl@exp,c
  3223  000428  D006               	goto	i2l1896
  3224  00042A                     i2l1894:
  3225  00042A  2A0A               	incf	___xxtofl@exp,f,c
  3226  00042C  90D8               	bcf	status,0,c
  3227  00042E  320E               	rrcf	___xxtofl@arg+3,f,c
  3228  000430  320D               	rrcf	___xxtofl@arg+2,f,c
  3229  000432  320C               	rrcf	___xxtofl@arg+1,f,c
  3230  000434  320B               	rrcf	___xxtofl@arg,f,c
  3231  000436                     i2l1896:
  3232  000436  0E00               	movlw	0
  3233  000438  140B               	andwf	___xxtofl@arg,w,c
  3234  00043A  6E05               	movwf	??___xxtofl& (0+255),c
  3235  00043C  0E00               	movlw	0
  3236  00043E  140C               	andwf	___xxtofl@arg+1,w,c
  3237  000440  6E06               	movwf	(??___xxtofl+1)& (0+255),c
  3238  000442  0E00               	movlw	0
  3239  000444  140D               	andwf	___xxtofl@arg+2,w,c
  3240  000446  6E07               	movwf	(??___xxtofl+2)& (0+255),c
  3241  000448  0EFE               	movlw	254
  3242  00044A  140E               	andwf	___xxtofl@arg+3,w,c
  3243  00044C  6E08               	movwf	(??___xxtofl+3)& (0+255),c
  3244  00044E  5005               	movf	??___xxtofl,w,c
  3245  000450  1006               	iorwf	??___xxtofl+1,w,c
  3246  000452  1007               	iorwf	??___xxtofl+2,w,c
  3247  000454  1008               	iorwf	??___xxtofl+3,w,c
  3248  000456  B4D8               	btfsc	status,2,c
  3249  000458  D00D               	goto	i2l1143
  3250  00045A  D7E7               	goto	i2l1894
  3251  00045C                     i2l1898:
  3252  00045C  2A0A               	incf	___xxtofl@exp,f,c
  3253  00045E  0E01               	movlw	1
  3254  000460  260B               	addwf	___xxtofl@arg,f,c
  3255  000462  0E00               	movlw	0
  3256  000464  220C               	addwfc	___xxtofl@arg+1,f,c
  3257  000466  220D               	addwfc	___xxtofl@arg+2,f,c
  3258  000468  220E               	addwfc	___xxtofl@arg+3,f,c
  3259  00046A  90D8               	bcf	status,0,c
  3260  00046C  320E               	rrcf	___xxtofl@arg+3,f,c
  3261  00046E  320D               	rrcf	___xxtofl@arg+2,f,c
  3262  000470  320C               	rrcf	___xxtofl@arg+1,f,c
  3263  000472  320B               	rrcf	___xxtofl@arg,f,c
  3264  000474                     i2l1143:
  3265  000474  0E00               	movlw	0
  3266  000476  140B               	andwf	___xxtofl@arg,w,c
  3267  000478  6E05               	movwf	??___xxtofl& (0+255),c
  3268  00047A  0E00               	movlw	0
  3269  00047C  140C               	andwf	___xxtofl@arg+1,w,c
  3270  00047E  6E06               	movwf	(??___xxtofl+1)& (0+255),c
  3271  000480  0E00               	movlw	0
  3272  000482  140D               	andwf	___xxtofl@arg+2,w,c
  3273  000484  6E07               	movwf	(??___xxtofl+2)& (0+255),c
  3274  000486  0EFF               	movlw	255
  3275  000488  140E               	andwf	___xxtofl@arg+3,w,c
  3276  00048A  6E08               	movwf	(??___xxtofl+3)& (0+255),c
  3277  00048C  5005               	movf	??___xxtofl,w,c
  3278  00048E  1006               	iorwf	??___xxtofl+1,w,c
  3279  000490  1007               	iorwf	??___xxtofl+2,w,c
  3280  000492  1008               	iorwf	??___xxtofl+3,w,c
  3281  000494  B4D8               	btfsc	status,2,c
  3282  000496  D007               	goto	i2l1906
  3283  000498  D7E1               	goto	i2l1898
  3284  00049A                     i2l1904:
  3285  00049A  060A               	decf	___xxtofl@exp,f,c
  3286  00049C  90D8               	bcf	status,0,c
  3287  00049E  360B               	rlcf	___xxtofl@arg,f,c
  3288  0004A0  360C               	rlcf	___xxtofl@arg+1,f,c
  3289  0004A2  360D               	rlcf	___xxtofl@arg+2,f,c
  3290  0004A4  360E               	rlcf	___xxtofl@arg+3,f,c
  3291  0004A6                     i2l1906:
  3292  0004A6  BE0D               	btfsc	___xxtofl@arg+2,7,c
  3293  0004A8  D003               	goto	i2u86_40
  3294  0004AA  0E02               	movlw	2
  3295  0004AC  600A               	cpfslt	___xxtofl@exp,c
  3296  0004AE  D7F5               	goto	i2l1904
  3297  0004B0                     i2u86_40:
  3298  0004B0  A00A               	btfss	___xxtofl@exp,0,c
  3299  0004B2  9E0D               	bcf	___xxtofl@arg+2,7,c
  3300  0004B4  90D8               	bcf	status,0,c
  3301  0004B6  320A               	rrcf	___xxtofl@exp,f,c
  3302  0004B8  C00A  F005         	movff	___xxtofl@exp,??___xxtofl
  3303  0004BC  6A06               	clrf	(??___xxtofl+1)& (0+255),c
  3304  0004BE  6A07               	clrf	(??___xxtofl+2)& (0+255),c
  3305  0004C0  6A08               	clrf	(??___xxtofl+3)& (0+255),c
  3306  0004C2  C005  F008         	movff	??___xxtofl,??___xxtofl+3
  3307  0004C6  6A07               	clrf	??___xxtofl+2,c
  3308  0004C8  6A06               	clrf	??___xxtofl+1,c
  3309  0004CA  6A05               	clrf	??___xxtofl,c
  3310  0004CC  5005               	movf	??___xxtofl,w,c
  3311  0004CE  120B               	iorwf	___xxtofl@arg,f,c
  3312  0004D0  5006               	movf	??___xxtofl+1,w,c
  3313  0004D2  120C               	iorwf	___xxtofl@arg+1,f,c
  3314  0004D4  5007               	movf	??___xxtofl+2,w,c
  3315  0004D6  120D               	iorwf	___xxtofl@arg+2,f,c
  3316  0004D8  5008               	movf	??___xxtofl+3,w,c
  3317  0004DA  120E               	iorwf	___xxtofl@arg+3,f,c
  3318  0004DC  5009               	movf	___xxtofl@sign,w,c
  3319  0004DE  A4D8               	btfss	status,2,c
  3320  0004E0  AE04               	btfss	___xxtofl@val+3,7,c
  3321  0004E2  D001               	goto	i2l1922
  3322  0004E4  8E0E               	bsf	___xxtofl@arg+3,7,c
  3323  0004E6                     i2l1922:
  3324  0004E6  C00B  F001         	movff	___xxtofl@arg,?___xxtofl
  3325  0004EA  C00C  F002         	movff	___xxtofl@arg+1,?___xxtofl+1
  3326  0004EE  C00D  F003         	movff	___xxtofl@arg+2,?___xxtofl+2
  3327  0004F2  C00E  F004         	movff	___xxtofl@arg+3,?___xxtofl+3
  3328  0004F6  0012               	return		;funcret
  3329  0004F8                     __end_of___xxtofl:
  3330                           	opt callstack 0
  3331                           
  3332 ;; *************** function ___flmul *****************
  3333 ;; Defined at:
  3334 ;;		line 8 in file "/Applications/microchip/xc8/v2.05/pic/sources/c99/common/sprcmul.c"
  3335 ;; Parameters:    Size  Location     Type
  3336 ;;  b               4   14[COMRAM] unsigned char 
  3337 ;;  a               4   18[COMRAM] unsigned char 
  3338 ;; Auto vars:     Size  Location     Type
  3339 ;;  prod            4   33[COMRAM] struct .
  3340 ;;  grs             4   27[COMRAM] unsigned long 
  3341 ;;  temp            2   37[COMRAM] struct .
  3342 ;;  bexp            1   32[COMRAM] unsigned char 
  3343 ;;  aexp            1   31[COMRAM] unsigned char 
  3344 ;;  sign            1   26[COMRAM] unsigned char 
  3345 ;; Return value:  Size  Location     Type
  3346 ;;                  4   14[COMRAM] unsigned char 
  3347 ;; Registers used:
  3348 ;;		wreg, status,2, status,0, prodl, prodh
  3349 ;; Tracked objects:
  3350 ;;		On entry : 0/0
  3351 ;;		On exit  : 0/0
  3352 ;;		Unchanged: 0/0
  3353 ;; Data sizes:     COMRAM   BANK0   BANK1   BANK2   BANK3   BANK4   BANK5   BANK6   BANK7
  3354 ;;      Params:         8       0       0       0       0       0       0       0       0
  3355 ;;      Locals:        13       0       0       0       0       0       0       0       0
  3356 ;;      Temps:          4       0       0       0       0       0       0       0       0
  3357 ;;      Totals:        25       0       0       0       0       0       0       0       0
  3358 ;;Total ram usage:       25 bytes
  3359 ;; Hardware stack levels used:    1
  3360 ;; This function calls:
  3361 ;;		Nothing
  3362 ;; This function is called by:
  3363 ;;		_ping_CCP1_triggered
  3364 ;; This function uses a non-reentrant model
  3365 ;;
  3366                           
  3367                           	psect	text38
  3368  000066                     __ptext38:
  3369                           	opt callstack 0
  3370  000066                     ___flmul:
  3371                           	opt callstack 24
  3372                           
  3373                           ;incstack = 0
  3374  000066  5012               	movf	___flmul@b+3,w,c
  3375  000068  0B80               	andlw	128
  3376  00006A  6E1B               	movwf	___flmul@sign,c
  3377  00006C  5012               	movf	___flmul@b+3,w,c
  3378  00006E  2412               	addwf	___flmul@b+3,w,c
  3379  000070  6E21               	movwf	___flmul@bexp,c
  3380  000072  BE11               	btfsc	___flmul@b+2,7,c
  3381  000074  8021               	bsf	___flmul@bexp,0,c
  3382  000076  5021               	movf	___flmul@bexp,w,c
  3383  000078  B4D8               	btfsc	status,2,c
  3384  00007A  D00D               	goto	i2l1764
  3385  00007C  2821               	incf	___flmul@bexp,w,c
  3386  00007E  A4D8               	btfss	status,2,c
  3387  000080  D008               	goto	i2l1762
  3388  000082  0E00               	movlw	0
  3389  000084  6E0F               	movwf	___flmul@b,c
  3390  000086  0E00               	movlw	0
  3391  000088  6E10               	movwf	___flmul@b+1,c
  3392  00008A  0E00               	movlw	0
  3393  00008C  6E11               	movwf	___flmul@b+2,c
  3394  00008E  0E00               	movlw	0
  3395  000090  6E12               	movwf	___flmul@b+3,c
  3396  000092                     i2l1762:
  3397  000092  8E11               	bsf	___flmul@b+2,7,c
  3398  000094  D008               	goto	i2l1766
  3399  000096                     i2l1764:
  3400  000096  0E00               	movlw	0
  3401  000098  6E0F               	movwf	___flmul@b,c
  3402  00009A  0E00               	movlw	0
  3403  00009C  6E10               	movwf	___flmul@b+1,c
  3404  00009E  0E00               	movlw	0
  3405  0000A0  6E11               	movwf	___flmul@b+2,c
  3406  0000A2  0E00               	movlw	0
  3407  0000A4  6E12               	movwf	___flmul@b+3,c
  3408  0000A6                     i2l1766:
  3409  0000A6  5016               	movf	___flmul@a+3,w,c
  3410  0000A8  0B80               	andlw	128
  3411  0000AA  1A1B               	xorwf	___flmul@sign,f,c
  3412  0000AC  5016               	movf	___flmul@a+3,w,c
  3413  0000AE  2416               	addwf	___flmul@a+3,w,c
  3414  0000B0  6E20               	movwf	___flmul@aexp,c
  3415  0000B2  BE15               	btfsc	___flmul@a+2,7,c
  3416  0000B4  8020               	bsf	___flmul@aexp,0,c
  3417  0000B6  5020               	movf	___flmul@aexp,w,c
  3418  0000B8  B4D8               	btfsc	status,2,c
  3419  0000BA  D00D               	goto	i2l1782
  3420  0000BC  2820               	incf	___flmul@aexp,w,c
  3421  0000BE  A4D8               	btfss	status,2,c
  3422  0000C0  D008               	goto	i2l1780
  3423  0000C2  0E00               	movlw	0
  3424  0000C4  6E13               	movwf	___flmul@a,c
  3425  0000C6  0E00               	movlw	0
  3426  0000C8  6E14               	movwf	___flmul@a+1,c
  3427  0000CA  0E00               	movlw	0
  3428  0000CC  6E15               	movwf	___flmul@a+2,c
  3429  0000CE  0E00               	movlw	0
  3430  0000D0  6E16               	movwf	___flmul@a+3,c
  3431  0000D2                     i2l1780:
  3432  0000D2  8E15               	bsf	___flmul@a+2,7,c
  3433  0000D4  D008               	goto	i2l1095
  3434  0000D6                     i2l1782:
  3435  0000D6  0E00               	movlw	0
  3436  0000D8  6E13               	movwf	___flmul@a,c
  3437  0000DA  0E00               	movlw	0
  3438  0000DC  6E14               	movwf	___flmul@a+1,c
  3439  0000DE  0E00               	movlw	0
  3440  0000E0  6E15               	movwf	___flmul@a+2,c
  3441  0000E2  0E00               	movlw	0
  3442  0000E4  6E16               	movwf	___flmul@a+3,c
  3443  0000E6                     i2l1095:
  3444  0000E6  5020               	movf	___flmul@aexp,w,c
  3445  0000E8  B4D8               	btfsc	status,2,c
  3446  0000EA  D003               	goto	i2u68_40
  3447  0000EC  5021               	movf	___flmul@bexp,w,c
  3448  0000EE  A4D8               	btfss	status,2,c
  3449  0000F0  D009               	goto	i2l1790
  3450  0000F2                     i2u68_40:
  3451  0000F2  0E00               	movlw	0
  3452  0000F4  6E0F               	movwf	?___flmul,c
  3453  0000F6  0E00               	movlw	0
  3454  0000F8  6E10               	movwf	?___flmul+1,c
  3455  0000FA  0E00               	movlw	0
  3456  0000FC  6E11               	movwf	?___flmul+2,c
  3457  0000FE  0E00               	movlw	0
  3458  000100  6E12               	movwf	?___flmul+3,c
  3459  000102  0012               	return	
  3460  000104                     i2l1790:
  3461  000104  5015               	movf	___flmul@a+2,w,c
  3462  000106  020F               	mulwf	___flmul@b,c
  3463  000108  CFF3 F026          	movff	prodl,___flmul@temp
  3464  00010C  CFF4 F027          	movff	prodh,___flmul@temp+1
  3465  000110  5026               	movf	___flmul@temp,w,c
  3466  000112  6E1C               	movwf	___flmul@grs,c
  3467  000114  6A1D               	clrf	___flmul@grs+1,c
  3468  000116  6A1E               	clrf	___flmul@grs+2,c
  3469  000118  6A1F               	clrf	___flmul@grs+3,c
  3470  00011A  5027               	movf	___flmul@temp+1,w,c
  3471  00011C  6E22               	movwf	___flmul@prod,c
  3472  00011E  6A23               	clrf	___flmul@prod+1,c
  3473  000120  6A24               	clrf	___flmul@prod+2,c
  3474  000122  6A25               	clrf	___flmul@prod+3,c
  3475  000124  5014               	movf	___flmul@a+1,w,c
  3476  000126  0210               	mulwf	___flmul@b+1,c
  3477  000128  CFF3 F026          	movff	prodl,___flmul@temp
  3478  00012C  CFF4 F027          	movff	prodh,___flmul@temp+1
  3479  000130  5026               	movf	___flmul@temp,w,c
  3480  000132  261C               	addwf	___flmul@grs,f,c
  3481  000134  0E00               	movlw	0
  3482  000136  221D               	addwfc	___flmul@grs+1,f,c
  3483  000138  221E               	addwfc	___flmul@grs+2,f,c
  3484  00013A  221F               	addwfc	___flmul@grs+3,f,c
  3485  00013C  5027               	movf	___flmul@temp+1,w,c
  3486  00013E  2622               	addwf	___flmul@prod,f,c
  3487  000140  0E00               	movlw	0
  3488  000142  2223               	addwfc	___flmul@prod+1,f,c
  3489  000144  2224               	addwfc	___flmul@prod+2,f,c
  3490  000146  2225               	addwfc	___flmul@prod+3,f,c
  3491  000148  5013               	movf	___flmul@a,w,c
  3492  00014A  0211               	mulwf	___flmul@b+2,c
  3493  00014C  CFF3 F026          	movff	prodl,___flmul@temp
  3494  000150  CFF4 F027          	movff	prodh,___flmul@temp+1
  3495  000154  5026               	movf	___flmul@temp,w,c
  3496  000156  261C               	addwf	___flmul@grs,f,c
  3497  000158  0E00               	movlw	0
  3498  00015A  221D               	addwfc	___flmul@grs+1,f,c
  3499  00015C  221E               	addwfc	___flmul@grs+2,f,c
  3500  00015E  221F               	addwfc	___flmul@grs+3,f,c
  3501  000160  5027               	movf	___flmul@temp+1,w,c
  3502  000162  2622               	addwf	___flmul@prod,f,c
  3503  000164  0E00               	movlw	0
  3504  000166  2223               	addwfc	___flmul@prod+1,f,c
  3505  000168  2224               	addwfc	___flmul@prod+2,f,c
  3506  00016A  2225               	addwfc	___flmul@prod+3,f,c
  3507  00016C  C01E  F01F         	movff	___flmul@grs+2,___flmul@grs+3
  3508  000170  C01D  F01E         	movff	___flmul@grs+1,___flmul@grs+2
  3509  000174  C01C  F01D         	movff	___flmul@grs,___flmul@grs+1
  3510  000178  6A1C               	clrf	___flmul@grs,c
  3511  00017A  5013               	movf	___flmul@a,w,c
  3512  00017C  0210               	mulwf	___flmul@b+1,c
  3513  00017E  CFF3 F026          	movff	prodl,___flmul@temp
  3514  000182  CFF4 F027          	movff	prodh,___flmul@temp+1
  3515  000186  5026               	movf	___flmul@temp,w,c
  3516  000188  261C               	addwf	___flmul@grs,f,c
  3517  00018A  5027               	movf	___flmul@temp+1,w,c
  3518  00018C  221D               	addwfc	___flmul@grs+1,f,c
  3519  00018E  0E00               	movlw	0
  3520  000190  221E               	addwfc	___flmul@grs+2,f,c
  3521  000192  0E00               	movlw	0
  3522  000194  221F               	addwfc	___flmul@grs+3,f,c
  3523  000196  5014               	movf	___flmul@a+1,w,c
  3524  000198  020F               	mulwf	___flmul@b,c
  3525  00019A  CFF3 F026          	movff	prodl,___flmul@temp
  3526  00019E  CFF4 F027          	movff	prodh,___flmul@temp+1
  3527  0001A2  5026               	movf	___flmul@temp,w,c
  3528  0001A4  261C               	addwf	___flmul@grs,f,c
  3529  0001A6  5027               	movf	___flmul@temp+1,w,c
  3530  0001A8  221D               	addwfc	___flmul@grs+1,f,c
  3531  0001AA  0E00               	movlw	0
  3532  0001AC  221E               	addwfc	___flmul@grs+2,f,c
  3533  0001AE  0E00               	movlw	0
  3534  0001B0  221F               	addwfc	___flmul@grs+3,f,c
  3535  0001B2  C01E  F01F         	movff	___flmul@grs+2,___flmul@grs+3
  3536  0001B6  C01D  F01E         	movff	___flmul@grs+1,___flmul@grs+2
  3537  0001BA  C01C  F01D         	movff	___flmul@grs,___flmul@grs+1
  3538  0001BE  6A1C               	clrf	___flmul@grs,c
  3539  0001C0  5013               	movf	___flmul@a,w,c
  3540  0001C2  020F               	mulwf	___flmul@b,c
  3541  0001C4  CFF3 F026          	movff	prodl,___flmul@temp
  3542  0001C8  CFF4 F027          	movff	prodh,___flmul@temp+1
  3543  0001CC  5026               	movf	___flmul@temp,w,c
  3544  0001CE  261C               	addwf	___flmul@grs,f,c
  3545  0001D0  5027               	movf	___flmul@temp+1,w,c
  3546  0001D2  221D               	addwfc	___flmul@grs+1,f,c
  3547  0001D4  0E00               	movlw	0
  3548  0001D6  221E               	addwfc	___flmul@grs+2,f,c
  3549  0001D8  0E00               	movlw	0
  3550  0001DA  221F               	addwfc	___flmul@grs+3,f,c
  3551  0001DC  5015               	movf	___flmul@a+2,w,c
  3552  0001DE  0210               	mulwf	___flmul@b+1,c
  3553  0001E0  CFF3 F026          	movff	prodl,___flmul@temp
  3554  0001E4  CFF4 F027          	movff	prodh,___flmul@temp+1
  3555  0001E8  5026               	movf	___flmul@temp,w,c
  3556  0001EA  2622               	addwf	___flmul@prod,f,c
  3557  0001EC  5027               	movf	___flmul@temp+1,w,c
  3558  0001EE  2223               	addwfc	___flmul@prod+1,f,c
  3559  0001F0  0E00               	movlw	0
  3560  0001F2  2224               	addwfc	___flmul@prod+2,f,c
  3561  0001F4  0E00               	movlw	0
  3562  0001F6  2225               	addwfc	___flmul@prod+3,f,c
  3563  0001F8  5014               	movf	___flmul@a+1,w,c
  3564  0001FA  0211               	mulwf	___flmul@b+2,c
  3565  0001FC  CFF3 F026          	movff	prodl,___flmul@temp
  3566  000200  CFF4 F027          	movff	prodh,___flmul@temp+1
  3567  000204  5026               	movf	___flmul@temp,w,c
  3568  000206  2622               	addwf	___flmul@prod,f,c
  3569  000208  5027               	movf	___flmul@temp+1,w,c
  3570  00020A  2223               	addwfc	___flmul@prod+1,f,c
  3571  00020C  0E00               	movlw	0
  3572  00020E  2224               	addwfc	___flmul@prod+2,f,c
  3573  000210  0E00               	movlw	0
  3574  000212  2225               	addwfc	___flmul@prod+3,f,c
  3575  000214  5015               	movf	___flmul@a+2,w,c
  3576  000216  0211               	mulwf	___flmul@b+2,c
  3577  000218  CFF3 F026          	movff	prodl,___flmul@temp
  3578  00021C  CFF4 F027          	movff	prodh,___flmul@temp+1
  3579  000220  5026               	movf	___flmul@temp,w,c
  3580  000222  6E17               	movwf	??___flmul& (0+255),c
  3581  000224  5027               	movf	___flmul@temp+1,w,c
  3582  000226  6E18               	movwf	(??___flmul+1)& (0+255),c
  3583  000228  6A19               	clrf	(??___flmul+2)& (0+255),c
  3584  00022A  6A1A               	clrf	(??___flmul+3)& (0+255),c
  3585  00022C  C019  F01A         	movff	??___flmul+2,??___flmul+3
  3586  000230  C018  F019         	movff	??___flmul+1,??___flmul+2
  3587  000234  C017  F018         	movff	??___flmul,??___flmul+1
  3588  000238  6A17               	clrf	??___flmul,c
  3589  00023A  5017               	movf	??___flmul,w,c
  3590  00023C  2622               	addwf	___flmul@prod,f,c
  3591  00023E  5018               	movf	??___flmul+1,w,c
  3592  000240  2223               	addwfc	___flmul@prod+1,f,c
  3593  000242  5019               	movf	??___flmul+2,w,c
  3594  000244  2224               	addwfc	___flmul@prod+2,f,c
  3595  000246  501A               	movf	??___flmul+3,w,c
  3596  000248  2225               	addwfc	___flmul@prod+3,f,c
  3597  00024A  C01C  F017         	movff	___flmul@grs,??___flmul
  3598  00024E  C01D  F018         	movff	___flmul@grs+1,??___flmul+1
  3599  000252  C01E  F019         	movff	___flmul@grs+2,??___flmul+2
  3600  000256  C01F  F01A         	movff	___flmul@grs+3,??___flmul+3
  3601  00025A  0E19               	movlw	25
  3602  00025C  D005               	goto	i2u69_40
  3603  00025E                     i2u69_45:
  3604  00025E  90D8               	bcf	status,0,c
  3605  000260  321A               	rrcf	??___flmul+3,f,c
  3606  000262  3219               	rrcf	??___flmul+2,f,c
  3607  000264  3218               	rrcf	??___flmul+1,f,c
  3608  000266  3217               	rrcf	??___flmul,f,c
  3609  000268                     i2u69_40:
  3610  000268  2EE8               	decfsz	wreg,f,c
  3611  00026A  D7F9               	goto	i2u69_45
  3612  00026C  5017               	movf	??___flmul,w,c
  3613  00026E  2622               	addwf	___flmul@prod,f,c
  3614  000270  5018               	movf	??___flmul+1,w,c
  3615  000272  2223               	addwfc	___flmul@prod+1,f,c
  3616  000274  5019               	movf	??___flmul+2,w,c
  3617  000276  2224               	addwfc	___flmul@prod+2,f,c
  3618  000278  501A               	movf	??___flmul+3,w,c
  3619  00027A  2225               	addwfc	___flmul@prod+3,f,c
  3620  00027C  C01E  F01F         	movff	___flmul@grs+2,___flmul@grs+3
  3621  000280  C01D  F01E         	movff	___flmul@grs+1,___flmul@grs+2
  3622  000284  C01C  F01D         	movff	___flmul@grs,___flmul@grs+1
  3623  000288  6A1C               	clrf	___flmul@grs,c
  3624  00028A  5020               	movf	___flmul@aexp,w,c
  3625  00028C  C021  F017         	movff	___flmul@bexp,??___flmul
  3626  000290  6A18               	clrf	(??___flmul+1)& (0+255),c
  3627  000292  2617               	addwf	??___flmul,f,c
  3628  000294  0E00               	movlw	0
  3629  000296  2218               	addwfc	??___flmul+1,f,c
  3630  000298  0E82               	movlw	130
  3631  00029A  2417               	addwf	??___flmul,w,c
  3632  00029C  6E26               	movwf	___flmul@temp,c
  3633  00029E  0EFF               	movlw	255
  3634  0002A0  2018               	addwfc	??___flmul+1,w,c
  3635  0002A2  6E27               	movwf	___flmul@temp+1,c
  3636  0002A4  D00F               	goto	i2l1838
  3637  0002A6                     i2l1832:
  3638  0002A6  90D8               	bcf	status,0,c
  3639  0002A8  3622               	rlcf	___flmul@prod,f,c
  3640  0002AA  3623               	rlcf	___flmul@prod+1,f,c
  3641  0002AC  3624               	rlcf	___flmul@prod+2,f,c
  3642  0002AE  3625               	rlcf	___flmul@prod+3,f,c
  3643  0002B0  BE1F               	btfsc	___flmul@grs+3,7,c
  3644  0002B2  8022               	bsf	___flmul@prod,0,c
  3645  0002B4  90D8               	bcf	status,0,c
  3646  0002B6  361C               	rlcf	___flmul@grs,f,c
  3647  0002B8  361D               	rlcf	___flmul@grs+1,f,c
  3648  0002BA  361E               	rlcf	___flmul@grs+2,f,c
  3649  0002BC  361F               	rlcf	___flmul@grs+3,f,c
  3650  0002BE  0626               	decf	___flmul@temp,f,c
  3651  0002C0  A0D8               	btfss	status,0,c
  3652  0002C2  0627               	decf	___flmul@temp+1,f,c
  3653  0002C4                     i2l1838:
  3654  0002C4  AE24               	btfss	___flmul@prod+2,7,c
  3655  0002C6  D7EF               	goto	i2l1832
  3656  0002C8  0E00               	movlw	0
  3657  0002CA  6E20               	movwf	___flmul@aexp,c
  3658  0002CC  AE1F               	btfss	___flmul@grs+3,7,c
  3659  0002CE  D017               	goto	i2l1104
  3660  0002D0  0EFF               	movlw	255
  3661  0002D2  141C               	andwf	___flmul@grs,w,c
  3662  0002D4  6E17               	movwf	??___flmul& (0+255),c
  3663  0002D6  0EFF               	movlw	255
  3664  0002D8  141D               	andwf	___flmul@grs+1,w,c
  3665  0002DA  6E18               	movwf	(??___flmul+1)& (0+255),c
  3666  0002DC  0EFF               	movlw	255
  3667  0002DE  141E               	andwf	___flmul@grs+2,w,c
  3668  0002E0  6E19               	movwf	(??___flmul+2)& (0+255),c
  3669  0002E2  0E7F               	movlw	127
  3670  0002E4  141F               	andwf	___flmul@grs+3,w,c
  3671  0002E6  6E1A               	movwf	(??___flmul+3)& (0+255),c
  3672  0002E8  5017               	movf	??___flmul,w,c
  3673  0002EA  1018               	iorwf	??___flmul+1,w,c
  3674  0002EC  1019               	iorwf	??___flmul+2,w,c
  3675  0002EE  101A               	iorwf	??___flmul+3,w,c
  3676  0002F0  B4D8               	btfsc	status,2,c
  3677  0002F2  D003               	goto	i2l1105
  3678  0002F4                     i2u73_40:
  3679  0002F4  0E01               	movlw	1
  3680  0002F6  6E20               	movwf	___flmul@aexp,c
  3681  0002F8  D002               	goto	i2l1104
  3682  0002FA                     i2l1105:
  3683  0002FA  B022               	btfsc	___flmul@prod,0,c
  3684  0002FC  D7FB               	goto	i2u73_40
  3685  0002FE                     i2l1104:
  3686  0002FE  5020               	movf	___flmul@aexp,w,c
  3687  000300  B4D8               	btfsc	status,2,c
  3688  000302  D01F               	goto	i2l1858
  3689  000304  0E01               	movlw	1
  3690  000306  2622               	addwf	___flmul@prod,f,c
  3691  000308  0E00               	movlw	0
  3692  00030A  2223               	addwfc	___flmul@prod+1,f,c
  3693  00030C  2224               	addwfc	___flmul@prod+2,f,c
  3694  00030E  2225               	addwfc	___flmul@prod+3,f,c
  3695  000310  A025               	btfss	___flmul@prod+3,0,c
  3696  000312  D017               	goto	i2l1858
  3697  000314  C022  F017         	movff	___flmul@prod,??___flmul
  3698  000318  C023  F018         	movff	___flmul@prod+1,??___flmul+1
  3699  00031C  C024  F019         	movff	___flmul@prod+2,??___flmul+2
  3700  000320  C025  F01A         	movff	___flmul@prod+3,??___flmul+3
  3701  000324  341A               	rlcf	??___flmul+3,w,c
  3702  000326  321A               	rrcf	??___flmul+3,f,c
  3703  000328  3219               	rrcf	??___flmul+2,f,c
  3704  00032A  3218               	rrcf	??___flmul+1,f,c
  3705  00032C  3217               	rrcf	??___flmul,f,c
  3706  00032E  C017  F022         	movff	??___flmul,___flmul@prod
  3707  000332  C018  F023         	movff	??___flmul+1,___flmul@prod+1
  3708  000336  C019  F024         	movff	??___flmul+2,___flmul@prod+2
  3709  00033A  C01A  F025         	movff	??___flmul+3,___flmul@prod+3
  3710  00033E  4A26               	infsnz	___flmul@temp,f,c
  3711  000340  2A27               	incf	___flmul@temp+1,f,c
  3712  000342                     i2l1858:
  3713  000342  BE27               	btfsc	___flmul@temp+1,7,c
  3714  000344  D00D               	goto	i2l1862
  3715  000346  5027               	movf	___flmul@temp+1,w,c
  3716  000348  E103               	bnz	i2u77_40
  3717  00034A  2826               	incf	___flmul@temp,w,c
  3718  00034C  A0D8               	btfss	status,0,c
  3719  00034E  D008               	goto	i2l1862
  3720  000350                     i2u77_40:
  3721  000350  0E00               	movlw	0
  3722  000352  6E22               	movwf	___flmul@prod,c
  3723  000354  0E00               	movlw	0
  3724  000356  6E23               	movwf	___flmul@prod+1,c
  3725  000358  0E80               	movlw	128
  3726  00035A  6E24               	movwf	___flmul@prod+2,c
  3727  00035C  0E7F               	movlw	127
  3728  00035E  D020               	goto	L2
  3729  000360                     i2l1862:
  3730  000360  BE27               	btfsc	___flmul@temp+1,7,c
  3731  000362  D005               	goto	i2u78_40
  3732  000364  5027               	movf	___flmul@temp+1,w,c
  3733  000366  E10E               	bnz	i2l1112
  3734  000368  0426               	decf	___flmul@temp,w,c
  3735  00036A  B0D8               	btfsc	status,0,c
  3736  00036C  D00B               	goto	i2l1112
  3737  00036E                     i2u78_40:
  3738  00036E  0E00               	movlw	0
  3739  000370  6E22               	movwf	___flmul@prod,c
  3740  000372  0E00               	movlw	0
  3741  000374  6E23               	movwf	___flmul@prod+1,c
  3742  000376  0E00               	movlw	0
  3743  000378  6E24               	movwf	___flmul@prod+2,c
  3744  00037A  0E00               	movlw	0
  3745  00037C  6E25               	movwf	___flmul@prod+3,c
  3746  00037E  0E00               	movlw	0
  3747  000380  6E1B               	movwf	___flmul@sign,c
  3748  000382  D00F               	goto	i2l1874
  3749  000384                     i2l1112:
  3750  000384  C026  F021         	movff	___flmul@temp,___flmul@bexp
  3751  000388  0EFF               	movlw	255
  3752  00038A  1622               	andwf	___flmul@prod,f,c
  3753  00038C  0EFF               	movlw	255
  3754  00038E  1623               	andwf	___flmul@prod+1,f,c
  3755  000390  0E7F               	movlw	127
  3756  000392  1624               	andwf	___flmul@prod+2,f,c
  3757  000394  0E00               	movlw	0
  3758  000396  1625               	andwf	___flmul@prod+3,f,c
  3759  000398  B021               	btfsc	___flmul@bexp,0,c
  3760  00039A  8E24               	bsf	___flmul@prod+2,7,c
  3761  00039C  90D8               	bcf	status,0,c
  3762  00039E  3021               	rrcf	___flmul@bexp,w,c
  3763  0003A0                     L2:
  3764  0003A0  6E25               	movwf	___flmul@prod+3,c
  3765  0003A2                     i2l1874:
  3766  0003A2  501B               	movf	___flmul@sign,w,c
  3767  0003A4  1225               	iorwf	___flmul@prod+3,f,c
  3768  0003A6  C022  F00F         	movff	___flmul@prod,?___flmul
  3769  0003AA  C023  F010         	movff	___flmul@prod+1,?___flmul+1
  3770  0003AE  C024  F011         	movff	___flmul@prod+2,?___flmul+2
  3771  0003B2  C025  F012         	movff	___flmul@prod+3,?___flmul+3
  3772  0003B6  0012               	return		;funcret
  3773  0003B8                     __end_of___flmul:
  3774                           	opt callstack 0
  3775                           
  3776 ;; *************** function _TMR1_StopTimer *****************
  3777 ;; Defined at:
  3778 ;;		line 105 in file "mcc_generated_files/tmr1.c"
  3779 ;; Parameters:    Size  Location     Type
  3780 ;;		None
  3781 ;; Auto vars:     Size  Location     Type
  3782 ;;		None
  3783 ;; Return value:  Size  Location     Type
  3784 ;;                  1    wreg      void 
  3785 ;; Registers used:
  3786 ;;		None
  3787 ;; Tracked objects:
  3788 ;;		On entry : 0/0
  3789 ;;		On exit  : 0/0
  3790 ;;		Unchanged: 0/0
  3791 ;; Data sizes:     COMRAM   BANK0   BANK1   BANK2   BANK3   BANK4   BANK5   BANK6   BANK7
  3792 ;;      Params:         0       0       0       0       0       0       0       0       0
  3793 ;;      Locals:         0       0       0       0       0       0       0       0       0
  3794 ;;      Temps:          0       0       0       0       0       0       0       0       0
  3795 ;;      Totals:         0       0       0       0       0       0       0       0       0
  3796 ;;Total ram usage:        0 bytes
  3797 ;; Hardware stack levels used:    1
  3798 ;; This function calls:
  3799 ;;		Nothing
  3800 ;; This function is called by:
  3801 ;;		_ping_CCP1_triggered
  3802 ;; This function uses a non-reentrant model
  3803 ;;
  3804                           
  3805                           	psect	text39
  3806  000A7A                     __ptext39:
  3807                           	opt callstack 0
  3808  000A7A                     _TMR1_StopTimer:
  3809                           	opt callstack 24
  3810                           
  3811                           ;mcc_generated_files/tmr1.c: 108:     T1CONbits.TMR1ON = 0;
  3812                           
  3813                           ;incstack = 0
  3814  000A7A  90CE               	bcf	4046,0,c	;volatile
  3815  000A7C  0012               	return		;funcret
  3816  000A7E                     __end_of_TMR1_StopTimer:
  3817                           	opt callstack 0
  3818  0000                     
  3819                           	psect	text40
  3820  000000                     __ptext40:
  3821                           	opt callstack 0
  3822                           
  3823                           	psect	rparam
  3824  0000                     
  3825                           	psect	temp
  3826  000042                     btemp:
  3827                           	opt callstack 0
  3828  000042                     	ds	1
  3829  0000                     int$flags	set	btemp
  3830  0000                     wtemp8	set	btemp+1
  3831  0000                     ttemp5	set	btemp+1
  3832  0000                     ttemp6	set	btemp+4
  3833  0000                     ttemp7	set	btemp+8
  3834                           tosu	equ	0xFFF
  3835                           tosh	equ	0xFFE
  3836                           tosl	equ	0xFFD
  3837                           stkptr	equ	0xFFC
  3838                           pclatu	equ	0xFFB
  3839                           pclath	equ	0xFFA
  3840                           pcl	equ	0xFF9
  3841                           tblptru	equ	0xFF8
  3842                           tblptrh	equ	0xFF7
  3843                           tblptrl	equ	0xFF6
  3844                           tablat	equ	0xFF5
  3845                           prodh	equ	0xFF4
  3846                           prodl	equ	0xFF3
  3847                           indf0	equ	0xFEF
  3848                           postinc0	equ	0xFEE
  3849                           postdec0	equ	0xFED
  3850                           preinc0	equ	0xFEC
  3851                           plusw0	equ	0xFEB
  3852                           fsr0h	equ	0xFEA
  3853                           fsr0l	equ	0xFE9
  3854                           wreg	equ	0xFE8
  3855                           indf1	equ	0xFE7
  3856                           postinc1	equ	0xFE6
  3857                           postdec1	equ	0xFE5
  3858                           preinc1	equ	0xFE4
  3859                           plusw1	equ	0xFE3
  3860                           fsr1h	equ	0xFE2
  3861                           fsr1l	equ	0xFE1
  3862                           bsr	equ	0xFE0
  3863                           indf2	equ	0xFDF
  3864                           postinc2	equ	0xFDE
  3865                           postdec2	equ	0xFDD
  3866                           preinc2	equ	0xFDC
  3867                           plusw2	equ	0xFDB
  3868                           fsr2h	equ	0xFDA
  3869                           fsr2l	equ	0xFD9
  3870                           status	equ	0xFD8


Data Sizes:
    Strings     0
    Constant    0
    Data        3
    BSS         16
    Persistent  10
    Stack       0

Auto Spaces:
    Space          Size  Autos    Used
    COMRAM           94     47      65
    BANK0           160      6      17
    BANK1           256      0       0
    BANK2           256      0       0
    BANK3           256      0       0
    BANK4           256      0       0
    BANK5           256      0       0
    BANK6           256      0       0
    BANK7           256      0       0

Pointer List with Targets:

    TMR1_SetInterruptHandler@InterruptHandler	PTR FTN()void  size(2) Largest target is 1
		 -> TMR1_DefaultInterruptHandler(), ping_TMR1Overflow_isr(), 

    TMR1_InterruptHandler	PTR FTN()void  size(2) Largest target is 1
		 -> TMR1_DefaultInterruptHandler(), ping_TMR1Overflow_isr(), Absolute function(), 

    CCP1_SetCallBack@customCallBack	PTR FTN(unsigned short ,)void  size(2) Largest target is 1
		 -> ping_CCP1_triggered(), CCP1_DefaultCallBack(), 

    CCP1_CallBack	PTR FTN(unsigned short ,)void  size(2) Largest target is 1
		 -> ping_CCP1_triggered(), CCP1_DefaultCallBack(), Absolute function(), 

    TMR2_SetInterruptHandler@InterruptHandler	PTR FTN()void  size(2) Largest target is 1
		 -> carcontrol_ISR(), TMR2_DefaultInterruptHandler(), 

    TMR2_InterruptHandler	PTR FTN()void  size(2) Largest target is 1
		 -> carcontrol_ISR(), TMR2_DefaultInterruptHandler(), Absolute function(), 

    IOCCF2_SetInterruptHandler@InterruptHandler	PTR FTN()void  size(2) Largest target is 1
		 -> ping_RC2_went_HIGH(), IOCCF2_DefaultInterruptHandler(), 

    IOCCF2_InterruptHandler	PTR FTN()void  size(2) Largest target is 1
		 -> ping_RC2_went_HIGH(), Absolute function(), IOCCF2_DefaultInterruptHandler(), 


Critical Paths under _main in COMRAM

    None.

Critical Paths under _INTERRUPT_InterruptManager in COMRAM

    _INTERRUPT_InterruptManager->_CCP1_CaptureISR
    _TMR2_ISR->_carcontrol_ISR
    _TMR1_ISR->i2_TMR1_WriteTimer
    _ping_TMR1Overflow_isr->i2_IOCCF2_SetInterruptHandler
    _ping_RC2_went_HIGH->i2_IOCCF2_SetInterruptHandler
    _ping_RC2_went_HIGH->i2_TMR1_WriteTimer
    _CCP1_CaptureISR->_CCP1_DefaultCallBack
    _CCP1_CaptureISR->_ping_CCP1_triggered
    _ping_CCP1_triggered->___flmul
    ___flmul->___xxtofl

Critical Paths under _main in BANK0

    _ping_send->_TMR1_WriteTimer
    _ping_init->_CCP1_SetCallBack
    _ping_init->_IOCCF2_SetInterruptHandler
    _ping_init->_TMR1_SetInterruptHandler
    _carcontrol_init->_TMR2_SetInterruptHandler
    _SYSTEM_Initialize->_TMR1_Initialize
    _TMR2_Initialize->_TMR2_SetInterruptHandler
    _TMR1_Initialize->_TMR1_SetInterruptHandler
    _PIN_MANAGER_Initialize->_IOCCF2_SetInterruptHandler
    _CCP1_Initialize->_CCP1_SetCallBack

Critical Paths under _INTERRUPT_InterruptManager in BANK0

    None.

Critical Paths under _main in BANK1

    None.

Critical Paths under _INTERRUPT_InterruptManager in BANK1

    None.

Critical Paths under _main in BANK2

    None.

Critical Paths under _INTERRUPT_InterruptManager in BANK2

    None.

Critical Paths under _main in BANK3

    None.

Critical Paths under _INTERRUPT_InterruptManager in BANK3

    None.

Critical Paths under _main in BANK4

    None.

Critical Paths under _INTERRUPT_InterruptManager in BANK4

    None.

Critical Paths under _main in BANK5

    None.

Critical Paths under _INTERRUPT_InterruptManager in BANK5

    None.

Critical Paths under _main in BANK6

    None.

Critical Paths under _INTERRUPT_InterruptManager in BANK6

    None.

Critical Paths under _main in BANK7

    None.

Critical Paths under _INTERRUPT_InterruptManager in BANK7

    None.

Call Graph Tables:

 ---------------------------------------------------------------------------------
 (Depth) Function   	        Calls       Base Space   Used Autos Params    Refs
 ---------------------------------------------------------------------------------
 (0) _main                                                 2     2      0    3396
                                              4 BANK0      2     2      0
                  _SYSTEM_Initialize
                    _carcontrol_init
                _carcontrol_steering
                          _ping_init
                          _ping_send
 ---------------------------------------------------------------------------------
 (1) _ping_send                                            0     0      0    1157
                    _TMR1_StartTimer
                    _TMR1_WriteTimer
                          _ping_init
 ---------------------------------------------------------------------------------
 (2) _ping_init                                            0     0      0     743
                   _CCP1_SetCallBack
         _IOCCF2_SetInterruptHandler
           _TMR1_SetInterruptHandler
 ---------------------------------------------------------------------------------
 (2) _TMR1_WriteTimer                                      2     0      2     414
                                              0 BANK0      2     0      2
 ---------------------------------------------------------------------------------
 (2) _TMR1_StartTimer                                      0     0      0       0
 ---------------------------------------------------------------------------------
 (1) _carcontrol_init                                      0     0      0     409
           _TMR2_SetInterruptHandler
                _carcontrol_steering
                _carcontrol_throttle
 ---------------------------------------------------------------------------------
 (2) _carcontrol_throttle                                  1     1      0      65
                                              0 BANK0      1     1      0
 ---------------------------------------------------------------------------------
 (1) _carcontrol_steering                                  1     1      0     133
                                              0 BANK0      1     1      0
 ---------------------------------------------------------------------------------
 (1) _SYSTEM_Initialize                                    0     0      0     954
                    _CCP1_Initialize
               _INTERRUPT_Initialize
              _OSCILLATOR_Initialize
             _PIN_MANAGER_Initialize
                     _PMD_Initialize
                    _TMR1_Initialize
                    _TMR2_Initialize
 ---------------------------------------------------------------------------------
 (2) _TMR2_Initialize                                      0     0      0     211
           _TMR2_SetInterruptHandler
 ---------------------------------------------------------------------------------
 (2) _TMR2_SetInterruptHandler                             2     0      2     211
                                              0 BANK0      2     0      2
 ---------------------------------------------------------------------------------
 (2) _TMR1_Initialize                                      2     2      0     211
                                              2 BANK0      2     2      0
           _TMR1_SetInterruptHandler
 ---------------------------------------------------------------------------------
 (3) _TMR1_SetInterruptHandler                             2     0      2     211
                                              0 BANK0      2     0      2
 ---------------------------------------------------------------------------------
 (2) _PMD_Initialize                                       0     0      0       0
 ---------------------------------------------------------------------------------
 (2) _PIN_MANAGER_Initialize                               0     0      0     321
         _IOCCF2_SetInterruptHandler
 ---------------------------------------------------------------------------------
 (3) _IOCCF2_SetInterruptHandler                           2     0      2     321
                                              0 BANK0      2     0      2
 ---------------------------------------------------------------------------------
 (2) _OSCILLATOR_Initialize                                0     0      0       0
 ---------------------------------------------------------------------------------
 (2) _INTERRUPT_Initialize                                 0     0      0       0
 ---------------------------------------------------------------------------------
 (2) _CCP1_Initialize                                      0     0      0     211
                   _CCP1_SetCallBack
 ---------------------------------------------------------------------------------
 (3) _CCP1_SetCallBack                                     2     0      2     211
                                              0 BANK0      2     0      2
 ---------------------------------------------------------------------------------
 Estimated maximum stack depth 3
 ---------------------------------------------------------------------------------
 (Depth) Function   	        Calls       Base Space   Used Autos Params    Refs
 ---------------------------------------------------------------------------------
 (4) _INTERRUPT_InterruptManager                           4     4      0    2692
                                             43 COMRAM     4     4      0
                    _CCP1_CaptureISR
                    _PIN_MANAGER_IOC
                           _TMR1_ISR
                           _TMR2_ISR
 ---------------------------------------------------------------------------------
 (5) _TMR2_ISR                                             0     0      0       0
                   Absolute function *
       _TMR2_DefaultInterruptHandler *
                     _carcontrol_ISR *
 ---------------------------------------------------------------------------------
 (6) _carcontrol_ISR                                       3     3      0       0
                                              0 COMRAM     3     3      0
 ---------------------------------------------------------------------------------
 (6) _TMR2_DefaultInterruptHandler                         0     0      0       0
 ---------------------------------------------------------------------------------
 (5) _TMR1_ISR                                             0     0      0     214
                   Absolute function *
       _TMR1_DefaultInterruptHandler *
              _ping_TMR1Overflow_isr *
                  i2_TMR1_WriteTimer
 ---------------------------------------------------------------------------------
 (6) _ping_TMR1Overflow_isr                                0     0      0      74
       i2_IOCCF2_SetInterruptHandler
 ---------------------------------------------------------------------------------
 (6) _TMR1_DefaultInterruptHandler                         0     0      0       0
 ---------------------------------------------------------------------------------
 (5) _PIN_MANAGER_IOC                                      0     0      0     214
                         _IOCCF2_ISR
 ---------------------------------------------------------------------------------
 (6) _IOCCF2_ISR                                           0     0      0     214
                   Absolute function *
     _IOCCF2_DefaultInterruptHandler *
                 _ping_RC2_went_HIGH *
 ---------------------------------------------------------------------------------
 (7) _ping_RC2_went_HIGH                                   0     0      0     214
       i2_IOCCF2_SetInterruptHandler
                  i2_TMR1_StartTimer
                  i2_TMR1_WriteTimer
 ---------------------------------------------------------------------------------
 (6) i2_TMR1_WriteTimer                                    2     0      2     140
                                              0 COMRAM     2     0      2
 ---------------------------------------------------------------------------------
 (8) i2_TMR1_StartTimer                                    0     0      0       0
 ---------------------------------------------------------------------------------
 (7) i2_IOCCF2_SetInterruptHandler                         2     0      2      74
                                              0 COMRAM     2     0      2
 ---------------------------------------------------------------------------------
 (7) _IOCCF2_DefaultInterruptHandler                       0     0      0       0
 ---------------------------------------------------------------------------------
 (5) _CCP1_CaptureISR                                      2     2      0    2264
                                             41 COMRAM     2     2      0
                   Absolute function *
               _CCP1_DefaultCallBack *
                _ping_CCP1_triggered *
 ---------------------------------------------------------------------------------
 (6) _ping_CCP1_triggered                                  2     0      2    2217
                                             39 COMRAM     2     0      2
                     _TMR1_StopTimer
                            ___flmul
                           ___xxtofl
 ---------------------------------------------------------------------------------
 (7) ___xxtofl                                            14    10      4     398
                                              0 COMRAM    14    10      4
 ---------------------------------------------------------------------------------
 (7) ___flmul                                             25    17      8    1744
                                             14 COMRAM    25    17      8
                           ___xxtofl (ARG)
 ---------------------------------------------------------------------------------
 (7) _TMR1_StopTimer                                       0     0      0       0
 ---------------------------------------------------------------------------------
 (6) _CCP1_DefaultCallBack                                 2     0      2       0
                                             39 COMRAM     2     0      2
 ---------------------------------------------------------------------------------
 (6) Absolute function(Fake)                               0     0      0       0
 ---------------------------------------------------------------------------------
 Estimated maximum stack depth 8
 ---------------------------------------------------------------------------------

 Call Graph Graphs:

 _main (ROOT)
   _SYSTEM_Initialize
     _CCP1_Initialize
       _CCP1_SetCallBack
     _INTERRUPT_Initialize
     _OSCILLATOR_Initialize
     _PIN_MANAGER_Initialize
       _IOCCF2_SetInterruptHandler
     _PMD_Initialize
     _TMR1_Initialize
       _TMR1_SetInterruptHandler
     _TMR2_Initialize
       _TMR2_SetInterruptHandler
   _carcontrol_init
     _TMR2_SetInterruptHandler
     _carcontrol_steering
     _carcontrol_throttle
   _carcontrol_steering
   _ping_init
     _CCP1_SetCallBack
     _IOCCF2_SetInterruptHandler
     _TMR1_SetInterruptHandler
   _ping_send
     _TMR1_StartTimer
     _TMR1_WriteTimer
     _ping_init
       _CCP1_SetCallBack
       _IOCCF2_SetInterruptHandler
       _TMR1_SetInterruptHandler

 _INTERRUPT_InterruptManager (ROOT)
   _CCP1_CaptureISR
     Absolute function(Fake) *
     _CCP1_DefaultCallBack *
     _ping_CCP1_triggered *
       _TMR1_StopTimer
       ___flmul
         ___xxtofl (ARG)
       ___xxtofl
   _PIN_MANAGER_IOC
     _IOCCF2_ISR
       Absolute function(Fake) *
       _IOCCF2_DefaultInterruptHandler *
       _ping_RC2_went_HIGH *
         i2_IOCCF2_SetInterruptHandler
         i2_TMR1_StartTimer
         i2_TMR1_WriteTimer
   _TMR1_ISR
     Absolute function(Fake) *
     _TMR1_DefaultInterruptHandler *
     _ping_TMR1Overflow_isr *
       i2_IOCCF2_SetInterruptHandler
     i2_TMR1_WriteTimer *
   _TMR2_ISR
     Absolute function(Fake) *
     _TMR2_DefaultInterruptHandler *
     _carcontrol_ISR *

 Address spaces:
Name               Size   Autos  Total    Cost      Usage
BIGRAM             7FF      0       0      21        0.0%
EEDATA             100      0       0       0        0.0%
BITBANK7           100      0       0      19        0.0%
BANK7              100      0       0      20        0.0%
BITBANK6           100      0       0      16        0.0%
BANK6              100      0       0      17        0.0%
BITBANK5           100      0       0      14        0.0%
BANK5              100      0       0      15        0.0%
BITBANK4           100      0       0      12        0.0%
BANK4              100      0       0      13        0.0%
BITBANK3           100      0       0      10        0.0%
BANK3              100      0       0      11        0.0%
BITBANK2           100      0       0       8        0.0%
BANK2              100      0       0       9        0.0%
BITBANK1           100      0       0       6        0.0%
BANK1              100      0       0       7        0.0%
BITBANK0            A0      0       0       4        0.0%
BANK0               A0      6      11       5       10.6%
BITCOMRAM           5E      0       0       0        0.0%
COMRAM              5E     2F      41       1       69.1%
BITSFR_2             0      0       0     200        0.0%
SFR_2                0      0       0     200        0.0%
BITSFR_1             0      0       0     200        0.0%
SFR_1                0      0       0     200        0.0%
BITSFR               0      0       0     200        0.0%
SFR                  0      0       0     200        0.0%
STACK                0      0       0       2        0.0%
NULL                 0      0       0       0        0.0%
ABS                  0      0      52      18        0.0%
DATA                 0      0      52       3        0.0%
CODE                 0      0       0       0        0.0%


Microchip Technology PIC18 Macro Assembler V2.05 build -831301201 
Symbol Table                                                                                   Tue Apr  9 19:13:31 2019

            __end_of_TMR2_SetInterruptHandler 0A46                             ??_carcontrol_init 006B  
                                 __CFG_CP$OFF 000000                           _carcontrol_throttle 0A1A  
                         _carcontrol_steering 07F0                       __end_of_CCP1_Initialize 08AC  
                                 __CFG_LVP$ON 000000                                           _PR2 000FBB  
                                __CFG_CPD$OFF 000000                               _timer1ReloadVal 0032  
                     __size_of_PMD_Initialize 001C                               _TMR2_Initialize 0850  
                                         tosl 000FFD                                           wreg 000FE8  
            ??_IOCCF2_DefaultInterruptHandler 0001               ?_IOCCF2_DefaultInterruptHandler 0001  
                                ___flmul@aexp 0020                                  ___flmul@bexp 0021  
                                ___flmul@sign 001B                                  ___flmul@temp 0026  
                                ___flmul@prod 0022                   carcontrol_steering@steering 0069  
                                __CFG_ZCD$OFF 000000                                          l2310 0804  
                                        l2314 0812                                          l2322 0A2A  
                                        l2334 0984                                          u1237 06B6  
                                        _LATA 000F82                                          _LATB 000F83  
                                        u1247 06CC                                          _LATC 000F84  
                                        u1257 06E2                                          _T2PR 000FBB  
                                        _PMD0 000EDC                                          _PMD1 000EDD  
                                        _PMD2 000EDE                                          _PMD3 000EDF  
                                        _PMD4 000EE0                                          _PMD5 000EE1  
                                        _TMR2 000FBA                                          _WPUA 000F0B  
                                        _WPUB 000F13                                          _WPUC 000F1B  
                                        _WPUE 000F28                          ?_carcontrol_throttle 0001  
                        ?_carcontrol_steering 0001                                 __CFG_FCMEN$ON 000000  
                                        _main 069A                                          btemp 0042  
                                        prodh 000FF4                                          prodl 000FF3  
                                        start 0062                      __end_of_CCP1_SetCallBack 0A64  
                  ??_TMR1_SetInterruptHandler 006B                                 __CFG_CSWEN$ON 000000  
                                ___param_bank 000000                              ?_CCP1_CaptureISR 0001  
                               __CFG_SCANE$ON 000000                __size_of_OSCILLATOR_Initialize 0018  
               __end_of_OSCILLATOR_Initialize 0A1A                           __size_of_IOCCF2_ISR 0026  
                                       ?_main 0001                                 __CFG_WDTE$OFF 000000  
                             __end_of___flmul 03B8                               _TMR1_StartTimer 0A6E  
                                       _T1CLK 000FD1                                         _T1CON 000FCE  
                                       _T2CON 000FBC                                         _T2HLT 000FBD  
                              __CFG_DEBUG$OFF 000000                                         _T2TMR 000FBA  
                                       _T2RST 000FBF                                         i2l231 004E  
                                       i2l232 0038                                         i2l234 0044  
                                       i2l229 0028                                         _OSCEN 000ED7  
                                       _TMR1H 000FCD                                         _TMR1L 000FCC  
                                       _TRISA 000F87                                         _TRISB 000F88  
                                       _TRISC 000F89                                 __CFG_WRT0$OFF 000000  
                               __CFG_WRT1$OFF 000000                                 __CFG_WRT2$OFF 000000  
                               __CFG_WRT3$OFF 000000                                __CFG_EBTR0$OFF 000000  
                              __CFG_EBTR1$OFF 000000                                __CFG_EBTR2$OFF 000000  
                              __CFG_EBTR3$OFF 000000                              __end_of_TMR1_ISR 0850  
                            __end_of_TMR2_ISR 0928                                 __CFG_WRTB$OFF 000000  
                               __CFG_WRTC$OFF 000000                                 __CFG_WRTD$OFF 000000  
                              __CFG_EBTRB$OFF 000000                       __end_of_PIN_MANAGER_IOC 0A3C  
                          __CFG_MCLRE$EXTMCLR 000000                       __end_of_TMR1_Initialize 0736  
                       ??_carcontrol_throttle 0069                         ??_carcontrol_steering 0069  
                                       pclath 000FFA                                         tablat 000FF5  
                                       ttemp5 0043                                         ttemp6 0046  
                                       ttemp7 004A                                         status 000FD8  
                                       wtemp8 0043                                _carcontrol_ISR 04F8  
                             _TMR1_WriteTimer 0970                               __initialization 0736  
                                __end_of_main 06F0                       __end_of_TMR2_Initialize 087E  
                 ?_INTERRUPT_InterruptManager 0001                      _TMR2_SetInterruptHandler 0A3C  
                                      ??_main 006D                              ?_CCP1_Initialize 0001  
                               __activetblptr 000002                       _IOCCF2_InterruptHandler 0036  
                                      _CCPR1H 000FAA                                        _CCPR1L 000FA9  
                                      _ANSELA 000F0C                                        _ANSELB 000F14  
                                      _ANSELC 000F1C                                        _T1GATE 000FD0  
                                      _T1GCON 000FCF                 __size_of_CCP1_DefaultCallBack 0002  
                     TMR1_WriteTimer@timerVal 0069                                        _ODCONA 000F0A  
                                      _ODCONB 000F12                                        _ODCONC 000F1A  
                      __end_of_carcontrol_ISR 05DE                                        i2l1112 0384  
                                      i2l1104 02FE                                        i2l1105 02FA  
                                      i2l2022 04FA                                        i2l1143 0474  
                                      i2l1136 03F6                                        i2l2028 050C  
                                      i2l2038 0532                                        i2l1095 00E6  
                                      i2l2048 0588                                        i2l2064 05B2  
                              __CFG_WDTCCS$SC 000000                                        i2l1730 09F8  
                                      i2l1832 02A6                                        i2l1904 049A  
                                      i2l1762 0092                                        i2l1922 04E6  
                                      i2l1906 04A6                                        i2l1780 00D2  
                                      i2l1764 0096                                        i2l1862 0360  
                                      i2l1838 02C4                                        i2l1790 0104  
                                      i2l1782 00D6                                        i2l1766 00A6  
                                      i2l1874 03A2                                        i2l1858 0342  
                                      i2l1892 0424                                        i2l1894 042A  
                                      i2l1886 0406                                        i2l1896 0436  
                                      i2l1898 045C                                        _OSCFRQ 000ED9  
                            __end_of___xxtofl 04F8                                 _CCP1_CallBack 0034  
                              __CFG_PWRTE$OFF 000000                                __CFG_XINST$OFF 000000  
        __end_of_TMR1_DefaultInterruptHandler 0A86         __size_of_TMR1_DefaultInterruptHandler 0002  
                _TMR1_DefaultInterruptHandler 0A84                       __end_of_TMR1_StartTimer 0A72  
                              __CFG_STVREN$ON 000000                                     ??___flmul 0017  
                                      _carctl 0060                                        clear_0 075A  
                                      clear_1 0766                                        _status 0038  
                 __end_of_ping_CCP1_triggered 069A                                _PMD_Initialize 09AE  
                                __pdataCOMRAM 003F                                        tblptrh 000FF7  
                                      tblptrl 000FF6                                        tblptru 000FF8  
                     ??_ping_TMR1Overflow_isr 0003  i2IOCCF2_SetInterruptHandler@InterruptHandler 0001  
    TMR1_SetInterruptHandler@InterruptHandler 0069      TMR2_SetInterruptHandler@InterruptHandler 0069  
  IOCCF2_SetInterruptHandler@InterruptHandler 0069                              ?_PIN_MANAGER_IOC 0001  
                     __end_of_TMR1_WriteTimer 0990                 __size_of_INTERRUPT_Initialize 0004  
                                ??_IOCCF2_ISR 0003                   __size_of_ping_RC2_went_HIGH 0022  
                            ?_TMR1_Initialize 0001                               ?_carcontrol_ISR 0001  
                                ___xxtofl@arg 000B                                  ___xxtofl@exp 000A  
                           _SYSTEM_Initialize 0990                                  ___xxtofl@val 0001  
                             _carcontrol_init 07BC                                    __accesstop 0060  
                     __end_of__initialization 076C                            ?_SYSTEM_Initialize 0001  
                               ___rparam_used 000001                                __pcstackCOMRAM 0001  
                         ??_SYSTEM_Initialize 006D                                     ?_TMR1_ISR 0001  
                                   ?_TMR2_ISR 0001                 ?_TMR1_DefaultInterruptHandler 0001  
                            ?_TMR2_Initialize 0001                        __end_of_PMD_Initialize 09CA  
                          __end_of_IOCCF2_ISR 094E                     __end_of_SYSTEM_Initialize 09AE  
                                  __pbssBANK0 0060                                    __pnvCOMRAM 0030  
      __end_of_IOCCF2_DefaultInterruptHandler 0A88       __size_of_IOCCF2_DefaultInterruptHandler 0002  
              _IOCCF2_DefaultInterruptHandler 0A86                             ?_CCP1_SetCallBack 0069  
                            ?_TMR1_StartTimer 0001                                    ??_TMR1_ISR 0003  
                             __CFG_PPS1WAY$ON 000000                                    ??_TMR2_ISR 0004  
                          ??_CCP1_SetCallBack 006B                            __size_of_ping_init 0042  
                          __size_of_ping_send 002A                                       _CCP1CAP 000FAC  
                                     _CCP1CON 000FAB                                       _CCP1PPS 000EAA  
                             ?_PMD_Initialize 0001                       __size_of_TMR1_StopTimer 0004  
                                   ?___xxtofl 0001                                       _OSCCON1 000ED3  
                                     _OSCCON3 000ED5                       __end_of_carcontrol_init 07F0  
                                     _OSCTUNE 000ED8                                       i2u73_40 02F4  
                                     i2u68_40 00F2                                       i2u91_48 0934  
                                     i2u91_49 0948                                       i2u77_40 0350  
                                     i2u69_40 0268                                       i2u69_45 025E  
                                     i2u78_40 036E                                       i2u86_40 04B0  
                                     i2u95_40 0524                                       i2u98_40 057A  
                                     _SLRCONA 000F09                                       _SLRCONB 000F11  
                                     _SLRCONC 000F19                              ?_TMR1_WriteTimer 0069  
           CCP1_DefaultCallBack@capturedValue 0028                                       __Hparam 0000  
                                     __Lparam 0000                    ??_TMR2_SetInterruptHandler 006B  
                  __CFG_RSTOSC$HFINTOSC_64MHZ 000000                                       ___flmul 0066  
                                     __pcinit 0736                                       __ramtop 0800  
                                     __ptext0 069A                                       __ptext1 08D8  
                                     __ptext2 077A                                       __ptext3 0970  
                                     __ptext4 0A6E                                       __ptext5 07BC  
                                     __ptext6 0A1A                                       __ptext7 07F0  
                                     __ptext8 0990                                       __ptext9 0850  
                    __size_of_CCP1_CaptureISR 002C                ??_TMR1_DefaultInterruptHandler 0001  
                                   _T1CONbits 000FCE                         _OSCILLATOR_Initialize 0A02  
                                   _T2CONbits 000FBC                                    ??___xxtofl 0005  
           __size_of_TMR1_SetInterruptHandler 000A                   __end_of_carcontrol_throttle 0A30  
                    ??_PIN_MANAGER_Initialize 006B                     ?_TMR1_SetInterruptHandler 0069  
                 __end_of_carcontrol_steering 0820                                     _T2HLTbits 000FBD  
                                   _IOCCFbits 000F15                                     _IOCCNbits 000F16  
                                   _IOCCPbits 000F17                    __size_of_SYSTEM_Initialize 001E  
                        end_of_initialization 076C                             __end_of_ping_init 07BC  
                                   _T2RSTbits 000FBF                             __end_of_ping_send 0902  
                               __Lmediumconst 0000                                       postinc0 000FEE  
                __end_of_CCP1_DefaultCallBack 0A8A                         __CFG_WDTCPS$WDTCPS_31 000000  
                                  _servo_trim 0041                                 ___xxtofl@sign 0009  
                                   _TRISCbits 000F89                              ??_carcontrol_ISR 0001  
                            ?_carcontrol_init 0001                      __size_of_CCP1_Initialize 002E  
                ??_IOCCF2_SetInterruptHandler 006B                              __CFG_FEXTOSC$OFF 000000  
              __size_of_ping_TMR1Overflow_isr 001C                 __end_of_ping_TMR1Overflow_isr 09E6  
                                 ___flmul@grs 001C                  __end_of_INTERRUPT_Initialize 0A76  
        __end_of_TMR2_DefaultInterruptHandler 0A84         __size_of_TMR2_DefaultInterruptHandler 0002  
                _TMR2_DefaultInterruptHandler 0A82                     i2TMR1_WriteTimer@timerVal 0001  
                               __pidataCOMRAM 0A7E                             __size_of_TMR1_ISR 0030  
                           __size_of_TMR2_ISR 0026                                _TMR1_StopTimer 0A7A  
                      ?_OSCILLATOR_Initialize 0001           __size_of_IOCCF2_SetInterruptHandler 000A  
                         start_initialization 0736               __size_of_PIN_MANAGER_Initialize 0060  
                  __end_of_ping_RC2_went_HIGH 0970                             ??_CCP1_CaptureISR 002A  
                __size_of_ping_CCP1_triggered 005C                      __size_of_PIN_MANAGER_IOC 000C  
                            __CFG_LPBOREN$OFF 000000                      __size_of_TMR1_Initialize 0046  
                            ??_PMD_Initialize 0069                                   _CCPTMRSbits 000FAD  
                      __end_of_TMR1_StopTimer 0A7E                 ?_TMR2_DefaultInterruptHandler 0001  
                       CCP1_CaptureISR@module 002A          __end_ofi2_IOCCF2_SetInterruptHandler 0A6E  
       __size_ofi2_IOCCF2_SetInterruptHandler 000A                  i2_IOCCF2_SetInterruptHandler 0A64  
                                   ___flmul@a 0013                                     ___flmul@b 000F  
                                 __pbssCOMRAM 0038                     __size_of_CCP1_SetCallBack 000A  
                               __pcstackBANK0 0069                      __size_of_TMR2_Initialize 002E  
                           __size_of___xxtofl 0140                          _CCP1_DefaultCallBack 0A88  
                           ??_CCP1_Initialize 006B                                     __pnvBANK0 006F  
                      _PIN_MANAGER_Initialize 05DE                                     __pintcode 0008  
            __end_of_TMR1_SetInterruptHandler 0A50                                      ?___flmul 000F  
                             ?_TMR1_StopTimer 0001                  ??_INTERRUPT_InterruptManager 002C  
                    __size_of_TMR1_StartTimer 0004            __end_of_IOCCF2_SetInterruptHandler 0A5A  
               ?i2_IOCCF2_SetInterruptHandler 0001                    _IOCCF2_SetInterruptHandler 0A50  
                                    _T2CLKCON 000FBE                         ?_CCP1_DefaultCallBack 0028  
                        _INTERRUPT_Initialize 0A72                          ping_init@initialized 0068  
                                    _LATAbits 000F82                                      _LATCbits 000F84  
                                   _ping_init 077A                                      _PIE0bits 000EBD  
                                   _ping_send 08D8                                      _PIE4bits 000EC1  
                                    _PIE6bits 000EC3                      __size_of_TMR1_WriteTimer 0020  
                                    i2u104_48 0914                                      i2u105_48 08C4  
                                    i2u107_48 083C           __size_of_INTERRUPT_InterruptManager 005A  
                                    _PIR0bits 000EC5                                      _PIR4bits 000EC9  
                                    _PIR6bits 000ECB                                      _TMR1_ISR 0820  
                                    _TMR2_ISR 0902                                     _servo_max 003F  
                                   _servo_min 0040                             ??_PIN_MANAGER_IOC 0003  
                           ??_TMR1_Initialize 006B                                     _stateTime 0066  
                           i2_TMR1_StartTimer 0A76                ??_TMR2_DefaultInterruptHandler 0001  
           __size_of_TMR2_SetInterruptHandler 000A                     ?_TMR2_SetInterruptHandler 0069  
                          ?i2_TMR1_StartTimer 0001                         ?_INTERRUPT_Initialize 0001  
                __size_of_carcontrol_throttle 0016                  __size_of_carcontrol_steering 0030  
                           ??_TMR2_Initialize 006B                           ??i2_TMR1_StartTimer 0001  
                                  ?_ping_init 0001                                    ?_ping_send 0001  
                                    __Hrparam 0000                             i2_TMR1_WriteTimer 09E6  
                                    __Lrparam 0000                            __CFG_BOREN$SBORDIS 000000  
                          ?i2_TMR1_WriteTimer 0001                       ??_OSCILLATOR_Initialize 0069  
                         _ping_CCP1_triggered 063E                              __size_of___flmul 0352  
                             _CCP1_CaptureISR 08AC                      _TMR1_SetInterruptHandler 0A46  
                   __end_ofi2_TMR1_StartTimer 0A7A                           ??i2_TMR1_WriteTimer 0003  
                       _TMR1_InterruptHandler 0030                                      ___xxtofl 03B8  
                            _CCP1_SetCallBack 0A5A                CCP1_SetCallBack@customCallBack 0069  
                                    __ptext10 0A3C                                      __ptext11 06F0  
                                    __ptext12 0A46                                      __ptext21 0902  
                                    __ptext13 09AE                                    _T1GCONbits 000FCF  
                                    __ptext30 094E                                      __ptext22 0A82  
                                    __ptext14 05DE                                      __ptext31 09E6  
                                    __ptext23 04F8                                      __ptext15 0A50  
                                    __ptext40 0000                                      __ptext32 0A76  
                                    __ptext24 0820                                      __ptext16 0A02  
                                    __ptext33 0A64                                      __ptext25 0A84  
                                    __ptext17 0A72                                      __ptext34 08AC  
                                    __ptext26 09CA                                      __ptext18 087E  
                                    __ptext35 0A88                                      __ptext27 0A30  
                                    __ptext19 0A5A                                      __ptext36 063E  
                                    __ptext28 0928                                      __ptext37 03B8  
                                    __ptext29 0A86                                      __ptext38 0066  
                                    __ptext39 0A7A                        ??_CCP1_DefaultCallBack 002A  
                        ?_ping_CCP1_triggered 0028                             ??_TMR1_StartTimer 0069  
                                  _IOCCF2_ISR 0928                ??i2_IOCCF2_SetInterruptHandler 0003  
                               __size_of_main 0056                         _ping_TMR1Overflow_isr 09CA  
                    __size_of_carcontrol_init 0034                     __end_ofi2_TMR1_WriteTimer 0A02  
                        __CFG_WDTCWS$WDTCWS_7 000000                            __CFG_BORV$VBOR_190 000000  
                          _ping_RC2_went_HIGH 094E               ping_CCP1_triggered@timeOfFlight 0028  
                                    int$flags 0042            __end_of_INTERRUPT_InterruptManager 0062  
                  _INTERRUPT_InterruptManager 0008                           ?_ping_RC2_went_HIGH 0001  
                           ??_TMR1_WriteTimer 006B                                    _INTCONbits 000FF2  
                             _CCP1_Initialize 087E                        ??_INTERRUPT_Initialize 0069  
                       ??_ping_CCP1_triggered 002A                          ??_ping_RC2_went_HIGH 0003  
                                    intlevel2 0000                       ?_PIN_MANAGER_Initialize 0001  
                           __CFG_CLKOUTEN$OFF 000000                                   ??_ping_init 006B  
                     __size_of_carcontrol_ISR 00E6                                   ??_ping_send 006B  
                            ??_TMR1_StopTimer 0001                       __end_of_CCP1_CaptureISR 08D8  
                 carcontrol_throttle@throttle 0069                    __size_ofi2_TMR1_StartTimer 0004  
                 ?_IOCCF2_SetInterruptHandler 0069                                   ?_IOCCF2_ISR 0001  
              __end_of_PIN_MANAGER_Initialize 063E                        ?_ping_TMR1Overflow_isr 0001  
                             _PIN_MANAGER_IOC 0A30                         _TMR2_InterruptHandler 006F  
                  __size_ofi2_TMR1_WriteTimer 001C                               _TMR1_Initialize 06F0  
