

Microchip MPLAB XC8 Assembler V2.05 build -831301201 
                                                                                               Tue Apr  2 00:11:14 2019

Microchip MPLAB XC8 C Compiler v2.05 (Free license) build 20181220022703 Og1 
     1                           	processor	18F25Q10
     2                           	fnconf	rparam,??,?,0
     3                           	opt	pw 120
     4                           	opt	flic
     5                           	psect	nvBANK0,global,class=BANK0,space=1,delta=1,lowdata,noexec
     6                           	psect	cinit,global,reloc=2,class=CODE,delta=1
     7                           	psect	cstackBANK0,global,class=BANK0,space=1,delta=1,noexec
     8                           	psect	cstackCOMRAM,global,class=COMRAM,space=1,delta=1,noexec
     9                           	psect	text0,global,reloc=2,class=CODE,delta=1
    10                           	psect	text1,global,reloc=2,class=CODE,delta=1
    11                           	psect	text2,global,reloc=2,class=CODE,delta=1
    12                           	psect	text3,global,reloc=2,class=CODE,delta=1
    13                           	psect	text4,global,reloc=2,class=CODE,delta=1
    14                           	psect	text5,global,reloc=2,class=CODE,delta=1
    15                           	psect	text6,global,reloc=2,class=CODE,delta=1,group=1
    16                           	psect	text7,global,reloc=2,class=CODE,delta=1,group=1
    17                           	psect	text8,global,reloc=2,class=CODE,delta=1,group=1
    18                           	psect	text9,global,reloc=2,class=CODE,delta=1,group=1
    19                           	psect	text10,global,reloc=2,class=CODE,delta=1,group=1
    20                           	psect	text11,global,reloc=2,class=CODE,delta=1
    21                           	psect	text12,global,reloc=2,class=CODE,delta=1
    22                           	psect	text13,global,reloc=2,class=CODE,delta=1
    23                           	psect	text14,global,reloc=2,class=CODE,delta=1
    24                           	psect	text15,global,reloc=2,class=CODE,delta=1
    25                           	psect	text16,global,reloc=2,class=CODE,delta=1
    26                           	psect	text17,global,reloc=2,class=CODE,delta=1
    27                           	psect	text18,global,reloc=2,class=CODE,delta=1
    28                           	psect	intsave_regs,global,class=BIGRAM,space=1,delta=1,noexec
    29                           	psect	rparam,global,class=COMRAM,space=1,delta=1,noexec
    30  0000                     
    31                           ; Version 2.05
    32                           ; Generated 20/12/2018 GMT
    33                           ; 
    34                           ; Copyright © 2018, Microchip Technology Inc. and its subsidiaries ("Microchip")
    35                           ; All rights reserved.
    36                           ; 
    37                           ; This software is developed by Microchip Technology Inc. and its subsidiaries ("Microch
      +                          ip").
    38                           ; 
    39                           ; Redistribution and use in source and binary forms, with or without modification, are
    40                           ; permitted provided that the following conditions are met:
    41                           ; 
    42                           ;     1. Redistributions of source code must retain the above copyright notice, this lis
      +                          t of
    43                           ;        conditions and the following disclaimer.
    44                           ; 
    45                           ;     2. Redistributions in binary form must reproduce the above copyright notice, this 
      +                          list
    46                           ;        of conditions and the following disclaimer in the documentation and/or other
    47                           ;        materials provided with the distribution.
    48                           ; 
    49                           ;     3. Microchip's name may not be used to endorse or promote products derived from th
      +                          is
    50                           ;        software without specific prior written permission.
    51                           ; 
    52                           ; THIS SOFTWARE IS PROVIDED BY MICROCHIP "AS IS" AND ANY EXPRESS OR IMPLIED WARRANTIES,
    53                           ; INCLUDING, BUT NOT LIMITED TO, THE IMPLIED WARRANTIES OF MERCHANTABILITY AND FITNESS F
      +                          OR
    54                           ; PURPOSE ARE DISCLAIMED.  IN NO EVENT SHALL MICROCHIP BE LIABLE FOR ANY DIRECT, INDIREC
      +                          T,
    55                           ; INCIDENTAL, SPECIAL, EXEMPLARY, OR CONSEQUENTIAL DAMAGES (INCLUDING BUT NOT LIMITED TO
    56                           ; PROCUREMENT OF SUBSTITUTE GOODS OR SERVICES; LOSS OF USE, DATA OR PROFITS; OR BUSINESS
    57                           ; INTERRUPTION) HOWSOEVER CAUSED AND ON ANY THEORY OF LIABILITY, WHETHER IN CONTRACT, ST
      +                          RICT
    58                           ; LIABILITY, OR TORT (INCLUDING NEGLIGENCE OR OTHERWISE) ARISING IN ANY WAY OUT OF THE U
      +                          SE OF
    59                           ; THIS SOFTWARE, EVEN IF ADVISED OF THE POSSIBILITY OF SUCH DAMAGE.
    60                           ; 
    61                           ; 
    62                           ; Code-generator required, PIC18F25Q10 Definitions
    63                           ; 
    64                           ; SFR Addresses
    65  0000                     
    66                           	psect	nvBANK0
    67  00006E                     __pnvBANK0:
    68                           	opt callstack 0
    69  00006E                     _range_val:
    70                           	opt callstack 0
    71  00006E                     	ds	1
    72  00006F                     _center_val:
    73                           	opt callstack 0
    74  00006F                     	ds	1
    75  0000                     _PIR4bits	set	3785
    76  0000                     _RA0PPS	set	3810
    77  0000                     _RA1PPS	set	3811
    78  0000                     _PMD5	set	3809
    79  0000                     _PMD4	set	3808
    80  0000                     _PMD3	set	3807
    81  0000                     _PMD2	set	3806
    82  0000                     _PMD1	set	3805
    83  0000                     _PMD0	set	3804
    84  0000                     _OSCTUNE	set	3800
    85  0000                     _OSCFRQ	set	3801
    86  0000                     _OSCEN	set	3799
    87  0000                     _OSCCON3	set	3797
    88  0000                     _OSCCON1	set	3795
    89  0000                     _SLRCONC	set	3865
    90  0000                     _SLRCONB	set	3857
    91  0000                     _SLRCONA	set	3849
    92  0000                     _ODCONC	set	3866
    93  0000                     _ODCONB	set	3858
    94  0000                     _ODCONA	set	3850
    95  0000                     _WPUC	set	3867
    96  0000                     _WPUA	set	3851
    97  0000                     _WPUB	set	3859
    98  0000                     _WPUE	set	3880
    99  0000                     _ANSELA	set	3852
   100  0000                     _ANSELB	set	3860
   101  0000                     _ANSELC	set	3868
   102  0000                     _PWM4DCL	set	3999
   103  0000                     _PWM4DCH	set	4000
   104  0000                     _PWM4CON	set	4001
   105  0000                     _PR2	set	4027
   106  0000                     _TMR2	set	4026
   107  0000                     _T2CONbits	set	4028
   108  0000                     _T2RSTbits	set	4031
   109  0000                     _T2HLTbits	set	4029
   110  0000                     _T2CON	set	4028
   111  0000                     _T2TMR	set	4026
   112  0000                     _T2PR	set	4027
   113  0000                     _T2RST	set	4031
   114  0000                     _T2HLT	set	4029
   115  0000                     _T2CLKCON	set	4030
   116  0000                     _CCPTMRSbits	set	4013
   117  0000                     _PWM3DCL	set	4002
   118  0000                     _PWM3DCH	set	4003
   119  0000                     _PWM3CON	set	4004
   120  0000                     _TRISC	set	3977
   121  0000                     _TRISB	set	3976
   122  0000                     _TRISA	set	3975
   123  0000                     _LATC	set	3972
   124  0000                     _LATB	set	3971
   125  0000                     _LATA	set	3970
   126                           
   127                           ; #config settings
   128  0000                     
   129                           	psect	cinit
   130  006F2C                     __pcinit:
   131                           	opt callstack 0
   132  006F2C                     start_initialization:
   133                           	opt callstack 0
   134  006F2C                     __initialization:
   135                           	opt callstack 0
   136  006F2C                     end_of_initialization:
   137                           	opt callstack 0
   138  006F2C                     __end_of__initialization:
   139                           	opt callstack 0
   140  006F2C  0100               	movlb	0
   141  006F2E  EF57  F03E         	goto	_main	;jump to C main() function
   142                           
   143                           	psect	cstackBANK0
   144  000060                     __pcstackBANK0:
   145                           	opt callstack 0
   146  000060                     ??_main:
   147                           
   148                           ; 1 bytes @ 0x0
   149  000060                     	ds	6
   150  000066                     main@run:
   151                           	opt callstack 0
   152                           
   153                           ; 2 bytes @ 0x6
   154  000066                     	ds	2
   155  000068                     _main$1106:
   156                           	opt callstack 0
   157                           
   158                           ; 4 bytes @ 0x8
   159  000068                     	ds	4
   160  00006C                     main@i_439:
   161                           	opt callstack 0
   162                           
   163                           ; 2 bytes @ 0xC
   164  00006C                     	ds	2
   165                           
   166                           	psect	cstackCOMRAM
   167  000001                     __pcstackCOMRAM:
   168                           	opt callstack 0
   169  000001                     ?___xxtofl:
   170                           	opt callstack 0
   171  000001                     PWM3_LoadDutyValue@dutyValue:
   172                           	opt callstack 0
   173  000001                     PWM4_LoadDutyValue@dutyValue:
   174                           	opt callstack 0
   175  000001                     ___xxtofl@val:
   176                           	opt callstack 0
   177                           
   178                           ; 4 bytes @ 0x0
   179  000001                     	ds	2
   180  000003                     ??_PWM3_LoadDutyValue:
   181  000003                     ??_PWM4_LoadDutyValue:
   182                           
   183                           ; 1 bytes @ 0x2
   184  000003                     	ds	2
   185  000005                     ??___xxtofl:
   186  000005                     servo_init@range:
   187                           	opt callstack 0
   188                           
   189                           ; 1 bytes @ 0x4
   190  000005                     	ds	1
   191  000006                     servo_init@center:
   192                           	opt callstack 0
   193                           
   194                           ; 1 bytes @ 0x5
   195  000006                     	ds	3
   196  000009                     ___xxtofl@sign:
   197                           	opt callstack 0
   198                           
   199                           ; 1 bytes @ 0x8
   200  000009                     	ds	1
   201  00000A                     ___xxtofl@exp:
   202                           	opt callstack 0
   203                           
   204                           ; 1 bytes @ 0x9
   205  00000A                     	ds	1
   206  00000B                     ___xxtofl@arg:
   207                           	opt callstack 0
   208                           
   209                           ; 4 bytes @ 0xA
   210  00000B                     	ds	4
   211  00000F                     ?___fldiv:
   212                           	opt callstack 0
   213  00000F                     ___fldiv@b:
   214                           	opt callstack 0
   215                           
   216                           ; 4 bytes @ 0xE
   217  00000F                     	ds	4
   218  000013                     ___fldiv@a:
   219                           	opt callstack 0
   220                           
   221                           ; 4 bytes @ 0x12
   222  000013                     	ds	4
   223  000017                     ??___fldiv:
   224                           
   225                           ; 1 bytes @ 0x16
   226  000017                     	ds	4
   227  00001B                     ___fldiv@rem:
   228                           	opt callstack 0
   229                           
   230                           ; 4 bytes @ 0x1A
   231  00001B                     	ds	4
   232  00001F                     ___fldiv@sign:
   233                           	opt callstack 0
   234                           
   235                           ; 1 bytes @ 0x1E
   236  00001F                     	ds	1
   237  000020                     ___fldiv@new_exp:
   238                           	opt callstack 0
   239                           
   240                           ; 2 bytes @ 0x1F
   241  000020                     	ds	2
   242  000022                     ___fldiv@grs:
   243                           	opt callstack 0
   244                           
   245                           ; 4 bytes @ 0x21
   246  000022                     	ds	4
   247  000026                     ___fldiv@bexp:
   248                           	opt callstack 0
   249                           
   250                           ; 1 bytes @ 0x25
   251  000026                     	ds	1
   252  000027                     ___fldiv@aexp:
   253                           	opt callstack 0
   254                           
   255                           ; 1 bytes @ 0x26
   256  000027                     	ds	1
   257  000028                     ?___flmul:
   258                           	opt callstack 0
   259  000028                     ___flmul@b:
   260                           	opt callstack 0
   261                           
   262                           ; 4 bytes @ 0x27
   263  000028                     	ds	4
   264  00002C                     ___flmul@a:
   265                           	opt callstack 0
   266                           
   267                           ; 4 bytes @ 0x2B
   268  00002C                     	ds	4
   269  000030                     ??___flmul:
   270                           
   271                           ; 1 bytes @ 0x2F
   272  000030                     	ds	4
   273  000034                     ___flmul@sign:
   274                           	opt callstack 0
   275                           
   276                           ; 1 bytes @ 0x33
   277  000034                     	ds	1
   278  000035                     ___flmul@grs:
   279                           	opt callstack 0
   280                           
   281                           ; 4 bytes @ 0x34
   282  000035                     	ds	4
   283  000039                     ___flmul@aexp:
   284                           	opt callstack 0
   285                           
   286                           ; 1 bytes @ 0x38
   287  000039                     	ds	1
   288  00003A                     ___flmul@bexp:
   289                           	opt callstack 0
   290                           
   291                           ; 1 bytes @ 0x39
   292  00003A                     	ds	1
   293  00003B                     ___flmul@prod:
   294                           	opt callstack 0
   295                           
   296                           ; 4 bytes @ 0x3A
   297  00003B                     	ds	4
   298  00003F                     ___flmul@temp:
   299                           	opt callstack 0
   300                           
   301                           ; 2 bytes @ 0x3E
   302  00003F                     	ds	2
   303  000041                     ?___fladd:
   304                           	opt callstack 0
   305  000041                     ___fladd@b:
   306                           	opt callstack 0
   307                           
   308                           ; 4 bytes @ 0x40
   309  000041                     	ds	4
   310  000045                     ___fladd@a:
   311                           	opt callstack 0
   312                           
   313                           ; 4 bytes @ 0x44
   314  000045                     	ds	4
   315  000049                     ??___fladd:
   316                           
   317                           ; 1 bytes @ 0x48
   318  000049                     	ds	4
   319  00004D                     ___fladd@signs:
   320                           	opt callstack 0
   321                           
   322                           ; 1 bytes @ 0x4C
   323  00004D                     	ds	1
   324  00004E                     ___fladd@aexp:
   325                           	opt callstack 0
   326                           
   327                           ; 1 bytes @ 0x4D
   328  00004E                     	ds	1
   329  00004F                     ___fladd@bexp:
   330                           	opt callstack 0
   331                           
   332                           ; 1 bytes @ 0x4E
   333  00004F                     	ds	1
   334  000050                     ___fladd@grs:
   335                           	opt callstack 0
   336                           
   337                           ; 1 bytes @ 0x4F
   338  000050                     	ds	1
   339  000051                     ?___fltol:
   340                           	opt callstack 0
   341  000051                     ___fltol@f1:
   342                           	opt callstack 0
   343                           
   344                           ; 4 bytes @ 0x50
   345  000051                     	ds	4
   346  000055                     ??___fltol:
   347                           
   348                           ; 1 bytes @ 0x54
   349  000055                     	ds	4
   350  000059                     ___fltol@sign1:
   351                           	opt callstack 0
   352                           
   353                           ; 1 bytes @ 0x58
   354  000059                     	ds	1
   355  00005A                     ___fltol@exp1:
   356                           	opt callstack 0
   357                           
   358                           ; 1 bytes @ 0x59
   359  00005A                     	ds	1
   360  00005B                     motor_set@duty_val:
   361                           	opt callstack 0
   362  00005B                     servo_set@pos:
   363                           	opt callstack 0
   364                           
   365                           ; 4 bytes @ 0x5A
   366  00005B                     	ds	2
   367  00005D                     motor_set@duty:
   368                           	opt callstack 0
   369                           
   370                           ; 1 bytes @ 0x5C
   371  00005D                     	ds	1
   372  00005E                     
   373                           ; 1 bytes @ 0x5D
   374  00005E                     	ds	1
   375  00005F                     servo_set@new_val:
   376                           	opt callstack 0
   377                           
   378                           ; 1 bytes @ 0x5E
   379  00005F                     	ds	1
   380                           
   381 ;;
   382 ;;Main: autosize = 0, tempsize = 4, incstack = 0, save=0
   383 ;;
   384 ;; *************** function _main *****************
   385 ;; Defined at:
   386 ;;		line 51 in file "main.c"
   387 ;; Parameters:    Size  Location     Type
   388 ;;		None
   389 ;; Auto vars:     Size  Location     Type
   390 ;;  i               2   12[BANK0 ] int 
   391 ;;  run             2    6[BANK0 ] int 
   392 ;;  i               2    0        int 
   393 ;; Return value:  Size  Location     Type
   394 ;;                  1    wreg      void 
   395 ;; Registers used:
   396 ;;		wreg, status,2, status,0, prodl, prodh, cstack
   397 ;; Tracked objects:
   398 ;;		On entry : 0/0
   399 ;;		On exit  : 0/0
   400 ;;		Unchanged: 0/0
   401 ;; Data sizes:     COMRAM   BANK0   BANK1   BANK2   BANK3   BANK4   BANK5   BANK6   BANK7
   402 ;;      Params:         0       0       0       0       0       0       0       0       0
   403 ;;      Locals:         0      10       0       0       0       0       0       0       0
   404 ;;      Temps:          0       4       0       0       0       0       0       0       0
   405 ;;      Totals:         0      14       0       0       0       0       0       0       0
   406 ;;Total ram usage:       14 bytes
   407 ;; Hardware stack levels required when called:    3
   408 ;; This function calls:
   409 ;;		_SYSTEM_Initialize
   410 ;;		___fldiv
   411 ;;		___xxtofl
   412 ;;		_motor_init
   413 ;;		_motor_set
   414 ;;		_servo_init
   415 ;;		_servo_set
   416 ;; This function is called by:
   417 ;;		Startup code after reset
   418 ;; This function uses a non-reentrant model
   419 ;;
   420                           
   421                           	psect	text0
   422  007CAE                     __ptext0:
   423                           	opt callstack 0
   424  007CAE                     _main:
   425                           	opt callstack 28
   426                           
   427                           ;main.c: 54:     SYSTEM_Initialize();
   428                           
   429                           ;incstack = 0
   430  007CAE  ECCA  F037         	call	_SYSTEM_Initialize	;wreg free
   431                           
   432                           ;main.c: 71:     int run = 1;
   433  007CB2  0E00               	movlw	0
   434  007CB4  0100               	movlb	0	; () banked
   435  007CB6  6F67               	movwf	(main@run+1)& (0+255),b
   436  007CB8  0E01               	movlw	1
   437  007CBA  6F66               	movwf	main@run& (0+255),b
   438                           
   439                           ; BSR set to: 0
   440                           ;main.c: 73:     motor_init();
   441                           
   442                           ; BSR set to: 0
   443  007CBC  EC99  F037         	call	_motor_init	;wreg free
   444                           
   445                           ;main.c: 74:     servo_init(40,10);
   446  007CC0  0E0A               	movlw	10
   447  007CC2  6E05               	movwf	servo_init@range,c
   448  007CC4  0E28               	movlw	40
   449  007CC6  ECB3  F037         	call	_servo_init
   450                           
   451                           ;main.c: 75:     _delay((unsigned long)((1000)*(4000000/4000.0)));
   452  007CCA  0E06               	movlw	6
   453  007CCC  0100               	movlb	0	; () banked
   454  007CCE  6F61               	movwf	(??_main+1)& (0+255),b
   455  007CD0  0E13               	movlw	19
   456  007CD2  6F60               	movwf	??_main& (0+255),b
   457  007CD4  0EAD               	movlw	173
   458  007CD6                     u2177:
   459  007CD6  2EE8               	decfsz	wreg,f,c
   460  007CD8  D7FE               	bra	u2177
   461  007CDA  2F60               	decfsz	??_main& (0+255),f,b
   462  007CDC  D7FC               	bra	u2177
   463  007CDE  2F61               	decfsz	(??_main+1)& (0+255),f,b
   464  007CE0  D7FA               	bra	u2177
   465  007CE2  D000               	nop2	
   466  007CE4                     l2299:
   467                           
   468                           ;main.c: 79:     {;main.c: 80:         if (run) {
   469  007CE4  0100               	movlb	0	; () banked
   470  007CE6  5166               	movf	main@run& (0+255),w,b
   471  007CE8  1167               	iorwf	(main@run+1)& (0+255),w,b
   472  007CEA  B4D8               	btfsc	status,2,c
   473  007CEC  D17B               	goto	l2395
   474                           
   475                           ; BSR set to: 0
   476                           ;main.c: 81:             int i = 0;
   477  007CEE  0E00               	movlw	0
   478  007CF0  6F6D               	movwf	(main@i_439+1)& (0+255),b
   479  007CF2  0E00               	movlw	0
   480  007CF4  6F6C               	movwf	main@i_439& (0+255),b
   481                           
   482                           ;main.c: 82:             for (i = 0; i < 100; i++) {
   483  007CF6  0E00               	movlw	0
   484  007CF8  6F6D               	movwf	(main@i_439+1)& (0+255),b
   485  007CFA  0E00               	movlw	0
   486  007CFC  6F6C               	movwf	main@i_439& (0+255),b
   487  007CFE                     l2307:
   488                           
   489                           ; BSR set to: 0
   490                           ;main.c: 83:                 motor_set(i);
   491  007CFE  516C               	movf	main@i_439& (0+255),w,b
   492  007D00  EC93  F038         	call	_motor_set
   493                           
   494                           ;main.c: 84:                 _delay((unsigned long)((15)*(4000000/4000.0)));
   495  007D04  0E14               	movlw	20
   496  007D06  0100               	movlb	0	; () banked
   497  007D08  6F60               	movwf	??_main& (0+255),b
   498  007D0A  0E79               	movlw	121
   499  007D0C                     u2187:
   500  007D0C  2EE8               	decfsz	wreg,f,c
   501  007D0E  D7FE               	bra	u2187
   502  007D10  2F60               	decfsz	??_main& (0+255),f,b
   503  007D12  D7FC               	bra	u2187
   504  007D14  D000               	nop2	
   505                           
   506                           ;main.c: 85:             }
   507  007D16  0100               	movlb	0	; () banked
   508  007D18  4B6C               	infsnz	main@i_439& (0+255),f,b
   509  007D1A  2B6D               	incf	(main@i_439+1)& (0+255),f,b
   510                           
   511                           ; BSR set to: 0
   512  007D1C  BF6D               	btfsc	(main@i_439+1)& (0+255),7,b
   513  007D1E  D7EF               	goto	l2307
   514  007D20  516D               	movf	(main@i_439+1)& (0+255),w,b
   515  007D22  E104               	bnz	u2110
   516  007D24  0E64               	movlw	100
   517  007D26  5D6C               	subwf	main@i_439& (0+255),w,b
   518  007D28  A0D8               	btfss	status,0,c
   519  007D2A  D7E9               	goto	l2307
   520  007D2C                     u2110:
   521                           
   522                           ; BSR set to: 0
   523                           ;main.c: 87:             for (i = 0; i < 100; i++) {
   524  007D2C  0E00               	movlw	0
   525  007D2E  6F6D               	movwf	(main@i_439+1)& (0+255),b
   526  007D30  0E00               	movlw	0
   527  007D32  6F6C               	movwf	main@i_439& (0+255),b
   528  007D34                     l2321:
   529                           
   530                           ; BSR set to: 0
   531                           ;main.c: 88:                 motor_set(100-i);
   532  007D34  516C               	movf	main@i_439& (0+255),w,b
   533  007D36  0864               	sublw	100
   534  007D38  EC93  F038         	call	_motor_set
   535                           
   536                           ;main.c: 89:                 _delay((unsigned long)((15)*(4000000/4000.0)));
   537  007D3C  0E14               	movlw	20
   538  007D3E  0100               	movlb	0	; () banked
   539  007D40  6F60               	movwf	??_main& (0+255),b
   540  007D42  0E79               	movlw	121
   541  007D44                     u2197:
   542  007D44  2EE8               	decfsz	wreg,f,c
   543  007D46  D7FE               	bra	u2197
   544  007D48  2F60               	decfsz	??_main& (0+255),f,b
   545  007D4A  D7FC               	bra	u2197
   546  007D4C  D000               	nop2	
   547                           
   548                           ;main.c: 90:             }
   549  007D4E  0100               	movlb	0	; () banked
   550  007D50  4B6C               	infsnz	main@i_439& (0+255),f,b
   551  007D52  2B6D               	incf	(main@i_439+1)& (0+255),f,b
   552                           
   553                           ; BSR set to: 0
   554  007D54  BF6D               	btfsc	(main@i_439+1)& (0+255),7,b
   555  007D56  D7EE               	goto	l2321
   556  007D58  516D               	movf	(main@i_439+1)& (0+255),w,b
   557  007D5A  E104               	bnz	u2120
   558  007D5C  0E64               	movlw	100
   559  007D5E  5D6C               	subwf	main@i_439& (0+255),w,b
   560  007D60  A0D8               	btfss	status,0,c
   561  007D62  D7E8               	goto	l2321
   562  007D64                     u2120:
   563                           
   564                           ; BSR set to: 0
   565                           ;main.c: 93:             for (i = 0; i < 100; i++) {
   566  007D64  0E00               	movlw	0
   567  007D66  6F6D               	movwf	(main@i_439+1)& (0+255),b
   568  007D68  0E00               	movlw	0
   569  007D6A  6F6C               	movwf	main@i_439& (0+255),b
   570  007D6C                     l2335:
   571                           
   572                           ; BSR set to: 0
   573                           ;main.c: 94:                 servo_set((double)i/100);
   574  007D6C  C06C  F001         	movff	main@i_439,___xxtofl@val
   575  007D70  C06D  F002         	movff	main@i_439+1,___xxtofl@val+1
   576  007D74  0E00               	movlw	0
   577  007D76  BE02               	btfsc	___xxtofl@val+1,7,c
   578  007D78  0EFF               	movlw	-1
   579  007D7A  6E03               	movwf	___xxtofl@val+2,c
   580  007D7C  6E04               	movwf	___xxtofl@val+3,c
   581  007D7E  0E01               	movlw	1
   582  007D80  EC44  F039         	call	___xxtofl
   583  007D84  C001  F00F         	movff	?___xxtofl,___fldiv@b
   584  007D88  C002  F010         	movff	?___xxtofl+1,___fldiv@b+1
   585  007D8C  C003  F011         	movff	?___xxtofl+2,___fldiv@b+2
   586  007D90  C004  F012         	movff	?___xxtofl+3,___fldiv@b+3
   587  007D94  0E00               	movlw	0
   588  007D96  6E13               	movwf	___fldiv@a,c
   589  007D98  0E00               	movlw	0
   590  007D9A  6E14               	movwf	___fldiv@a+1,c
   591  007D9C  0EC8               	movlw	200
   592  007D9E  6E15               	movwf	___fldiv@a+2,c
   593  007DA0  0E42               	movlw	66
   594  007DA2  6E16               	movwf	___fldiv@a+3,c
   595  007DA4  ECE4  F039         	call	___fldiv	;wreg free
   596  007DA8  C00F  F068         	movff	?___fldiv,_main$1106
   597  007DAC  C010  F069         	movff	?___fldiv+1,_main$1106+1
   598  007DB0  C011  F06A         	movff	?___fldiv+2,_main$1106+2
   599  007DB4  C012  F06B         	movff	?___fldiv+3,_main$1106+3
   600                           
   601                           ;main.c: 94:                 servo_set((double)i/100);
   602  007DB8  C068  F05B         	movff	_main$1106,servo_set@pos
   603  007DBC  C069  F05C         	movff	_main$1106+1,servo_set@pos+1
   604  007DC0  C06A  F05D         	movff	_main$1106+2,servo_set@pos+2
   605  007DC4  C06B  F05E         	movff	_main$1106+3,servo_set@pos+3
   606  007DC8  EC4B  F038         	call	_servo_set	;wreg free
   607                           
   608                           ;main.c: 95:                 _delay((unsigned long)((15)*(4000000/4000.0)));
   609  007DCC  0E14               	movlw	20
   610  007DCE  0100               	movlb	0	; () banked
   611  007DD0  6F60               	movwf	??_main& (0+255),b
   612  007DD2  0E79               	movlw	121
   613  007DD4                     u2207:
   614  007DD4  2EE8               	decfsz	wreg,f,c
   615  007DD6  D7FE               	bra	u2207
   616  007DD8  2F60               	decfsz	??_main& (0+255),f,b
   617  007DDA  D7FC               	bra	u2207
   618  007DDC  D000               	nop2	
   619                           
   620                           ;main.c: 96:             }
   621  007DDE  0100               	movlb	0	; () banked
   622  007DE0  4B6C               	infsnz	main@i_439& (0+255),f,b
   623  007DE2  2B6D               	incf	(main@i_439+1)& (0+255),f,b
   624                           
   625                           ; BSR set to: 0
   626  007DE4  BF6D               	btfsc	(main@i_439+1)& (0+255),7,b
   627  007DE6  D7C2               	goto	l2335
   628  007DE8  516D               	movf	(main@i_439+1)& (0+255),w,b
   629  007DEA  E104               	bnz	u2130
   630  007DEC  0E64               	movlw	100
   631  007DEE  5D6C               	subwf	main@i_439& (0+255),w,b
   632  007DF0  A0D8               	btfss	status,0,c
   633  007DF2  D7BC               	goto	l2335
   634  007DF4                     u2130:
   635                           
   636                           ; BSR set to: 0
   637                           ;main.c: 98:             for (i = 0; i < 100; i++) {
   638  007DF4  0E00               	movlw	0
   639  007DF6  6F6D               	movwf	(main@i_439+1)& (0+255),b
   640  007DF8  0E00               	movlw	0
   641  007DFA  6F6C               	movwf	main@i_439& (0+255),b
   642  007DFC                     l2351:
   643                           
   644                           ; BSR set to: 0
   645                           ;main.c: 99:                 servo_set((double)(100-i)/100);
   646  007DFC  0E64               	movlw	100
   647  007DFE  6F60               	movwf	??_main& (0+255),b
   648  007E00  0E00               	movlw	0
   649  007E02  6F61               	movwf	(??_main+1)& (0+255),b
   650  007E04  516C               	movf	main@i_439& (0+255),w,b
   651  007E06  5F60               	subwf	??_main& (0+255),f,b
   652  007E08  516D               	movf	(main@i_439+1)& (0+255),w,b
   653  007E0A  5B61               	subwfb	(??_main+1)& (0+255),f,b
   654  007E0C  C060  F001         	movff	??_main,___xxtofl@val
   655  007E10  C061  F002         	movff	??_main+1,___xxtofl@val+1
   656  007E14  0E00               	movlw	0
   657  007E16  BE02               	btfsc	___xxtofl@val+1,7,c
   658  007E18  0EFF               	movlw	-1
   659  007E1A  6E03               	movwf	___xxtofl@val+2,c
   660  007E1C  6E04               	movwf	___xxtofl@val+3,c
   661  007E1E  0E01               	movlw	1
   662  007E20  EC44  F039         	call	___xxtofl
   663  007E24  C001  F00F         	movff	?___xxtofl,___fldiv@b
   664  007E28  C002  F010         	movff	?___xxtofl+1,___fldiv@b+1
   665  007E2C  C003  F011         	movff	?___xxtofl+2,___fldiv@b+2
   666  007E30  C004  F012         	movff	?___xxtofl+3,___fldiv@b+3
   667  007E34  0E00               	movlw	0
   668  007E36  6E13               	movwf	___fldiv@a,c
   669  007E38  0E00               	movlw	0
   670  007E3A  6E14               	movwf	___fldiv@a+1,c
   671  007E3C  0EC8               	movlw	200
   672  007E3E  6E15               	movwf	___fldiv@a+2,c
   673  007E40  0E42               	movlw	66
   674  007E42  6E16               	movwf	___fldiv@a+3,c
   675  007E44  ECE4  F039         	call	___fldiv	;wreg free
   676  007E48  C00F  F068         	movff	?___fldiv,_main$1106
   677  007E4C  C010  F069         	movff	?___fldiv+1,_main$1106+1
   678  007E50  C011  F06A         	movff	?___fldiv+2,_main$1106+2
   679  007E54  C012  F06B         	movff	?___fldiv+3,_main$1106+3
   680                           
   681                           ;main.c: 99:                 servo_set((double)(100-i)/100);
   682  007E58  C068  F05B         	movff	_main$1106,servo_set@pos
   683  007E5C  C069  F05C         	movff	_main$1106+1,servo_set@pos+1
   684  007E60  C06A  F05D         	movff	_main$1106+2,servo_set@pos+2
   685  007E64  C06B  F05E         	movff	_main$1106+3,servo_set@pos+3
   686  007E68  EC4B  F038         	call	_servo_set	;wreg free
   687                           
   688                           ;main.c: 100:                 _delay((unsigned long)((15)*(4000000/4000.0)));
   689  007E6C  0E14               	movlw	20
   690  007E6E  0100               	movlb	0	; () banked
   691  007E70  6F60               	movwf	??_main& (0+255),b
   692  007E72  0E79               	movlw	121
   693  007E74                     u2217:
   694  007E74  2EE8               	decfsz	wreg,f,c
   695  007E76  D7FE               	bra	u2217
   696  007E78  2F60               	decfsz	??_main& (0+255),f,b
   697  007E7A  D7FC               	bra	u2217
   698  007E7C  D000               	nop2	
   699                           
   700                           ;main.c: 101:             }
   701  007E7E  0100               	movlb	0	; () banked
   702  007E80  4B6C               	infsnz	main@i_439& (0+255),f,b
   703  007E82  2B6D               	incf	(main@i_439+1)& (0+255),f,b
   704                           
   705                           ; BSR set to: 0
   706  007E84  BF6D               	btfsc	(main@i_439+1)& (0+255),7,b
   707  007E86  D7BA               	goto	l2351
   708  007E88  516D               	movf	(main@i_439+1)& (0+255),w,b
   709  007E8A  E104               	bnz	u2140
   710  007E8C  0E64               	movlw	100
   711  007E8E  5D6C               	subwf	main@i_439& (0+255),w,b
   712  007E90  A0D8               	btfss	status,0,c
   713  007E92  D7B4               	goto	l2351
   714  007E94                     u2140:
   715                           
   716                           ; BSR set to: 0
   717                           ;main.c: 103:             for (i = 0; i < 100; i++) {
   718  007E94  0E00               	movlw	0
   719  007E96  6F6D               	movwf	(main@i_439+1)& (0+255),b
   720  007E98  0E00               	movlw	0
   721  007E9A  6F6C               	movwf	main@i_439& (0+255),b
   722  007E9C                     l2367:
   723                           
   724                           ; BSR set to: 0
   725                           ;main.c: 104:                 servo_set((double)(-i)/100);
   726  007E9C  C06C  F060         	movff	main@i_439,??_main
   727  007EA0  C06D  F061         	movff	main@i_439+1,??_main+1
   728  007EA4  1F60               	comf	??_main& (0+255),f,b
   729  007EA6  1F61               	comf	(??_main+1)& (0+255),f,b
   730  007EA8  4B60               	infsnz	??_main& (0+255),f,b
   731  007EAA  2B61               	incf	(??_main+1)& (0+255),f,b
   732  007EAC  C060  F001         	movff	??_main,___xxtofl@val
   733  007EB0  C061  F002         	movff	??_main+1,___xxtofl@val+1
   734  007EB4  0E00               	movlw	0
   735  007EB6  BE02               	btfsc	___xxtofl@val+1,7,c
   736  007EB8  0EFF               	movlw	-1
   737  007EBA  6E03               	movwf	___xxtofl@val+2,c
   738  007EBC  6E04               	movwf	___xxtofl@val+3,c
   739  007EBE  0E01               	movlw	1
   740  007EC0  EC44  F039         	call	___xxtofl
   741  007EC4  C001  F00F         	movff	?___xxtofl,___fldiv@b
   742  007EC8  C002  F010         	movff	?___xxtofl+1,___fldiv@b+1
   743  007ECC  C003  F011         	movff	?___xxtofl+2,___fldiv@b+2
   744  007ED0  C004  F012         	movff	?___xxtofl+3,___fldiv@b+3
   745  007ED4  0E00               	movlw	0
   746  007ED6  6E13               	movwf	___fldiv@a,c
   747  007ED8  0E00               	movlw	0
   748  007EDA  6E14               	movwf	___fldiv@a+1,c
   749  007EDC  0EC8               	movlw	200
   750  007EDE  6E15               	movwf	___fldiv@a+2,c
   751  007EE0  0E42               	movlw	66
   752  007EE2  6E16               	movwf	___fldiv@a+3,c
   753  007EE4  ECE4  F039         	call	___fldiv	;wreg free
   754  007EE8  C00F  F068         	movff	?___fldiv,_main$1106
   755  007EEC  C010  F069         	movff	?___fldiv+1,_main$1106+1
   756  007EF0  C011  F06A         	movff	?___fldiv+2,_main$1106+2
   757  007EF4  C012  F06B         	movff	?___fldiv+3,_main$1106+3
   758                           
   759                           ;main.c: 104:                 servo_set((double)(-i)/100);
   760  007EF8  C068  F05B         	movff	_main$1106,servo_set@pos
   761  007EFC  C069  F05C         	movff	_main$1106+1,servo_set@pos+1
   762  007F00  C06A  F05D         	movff	_main$1106+2,servo_set@pos+2
   763  007F04  C06B  F05E         	movff	_main$1106+3,servo_set@pos+3
   764  007F08  EC4B  F038         	call	_servo_set	;wreg free
   765                           
   766                           ;main.c: 105:                 _delay((unsigned long)((15)*(4000000/4000.0)));
   767  007F0C  0E14               	movlw	20
   768  007F0E  0100               	movlb	0	; () banked
   769  007F10  6F60               	movwf	??_main& (0+255),b
   770  007F12  0E79               	movlw	121
   771  007F14                     u2227:
   772  007F14  2EE8               	decfsz	wreg,f,c
   773  007F16  D7FE               	bra	u2227
   774  007F18  2F60               	decfsz	??_main& (0+255),f,b
   775  007F1A  D7FC               	bra	u2227
   776  007F1C  D000               	nop2	
   777                           
   778                           ;main.c: 106:             }
   779  007F1E  0100               	movlb	0	; () banked
   780  007F20  4B6C               	infsnz	main@i_439& (0+255),f,b
   781  007F22  2B6D               	incf	(main@i_439+1)& (0+255),f,b
   782                           
   783                           ; BSR set to: 0
   784  007F24  BF6D               	btfsc	(main@i_439+1)& (0+255),7,b
   785  007F26  D7BA               	goto	l2367
   786  007F28  516D               	movf	(main@i_439+1)& (0+255),w,b
   787  007F2A  E104               	bnz	u2150
   788  007F2C  0E64               	movlw	100
   789  007F2E  5D6C               	subwf	main@i_439& (0+255),w,b
   790  007F30  A0D8               	btfss	status,0,c
   791  007F32  D7B4               	goto	l2367
   792  007F34                     u2150:
   793                           
   794                           ; BSR set to: 0
   795                           ;main.c: 108:             for (i = 0; i < 100; i++) {
   796  007F34  0E00               	movlw	0
   797  007F36  6F6D               	movwf	(main@i_439+1)& (0+255),b
   798  007F38  0E00               	movlw	0
   799  007F3A  6F6C               	movwf	main@i_439& (0+255),b
   800  007F3C                     l2383:
   801                           
   802                           ; BSR set to: 0
   803                           ;main.c: 109:                 servo_set((double)(-100+i)/100);
   804  007F3C  0E9C               	movlw	156
   805  007F3E  6F60               	movwf	??_main& (0+255),b
   806  007F40  0EFF               	movlw	255
   807  007F42  6F61               	movwf	(??_main+1)& (0+255),b
   808  007F44  C06C  F062         	movff	main@i_439,??_main+2
   809  007F48  C06D  F063         	movff	main@i_439+1,??_main+3
   810  007F4C  5160               	movf	??_main& (0+255),w,b
   811  007F4E  2762               	addwf	(??_main+2)& (0+255),f,b
   812  007F50  5161               	movf	(??_main+1)& (0+255),w,b
   813  007F52  2363               	addwfc	(??_main+3)& (0+255),f,b
   814  007F54  C062  F001         	movff	??_main+2,___xxtofl@val
   815  007F58  C063  F002         	movff	??_main+3,___xxtofl@val+1
   816  007F5C  0E00               	movlw	0
   817  007F5E  BE02               	btfsc	___xxtofl@val+1,7,c
   818  007F60  0EFF               	movlw	-1
   819  007F62  6E03               	movwf	___xxtofl@val+2,c
   820  007F64  6E04               	movwf	___xxtofl@val+3,c
   821  007F66  0E01               	movlw	1
   822  007F68  EC44  F039         	call	___xxtofl
   823  007F6C  C001  F00F         	movff	?___xxtofl,___fldiv@b
   824  007F70  C002  F010         	movff	?___xxtofl+1,___fldiv@b+1
   825  007F74  C003  F011         	movff	?___xxtofl+2,___fldiv@b+2
   826  007F78  C004  F012         	movff	?___xxtofl+3,___fldiv@b+3
   827  007F7C  0E00               	movlw	0
   828  007F7E  6E13               	movwf	___fldiv@a,c
   829  007F80  0E00               	movlw	0
   830  007F82  6E14               	movwf	___fldiv@a+1,c
   831  007F84  0EC8               	movlw	200
   832  007F86  6E15               	movwf	___fldiv@a+2,c
   833  007F88  0E42               	movlw	66
   834  007F8A  6E16               	movwf	___fldiv@a+3,c
   835  007F8C  ECE4  F039         	call	___fldiv	;wreg free
   836  007F90  C00F  F068         	movff	?___fldiv,_main$1106
   837  007F94  C010  F069         	movff	?___fldiv+1,_main$1106+1
   838  007F98  C011  F06A         	movff	?___fldiv+2,_main$1106+2
   839  007F9C  C012  F06B         	movff	?___fldiv+3,_main$1106+3
   840                           
   841                           ;main.c: 109:                 servo_set((double)(-100+i)/100);
   842  007FA0  C068  F05B         	movff	_main$1106,servo_set@pos
   843  007FA4  C069  F05C         	movff	_main$1106+1,servo_set@pos+1
   844  007FA8  C06A  F05D         	movff	_main$1106+2,servo_set@pos+2
   845  007FAC  C06B  F05E         	movff	_main$1106+3,servo_set@pos+3
   846  007FB0  EC4B  F038         	call	_servo_set	;wreg free
   847                           
   848                           ;main.c: 110:                 _delay((unsigned long)((15)*(4000000/4000.0)));
   849  007FB4  0E14               	movlw	20
   850  007FB6  0100               	movlb	0	; () banked
   851  007FB8  6F60               	movwf	??_main& (0+255),b
   852  007FBA  0E79               	movlw	121
   853  007FBC                     u2237:
   854  007FBC  2EE8               	decfsz	wreg,f,c
   855  007FBE  D7FE               	bra	u2237
   856  007FC0  2F60               	decfsz	??_main& (0+255),f,b
   857  007FC2  D7FC               	bra	u2237
   858  007FC4  D000               	nop2	
   859                           
   860                           ;main.c: 111:             }
   861  007FC6  0100               	movlb	0	; () banked
   862  007FC8  4B6C               	infsnz	main@i_439& (0+255),f,b
   863  007FCA  2B6D               	incf	(main@i_439+1)& (0+255),f,b
   864                           
   865                           ; BSR set to: 0
   866  007FCC  BF6D               	btfsc	(main@i_439+1)& (0+255),7,b
   867  007FCE  D7B6               	goto	l2383
   868  007FD0  516D               	movf	(main@i_439+1)& (0+255),w,b
   869  007FD2  E104               	bnz	u2160
   870  007FD4  0E64               	movlw	100
   871  007FD6  5D6C               	subwf	main@i_439& (0+255),w,b
   872  007FD8  A0D8               	btfss	status,0,c
   873  007FDA  D7B0               	goto	l2383
   874  007FDC                     u2160:
   875                           
   876                           ; BSR set to: 0
   877                           ;main.c: 113:             run = 0;
   878  007FDC  0E00               	movlw	0
   879  007FDE  6F67               	movwf	(main@run+1)& (0+255),b
   880  007FE0  0E00               	movlw	0
   881  007FE2  6F66               	movwf	main@run& (0+255),b
   882  007FE4                     l2395:
   883                           
   884                           ; BSR set to: 0
   885                           ;main.c: 116:         motor_set(0);
   886  007FE4  0E00               	movlw	0
   887  007FE6  EC93  F038         	call	_motor_set
   888                           
   889                           ;main.c: 117:         servo_set(0);
   890  007FEA  0E00               	movlw	0
   891  007FEC  6E5B               	movwf	servo_set@pos,c
   892  007FEE  0E00               	movlw	0
   893  007FF0  6E5C               	movwf	servo_set@pos+1,c
   894  007FF2  0E00               	movlw	0
   895  007FF4  6E5D               	movwf	servo_set@pos+2,c
   896  007FF6  0E00               	movlw	0
   897  007FF8  6E5E               	movwf	servo_set@pos+3,c
   898  007FFA  EC4B  F038         	call	_servo_set	;wreg free
   899  007FFE  D672               	goto	l2299
   900  008000                     __end_of_main:
   901                           	opt callstack 0
   902                           
   903 ;; *************** function _servo_set *****************
   904 ;; Defined at:
   905 ;;		line 24 in file "servo.c"
   906 ;; Parameters:    Size  Location     Type
   907 ;;  pos             4   90[COMRAM] void 
   908 ;; Auto vars:     Size  Location     Type
   909 ;;  new_val         1   94[COMRAM] unsigned char 
   910 ;; Return value:  Size  Location     Type
   911 ;;                  1    wreg      void 
   912 ;; Registers used:
   913 ;;		wreg, status,2, status,0, prodl, prodh, cstack
   914 ;; Tracked objects:
   915 ;;		On entry : 0/0
   916 ;;		On exit  : 0/0
   917 ;;		Unchanged: 0/0
   918 ;; Data sizes:     COMRAM   BANK0   BANK1   BANK2   BANK3   BANK4   BANK5   BANK6   BANK7
   919 ;;      Params:         4       0       0       0       0       0       0       0       0
   920 ;;      Locals:         1       0       0       0       0       0       0       0       0
   921 ;;      Temps:          0       0       0       0       0       0       0       0       0
   922 ;;      Totals:         5       0       0       0       0       0       0       0       0
   923 ;;Total ram usage:        5 bytes
   924 ;; Hardware stack levels used:    1
   925 ;; Hardware stack levels required when called:    1
   926 ;; This function calls:
   927 ;;		_PWM4_LoadDutyValue
   928 ;;		___fladd
   929 ;;		___flmul
   930 ;;		___fltol
   931 ;;		___xxtofl
   932 ;; This function is called by:
   933 ;;		_main
   934 ;; This function uses a non-reentrant model
   935 ;;
   936                           
   937                           	psect	text1
   938  007096                     __ptext1:
   939                           	opt callstack 0
   940  007096                     _servo_set:
   941                           	opt callstack 29
   942                           
   943                           ;servo.c: 25:     uint8_t new_val = (range_val*pos) + center_val;
   944                           
   945                           ;incstack = 0
   946  007096  0100               	movlb	0	; () banked
   947  007098  516F               	movf	_center_val& (0+255),w,b
   948  00709A  6E01               	movwf	___xxtofl@val,c
   949  00709C  6A02               	clrf	___xxtofl@val+1,c
   950  00709E  6A03               	clrf	___xxtofl@val+2,c
   951  0070A0  6A04               	clrf	___xxtofl@val+3,c
   952  0070A2  0E01               	movlw	1
   953  0070A4  EC44  F039         	call	___xxtofl
   954  0070A8  C001  F045         	movff	?___xxtofl,___fladd@a
   955  0070AC  C002  F046         	movff	?___xxtofl+1,___fladd@a+1
   956  0070B0  C003  F047         	movff	?___xxtofl+2,___fladd@a+2
   957  0070B4  C004  F048         	movff	?___xxtofl+3,___fladd@a+3
   958  0070B8  C05B  F02C         	movff	servo_set@pos,___flmul@a
   959  0070BC  C05C  F02D         	movff	servo_set@pos+1,___flmul@a+1
   960  0070C0  C05D  F02E         	movff	servo_set@pos+2,___flmul@a+2
   961  0070C4  C05E  F02F         	movff	servo_set@pos+3,___flmul@a+3
   962  0070C8  0100               	movlb	0	; () banked
   963  0070CA  516E               	movf	_range_val& (0+255),w,b
   964  0070CC  6E01               	movwf	___xxtofl@val,c
   965  0070CE  6A02               	clrf	___xxtofl@val+1,c
   966  0070D0  6A03               	clrf	___xxtofl@val+2,c
   967  0070D2  6A04               	clrf	___xxtofl@val+3,c
   968  0070D4  0E01               	movlw	1
   969  0070D6  EC44  F039         	call	___xxtofl
   970  0070DA  C001  F028         	movff	?___xxtofl,___flmul@b
   971  0070DE  C002  F029         	movff	?___xxtofl+1,___flmul@b+1
   972  0070E2  C003  F02A         	movff	?___xxtofl+2,___flmul@b+2
   973  0070E6  C004  F02B         	movff	?___xxtofl+3,___flmul@b+3
   974  0070EA  ECAE  F03C         	call	___flmul	;wreg free
   975  0070EE  C028  F041         	movff	?___flmul,___fladd@b
   976  0070F2  C029  F042         	movff	?___flmul+1,___fladd@b+1
   977  0070F6  C02A  F043         	movff	?___flmul+2,___fladd@b+2
   978  0070FA  C02B  F044         	movff	?___flmul+3,___fladd@b+3
   979  0070FE  EC28  F03B         	call	___fladd	;wreg free
   980  007102  C041  F051         	movff	?___fladd,___fltol@f1
   981  007106  C042  F052         	movff	?___fladd+1,___fltol@f1+1
   982  00710A  C043  F053         	movff	?___fladd+2,___fltol@f1+2
   983  00710E  C044  F054         	movff	?___fladd+3,___fltol@f1+3
   984  007112  ECE7  F038         	call	___fltol	;wreg free
   985  007116  5051               	movf	?___fltol,w,c
   986  007118  6E5F               	movwf	servo_set@new_val,c
   987                           
   988                           ;servo.c: 26:     PWM4_LoadDutyValue(new_val);
   989  00711A  C05F  F001         	movff	servo_set@new_val,PWM4_LoadDutyValue@dutyValue
   990  00711E  6A02               	clrf	PWM4_LoadDutyValue@dutyValue+1,c
   991  007120  EC0D  F038         	call	_PWM4_LoadDutyValue	;wreg free
   992  007124  0012               	return		;funcret
   993  007126                     __end_of_servo_set:
   994                           	opt callstack 0
   995                           
   996 ;; *************** function _servo_init *****************
   997 ;; Defined at:
   998 ;;		line 13 in file "servo.c"
   999 ;; Parameters:    Size  Location     Type
  1000 ;;  center          1    wreg     unsigned char 
  1001 ;;  range           1    4[COMRAM] unsigned char 
  1002 ;; Auto vars:     Size  Location     Type
  1003 ;;  center          1    5[COMRAM] unsigned char 
  1004 ;; Return value:  Size  Location     Type
  1005 ;;                  1    wreg      void 
  1006 ;; Registers used:
  1007 ;;		wreg, status,2, status,0, cstack
  1008 ;; Tracked objects:
  1009 ;;		On entry : 0/0
  1010 ;;		On exit  : 0/0
  1011 ;;		Unchanged: 0/0
  1012 ;; Data sizes:     COMRAM   BANK0   BANK1   BANK2   BANK3   BANK4   BANK5   BANK6   BANK7
  1013 ;;      Params:         1       0       0       0       0       0       0       0       0
  1014 ;;      Locals:         1       0       0       0       0       0       0       0       0
  1015 ;;      Temps:          0       0       0       0       0       0       0       0       0
  1016 ;;      Totals:         2       0       0       0       0       0       0       0       0
  1017 ;;Total ram usage:        2 bytes
  1018 ;; Hardware stack levels used:    1
  1019 ;; Hardware stack levels required when called:    1
  1020 ;; This function calls:
  1021 ;;		_PWM4_LoadDutyValue
  1022 ;; This function is called by:
  1023 ;;		_main
  1024 ;; This function uses a non-reentrant model
  1025 ;;
  1026                           
  1027                           	psect	text2
  1028  006F66                     __ptext2:
  1029                           	opt callstack 0
  1030  006F66                     _servo_init:
  1031                           	opt callstack 29
  1032                           
  1033                           ;incstack = 0
  1034                           ;servo_init@center stored from wreg
  1035  006F66  6E06               	movwf	servo_init@center,c
  1036                           
  1037                           ;servo.c: 14:     center_val = center;
  1038  006F68  C006  F06F         	movff	servo_init@center,_center_val
  1039                           
  1040                           ;servo.c: 15:     range_val = range;
  1041  006F6C  C005  F06E         	movff	servo_init@range,_range_val
  1042                           
  1043                           ;servo.c: 16:     PWM4_LoadDutyValue(center_val);
  1044  006F70  C06F  F001         	movff	_center_val,PWM4_LoadDutyValue@dutyValue
  1045  006F74  6A02               	clrf	PWM4_LoadDutyValue@dutyValue+1,c
  1046  006F76  EC0D  F038         	call	_PWM4_LoadDutyValue	;wreg free
  1047  006F7A  0012               	return		;funcret
  1048  006F7C                     __end_of_servo_init:
  1049                           	opt callstack 0
  1050                           
  1051 ;; *************** function _PWM4_LoadDutyValue *****************
  1052 ;; Defined at:
  1053 ;;		line 74 in file "mcc_generated_files/pwm4.c"
  1054 ;; Parameters:    Size  Location     Type
  1055 ;;  dutyValue       2    0[COMRAM] unsigned short 
  1056 ;; Auto vars:     Size  Location     Type
  1057 ;;		None
  1058 ;; Return value:  Size  Location     Type
  1059 ;;                  1    wreg      void 
  1060 ;; Registers used:
  1061 ;;		wreg, status,2, status,0
  1062 ;; Tracked objects:
  1063 ;;		On entry : 0/0
  1064 ;;		On exit  : 0/0
  1065 ;;		Unchanged: 0/0
  1066 ;; Data sizes:     COMRAM   BANK0   BANK1   BANK2   BANK3   BANK4   BANK5   BANK6   BANK7
  1067 ;;      Params:         2       0       0       0       0       0       0       0       0
  1068 ;;      Locals:         0       0       0       0       0       0       0       0       0
  1069 ;;      Temps:          2       0       0       0       0       0       0       0       0
  1070 ;;      Totals:         4       0       0       0       0       0       0       0       0
  1071 ;;Total ram usage:        4 bytes
  1072 ;; Hardware stack levels used:    1
  1073 ;; This function calls:
  1074 ;;		Nothing
  1075 ;; This function is called by:
  1076 ;;		_servo_init
  1077 ;;		_servo_set
  1078 ;; This function uses a non-reentrant model
  1079 ;;
  1080                           
  1081                           	psect	text3
  1082  00701A                     __ptext3:
  1083                           	opt callstack 0
  1084  00701A                     _PWM4_LoadDutyValue:
  1085                           	opt callstack 29
  1086                           
  1087                           ;mcc_generated_files/pwm4.c: 74:  void PWM4_LoadDutyValue(uint16_t dutyValue);mcc_genera
      +                          ted_files/pwm4.c: 75:  {;mcc_generated_files/pwm4.c: 77:      PWM4DCH = (dutyValue & 0x0
      +                          3FC)>>2;
  1088                           
  1089                           ;incstack = 0
  1090  00701A  C001  F003         	movff	PWM4_LoadDutyValue@dutyValue,??_PWM4_LoadDutyValue
  1091  00701E  C002  F004         	movff	PWM4_LoadDutyValue@dutyValue+1,??_PWM4_LoadDutyValue+1
  1092  007022  90D8               	bcf	status,0,c
  1093  007024  3204               	rrcf	??_PWM4_LoadDutyValue+1,f,c
  1094  007026  3203               	rrcf	??_PWM4_LoadDutyValue,f,c
  1095  007028  90D8               	bcf	status,0,c
  1096  00702A  3204               	rrcf	??_PWM4_LoadDutyValue+1,f,c
  1097  00702C  3203               	rrcf	??_PWM4_LoadDutyValue,f,c
  1098  00702E  5003               	movf	??_PWM4_LoadDutyValue,w,c
  1099  007030  6EA0               	movwf	4000,c	;volatile
  1100                           
  1101                           ;mcc_generated_files/pwm4.c: 80:      PWM4DCL = (dutyValue & 0x0003)<<6;
  1102  007032  C001  F003         	movff	PWM4_LoadDutyValue@dutyValue,??_PWM4_LoadDutyValue
  1103  007036  0E03               	movlw	3
  1104  007038  1603               	andwf	??_PWM4_LoadDutyValue,f,c
  1105  00703A  0E06               	movlw	6
  1106  00703C  6E04               	movwf	(??_PWM4_LoadDutyValue+1)& (0+255),c
  1107  00703E                     u2095:
  1108  00703E  90D8               	bcf	status,0,c
  1109  007040  3603               	rlcf	??_PWM4_LoadDutyValue,f,c
  1110  007042  2E04               	decfsz	(??_PWM4_LoadDutyValue+1)& (0+255),f,c
  1111  007044  D7FC               	goto	u2095
  1112  007046  5003               	movf	??_PWM4_LoadDutyValue,w,c
  1113  007048  6E9F               	movwf	3999,c	;volatile
  1114  00704A  0012               	return		;funcret
  1115  00704C                     __end_of_PWM4_LoadDutyValue:
  1116                           	opt callstack 0
  1117                           
  1118 ;; *************** function _motor_init *****************
  1119 ;; Defined at:
  1120 ;;		line 7 in file "motor.c"
  1121 ;; Parameters:    Size  Location     Type
  1122 ;;		None
  1123 ;; Auto vars:     Size  Location     Type
  1124 ;;		None
  1125 ;; Return value:  Size  Location     Type
  1126 ;;                  1    wreg      void 
  1127 ;; Registers used:
  1128 ;;		wreg, status,2, status,0, prodl, prodh, cstack
  1129 ;; Tracked objects:
  1130 ;;		On entry : 0/0
  1131 ;;		On exit  : 0/0
  1132 ;;		Unchanged: 0/0
  1133 ;; Data sizes:     COMRAM   BANK0   BANK1   BANK2   BANK3   BANK4   BANK5   BANK6   BANK7
  1134 ;;      Params:         0       0       0       0       0       0       0       0       0
  1135 ;;      Locals:         0       0       0       0       0       0       0       0       0
  1136 ;;      Temps:          0       0       0       0       0       0       0       0       0
  1137 ;;      Totals:         0       0       0       0       0       0       0       0       0
  1138 ;;Total ram usage:        0 bytes
  1139 ;; Hardware stack levels used:    1
  1140 ;; Hardware stack levels required when called:    2
  1141 ;; This function calls:
  1142 ;;		_motor_set
  1143 ;; This function is called by:
  1144 ;;		_main
  1145 ;; This function uses a non-reentrant model
  1146 ;;
  1147                           
  1148                           	psect	text4
  1149  006F32                     __ptext4:
  1150                           	opt callstack 0
  1151  006F32                     _motor_init:
  1152                           	opt callstack 28
  1153                           
  1154                           ;motor.c: 8:     motor_set(0);
  1155                           
  1156                           ;incstack = 0
  1157  006F32  0E00               	movlw	0
  1158  006F34  EC93  F038         	call	_motor_set
  1159  006F38  0012               	return		;funcret
  1160  006F3A                     __end_of_motor_init:
  1161                           	opt callstack 0
  1162                           
  1163 ;; *************** function _motor_set *****************
  1164 ;; Defined at:
  1165 ;;		line 15 in file "motor.c"
  1166 ;; Parameters:    Size  Location     Type
  1167 ;;  duty            1    wreg     unsigned char 
  1168 ;; Auto vars:     Size  Location     Type
  1169 ;;  duty            1   92[COMRAM] unsigned char 
  1170 ;;  duty_val        2   90[COMRAM] int 
  1171 ;; Return value:  Size  Location     Type
  1172 ;;                  1    wreg      void 
  1173 ;; Registers used:
  1174 ;;		wreg, status,2, status,0, prodl, prodh, cstack
  1175 ;; Tracked objects:
  1176 ;;		On entry : 0/0
  1177 ;;		On exit  : 0/0
  1178 ;;		Unchanged: 0/0
  1179 ;; Data sizes:     COMRAM   BANK0   BANK1   BANK2   BANK3   BANK4   BANK5   BANK6   BANK7
  1180 ;;      Params:         0       0       0       0       0       0       0       0       0
  1181 ;;      Locals:         3       0       0       0       0       0       0       0       0
  1182 ;;      Temps:          0       0       0       0       0       0       0       0       0
  1183 ;;      Totals:         3       0       0       0       0       0       0       0       0
  1184 ;;Total ram usage:        3 bytes
  1185 ;; Hardware stack levels used:    1
  1186 ;; Hardware stack levels required when called:    1
  1187 ;; This function calls:
  1188 ;;		_PWM3_LoadDutyValue
  1189 ;;		___fladd
  1190 ;;		___fldiv
  1191 ;;		___flmul
  1192 ;;		___fltol
  1193 ;;		___xxtofl
  1194 ;; This function is called by:
  1195 ;;		_main
  1196 ;;		_motor_init
  1197 ;; This function uses a non-reentrant model
  1198 ;;
  1199                           
  1200                           	psect	text5
  1201  007126                     __ptext5:
  1202                           	opt callstack 0
  1203  007126                     _motor_set:
  1204                           	opt callstack 29
  1205                           
  1206                           ;incstack = 0
  1207                           ;motor_set@duty stored from wreg
  1208  007126  6E5D               	movwf	motor_set@duty,c
  1209                           
  1210                           ;motor.c: 17:     int duty_val = (((double) duty)/100) * 30 + 31;
  1211  007128  0E00               	movlw	0
  1212  00712A  6E45               	movwf	___fladd@a,c
  1213  00712C  0E00               	movlw	0
  1214  00712E  6E46               	movwf	___fladd@a+1,c
  1215  007130  0EF8               	movlw	248
  1216  007132  6E47               	movwf	___fladd@a+2,c
  1217  007134  0E41               	movlw	65
  1218  007136  6E48               	movwf	___fladd@a+3,c
  1219  007138  0E00               	movlw	0
  1220  00713A  6E2C               	movwf	___flmul@a,c
  1221  00713C  0E00               	movlw	0
  1222  00713E  6E2D               	movwf	___flmul@a+1,c
  1223  007140  0EF0               	movlw	240
  1224  007142  6E2E               	movwf	___flmul@a+2,c
  1225  007144  0E41               	movlw	65
  1226  007146  6E2F               	movwf	___flmul@a+3,c
  1227  007148  0E00               	movlw	0
  1228  00714A  6E13               	movwf	___fldiv@a,c
  1229  00714C  0E00               	movlw	0
  1230  00714E  6E14               	movwf	___fldiv@a+1,c
  1231  007150  0EC8               	movlw	200
  1232  007152  6E15               	movwf	___fldiv@a+2,c
  1233  007154  0E42               	movlw	66
  1234  007156  6E16               	movwf	___fldiv@a+3,c
  1235  007158  505D               	movf	motor_set@duty,w,c
  1236  00715A  6E01               	movwf	___xxtofl@val,c
  1237  00715C  6A02               	clrf	___xxtofl@val+1,c
  1238  00715E  6A03               	clrf	___xxtofl@val+2,c
  1239  007160  6A04               	clrf	___xxtofl@val+3,c
  1240  007162  0E00               	movlw	0
  1241  007164  EC44  F039         	call	___xxtofl
  1242  007168  C001  F00F         	movff	?___xxtofl,___fldiv@b
  1243  00716C  C002  F010         	movff	?___xxtofl+1,___fldiv@b+1
  1244  007170  C003  F011         	movff	?___xxtofl+2,___fldiv@b+2
  1245  007174  C004  F012         	movff	?___xxtofl+3,___fldiv@b+3
  1246  007178  ECE4  F039         	call	___fldiv	;wreg free
  1247  00717C  C00F  F028         	movff	?___fldiv,___flmul@b
  1248  007180  C010  F029         	movff	?___fldiv+1,___flmul@b+1
  1249  007184  C011  F02A         	movff	?___fldiv+2,___flmul@b+2
  1250  007188  C012  F02B         	movff	?___fldiv+3,___flmul@b+3
  1251  00718C  ECAE  F03C         	call	___flmul	;wreg free
  1252  007190  C028  F041         	movff	?___flmul,___fladd@b
  1253  007194  C029  F042         	movff	?___flmul+1,___fladd@b+1
  1254  007198  C02A  F043         	movff	?___flmul+2,___fladd@b+2
  1255  00719C  C02B  F044         	movff	?___flmul+3,___fladd@b+3
  1256  0071A0  EC28  F03B         	call	___fladd	;wreg free
  1257  0071A4  C041  F051         	movff	?___fladd,___fltol@f1
  1258  0071A8  C042  F052         	movff	?___fladd+1,___fltol@f1+1
  1259  0071AC  C043  F053         	movff	?___fladd+2,___fltol@f1+2
  1260  0071B0  C044  F054         	movff	?___fladd+3,___fltol@f1+3
  1261  0071B4  ECE7  F038         	call	___fltol	;wreg free
  1262  0071B8  C051  F05B         	movff	?___fltol,motor_set@duty_val
  1263  0071BC  C052  F05C         	movff	?___fltol+1,motor_set@duty_val+1
  1264                           
  1265                           ;motor.c: 18:     PWM3_LoadDutyValue(duty_val);
  1266  0071C0  C05B  F001         	movff	motor_set@duty_val,PWM3_LoadDutyValue@dutyValue
  1267  0071C4  C05C  F002         	movff	motor_set@duty_val+1,PWM3_LoadDutyValue@dutyValue+1
  1268  0071C8  ECF4  F037         	call	_PWM3_LoadDutyValue	;wreg free
  1269  0071CC  0012               	return		;funcret
  1270  0071CE                     __end_of_motor_set:
  1271                           	opt callstack 0
  1272                           
  1273 ;; *************** function ___xxtofl *****************
  1274 ;; Defined at:
  1275 ;;		line 10 in file "/Applications/microchip/xc8/v2.05/pic/sources/c99/common/xxtofl.c"
  1276 ;; Parameters:    Size  Location     Type
  1277 ;;  sign            1    wreg     unsigned char 
  1278 ;;  val             4    0[COMRAM] long 
  1279 ;; Auto vars:     Size  Location     Type
  1280 ;;  sign            1    8[COMRAM] unsigned char 
  1281 ;;  arg             4   10[COMRAM] unsigned long 
  1282 ;;  exp             1    9[COMRAM] unsigned char 
  1283 ;; Return value:  Size  Location     Type
  1284 ;;                  4    0[COMRAM] unsigned char 
  1285 ;; Registers used:
  1286 ;;		wreg, status,2, status,0
  1287 ;; Tracked objects:
  1288 ;;		On entry : 0/0
  1289 ;;		On exit  : 0/0
  1290 ;;		Unchanged: 0/0
  1291 ;; Data sizes:     COMRAM   BANK0   BANK1   BANK2   BANK3   BANK4   BANK5   BANK6   BANK7
  1292 ;;      Params:         4       0       0       0       0       0       0       0       0
  1293 ;;      Locals:         6       0       0       0       0       0       0       0       0
  1294 ;;      Temps:          4       0       0       0       0       0       0       0       0
  1295 ;;      Totals:        14       0       0       0       0       0       0       0       0
  1296 ;;Total ram usage:       14 bytes
  1297 ;; Hardware stack levels used:    1
  1298 ;; This function calls:
  1299 ;;		Nothing
  1300 ;; This function is called by:
  1301 ;;		_main
  1302 ;;		_motor_set
  1303 ;;		_servo_set
  1304 ;; This function uses a non-reentrant model
  1305 ;;
  1306                           
  1307                           	psect	text6
  1308  007288                     __ptext6:
  1309                           	opt callstack 0
  1310  007288                     ___xxtofl:
  1311                           	opt callstack 29
  1312                           
  1313                           ;incstack = 0
  1314                           ;___xxtofl@sign stored from wreg
  1315  007288  6E09               	movwf	___xxtofl@sign,c
  1316  00728A  5009               	movf	___xxtofl@sign,w,c
  1317  00728C  A4D8               	btfss	status,2,c
  1318  00728E  AE04               	btfss	___xxtofl@val+3,7,c
  1319  007290  D01A               	goto	l899
  1320  007292  C001  F005         	movff	___xxtofl@val,??___xxtofl
  1321  007296  C002  F006         	movff	___xxtofl@val+1,??___xxtofl+1
  1322  00729A  C003  F007         	movff	___xxtofl@val+2,??___xxtofl+2
  1323  00729E  C004  F008         	movff	___xxtofl@val+3,??___xxtofl+3
  1324  0072A2  1E05               	comf	??___xxtofl,f,c
  1325  0072A4  1E06               	comf	??___xxtofl+1,f,c
  1326  0072A6  1E07               	comf	??___xxtofl+2,f,c
  1327  0072A8  1E08               	comf	??___xxtofl+3,f,c
  1328  0072AA  2A05               	incf	??___xxtofl,f,c
  1329  0072AC  0E00               	movlw	0
  1330  0072AE  2206               	addwfc	??___xxtofl+1,f,c
  1331  0072B0  2207               	addwfc	??___xxtofl+2,f,c
  1332  0072B2  2208               	addwfc	??___xxtofl+3,f,c
  1333  0072B4  C005  F00B         	movff	??___xxtofl,___xxtofl@arg
  1334  0072B8  C006  F00C         	movff	??___xxtofl+1,___xxtofl@arg+1
  1335  0072BC  C007  F00D         	movff	??___xxtofl+2,___xxtofl@arg+2
  1336  0072C0  C008  F00E         	movff	??___xxtofl+3,___xxtofl@arg+3
  1337  0072C4  D008               	goto	l2197
  1338  0072C6                     l899:
  1339  0072C6  C001  F00B         	movff	___xxtofl@val,___xxtofl@arg
  1340  0072CA  C002  F00C         	movff	___xxtofl@val+1,___xxtofl@arg+1
  1341  0072CE  C003  F00D         	movff	___xxtofl@val+2,___xxtofl@arg+2
  1342  0072D2  C004  F00E         	movff	___xxtofl@val+3,___xxtofl@arg+3
  1343  0072D6                     l2197:
  1344  0072D6  5001               	movf	___xxtofl@val,w,c
  1345  0072D8  1002               	iorwf	___xxtofl@val+1,w,c
  1346  0072DA  1003               	iorwf	___xxtofl@val+2,w,c
  1347  0072DC  1004               	iorwf	___xxtofl@val+3,w,c
  1348  0072DE  A4D8               	btfss	status,2,c
  1349  0072E0  D009               	goto	l2203
  1350  0072E2  0E00               	movlw	0
  1351  0072E4  6E01               	movwf	?___xxtofl,c
  1352  0072E6  0E00               	movlw	0
  1353  0072E8  6E02               	movwf	?___xxtofl+1,c
  1354  0072EA  0E00               	movlw	0
  1355  0072EC  6E03               	movwf	?___xxtofl+2,c
  1356  0072EE  0E00               	movlw	0
  1357  0072F0  6E04               	movwf	?___xxtofl+3,c
  1358  0072F2  0012               	return	
  1359  0072F4                     l2203:
  1360  0072F4  0E96               	movlw	150
  1361  0072F6  6E0A               	movwf	___xxtofl@exp,c
  1362  0072F8  D006               	goto	l2207
  1363  0072FA                     l2205:
  1364  0072FA  2A0A               	incf	___xxtofl@exp,f,c
  1365  0072FC  90D8               	bcf	status,0,c
  1366  0072FE  320E               	rrcf	___xxtofl@arg+3,f,c
  1367  007300  320D               	rrcf	___xxtofl@arg+2,f,c
  1368  007302  320C               	rrcf	___xxtofl@arg+1,f,c
  1369  007304  320B               	rrcf	___xxtofl@arg,f,c
  1370  007306                     l2207:
  1371  007306  0E00               	movlw	0
  1372  007308  140B               	andwf	___xxtofl@arg,w,c
  1373  00730A  6E05               	movwf	??___xxtofl& (0+255),c
  1374  00730C  0E00               	movlw	0
  1375  00730E  140C               	andwf	___xxtofl@arg+1,w,c
  1376  007310  6E06               	movwf	(??___xxtofl+1)& (0+255),c
  1377  007312  0E00               	movlw	0
  1378  007314  140D               	andwf	___xxtofl@arg+2,w,c
  1379  007316  6E07               	movwf	(??___xxtofl+2)& (0+255),c
  1380  007318  0EFE               	movlw	254
  1381  00731A  140E               	andwf	___xxtofl@arg+3,w,c
  1382  00731C  6E08               	movwf	(??___xxtofl+3)& (0+255),c
  1383  00731E  5005               	movf	??___xxtofl,w,c
  1384  007320  1006               	iorwf	??___xxtofl+1,w,c
  1385  007322  1007               	iorwf	??___xxtofl+2,w,c
  1386  007324  1008               	iorwf	??___xxtofl+3,w,c
  1387  007326  B4D8               	btfsc	status,2,c
  1388  007328  D00D               	goto	l906
  1389  00732A  D7E7               	goto	l2205
  1390  00732C                     l2209:
  1391  00732C  2A0A               	incf	___xxtofl@exp,f,c
  1392  00732E  0E01               	movlw	1
  1393  007330  260B               	addwf	___xxtofl@arg,f,c
  1394  007332  0E00               	movlw	0
  1395  007334  220C               	addwfc	___xxtofl@arg+1,f,c
  1396  007336  220D               	addwfc	___xxtofl@arg+2,f,c
  1397  007338  220E               	addwfc	___xxtofl@arg+3,f,c
  1398  00733A  90D8               	bcf	status,0,c
  1399  00733C  320E               	rrcf	___xxtofl@arg+3,f,c
  1400  00733E  320D               	rrcf	___xxtofl@arg+2,f,c
  1401  007340  320C               	rrcf	___xxtofl@arg+1,f,c
  1402  007342  320B               	rrcf	___xxtofl@arg,f,c
  1403  007344                     l906:
  1404  007344  0E00               	movlw	0
  1405  007346  140B               	andwf	___xxtofl@arg,w,c
  1406  007348  6E05               	movwf	??___xxtofl& (0+255),c
  1407  00734A  0E00               	movlw	0
  1408  00734C  140C               	andwf	___xxtofl@arg+1,w,c
  1409  00734E  6E06               	movwf	(??___xxtofl+1)& (0+255),c
  1410  007350  0E00               	movlw	0
  1411  007352  140D               	andwf	___xxtofl@arg+2,w,c
  1412  007354  6E07               	movwf	(??___xxtofl+2)& (0+255),c
  1413  007356  0EFF               	movlw	255
  1414  007358  140E               	andwf	___xxtofl@arg+3,w,c
  1415  00735A  6E08               	movwf	(??___xxtofl+3)& (0+255),c
  1416  00735C  5005               	movf	??___xxtofl,w,c
  1417  00735E  1006               	iorwf	??___xxtofl+1,w,c
  1418  007360  1007               	iorwf	??___xxtofl+2,w,c
  1419  007362  1008               	iorwf	??___xxtofl+3,w,c
  1420  007364  B4D8               	btfsc	status,2,c
  1421  007366  D007               	goto	l2217
  1422  007368  D7E1               	goto	l2209
  1423  00736A                     l2215:
  1424  00736A  060A               	decf	___xxtofl@exp,f,c
  1425  00736C  90D8               	bcf	status,0,c
  1426  00736E  360B               	rlcf	___xxtofl@arg,f,c
  1427  007370  360C               	rlcf	___xxtofl@arg+1,f,c
  1428  007372  360D               	rlcf	___xxtofl@arg+2,f,c
  1429  007374  360E               	rlcf	___xxtofl@arg+3,f,c
  1430  007376                     l2217:
  1431  007376  BE0D               	btfsc	___xxtofl@arg+2,7,c
  1432  007378  D003               	goto	u2050
  1433  00737A  0E02               	movlw	2
  1434  00737C  600A               	cpfslt	___xxtofl@exp,c
  1435  00737E  D7F5               	goto	l2215
  1436  007380                     u2050:
  1437  007380  A00A               	btfss	___xxtofl@exp,0,c
  1438  007382  9E0D               	bcf	___xxtofl@arg+2,7,c
  1439  007384  90D8               	bcf	status,0,c
  1440  007386  320A               	rrcf	___xxtofl@exp,f,c
  1441  007388  C00A  F005         	movff	___xxtofl@exp,??___xxtofl
  1442  00738C  6A06               	clrf	(??___xxtofl+1)& (0+255),c
  1443  00738E  6A07               	clrf	(??___xxtofl+2)& (0+255),c
  1444  007390  6A08               	clrf	(??___xxtofl+3)& (0+255),c
  1445  007392  C005  F008         	movff	??___xxtofl,??___xxtofl+3
  1446  007396  6A07               	clrf	??___xxtofl+2,c
  1447  007398  6A06               	clrf	??___xxtofl+1,c
  1448  00739A  6A05               	clrf	??___xxtofl,c
  1449  00739C  5005               	movf	??___xxtofl,w,c
  1450  00739E  120B               	iorwf	___xxtofl@arg,f,c
  1451  0073A0  5006               	movf	??___xxtofl+1,w,c
  1452  0073A2  120C               	iorwf	___xxtofl@arg+1,f,c
  1453  0073A4  5007               	movf	??___xxtofl+2,w,c
  1454  0073A6  120D               	iorwf	___xxtofl@arg+2,f,c
  1455  0073A8  5008               	movf	??___xxtofl+3,w,c
  1456  0073AA  120E               	iorwf	___xxtofl@arg+3,f,c
  1457  0073AC  5009               	movf	___xxtofl@sign,w,c
  1458  0073AE  A4D8               	btfss	status,2,c
  1459  0073B0  AE04               	btfss	___xxtofl@val+3,7,c
  1460  0073B2  D001               	goto	l2233
  1461  0073B4  8E0E               	bsf	___xxtofl@arg+3,7,c
  1462  0073B6                     l2233:
  1463  0073B6  C00B  F001         	movff	___xxtofl@arg,?___xxtofl
  1464  0073BA  C00C  F002         	movff	___xxtofl@arg+1,?___xxtofl+1
  1465  0073BE  C00D  F003         	movff	___xxtofl@arg+2,?___xxtofl+2
  1466  0073C2  C00E  F004         	movff	___xxtofl@arg+3,?___xxtofl+3
  1467  0073C6  0012               	return		;funcret
  1468  0073C8                     __end_of___xxtofl:
  1469                           	opt callstack 0
  1470                           
  1471 ;; *************** function ___fltol *****************
  1472 ;; Defined at:
  1473 ;;		line 43 in file "/Applications/microchip/xc8/v2.05/pic/sources/c99/common/fltol.c"
  1474 ;; Parameters:    Size  Location     Type
  1475 ;;  f1              4   80[COMRAM] unsigned char 
  1476 ;; Auto vars:     Size  Location     Type
  1477 ;;  exp1            1   89[COMRAM] unsigned char 
  1478 ;;  sign1           1   88[COMRAM] unsigned char 
  1479 ;; Return value:  Size  Location     Type
  1480 ;;                  4   80[COMRAM] long 
  1481 ;; Registers used:
  1482 ;;		wreg, status,2, status,0
  1483 ;; Tracked objects:
  1484 ;;		On entry : 0/0
  1485 ;;		On exit  : 0/0
  1486 ;;		Unchanged: 0/0
  1487 ;; Data sizes:     COMRAM   BANK0   BANK1   BANK2   BANK3   BANK4   BANK5   BANK6   BANK7
  1488 ;;      Params:         4       0       0       0       0       0       0       0       0
  1489 ;;      Locals:         2       0       0       0       0       0       0       0       0
  1490 ;;      Temps:          4       0       0       0       0       0       0       0       0
  1491 ;;      Totals:        10       0       0       0       0       0       0       0       0
  1492 ;;Total ram usage:       10 bytes
  1493 ;; Hardware stack levels used:    1
  1494 ;; This function calls:
  1495 ;;		Nothing
  1496 ;; This function is called by:
  1497 ;;		_motor_set
  1498 ;;		_servo_set
  1499 ;; This function uses a non-reentrant model
  1500 ;;
  1501                           
  1502                           	psect	text7
  1503  0071CE                     __ptext7:
  1504                           	opt callstack 0
  1505  0071CE                     ___fltol:
  1506                           	opt callstack 29
  1507                           
  1508                           ;incstack = 0
  1509  0071CE  3453               	rlcf	___fltol@f1+2,w,c
  1510  0071D0  3454               	rlcf	___fltol@f1+3,w,c
  1511  0071D2  6E5A               	movwf	___fltol@exp1,c
  1512  0071D4  505A               	movf	___fltol@exp1,w,c
  1513  0071D6  A4D8               	btfss	status,2,c
  1514  0071D8  D009               	goto	l2153
  1515  0071DA                     u1920:
  1516  0071DA  0E00               	movlw	0
  1517  0071DC  6E51               	movwf	?___fltol,c
  1518  0071DE  0E00               	movlw	0
  1519  0071E0  6E52               	movwf	?___fltol+1,c
  1520  0071E2  0E00               	movlw	0
  1521  0071E4  6E53               	movwf	?___fltol+2,c
  1522  0071E6  0E00               	movlw	0
  1523  0071E8  6E54               	movwf	?___fltol+3,c
  1524  0071EA  0012               	return	
  1525  0071EC                     l2153:
  1526  0071EC  C051  F055         	movff	___fltol@f1,??___fltol
  1527  0071F0  C052  F056         	movff	___fltol@f1+1,??___fltol+1
  1528  0071F4  C053  F057         	movff	___fltol@f1+2,??___fltol+2
  1529  0071F8  C054  F058         	movff	___fltol@f1+3,??___fltol+3
  1530  0071FC  0E20               	movlw	32
  1531  0071FE  D005               	goto	u1930
  1532  007200                     u1935:
  1533  007200  90D8               	bcf	status,0,c
  1534  007202  3258               	rrcf	??___fltol+3,f,c
  1535  007204  3257               	rrcf	??___fltol+2,f,c
  1536  007206  3256               	rrcf	??___fltol+1,f,c
  1537  007208  3255               	rrcf	??___fltol,f,c
  1538  00720A                     u1930:
  1539  00720A  2EE8               	decfsz	wreg,f,c
  1540  00720C  D7F9               	goto	u1935
  1541  00720E  5055               	movf	??___fltol,w,c
  1542  007210  6E59               	movwf	___fltol@sign1,c
  1543  007212  8E53               	bsf	___fltol@f1+2,7,c
  1544  007214  0EFF               	movlw	255
  1545  007216  1651               	andwf	___fltol@f1,f,c
  1546  007218  0EFF               	movlw	255
  1547  00721A  1652               	andwf	___fltol@f1+1,f,c
  1548  00721C  0EFF               	movlw	255
  1549  00721E  1653               	andwf	___fltol@f1+2,f,c
  1550  007220  0E00               	movlw	0
  1551  007222  1654               	andwf	___fltol@f1+3,f,c
  1552  007224  0E96               	movlw	150
  1553  007226  5E5A               	subwf	___fltol@exp1,f,c
  1554  007228  AE5A               	btfss	___fltol@exp1,7,c
  1555  00722A  D00D               	goto	l2173
  1556  00722C  505A               	movf	___fltol@exp1,w,c
  1557  00722E  0A80               	xorlw	128
  1558  007230  0F97               	addlw	151
  1559  007232  A0D8               	btfss	status,0,c
  1560  007234  D7D2               	goto	u1920
  1561  007236                     l2169:
  1562  007236  90D8               	bcf	status,0,c
  1563  007238  3254               	rrcf	___fltol@f1+3,f,c
  1564  00723A  3253               	rrcf	___fltol@f1+2,f,c
  1565  00723C  3252               	rrcf	___fltol@f1+1,f,c
  1566  00723E  3251               	rrcf	___fltol@f1,f,c
  1567  007240  3E5A               	incfsz	___fltol@exp1,f,c
  1568  007242  D7F9               	goto	l2169
  1569  007244  D00D               	goto	u1970
  1570  007246                     l2173:
  1571  007246  0E1F               	movlw	31
  1572  007248  645A               	cpfsgt	___fltol@exp1,c
  1573  00724A  D007               	goto	l2181
  1574  00724C  D7C6               	goto	u1920
  1575  00724E                     l2179:
  1576  00724E  90D8               	bcf	status,0,c
  1577  007250  3651               	rlcf	___fltol@f1,f,c
  1578  007252  3652               	rlcf	___fltol@f1+1,f,c
  1579  007254  3653               	rlcf	___fltol@f1+2,f,c
  1580  007256  3654               	rlcf	___fltol@f1+3,f,c
  1581  007258  065A               	decf	___fltol@exp1,f,c
  1582  00725A                     l2181:
  1583  00725A  505A               	movf	___fltol@exp1,w,c
  1584  00725C  A4D8               	btfss	status,2,c
  1585  00725E  D7F7               	goto	l2179
  1586  007260                     u1970:
  1587  007260  5059               	movf	___fltol@sign1,w,c
  1588  007262  B4D8               	btfsc	status,2,c
  1589  007264  D008               	goto	l2187
  1590  007266  1E54               	comf	___fltol@f1+3,f,c
  1591  007268  1E53               	comf	___fltol@f1+2,f,c
  1592  00726A  1E52               	comf	___fltol@f1+1,f,c
  1593  00726C  6C51               	negf	___fltol@f1,c
  1594  00726E  0E00               	movlw	0
  1595  007270  2252               	addwfc	___fltol@f1+1,f,c
  1596  007272  2253               	addwfc	___fltol@f1+2,f,c
  1597  007274  2254               	addwfc	___fltol@f1+3,f,c
  1598  007276                     l2187:
  1599  007276  C051  F051         	movff	___fltol@f1,?___fltol
  1600  00727A  C052  F052         	movff	___fltol@f1+1,?___fltol+1
  1601  00727E  C053  F053         	movff	___fltol@f1+2,?___fltol+2
  1602  007282  C054  F054         	movff	___fltol@f1+3,?___fltol+3
  1603  007286  0012               	return		;funcret
  1604  007288                     __end_of___fltol:
  1605                           	opt callstack 0
  1606                           
  1607 ;; *************** function ___flmul *****************
  1608 ;; Defined at:
  1609 ;;		line 8 in file "/Applications/microchip/xc8/v2.05/pic/sources/c99/common/sprcmul.c"
  1610 ;; Parameters:    Size  Location     Type
  1611 ;;  b               4   39[COMRAM] long 
  1612 ;;  a               4   43[COMRAM] long 
  1613 ;; Auto vars:     Size  Location     Type
  1614 ;;  prod            4   58[COMRAM] struct .
  1615 ;;  grs             4   52[COMRAM] unsigned long 
  1616 ;;  temp            2   62[COMRAM] struct .
  1617 ;;  bexp            1   57[COMRAM] unsigned char 
  1618 ;;  aexp            1   56[COMRAM] unsigned char 
  1619 ;;  sign            1   51[COMRAM] unsigned char 
  1620 ;; Return value:  Size  Location     Type
  1621 ;;                  4   39[COMRAM] unsigned char 
  1622 ;; Registers used:
  1623 ;;		wreg, status,2, status,0, prodl, prodh
  1624 ;; Tracked objects:
  1625 ;;		On entry : 0/0
  1626 ;;		On exit  : 0/0
  1627 ;;		Unchanged: 0/0
  1628 ;; Data sizes:     COMRAM   BANK0   BANK1   BANK2   BANK3   BANK4   BANK5   BANK6   BANK7
  1629 ;;      Params:         8       0       0       0       0       0       0       0       0
  1630 ;;      Locals:        13       0       0       0       0       0       0       0       0
  1631 ;;      Temps:          4       0       0       0       0       0       0       0       0
  1632 ;;      Totals:        25       0       0       0       0       0       0       0       0
  1633 ;;Total ram usage:       25 bytes
  1634 ;; Hardware stack levels used:    1
  1635 ;; This function calls:
  1636 ;;		Nothing
  1637 ;; This function is called by:
  1638 ;;		_motor_set
  1639 ;;		_servo_set
  1640 ;; This function uses a non-reentrant model
  1641 ;;
  1642                           
  1643                           	psect	text8
  1644  00795C                     __ptext8:
  1645                           	opt callstack 0
  1646  00795C                     ___flmul:
  1647                           	opt callstack 29
  1648                           
  1649                           ;incstack = 0
  1650  00795C  502B               	movf	___flmul@b+3,w,c
  1651  00795E  0B80               	andlw	128
  1652  007960  6E34               	movwf	___flmul@sign,c
  1653  007962  502B               	movf	___flmul@b+3,w,c
  1654  007964  242B               	addwf	___flmul@b+3,w,c
  1655  007966  6E3A               	movwf	___flmul@bexp,c
  1656  007968  BE2A               	btfsc	___flmul@b+2,7,c
  1657  00796A  803A               	bsf	___flmul@bexp,0,c
  1658  00796C  503A               	movf	___flmul@bexp,w,c
  1659  00796E  B4D8               	btfsc	status,2,c
  1660  007970  D00D               	goto	l2031
  1661  007972  283A               	incf	___flmul@bexp,w,c
  1662  007974  A4D8               	btfss	status,2,c
  1663  007976  D008               	goto	l2029
  1664  007978  0E00               	movlw	0
  1665  00797A  6E28               	movwf	___flmul@b,c
  1666  00797C  0E00               	movlw	0
  1667  00797E  6E29               	movwf	___flmul@b+1,c
  1668  007980  0E00               	movlw	0
  1669  007982  6E2A               	movwf	___flmul@b+2,c
  1670  007984  0E00               	movlw	0
  1671  007986  6E2B               	movwf	___flmul@b+3,c
  1672  007988                     l2029:
  1673  007988  8E2A               	bsf	___flmul@b+2,7,c
  1674  00798A  D008               	goto	l2033
  1675  00798C                     l2031:
  1676  00798C  0E00               	movlw	0
  1677  00798E  6E28               	movwf	___flmul@b,c
  1678  007990  0E00               	movlw	0
  1679  007992  6E29               	movwf	___flmul@b+1,c
  1680  007994  0E00               	movlw	0
  1681  007996  6E2A               	movwf	___flmul@b+2,c
  1682  007998  0E00               	movlw	0
  1683  00799A  6E2B               	movwf	___flmul@b+3,c
  1684  00799C                     l2033:
  1685  00799C  502F               	movf	___flmul@a+3,w,c
  1686  00799E  0B80               	andlw	128
  1687  0079A0  1A34               	xorwf	___flmul@sign,f,c
  1688  0079A2  502F               	movf	___flmul@a+3,w,c
  1689  0079A4  242F               	addwf	___flmul@a+3,w,c
  1690  0079A6  6E39               	movwf	___flmul@aexp,c
  1691  0079A8  BE2E               	btfsc	___flmul@a+2,7,c
  1692  0079AA  8039               	bsf	___flmul@aexp,0,c
  1693  0079AC  5039               	movf	___flmul@aexp,w,c
  1694  0079AE  B4D8               	btfsc	status,2,c
  1695  0079B0  D00D               	goto	l2049
  1696  0079B2  2839               	incf	___flmul@aexp,w,c
  1697  0079B4  A4D8               	btfss	status,2,c
  1698  0079B6  D008               	goto	l2047
  1699  0079B8  0E00               	movlw	0
  1700  0079BA  6E2C               	movwf	___flmul@a,c
  1701  0079BC  0E00               	movlw	0
  1702  0079BE  6E2D               	movwf	___flmul@a+1,c
  1703  0079C0  0E00               	movlw	0
  1704  0079C2  6E2E               	movwf	___flmul@a+2,c
  1705  0079C4  0E00               	movlw	0
  1706  0079C6  6E2F               	movwf	___flmul@a+3,c
  1707  0079C8                     l2047:
  1708  0079C8  8E2E               	bsf	___flmul@a+2,7,c
  1709  0079CA  D008               	goto	l858
  1710  0079CC                     l2049:
  1711  0079CC  0E00               	movlw	0
  1712  0079CE  6E2C               	movwf	___flmul@a,c
  1713  0079D0  0E00               	movlw	0
  1714  0079D2  6E2D               	movwf	___flmul@a+1,c
  1715  0079D4  0E00               	movlw	0
  1716  0079D6  6E2E               	movwf	___flmul@a+2,c
  1717  0079D8  0E00               	movlw	0
  1718  0079DA  6E2F               	movwf	___flmul@a+3,c
  1719  0079DC                     l858:
  1720  0079DC  5039               	movf	___flmul@aexp,w,c
  1721  0079DE  B4D8               	btfsc	status,2,c
  1722  0079E0  D003               	goto	u1800
  1723  0079E2  503A               	movf	___flmul@bexp,w,c
  1724  0079E4  A4D8               	btfss	status,2,c
  1725  0079E6  D009               	goto	l2057
  1726  0079E8                     u1800:
  1727  0079E8  0E00               	movlw	0
  1728  0079EA  6E28               	movwf	?___flmul,c
  1729  0079EC  0E00               	movlw	0
  1730  0079EE  6E29               	movwf	?___flmul+1,c
  1731  0079F0  0E00               	movlw	0
  1732  0079F2  6E2A               	movwf	?___flmul+2,c
  1733  0079F4  0E00               	movlw	0
  1734  0079F6  6E2B               	movwf	?___flmul+3,c
  1735  0079F8  0012               	return	
  1736  0079FA                     l2057:
  1737  0079FA  502E               	movf	___flmul@a+2,w,c
  1738  0079FC  0228               	mulwf	___flmul@b,c
  1739  0079FE  CFF3 F03F          	movff	prodl,___flmul@temp
  1740  007A02  CFF4 F040          	movff	prodh,___flmul@temp+1
  1741  007A06  503F               	movf	___flmul@temp,w,c
  1742  007A08  6E35               	movwf	___flmul@grs,c
  1743  007A0A  6A36               	clrf	___flmul@grs+1,c
  1744  007A0C  6A37               	clrf	___flmul@grs+2,c
  1745  007A0E  6A38               	clrf	___flmul@grs+3,c
  1746  007A10  5040               	movf	___flmul@temp+1,w,c
  1747  007A12  6E3B               	movwf	___flmul@prod,c
  1748  007A14  6A3C               	clrf	___flmul@prod+1,c
  1749  007A16  6A3D               	clrf	___flmul@prod+2,c
  1750  007A18  6A3E               	clrf	___flmul@prod+3,c
  1751  007A1A  502D               	movf	___flmul@a+1,w,c
  1752  007A1C  0229               	mulwf	___flmul@b+1,c
  1753  007A1E  CFF3 F03F          	movff	prodl,___flmul@temp
  1754  007A22  CFF4 F040          	movff	prodh,___flmul@temp+1
  1755  007A26  503F               	movf	___flmul@temp,w,c
  1756  007A28  2635               	addwf	___flmul@grs,f,c
  1757  007A2A  0E00               	movlw	0
  1758  007A2C  2236               	addwfc	___flmul@grs+1,f,c
  1759  007A2E  2237               	addwfc	___flmul@grs+2,f,c
  1760  007A30  2238               	addwfc	___flmul@grs+3,f,c
  1761  007A32  5040               	movf	___flmul@temp+1,w,c
  1762  007A34  263B               	addwf	___flmul@prod,f,c
  1763  007A36  0E00               	movlw	0
  1764  007A38  223C               	addwfc	___flmul@prod+1,f,c
  1765  007A3A  223D               	addwfc	___flmul@prod+2,f,c
  1766  007A3C  223E               	addwfc	___flmul@prod+3,f,c
  1767  007A3E  502C               	movf	___flmul@a,w,c
  1768  007A40  022A               	mulwf	___flmul@b+2,c
  1769  007A42  CFF3 F03F          	movff	prodl,___flmul@temp
  1770  007A46  CFF4 F040          	movff	prodh,___flmul@temp+1
  1771  007A4A  503F               	movf	___flmul@temp,w,c
  1772  007A4C  2635               	addwf	___flmul@grs,f,c
  1773  007A4E  0E00               	movlw	0
  1774  007A50  2236               	addwfc	___flmul@grs+1,f,c
  1775  007A52  2237               	addwfc	___flmul@grs+2,f,c
  1776  007A54  2238               	addwfc	___flmul@grs+3,f,c
  1777  007A56  5040               	movf	___flmul@temp+1,w,c
  1778  007A58  263B               	addwf	___flmul@prod,f,c
  1779  007A5A  0E00               	movlw	0
  1780  007A5C  223C               	addwfc	___flmul@prod+1,f,c
  1781  007A5E  223D               	addwfc	___flmul@prod+2,f,c
  1782  007A60  223E               	addwfc	___flmul@prod+3,f,c
  1783  007A62  C037  F038         	movff	___flmul@grs+2,___flmul@grs+3
  1784  007A66  C036  F037         	movff	___flmul@grs+1,___flmul@grs+2
  1785  007A6A  C035  F036         	movff	___flmul@grs,___flmul@grs+1
  1786  007A6E  6A35               	clrf	___flmul@grs,c
  1787  007A70  502C               	movf	___flmul@a,w,c
  1788  007A72  0229               	mulwf	___flmul@b+1,c
  1789  007A74  CFF3 F03F          	movff	prodl,___flmul@temp
  1790  007A78  CFF4 F040          	movff	prodh,___flmul@temp+1
  1791  007A7C  503F               	movf	___flmul@temp,w,c
  1792  007A7E  2635               	addwf	___flmul@grs,f,c
  1793  007A80  5040               	movf	___flmul@temp+1,w,c
  1794  007A82  2236               	addwfc	___flmul@grs+1,f,c
  1795  007A84  0E00               	movlw	0
  1796  007A86  2237               	addwfc	___flmul@grs+2,f,c
  1797  007A88  0E00               	movlw	0
  1798  007A8A  2238               	addwfc	___flmul@grs+3,f,c
  1799  007A8C  502D               	movf	___flmul@a+1,w,c
  1800  007A8E  0228               	mulwf	___flmul@b,c
  1801  007A90  CFF3 F03F          	movff	prodl,___flmul@temp
  1802  007A94  CFF4 F040          	movff	prodh,___flmul@temp+1
  1803  007A98  503F               	movf	___flmul@temp,w,c
  1804  007A9A  2635               	addwf	___flmul@grs,f,c
  1805  007A9C  5040               	movf	___flmul@temp+1,w,c
  1806  007A9E  2236               	addwfc	___flmul@grs+1,f,c
  1807  007AA0  0E00               	movlw	0
  1808  007AA2  2237               	addwfc	___flmul@grs+2,f,c
  1809  007AA4  0E00               	movlw	0
  1810  007AA6  2238               	addwfc	___flmul@grs+3,f,c
  1811  007AA8  C037  F038         	movff	___flmul@grs+2,___flmul@grs+3
  1812  007AAC  C036  F037         	movff	___flmul@grs+1,___flmul@grs+2
  1813  007AB0  C035  F036         	movff	___flmul@grs,___flmul@grs+1
  1814  007AB4  6A35               	clrf	___flmul@grs,c
  1815  007AB6  502C               	movf	___flmul@a,w,c
  1816  007AB8  0228               	mulwf	___flmul@b,c
  1817  007ABA  CFF3 F03F          	movff	prodl,___flmul@temp
  1818  007ABE  CFF4 F040          	movff	prodh,___flmul@temp+1
  1819  007AC2  503F               	movf	___flmul@temp,w,c
  1820  007AC4  2635               	addwf	___flmul@grs,f,c
  1821  007AC6  5040               	movf	___flmul@temp+1,w,c
  1822  007AC8  2236               	addwfc	___flmul@grs+1,f,c
  1823  007ACA  0E00               	movlw	0
  1824  007ACC  2237               	addwfc	___flmul@grs+2,f,c
  1825  007ACE  0E00               	movlw	0
  1826  007AD0  2238               	addwfc	___flmul@grs+3,f,c
  1827  007AD2  502E               	movf	___flmul@a+2,w,c
  1828  007AD4  0229               	mulwf	___flmul@b+1,c
  1829  007AD6  CFF3 F03F          	movff	prodl,___flmul@temp
  1830  007ADA  CFF4 F040          	movff	prodh,___flmul@temp+1
  1831  007ADE  503F               	movf	___flmul@temp,w,c
  1832  007AE0  263B               	addwf	___flmul@prod,f,c
  1833  007AE2  5040               	movf	___flmul@temp+1,w,c
  1834  007AE4  223C               	addwfc	___flmul@prod+1,f,c
  1835  007AE6  0E00               	movlw	0
  1836  007AE8  223D               	addwfc	___flmul@prod+2,f,c
  1837  007AEA  0E00               	movlw	0
  1838  007AEC  223E               	addwfc	___flmul@prod+3,f,c
  1839  007AEE  502D               	movf	___flmul@a+1,w,c
  1840  007AF0  022A               	mulwf	___flmul@b+2,c
  1841  007AF2  CFF3 F03F          	movff	prodl,___flmul@temp
  1842  007AF6  CFF4 F040          	movff	prodh,___flmul@temp+1
  1843  007AFA  503F               	movf	___flmul@temp,w,c
  1844  007AFC  263B               	addwf	___flmul@prod,f,c
  1845  007AFE  5040               	movf	___flmul@temp+1,w,c
  1846  007B00  223C               	addwfc	___flmul@prod+1,f,c
  1847  007B02  0E00               	movlw	0
  1848  007B04  223D               	addwfc	___flmul@prod+2,f,c
  1849  007B06  0E00               	movlw	0
  1850  007B08  223E               	addwfc	___flmul@prod+3,f,c
  1851  007B0A  502E               	movf	___flmul@a+2,w,c
  1852  007B0C  022A               	mulwf	___flmul@b+2,c
  1853  007B0E  CFF3 F03F          	movff	prodl,___flmul@temp
  1854  007B12  CFF4 F040          	movff	prodh,___flmul@temp+1
  1855  007B16  503F               	movf	___flmul@temp,w,c
  1856  007B18  6E30               	movwf	??___flmul& (0+255),c
  1857  007B1A  5040               	movf	___flmul@temp+1,w,c
  1858  007B1C  6E31               	movwf	(??___flmul+1)& (0+255),c
  1859  007B1E  6A32               	clrf	(??___flmul+2)& (0+255),c
  1860  007B20  6A33               	clrf	(??___flmul+3)& (0+255),c
  1861  007B22  C032  F033         	movff	??___flmul+2,??___flmul+3
  1862  007B26  C031  F032         	movff	??___flmul+1,??___flmul+2
  1863  007B2A  C030  F031         	movff	??___flmul,??___flmul+1
  1864  007B2E  6A30               	clrf	??___flmul,c
  1865  007B30  5030               	movf	??___flmul,w,c
  1866  007B32  263B               	addwf	___flmul@prod,f,c
  1867  007B34  5031               	movf	??___flmul+1,w,c
  1868  007B36  223C               	addwfc	___flmul@prod+1,f,c
  1869  007B38  5032               	movf	??___flmul+2,w,c
  1870  007B3A  223D               	addwfc	___flmul@prod+2,f,c
  1871  007B3C  5033               	movf	??___flmul+3,w,c
  1872  007B3E  223E               	addwfc	___flmul@prod+3,f,c
  1873  007B40  C035  F030         	movff	___flmul@grs,??___flmul
  1874  007B44  C036  F031         	movff	___flmul@grs+1,??___flmul+1
  1875  007B48  C037  F032         	movff	___flmul@grs+2,??___flmul+2
  1876  007B4C  C038  F033         	movff	___flmul@grs+3,??___flmul+3
  1877  007B50  0E19               	movlw	25
  1878  007B52  D005               	goto	u1810
  1879  007B54                     u1815:
  1880  007B54  90D8               	bcf	status,0,c
  1881  007B56  3233               	rrcf	??___flmul+3,f,c
  1882  007B58  3232               	rrcf	??___flmul+2,f,c
  1883  007B5A  3231               	rrcf	??___flmul+1,f,c
  1884  007B5C  3230               	rrcf	??___flmul,f,c
  1885  007B5E                     u1810:
  1886  007B5E  2EE8               	decfsz	wreg,f,c
  1887  007B60  D7F9               	goto	u1815
  1888  007B62  5030               	movf	??___flmul,w,c
  1889  007B64  263B               	addwf	___flmul@prod,f,c
  1890  007B66  5031               	movf	??___flmul+1,w,c
  1891  007B68  223C               	addwfc	___flmul@prod+1,f,c
  1892  007B6A  5032               	movf	??___flmul+2,w,c
  1893  007B6C  223D               	addwfc	___flmul@prod+2,f,c
  1894  007B6E  5033               	movf	??___flmul+3,w,c
  1895  007B70  223E               	addwfc	___flmul@prod+3,f,c
  1896  007B72  C037  F038         	movff	___flmul@grs+2,___flmul@grs+3
  1897  007B76  C036  F037         	movff	___flmul@grs+1,___flmul@grs+2
  1898  007B7A  C035  F036         	movff	___flmul@grs,___flmul@grs+1
  1899  007B7E  6A35               	clrf	___flmul@grs,c
  1900  007B80  5039               	movf	___flmul@aexp,w,c
  1901  007B82  C03A  F030         	movff	___flmul@bexp,??___flmul
  1902  007B86  6A31               	clrf	(??___flmul+1)& (0+255),c
  1903  007B88  2630               	addwf	??___flmul,f,c
  1904  007B8A  0E00               	movlw	0
  1905  007B8C  2231               	addwfc	??___flmul+1,f,c
  1906  007B8E  0E82               	movlw	130
  1907  007B90  2430               	addwf	??___flmul,w,c
  1908  007B92  6E3F               	movwf	___flmul@temp,c
  1909  007B94  0EFF               	movlw	255
  1910  007B96  2031               	addwfc	??___flmul+1,w,c
  1911  007B98  6E40               	movwf	___flmul@temp+1,c
  1912  007B9A  D00F               	goto	l2105
  1913  007B9C                     l2099:
  1914  007B9C  90D8               	bcf	status,0,c
  1915  007B9E  363B               	rlcf	___flmul@prod,f,c
  1916  007BA0  363C               	rlcf	___flmul@prod+1,f,c
  1917  007BA2  363D               	rlcf	___flmul@prod+2,f,c
  1918  007BA4  363E               	rlcf	___flmul@prod+3,f,c
  1919  007BA6  BE38               	btfsc	___flmul@grs+3,7,c
  1920  007BA8  803B               	bsf	___flmul@prod,0,c
  1921  007BAA  90D8               	bcf	status,0,c
  1922  007BAC  3635               	rlcf	___flmul@grs,f,c
  1923  007BAE  3636               	rlcf	___flmul@grs+1,f,c
  1924  007BB0  3637               	rlcf	___flmul@grs+2,f,c
  1925  007BB2  3638               	rlcf	___flmul@grs+3,f,c
  1926  007BB4  063F               	decf	___flmul@temp,f,c
  1927  007BB6  A0D8               	btfss	status,0,c
  1928  007BB8  0640               	decf	___flmul@temp+1,f,c
  1929  007BBA                     l2105:
  1930  007BBA  AE3D               	btfss	___flmul@prod+2,7,c
  1931  007BBC  D7EF               	goto	l2099
  1932  007BBE  0E00               	movlw	0
  1933  007BC0  6E39               	movwf	___flmul@aexp,c
  1934  007BC2  AE38               	btfss	___flmul@grs+3,7,c
  1935  007BC4  D017               	goto	l867
  1936  007BC6  0EFF               	movlw	255
  1937  007BC8  1435               	andwf	___flmul@grs,w,c
  1938  007BCA  6E30               	movwf	??___flmul& (0+255),c
  1939  007BCC  0EFF               	movlw	255
  1940  007BCE  1436               	andwf	___flmul@grs+1,w,c
  1941  007BD0  6E31               	movwf	(??___flmul+1)& (0+255),c
  1942  007BD2  0EFF               	movlw	255
  1943  007BD4  1437               	andwf	___flmul@grs+2,w,c
  1944  007BD6  6E32               	movwf	(??___flmul+2)& (0+255),c
  1945  007BD8  0E7F               	movlw	127
  1946  007BDA  1438               	andwf	___flmul@grs+3,w,c
  1947  007BDC  6E33               	movwf	(??___flmul+3)& (0+255),c
  1948  007BDE  5030               	movf	??___flmul,w,c
  1949  007BE0  1031               	iorwf	??___flmul+1,w,c
  1950  007BE2  1032               	iorwf	??___flmul+2,w,c
  1951  007BE4  1033               	iorwf	??___flmul+3,w,c
  1952  007BE6  B4D8               	btfsc	status,2,c
  1953  007BE8  D003               	goto	l868
  1954  007BEA                     u1850:
  1955  007BEA  0E01               	movlw	1
  1956  007BEC  6E39               	movwf	___flmul@aexp,c
  1957  007BEE  D002               	goto	l867
  1958  007BF0                     l868:
  1959  007BF0  B03B               	btfsc	___flmul@prod,0,c
  1960  007BF2  D7FB               	goto	u1850
  1961  007BF4                     l867:
  1962  007BF4  5039               	movf	___flmul@aexp,w,c
  1963  007BF6  B4D8               	btfsc	status,2,c
  1964  007BF8  D01F               	goto	l2125
  1965  007BFA  0E01               	movlw	1
  1966  007BFC  263B               	addwf	___flmul@prod,f,c
  1967  007BFE  0E00               	movlw	0
  1968  007C00  223C               	addwfc	___flmul@prod+1,f,c
  1969  007C02  223D               	addwfc	___flmul@prod+2,f,c
  1970  007C04  223E               	addwfc	___flmul@prod+3,f,c
  1971  007C06  A03E               	btfss	___flmul@prod+3,0,c
  1972  007C08  D017               	goto	l2125
  1973  007C0A  C03B  F030         	movff	___flmul@prod,??___flmul
  1974  007C0E  C03C  F031         	movff	___flmul@prod+1,??___flmul+1
  1975  007C12  C03D  F032         	movff	___flmul@prod+2,??___flmul+2
  1976  007C16  C03E  F033         	movff	___flmul@prod+3,??___flmul+3
  1977  007C1A  3433               	rlcf	??___flmul+3,w,c
  1978  007C1C  3233               	rrcf	??___flmul+3,f,c
  1979  007C1E  3232               	rrcf	??___flmul+2,f,c
  1980  007C20  3231               	rrcf	??___flmul+1,f,c
  1981  007C22  3230               	rrcf	??___flmul,f,c
  1982  007C24  C030  F03B         	movff	??___flmul,___flmul@prod
  1983  007C28  C031  F03C         	movff	??___flmul+1,___flmul@prod+1
  1984  007C2C  C032  F03D         	movff	??___flmul+2,___flmul@prod+2
  1985  007C30  C033  F03E         	movff	??___flmul+3,___flmul@prod+3
  1986  007C34  4A3F               	infsnz	___flmul@temp,f,c
  1987  007C36  2A40               	incf	___flmul@temp+1,f,c
  1988  007C38                     l2125:
  1989  007C38  BE40               	btfsc	___flmul@temp+1,7,c
  1990  007C3A  D00D               	goto	l2129
  1991  007C3C  5040               	movf	___flmul@temp+1,w,c
  1992  007C3E  E103               	bnz	u1890
  1993  007C40  283F               	incf	___flmul@temp,w,c
  1994  007C42  A0D8               	btfss	status,0,c
  1995  007C44  D008               	goto	l2129
  1996  007C46                     u1890:
  1997  007C46  0E00               	movlw	0
  1998  007C48  6E3B               	movwf	___flmul@prod,c
  1999  007C4A  0E00               	movlw	0
  2000  007C4C  6E3C               	movwf	___flmul@prod+1,c
  2001  007C4E  0E80               	movlw	128
  2002  007C50  6E3D               	movwf	___flmul@prod+2,c
  2003  007C52  0E7F               	movlw	127
  2004  007C54  D020               	goto	L1
  2005  007C56                     l2129:
  2006  007C56  BE40               	btfsc	___flmul@temp+1,7,c
  2007  007C58  D005               	goto	u1900
  2008  007C5A  5040               	movf	___flmul@temp+1,w,c
  2009  007C5C  E10E               	bnz	l875
  2010  007C5E  043F               	decf	___flmul@temp,w,c
  2011  007C60  B0D8               	btfsc	status,0,c
  2012  007C62  D00B               	goto	l875
  2013  007C64                     u1900:
  2014  007C64  0E00               	movlw	0
  2015  007C66  6E3B               	movwf	___flmul@prod,c
  2016  007C68  0E00               	movlw	0
  2017  007C6A  6E3C               	movwf	___flmul@prod+1,c
  2018  007C6C  0E00               	movlw	0
  2019  007C6E  6E3D               	movwf	___flmul@prod+2,c
  2020  007C70  0E00               	movlw	0
  2021  007C72  6E3E               	movwf	___flmul@prod+3,c
  2022  007C74  0E00               	movlw	0
  2023  007C76  6E34               	movwf	___flmul@sign,c
  2024  007C78  D00F               	goto	l2141
  2025  007C7A                     l875:
  2026  007C7A  C03F  F03A         	movff	___flmul@temp,___flmul@bexp
  2027  007C7E  0EFF               	movlw	255
  2028  007C80  163B               	andwf	___flmul@prod,f,c
  2029  007C82  0EFF               	movlw	255
  2030  007C84  163C               	andwf	___flmul@prod+1,f,c
  2031  007C86  0E7F               	movlw	127
  2032  007C88  163D               	andwf	___flmul@prod+2,f,c
  2033  007C8A  0E00               	movlw	0
  2034  007C8C  163E               	andwf	___flmul@prod+3,f,c
  2035  007C8E  B03A               	btfsc	___flmul@bexp,0,c
  2036  007C90  8E3D               	bsf	___flmul@prod+2,7,c
  2037  007C92  90D8               	bcf	status,0,c
  2038  007C94  303A               	rrcf	___flmul@bexp,w,c
  2039  007C96                     L1:
  2040  007C96  6E3E               	movwf	___flmul@prod+3,c
  2041  007C98                     l2141:
  2042  007C98  5034               	movf	___flmul@sign,w,c
  2043  007C9A  123E               	iorwf	___flmul@prod+3,f,c
  2044  007C9C  C03B  F028         	movff	___flmul@prod,?___flmul
  2045  007CA0  C03C  F029         	movff	___flmul@prod+1,?___flmul+1
  2046  007CA4  C03D  F02A         	movff	___flmul@prod+2,?___flmul+2
  2047  007CA8  C03E  F02B         	movff	___flmul@prod+3,?___flmul+3
  2048  007CAC  0012               	return		;funcret
  2049  007CAE                     __end_of___flmul:
  2050                           	opt callstack 0
  2051                           
  2052 ;; *************** function ___fldiv *****************
  2053 ;; Defined at:
  2054 ;;		line 11 in file "/Applications/microchip/xc8/v2.05/pic/sources/c99/common/sprcdiv.c"
  2055 ;; Parameters:    Size  Location     Type
  2056 ;;  b               4   14[COMRAM] unsigned char 
  2057 ;;  a               4   18[COMRAM] unsigned char 
  2058 ;; Auto vars:     Size  Location     Type
  2059 ;;  grs             4   33[COMRAM] unsigned long 
  2060 ;;  rem             4   26[COMRAM] unsigned long 
  2061 ;;  new_exp         2   31[COMRAM] short 
  2062 ;;  aexp            1   38[COMRAM] unsigned char 
  2063 ;;  bexp            1   37[COMRAM] unsigned char 
  2064 ;;  sign            1   30[COMRAM] unsigned char 
  2065 ;; Return value:  Size  Location     Type
  2066 ;;                  4   14[COMRAM] unsigned char 
  2067 ;; Registers used:
  2068 ;;		wreg, status,2, status,0
  2069 ;; Tracked objects:
  2070 ;;		On entry : 0/0
  2071 ;;		On exit  : 0/0
  2072 ;;		Unchanged: 0/0
  2073 ;; Data sizes:     COMRAM   BANK0   BANK1   BANK2   BANK3   BANK4   BANK5   BANK6   BANK7
  2074 ;;      Params:         8       0       0       0       0       0       0       0       0
  2075 ;;      Locals:        13       0       0       0       0       0       0       0       0
  2076 ;;      Temps:          4       0       0       0       0       0       0       0       0
  2077 ;;      Totals:        25       0       0       0       0       0       0       0       0
  2078 ;;Total ram usage:       25 bytes
  2079 ;; Hardware stack levels used:    1
  2080 ;; This function calls:
  2081 ;;		Nothing
  2082 ;; This function is called by:
  2083 ;;		_main
  2084 ;;		_motor_set
  2085 ;; This function uses a non-reentrant model
  2086 ;;
  2087                           
  2088                           	psect	text9
  2089  0073C8                     __ptext9:
  2090                           	opt callstack 0
  2091  0073C8                     ___fldiv:
  2092                           	opt callstack 29
  2093                           
  2094                           ;incstack = 0
  2095  0073C8  5012               	movf	___fldiv@b+3,w,c
  2096  0073CA  0B80               	andlw	128
  2097  0073CC  6E1F               	movwf	___fldiv@sign,c
  2098  0073CE  5012               	movf	___fldiv@b+3,w,c
  2099  0073D0  2412               	addwf	___fldiv@b+3,w,c
  2100  0073D2  6E26               	movwf	___fldiv@bexp,c
  2101  0073D4  BE11               	btfsc	___fldiv@b+2,7,c
  2102  0073D6  8026               	bsf	___fldiv@bexp,0,c
  2103  0073D8  5026               	movf	___fldiv@bexp,w,c
  2104  0073DA  B4D8               	btfsc	status,2,c
  2105  0073DC  D00D               	goto	l1895
  2106  0073DE  2826               	incf	___fldiv@bexp,w,c
  2107  0073E0  A4D8               	btfss	status,2,c
  2108  0073E2  D008               	goto	l1891
  2109  0073E4  0E00               	movlw	0
  2110  0073E6  6E0F               	movwf	___fldiv@b,c
  2111  0073E8  0E00               	movlw	0
  2112  0073EA  6E10               	movwf	___fldiv@b+1,c
  2113  0073EC  0E00               	movlw	0
  2114  0073EE  6E11               	movwf	___fldiv@b+2,c
  2115  0073F0  0E00               	movlw	0
  2116  0073F2  6E12               	movwf	___fldiv@b+3,c
  2117  0073F4                     l1891:
  2118  0073F4  8E11               	bsf	___fldiv@b+2,7,c
  2119  0073F6  D006               	goto	L2
  2120  0073F8                     l1895:
  2121  0073F8  0E00               	movlw	0
  2122  0073FA  6E0F               	movwf	___fldiv@b,c
  2123  0073FC  0E00               	movlw	0
  2124  0073FE  6E10               	movwf	___fldiv@b+1,c
  2125  007400  0E00               	movlw	0
  2126  007402  6E11               	movwf	___fldiv@b+2,c
  2127  007404                     L2:
  2128  007404  0E00               	movlw	0
  2129  007406  6E12               	movwf	___fldiv@b+3,c
  2130  007408  5016               	movf	___fldiv@a+3,w,c
  2131  00740A  0B80               	andlw	128
  2132  00740C  1A1F               	xorwf	___fldiv@sign,f,c
  2133  00740E  5016               	movf	___fldiv@a+3,w,c
  2134  007410  2416               	addwf	___fldiv@a+3,w,c
  2135  007412  6E27               	movwf	___fldiv@aexp,c
  2136  007414  BE15               	btfsc	___fldiv@a+2,7,c
  2137  007416  8027               	bsf	___fldiv@aexp,0,c
  2138  007418  5027               	movf	___fldiv@aexp,w,c
  2139  00741A  B4D8               	btfsc	status,2,c
  2140  00741C  D00D               	goto	l1915
  2141  00741E  2827               	incf	___fldiv@aexp,w,c
  2142  007420  A4D8               	btfss	status,2,c
  2143  007422  D008               	goto	l1911
  2144  007424  0E00               	movlw	0
  2145  007426  6E13               	movwf	___fldiv@a,c
  2146  007428  0E00               	movlw	0
  2147  00742A  6E14               	movwf	___fldiv@a+1,c
  2148  00742C  0E00               	movlw	0
  2149  00742E  6E15               	movwf	___fldiv@a+2,c
  2150  007430  0E00               	movlw	0
  2151  007432  6E16               	movwf	___fldiv@a+3,c
  2152  007434                     l1911:
  2153  007434  8E15               	bsf	___fldiv@a+2,7,c
  2154  007436  D006               	goto	L3
  2155  007438                     l1915:
  2156  007438  0E00               	movlw	0
  2157  00743A  6E13               	movwf	___fldiv@a,c
  2158  00743C  0E00               	movlw	0
  2159  00743E  6E14               	movwf	___fldiv@a+1,c
  2160  007440  0E00               	movlw	0
  2161  007442  6E15               	movwf	___fldiv@a+2,c
  2162  007444                     L3:
  2163  007444  0E00               	movlw	0
  2164  007446  6E16               	movwf	___fldiv@a+3,c
  2165  007448  5013               	movf	___fldiv@a,w,c
  2166  00744A  1014               	iorwf	___fldiv@a+1,w,c
  2167  00744C  1015               	iorwf	___fldiv@a+2,w,c
  2168  00744E  1016               	iorwf	___fldiv@a+3,w,c
  2169  007450  A4D8               	btfss	status,2,c
  2170  007452  D017               	goto	l1929
  2171  007454  0E00               	movlw	0
  2172  007456  6E0F               	movwf	___fldiv@b,c
  2173  007458  0E00               	movlw	0
  2174  00745A  6E10               	movwf	___fldiv@b+1,c
  2175  00745C  0E00               	movlw	0
  2176  00745E  6E11               	movwf	___fldiv@b+2,c
  2177  007460  0E00               	movlw	0
  2178  007462  6E12               	movwf	___fldiv@b+3,c
  2179  007464  0E80               	movlw	128
  2180  007466  1211               	iorwf	___fldiv@b+2,f,c
  2181  007468  0E7F               	movlw	127
  2182  00746A  1212               	iorwf	___fldiv@b+3,f,c
  2183  00746C                     l1923:
  2184  00746C  501F               	movf	___fldiv@sign,w,c
  2185  00746E  1212               	iorwf	___fldiv@b+3,f,c
  2186  007470  C00F  F00F         	movff	___fldiv@b,?___fldiv
  2187  007474  C010  F010         	movff	___fldiv@b+1,?___fldiv+1
  2188  007478  C011  F011         	movff	___fldiv@b+2,?___fldiv+2
  2189  00747C  C012  F012         	movff	___fldiv@b+3,?___fldiv+3
  2190  007480  0012               	return	
  2191  007482                     l1929:
  2192  007482  5026               	movf	___fldiv@bexp,w,c
  2193  007484  A4D8               	btfss	status,2,c
  2194  007486  D009               	goto	l1937
  2195  007488  0E00               	movlw	0
  2196  00748A  6E0F               	movwf	?___fldiv,c
  2197  00748C  0E00               	movlw	0
  2198  00748E  6E10               	movwf	?___fldiv+1,c
  2199  007490  0E00               	movlw	0
  2200  007492  6E11               	movwf	?___fldiv+2,c
  2201  007494  0E00               	movlw	0
  2202  007496  6E12               	movwf	?___fldiv+3,c
  2203  007498  0012               	return	
  2204  00749A                     l1937:
  2205  00749A  5027               	movf	___fldiv@aexp,w,c
  2206  00749C  C026  F017         	movff	___fldiv@bexp,??___fldiv
  2207  0074A0  6A18               	clrf	(??___fldiv+1)& (0+255),c
  2208  0074A2  5E17               	subwf	??___fldiv,f,c
  2209  0074A4  0E00               	movlw	0
  2210  0074A6  5A18               	subwfb	??___fldiv+1,f,c
  2211  0074A8  0E7F               	movlw	127
  2212  0074AA  2417               	addwf	??___fldiv,w,c
  2213  0074AC  6E20               	movwf	___fldiv@new_exp,c
  2214  0074AE  0E00               	movlw	0
  2215  0074B0  2018               	addwfc	??___fldiv+1,w,c
  2216  0074B2  6E21               	movwf	___fldiv@new_exp+1,c
  2217  0074B4  C00F  F01B         	movff	___fldiv@b,___fldiv@rem
  2218  0074B8  C010  F01C         	movff	___fldiv@b+1,___fldiv@rem+1
  2219  0074BC  C011  F01D         	movff	___fldiv@b+2,___fldiv@rem+2
  2220  0074C0  C012  F01E         	movff	___fldiv@b+3,___fldiv@rem+3
  2221  0074C4  0E00               	movlw	0
  2222  0074C6  6E0F               	movwf	___fldiv@b,c
  2223  0074C8  0E00               	movlw	0
  2224  0074CA  6E10               	movwf	___fldiv@b+1,c
  2225  0074CC  0E00               	movlw	0
  2226  0074CE  6E11               	movwf	___fldiv@b+2,c
  2227  0074D0  0E00               	movlw	0
  2228  0074D2  6E12               	movwf	___fldiv@b+3,c
  2229  0074D4  0E00               	movlw	0
  2230  0074D6  6E22               	movwf	___fldiv@grs,c
  2231  0074D8  0E00               	movlw	0
  2232  0074DA  6E23               	movwf	___fldiv@grs+1,c
  2233  0074DC  0E00               	movlw	0
  2234  0074DE  6E24               	movwf	___fldiv@grs+2,c
  2235  0074E0  0E00               	movlw	0
  2236  0074E2  6E25               	movwf	___fldiv@grs+3,c
  2237  0074E4  0E00               	movlw	0
  2238  0074E6  6E27               	movwf	___fldiv@aexp,c
  2239  0074E8  D028               	goto	l828
  2240  0074EA                     l1947:
  2241  0074EA  5027               	movf	___fldiv@aexp,w,c
  2242  0074EC  B4D8               	btfsc	status,2,c
  2243  0074EE  D011               	goto	l1955
  2244  0074F0  90D8               	bcf	status,0,c
  2245  0074F2  361B               	rlcf	___fldiv@rem,f,c
  2246  0074F4  361C               	rlcf	___fldiv@rem+1,f,c
  2247  0074F6  361D               	rlcf	___fldiv@rem+2,f,c
  2248  0074F8  361E               	rlcf	___fldiv@rem+3,f,c
  2249  0074FA  90D8               	bcf	status,0,c
  2250  0074FC  360F               	rlcf	___fldiv@b,f,c
  2251  0074FE  3610               	rlcf	___fldiv@b+1,f,c
  2252  007500  3611               	rlcf	___fldiv@b+2,f,c
  2253  007502  3612               	rlcf	___fldiv@b+3,f,c
  2254  007504  BE25               	btfsc	___fldiv@grs+3,7,c
  2255  007506  800F               	bsf	___fldiv@b,0,c
  2256  007508  90D8               	bcf	status,0,c
  2257  00750A  3622               	rlcf	___fldiv@grs,f,c
  2258  00750C  3623               	rlcf	___fldiv@grs+1,f,c
  2259  00750E  3624               	rlcf	___fldiv@grs+2,f,c
  2260  007510  3625               	rlcf	___fldiv@grs+3,f,c
  2261  007512                     l1955:
  2262  007512  5013               	movf	___fldiv@a,w,c
  2263  007514  5C1B               	subwf	___fldiv@rem,w,c
  2264  007516  5014               	movf	___fldiv@a+1,w,c
  2265  007518  581C               	subwfb	___fldiv@rem+1,w,c
  2266  00751A  5015               	movf	___fldiv@a+2,w,c
  2267  00751C  581D               	subwfb	___fldiv@rem+2,w,c
  2268  00751E  5016               	movf	___fldiv@a+3,w,c
  2269  007520  581E               	subwfb	___fldiv@rem+3,w,c
  2270  007522  A0D8               	btfss	status,0,c
  2271  007524  D009               	goto	l1961
  2272  007526  8C25               	bsf	___fldiv@grs+3,6,c
  2273  007528  5013               	movf	___fldiv@a,w,c
  2274  00752A  5E1B               	subwf	___fldiv@rem,f,c
  2275  00752C  5014               	movf	___fldiv@a+1,w,c
  2276  00752E  5A1C               	subwfb	___fldiv@rem+1,f,c
  2277  007530  5015               	movf	___fldiv@a+2,w,c
  2278  007532  5A1D               	subwfb	___fldiv@rem+2,f,c
  2279  007534  5016               	movf	___fldiv@a+3,w,c
  2280  007536  5A1E               	subwfb	___fldiv@rem+3,f,c
  2281  007538                     l1961:
  2282  007538  2A27               	incf	___fldiv@aexp,f,c
  2283  00753A                     l828:
  2284  00753A  0E19               	movlw	25
  2285  00753C  6427               	cpfsgt	___fldiv@aexp,c
  2286  00753E  D7D5               	goto	l1947
  2287  007540  501B               	movf	___fldiv@rem,w,c
  2288  007542  101C               	iorwf	___fldiv@rem+1,w,c
  2289  007544  101D               	iorwf	___fldiv@rem+2,w,c
  2290  007546  101E               	iorwf	___fldiv@rem+3,w,c
  2291  007548  B4D8               	btfsc	status,2,c
  2292  00754A  D011               	goto	l1973
  2293  00754C  8022               	bsf	___fldiv@grs,0,c
  2294  00754E  D00F               	goto	l1973
  2295  007550                     l1967:
  2296  007550  90D8               	bcf	status,0,c
  2297  007552  360F               	rlcf	___fldiv@b,f,c
  2298  007554  3610               	rlcf	___fldiv@b+1,f,c
  2299  007556  3611               	rlcf	___fldiv@b+2,f,c
  2300  007558  3612               	rlcf	___fldiv@b+3,f,c
  2301  00755A  BE25               	btfsc	___fldiv@grs+3,7,c
  2302  00755C  800F               	bsf	___fldiv@b,0,c
  2303  00755E  90D8               	bcf	status,0,c
  2304  007560  3622               	rlcf	___fldiv@grs,f,c
  2305  007562  3623               	rlcf	___fldiv@grs+1,f,c
  2306  007564  3624               	rlcf	___fldiv@grs+2,f,c
  2307  007566  3625               	rlcf	___fldiv@grs+3,f,c
  2308  007568  0620               	decf	___fldiv@new_exp,f,c
  2309  00756A  A0D8               	btfss	status,0,c
  2310  00756C  0621               	decf	___fldiv@new_exp+1,f,c
  2311  00756E                     l1973:
  2312  00756E  AE11               	btfss	___fldiv@b+2,7,c
  2313  007570  D7EF               	goto	l1967
  2314  007572  0E00               	movlw	0
  2315  007574  6E27               	movwf	___fldiv@aexp,c
  2316  007576  AE25               	btfss	___fldiv@grs+3,7,c
  2317  007578  D017               	goto	l839
  2318  00757A  0EFF               	movlw	255
  2319  00757C  1422               	andwf	___fldiv@grs,w,c
  2320  00757E  6E17               	movwf	??___fldiv& (0+255),c
  2321  007580  0EFF               	movlw	255
  2322  007582  1423               	andwf	___fldiv@grs+1,w,c
  2323  007584  6E18               	movwf	(??___fldiv+1)& (0+255),c
  2324  007586  0EFF               	movlw	255
  2325  007588  1424               	andwf	___fldiv@grs+2,w,c
  2326  00758A  6E19               	movwf	(??___fldiv+2)& (0+255),c
  2327  00758C  0E7F               	movlw	127
  2328  00758E  1425               	andwf	___fldiv@grs+3,w,c
  2329  007590  6E1A               	movwf	(??___fldiv+3)& (0+255),c
  2330  007592  5017               	movf	??___fldiv,w,c
  2331  007594  1018               	iorwf	??___fldiv+1,w,c
  2332  007596  1019               	iorwf	??___fldiv+2,w,c
  2333  007598  101A               	iorwf	??___fldiv+3,w,c
  2334  00759A  B4D8               	btfsc	status,2,c
  2335  00759C  D003               	goto	l840
  2336  00759E                     u1660:
  2337  00759E  0E01               	movlw	1
  2338  0075A0  6E27               	movwf	___fldiv@aexp,c
  2339  0075A2  D002               	goto	l839
  2340  0075A4                     l840:
  2341  0075A4  B00F               	btfsc	___fldiv@b,0,c
  2342  0075A6  D7FB               	goto	u1660
  2343  0075A8                     l839:
  2344  0075A8  5027               	movf	___fldiv@aexp,w,c
  2345  0075AA  B4D8               	btfsc	status,2,c
  2346  0075AC  D01F               	goto	l1993
  2347  0075AE  0E01               	movlw	1
  2348  0075B0  260F               	addwf	___fldiv@b,f,c
  2349  0075B2  0E00               	movlw	0
  2350  0075B4  2210               	addwfc	___fldiv@b+1,f,c
  2351  0075B6  2211               	addwfc	___fldiv@b+2,f,c
  2352  0075B8  2212               	addwfc	___fldiv@b+3,f,c
  2353  0075BA  A012               	btfss	___fldiv@b+3,0,c
  2354  0075BC  D017               	goto	l1993
  2355  0075BE  C00F  F017         	movff	___fldiv@b,??___fldiv
  2356  0075C2  C010  F018         	movff	___fldiv@b+1,??___fldiv+1
  2357  0075C6  C011  F019         	movff	___fldiv@b+2,??___fldiv+2
  2358  0075CA  C012  F01A         	movff	___fldiv@b+3,??___fldiv+3
  2359  0075CE  341A               	rlcf	??___fldiv+3,w,c
  2360  0075D0  321A               	rrcf	??___fldiv+3,f,c
  2361  0075D2  3219               	rrcf	??___fldiv+2,f,c
  2362  0075D4  3218               	rrcf	??___fldiv+1,f,c
  2363  0075D6  3217               	rrcf	??___fldiv,f,c
  2364  0075D8  C017  F00F         	movff	??___fldiv,___fldiv@b
  2365  0075DC  C018  F010         	movff	??___fldiv+1,___fldiv@b+1
  2366  0075E0  C019  F011         	movff	??___fldiv+2,___fldiv@b+2
  2367  0075E4  C01A  F012         	movff	??___fldiv+3,___fldiv@b+3
  2368  0075E8  4A20               	infsnz	___fldiv@new_exp,f,c
  2369  0075EA  2A21               	incf	___fldiv@new_exp+1,f,c
  2370  0075EC                     l1993:
  2371  0075EC  BE21               	btfsc	___fldiv@new_exp+1,7,c
  2372  0075EE  D010               	goto	l1997
  2373  0075F0  5021               	movf	___fldiv@new_exp+1,w,c
  2374  0075F2  E103               	bnz	u1700
  2375  0075F4  2820               	incf	___fldiv@new_exp,w,c
  2376  0075F6  A0D8               	btfss	status,0,c
  2377  0075F8  D00B               	goto	l1997
  2378  0075FA                     u1700:
  2379  0075FA  0E00               	movlw	0
  2380  0075FC  6E21               	movwf	___fldiv@new_exp+1,c
  2381  0075FE  6820               	setf	___fldiv@new_exp,c
  2382  007600  0E00               	movlw	0
  2383  007602  6E0F               	movwf	___fldiv@b,c
  2384  007604  0E00               	movlw	0
  2385  007606  6E10               	movwf	___fldiv@b+1,c
  2386  007608  0E00               	movlw	0
  2387  00760A  6E11               	movwf	___fldiv@b+2,c
  2388  00760C  0E00               	movlw	0
  2389  00760E  6E12               	movwf	___fldiv@b+3,c
  2390  007610                     l1997:
  2391  007610  BE21               	btfsc	___fldiv@new_exp+1,7,c
  2392  007612  D005               	goto	u1710
  2393  007614  5021               	movf	___fldiv@new_exp+1,w,c
  2394  007616  E111               	bnz	l2001
  2395  007618  0420               	decf	___fldiv@new_exp,w,c
  2396  00761A  B0D8               	btfsc	status,0,c
  2397  00761C  D00E               	goto	l2001
  2398  00761E                     u1710:
  2399  00761E  0E00               	movlw	0
  2400  007620  6E21               	movwf	___fldiv@new_exp+1,c
  2401  007622  0E00               	movlw	0
  2402  007624  6E20               	movwf	___fldiv@new_exp,c
  2403  007626  0E00               	movlw	0
  2404  007628  6E0F               	movwf	___fldiv@b,c
  2405  00762A  0E00               	movlw	0
  2406  00762C  6E10               	movwf	___fldiv@b+1,c
  2407  00762E  0E00               	movlw	0
  2408  007630  6E11               	movwf	___fldiv@b+2,c
  2409  007632  0E00               	movlw	0
  2410  007634  6E12               	movwf	___fldiv@b+3,c
  2411  007636  0E00               	movlw	0
  2412  007638  6E1F               	movwf	___fldiv@sign,c
  2413  00763A                     l2001:
  2414  00763A  C020  F026         	movff	___fldiv@new_exp,___fldiv@bexp
  2415  00763E  A026               	btfss	___fldiv@bexp,0,c
  2416  007640  D002               	goto	l2007
  2417  007642  8E11               	bsf	___fldiv@b+2,7,c
  2418  007644  D001               	goto	l2009
  2419  007646                     l2007:
  2420  007646  9E11               	bcf	___fldiv@b+2,7,c
  2421  007648                     l2009:
  2422  007648  90D8               	bcf	status,0,c
  2423  00764A  3026               	rrcf	___fldiv@bexp,w,c
  2424  00764C  6E12               	movwf	___fldiv@b+3,c
  2425  00764E  D70E               	goto	l1923
  2426  007650                     __end_of___fldiv:
  2427                           	opt callstack 0
  2428                           
  2429 ;; *************** function ___fladd *****************
  2430 ;; Defined at:
  2431 ;;		line 10 in file "/Applications/microchip/xc8/v2.05/pic/sources/c99/common/sprcadd.c"
  2432 ;; Parameters:    Size  Location     Type
  2433 ;;  b               4   64[COMRAM] unsigned char 
  2434 ;;  a               4   68[COMRAM] unsigned char 
  2435 ;; Auto vars:     Size  Location     Type
  2436 ;;  grs             1   79[COMRAM] unsigned char 
  2437 ;;  bexp            1   78[COMRAM] unsigned char 
  2438 ;;  aexp            1   77[COMRAM] unsigned char 
  2439 ;;  signs           1   76[COMRAM] unsigned char 
  2440 ;; Return value:  Size  Location     Type
  2441 ;;                  4   64[COMRAM] unsigned char 
  2442 ;; Registers used:
  2443 ;;		wreg, status,2, status,0
  2444 ;; Tracked objects:
  2445 ;;		On entry : 0/0
  2446 ;;		On exit  : 0/0
  2447 ;;		Unchanged: 0/0
  2448 ;; Data sizes:     COMRAM   BANK0   BANK1   BANK2   BANK3   BANK4   BANK5   BANK6   BANK7
  2449 ;;      Params:         8       0       0       0       0       0       0       0       0
  2450 ;;      Locals:         4       0       0       0       0       0       0       0       0
  2451 ;;      Temps:          4       0       0       0       0       0       0       0       0
  2452 ;;      Totals:        16       0       0       0       0       0       0       0       0
  2453 ;;Total ram usage:       16 bytes
  2454 ;; Hardware stack levels used:    1
  2455 ;; This function calls:
  2456 ;;		Nothing
  2457 ;; This function is called by:
  2458 ;;		_motor_set
  2459 ;;		_servo_set
  2460 ;; This function uses a non-reentrant model
  2461 ;;
  2462                           
  2463                           	psect	text10
  2464  007650                     __ptext10:
  2465                           	opt callstack 0
  2466  007650                     ___fladd:
  2467                           	opt callstack 29
  2468                           
  2469                           ;incstack = 0
  2470  007650  5044               	movf	___fladd@b+3,w,c
  2471  007652  0B80               	andlw	128
  2472  007654  6E4D               	movwf	___fladd@signs,c
  2473  007656  5044               	movf	___fladd@b+3,w,c
  2474  007658  2444               	addwf	___fladd@b+3,w,c
  2475  00765A  6E4F               	movwf	___fladd@bexp,c
  2476  00765C  BE43               	btfsc	___fladd@b+2,7,c
  2477  00765E  804F               	bsf	___fladd@bexp,0,c
  2478  007660  504F               	movf	___fladd@bexp,w,c
  2479  007662  B4D8               	btfsc	status,2,c
  2480  007664  D00D               	goto	l1693
  2481  007666  284F               	incf	___fladd@bexp,w,c
  2482  007668  A4D8               	btfss	status,2,c
  2483  00766A  D008               	goto	l1689
  2484  00766C  0E00               	movlw	0
  2485  00766E  6E41               	movwf	___fladd@b,c
  2486  007670  0E00               	movlw	0
  2487  007672  6E42               	movwf	___fladd@b+1,c
  2488  007674  0E00               	movlw	0
  2489  007676  6E43               	movwf	___fladd@b+2,c
  2490  007678  0E00               	movlw	0
  2491  00767A  6E44               	movwf	___fladd@b+3,c
  2492  00767C                     l1689:
  2493  00767C  8E43               	bsf	___fladd@b+2,7,c
  2494  00767E  D006               	goto	L4
  2495  007680                     l1693:
  2496  007680  0E00               	movlw	0
  2497  007682  6E41               	movwf	___fladd@b,c
  2498  007684  0E00               	movlw	0
  2499  007686  6E42               	movwf	___fladd@b+1,c
  2500  007688  0E00               	movlw	0
  2501  00768A  6E43               	movwf	___fladd@b+2,c
  2502  00768C                     L4:
  2503  00768C  0E00               	movlw	0
  2504  00768E  6E44               	movwf	___fladd@b+3,c
  2505  007690  5048               	movf	___fladd@a+3,w,c
  2506  007692  0B80               	andlw	128
  2507  007694  6E4E               	movwf	___fladd@aexp,c
  2508  007696  504D               	movf	___fladd@signs,w,c
  2509  007698  184E               	xorwf	___fladd@aexp,w,c
  2510  00769A  A4D8               	btfss	status,2,c
  2511  00769C  8C4D               	bsf	___fladd@signs,6,c
  2512  00769E  5048               	movf	___fladd@a+3,w,c
  2513  0076A0  2448               	addwf	___fladd@a+3,w,c
  2514  0076A2  6E4E               	movwf	___fladd@aexp,c
  2515  0076A4  BE47               	btfsc	___fladd@a+2,7,c
  2516  0076A6  804E               	bsf	___fladd@aexp,0,c
  2517  0076A8  504E               	movf	___fladd@aexp,w,c
  2518  0076AA  B4D8               	btfsc	status,2,c
  2519  0076AC  D00D               	goto	l1717
  2520  0076AE  284E               	incf	___fladd@aexp,w,c
  2521  0076B0  A4D8               	btfss	status,2,c
  2522  0076B2  D008               	goto	l1713
  2523  0076B4  0E00               	movlw	0
  2524  0076B6  6E45               	movwf	___fladd@a,c
  2525  0076B8  0E00               	movlw	0
  2526  0076BA  6E46               	movwf	___fladd@a+1,c
  2527  0076BC  0E00               	movlw	0
  2528  0076BE  6E47               	movwf	___fladd@a+2,c
  2529  0076C0  0E00               	movlw	0
  2530  0076C2  6E48               	movwf	___fladd@a+3,c
  2531  0076C4                     l1713:
  2532  0076C4  8E47               	bsf	___fladd@a+2,7,c
  2533  0076C6  D006               	goto	L5
  2534  0076C8                     l1717:
  2535  0076C8  0E00               	movlw	0
  2536  0076CA  6E45               	movwf	___fladd@a,c
  2537  0076CC  0E00               	movlw	0
  2538  0076CE  6E46               	movwf	___fladd@a+1,c
  2539  0076D0  0E00               	movlw	0
  2540  0076D2  6E47               	movwf	___fladd@a+2,c
  2541  0076D4                     L5:
  2542  0076D4  0E00               	movlw	0
  2543  0076D6  6E48               	movwf	___fladd@a+3,c
  2544  0076D8  504F               	movf	___fladd@bexp,w,c
  2545  0076DA  5C4E               	subwf	___fladd@aexp,w,c
  2546  0076DC  B0D8               	btfsc	status,0,c
  2547  0076DE  D022               	goto	l1755
  2548  0076E0  AC4D               	btfss	___fladd@signs,6,c
  2549  0076E2  D002               	goto	l1725
  2550  0076E4  0E80               	movlw	128
  2551  0076E6  1A4D               	xorwf	___fladd@signs,f,c
  2552  0076E8                     l1725:
  2553  0076E8  C04F  F050         	movff	___fladd@bexp,___fladd@grs
  2554  0076EC  C04E  F04F         	movff	___fladd@aexp,___fladd@bexp
  2555  0076F0  C050  F04E         	movff	___fladd@grs,___fladd@aexp
  2556  0076F4  C041  F050         	movff	___fladd@b,___fladd@grs
  2557  0076F8  C045  F041         	movff	___fladd@a,___fladd@b
  2558  0076FC  C050  F045         	movff	___fladd@grs,___fladd@a
  2559  007700  C042  F050         	movff	___fladd@b+1,___fladd@grs
  2560  007704  C046  F042         	movff	___fladd@a+1,___fladd@b+1
  2561  007708  C050  F046         	movff	___fladd@grs,___fladd@a+1
  2562  00770C  C043  F050         	movff	___fladd@b+2,___fladd@grs
  2563  007710  C047  F043         	movff	___fladd@a+2,___fladd@b+2
  2564  007714  C050  F047         	movff	___fladd@grs,___fladd@a+2
  2565  007718  C044  F050         	movff	___fladd@b+3,___fladd@grs
  2566  00771C  C048  F044         	movff	___fladd@a+3,___fladd@b+3
  2567  007720  C050  F048         	movff	___fladd@grs,___fladd@a+3
  2568  007724                     l1755:
  2569  007724  0E00               	movlw	0
  2570  007726  6E50               	movwf	___fladd@grs,c
  2571  007728  504F               	movf	___fladd@bexp,w,c
  2572  00772A  C04E  F049         	movff	___fladd@aexp,??___fladd
  2573  00772E  6A4A               	clrf	(??___fladd+1)& (0+255),c
  2574  007730  5E49               	subwf	??___fladd,f,c
  2575  007732  0E00               	movlw	0
  2576  007734  5A4A               	subwfb	??___fladd+1,f,c
  2577  007736  BE4A               	btfsc	??___fladd+1,7,c
  2578  007738  D02C               	goto	l773
  2579  00773A  504A               	movf	??___fladd+1,w,c
  2580  00773C  E104               	bnz	u1200
  2581  00773E  0E1A               	movlw	26
  2582  007740  5C49               	subwf	??___fladd,w,c
  2583  007742  A0D8               	btfss	status,0,c
  2584  007744  D026               	goto	l773
  2585  007746                     u1200:
  2586  007746  5041               	movf	___fladd@b,w,c
  2587  007748  1042               	iorwf	___fladd@b+1,w,c
  2588  00774A  1043               	iorwf	___fladd@b+2,w,c
  2589  00774C  1044               	iorwf	___fladd@b+3,w,c
  2590  00774E  B4D8               	btfsc	status,2,c
  2591  007750  D002               	goto	u1210
  2592  007752  0E01               	movlw	1
  2593  007754  D001               	goto	u1220
  2594  007756                     u1210:
  2595  007756  0E00               	movlw	0
  2596  007758                     u1220:
  2597  007758  6E50               	movwf	___fladd@grs,c
  2598  00775A  0E00               	movlw	0
  2599  00775C  6E41               	movwf	___fladd@b,c
  2600  00775E  0E00               	movlw	0
  2601  007760  6E42               	movwf	___fladd@b+1,c
  2602  007762  0E00               	movlw	0
  2603  007764  6E43               	movwf	___fladd@b+2,c
  2604  007766  0E00               	movlw	0
  2605  007768  6E44               	movwf	___fladd@b+3,c
  2606  00776A  C04E  F04F         	movff	___fladd@aexp,___fladd@bexp
  2607  00776E  D015               	goto	u1250
  2608  007770                     l774:
  2609  007770  A050               	btfss	___fladd@grs,0,c
  2610  007772  D005               	goto	l1767
  2611  007774  90D8               	bcf	status,0,c
  2612  007776  3050               	rrcf	___fladd@grs,w,c
  2613  007778  0901               	iorlw	1
  2614  00777A  6E50               	movwf	___fladd@grs,c
  2615  00777C  D002               	goto	l1769
  2616  00777E                     l1767:
  2617  00777E  90D8               	bcf	status,0,c
  2618  007780  3250               	rrcf	___fladd@grs,f,c
  2619  007782                     l1769:
  2620  007782  B041               	btfsc	___fladd@b,0,c
  2621  007784  8E50               	bsf	___fladd@grs,7,c
  2622  007786  3444               	rlcf	___fladd@b+3,w,c
  2623  007788  3244               	rrcf	___fladd@b+3,f,c
  2624  00778A  3243               	rrcf	___fladd@b+2,f,c
  2625  00778C  3242               	rrcf	___fladd@b+1,f,c
  2626  00778E  3241               	rrcf	___fladd@b,f,c
  2627  007790  2A4F               	incf	___fladd@bexp,f,c
  2628  007792                     l773:
  2629  007792  504E               	movf	___fladd@aexp,w,c
  2630  007794  5C4F               	subwf	___fladd@bexp,w,c
  2631  007796  A0D8               	btfss	status,0,c
  2632  007798  D7EB               	goto	l774
  2633  00779A                     u1250:
  2634  00779A  BC4D               	btfsc	___fladd@signs,6,c
  2635  00779C  D028               	goto	l1801
  2636  00779E  504F               	movf	___fladd@bexp,w,c
  2637  0077A0  A4D8               	btfss	status,2,c
  2638  0077A2  D009               	goto	l1783
  2639  0077A4  0E00               	movlw	0
  2640  0077A6  6E41               	movwf	?___fladd,c
  2641  0077A8  0E00               	movlw	0
  2642  0077AA  6E42               	movwf	?___fladd+1,c
  2643  0077AC  0E00               	movlw	0
  2644  0077AE  6E43               	movwf	?___fladd+2,c
  2645  0077B0  0E00               	movlw	0
  2646  0077B2  6E44               	movwf	?___fladd+3,c
  2647  0077B4  0012               	return	
  2648  0077B6                     l1783:
  2649  0077B6  5045               	movf	___fladd@a,w,c
  2650  0077B8  2641               	addwf	___fladd@b,f,c
  2651  0077BA  5046               	movf	___fladd@a+1,w,c
  2652  0077BC  2242               	addwfc	___fladd@b+1,f,c
  2653  0077BE  5047               	movf	___fladd@a+2,w,c
  2654  0077C0  2243               	addwfc	___fladd@b+2,f,c
  2655  0077C2  5048               	movf	___fladd@a+3,w,c
  2656  0077C4  2244               	addwfc	___fladd@b+3,f,c
  2657  0077C6  A044               	btfss	___fladd@b+3,0,c
  2658  0077C8  D071               	goto	u1380
  2659  0077CA  A050               	btfss	___fladd@grs,0,c
  2660  0077CC  D005               	goto	l1791
  2661  0077CE  90D8               	bcf	status,0,c
  2662  0077D0  3050               	rrcf	___fladd@grs,w,c
  2663  0077D2  0901               	iorlw	1
  2664  0077D4  6E50               	movwf	___fladd@grs,c
  2665  0077D6  D002               	goto	l1793
  2666  0077D8                     l1791:
  2667  0077D8  90D8               	bcf	status,0,c
  2668  0077DA  3250               	rrcf	___fladd@grs,f,c
  2669  0077DC                     l1793:
  2670  0077DC  B041               	btfsc	___fladd@b,0,c
  2671  0077DE  8E50               	bsf	___fladd@grs,7,c
  2672  0077E0  3444               	rlcf	___fladd@b+3,w,c
  2673  0077E2  3244               	rrcf	___fladd@b+3,f,c
  2674  0077E4  3243               	rrcf	___fladd@b+2,f,c
  2675  0077E6  3242               	rrcf	___fladd@b+1,f,c
  2676  0077E8  3241               	rrcf	___fladd@b,f,c
  2677  0077EA  2A4F               	incf	___fladd@bexp,f,c
  2678  0077EC  D05F               	goto	u1380
  2679  0077EE                     l1801:
  2680  0077EE  5045               	movf	___fladd@a,w,c
  2681  0077F0  5C41               	subwf	___fladd@b,w,c
  2682  0077F2  5046               	movf	___fladd@a+1,w,c
  2683  0077F4  5842               	subwfb	___fladd@b+1,w,c
  2684  0077F6  5047               	movf	___fladd@a+2,w,c
  2685  0077F8  5843               	subwfb	___fladd@b+2,w,c
  2686  0077FA  5044               	movf	___fladd@b+3,w,c
  2687  0077FC  0A80               	xorlw	128
  2688  0077FE  6E49               	movwf	??___fladd& (0+255),c
  2689  007800  5048               	movf	___fladd@a+3,w,c
  2690  007802  0A80               	xorlw	128
  2691  007804  5849               	subwfb	??___fladd& (0+255),w,c
  2692  007806  B0D8               	btfsc	status,0,c
  2693  007808  D025               	goto	l1811
  2694  00780A  5041               	movf	___fladd@b,w,c
  2695  00780C  5C45               	subwf	___fladd@a,w,c
  2696  00780E  6E49               	movwf	??___fladd& (0+255),c
  2697  007810  5042               	movf	___fladd@b+1,w,c
  2698  007812  5846               	subwfb	___fladd@a+1,w,c
  2699  007814  6E4A               	movwf	(??___fladd+1)& (0+255),c
  2700  007816  5043               	movf	___fladd@b+2,w,c
  2701  007818  5847               	subwfb	___fladd@a+2,w,c
  2702  00781A  6E4B               	movwf	(??___fladd+2)& (0+255),c
  2703  00781C  5044               	movf	___fladd@b+3,w,c
  2704  00781E  5848               	subwfb	___fladd@a+3,w,c
  2705  007820  6E4C               	movwf	(??___fladd+3)& (0+255),c
  2706  007822  0EFF               	movlw	255
  2707  007824  2449               	addwf	??___fladd,w,c
  2708  007826  6E41               	movwf	___fladd@b,c
  2709  007828  0EFF               	movlw	255
  2710  00782A  204A               	addwfc	??___fladd+1,w,c
  2711  00782C  6E42               	movwf	___fladd@b+1,c
  2712  00782E  0EFF               	movlw	255
  2713  007830  204B               	addwfc	??___fladd+2,w,c
  2714  007832  6E43               	movwf	___fladd@b+2,c
  2715  007834  0EFF               	movlw	255
  2716  007836  204C               	addwfc	??___fladd+3,w,c
  2717  007838  6E44               	movwf	___fladd@b+3,c
  2718  00783A  0E80               	movlw	128
  2719  00783C  1A4D               	xorwf	___fladd@signs,f,c
  2720  00783E  6C50               	negf	___fladd@grs,c
  2721  007840  5050               	movf	___fladd@grs,w,c
  2722  007842  A4D8               	btfss	status,2,c
  2723  007844  D00F               	goto	l789
  2724  007846  0E01               	movlw	1
  2725  007848  2641               	addwf	___fladd@b,f,c
  2726  00784A  0E00               	movlw	0
  2727  00784C  2242               	addwfc	___fladd@b+1,f,c
  2728  00784E  2243               	addwfc	___fladd@b+2,f,c
  2729  007850  2244               	addwfc	___fladd@b+3,f,c
  2730  007852  D008               	goto	l789
  2731  007854                     l1811:
  2732  007854  5045               	movf	___fladd@a,w,c
  2733  007856  5E41               	subwf	___fladd@b,f,c
  2734  007858  5046               	movf	___fladd@a+1,w,c
  2735  00785A  5A42               	subwfb	___fladd@b+1,f,c
  2736  00785C  5047               	movf	___fladd@a+2,w,c
  2737  00785E  5A43               	subwfb	___fladd@b+2,f,c
  2738  007860  5048               	movf	___fladd@a+3,w,c
  2739  007862  5A44               	subwfb	___fladd@b+3,f,c
  2740  007864                     l789:
  2741  007864  5041               	movf	___fladd@b,w,c
  2742  007866  1042               	iorwf	___fladd@b+1,w,c
  2743  007868  1043               	iorwf	___fladd@b+2,w,c
  2744  00786A  1044               	iorwf	___fladd@b+3,w,c
  2745  00786C  A4D8               	btfss	status,2,c
  2746  00786E  D01C               	goto	l1835
  2747  007870  5050               	movf	___fladd@grs,w,c
  2748  007872  A4D8               	btfss	status,2,c
  2749  007874  D019               	goto	l1835
  2750  007876  0E00               	movlw	0
  2751  007878  6E41               	movwf	?___fladd,c
  2752  00787A  0E00               	movlw	0
  2753  00787C  6E42               	movwf	?___fladd+1,c
  2754  00787E  0E00               	movlw	0
  2755  007880  6E43               	movwf	?___fladd+2,c
  2756  007882  0E00               	movlw	0
  2757  007884  6E44               	movwf	?___fladd+3,c
  2758  007886  0012               	return	
  2759  007888                     l1819:
  2760  007888  90D8               	bcf	status,0,c
  2761  00788A  3641               	rlcf	___fladd@b,f,c
  2762  00788C  3642               	rlcf	___fladd@b+1,f,c
  2763  00788E  3643               	rlcf	___fladd@b+2,f,c
  2764  007890  3644               	rlcf	___fladd@b+3,f,c
  2765  007892  BE50               	btfsc	___fladd@grs,7,c
  2766  007894  8041               	bsf	___fladd@b,0,c
  2767  007896  A050               	btfss	___fladd@grs,0,c
  2768  007898  D002               	goto	l1829
  2769  00789A  80D8               	bsf	status,0,c
  2770  00789C  D001               	goto	L6
  2771  00789E                     l1829:
  2772  00789E  90D8               	bcf	status,0,c
  2773  0078A0                     L6:
  2774  0078A0  3650               	rlcf	___fladd@grs,f,c
  2775  0078A2  504F               	movf	___fladd@bexp,w,c
  2776  0078A4  A4D8               	btfss	status,2,c
  2777  0078A6  064F               	decf	___fladd@bexp,f,c
  2778  0078A8                     l1835:
  2779  0078A8  AE43               	btfss	___fladd@b+2,7,c
  2780  0078AA  D7EE               	goto	l1819
  2781  0078AC                     u1380:
  2782  0078AC  0E00               	movlw	0
  2783  0078AE  6E4E               	movwf	___fladd@aexp,c
  2784  0078B0  AE50               	btfss	___fladd@grs,7,c
  2785  0078B2  D00B               	goto	l798
  2786  0078B4  C050  F049         	movff	___fladd@grs,??___fladd
  2787  0078B8  0E7F               	movlw	127
  2788  0078BA  1649               	andwf	??___fladd,f,c
  2789  0078BC  B4D8               	btfsc	status,2,c
  2790  0078BE  D003               	goto	l799
  2791  0078C0                     u1400:
  2792  0078C0  0E01               	movlw	1
  2793  0078C2  6E4E               	movwf	___fladd@aexp,c
  2794  0078C4  D002               	goto	l798
  2795  0078C6                     l799:
  2796  0078C6  B041               	btfsc	___fladd@b,0,c
  2797  0078C8  D7FB               	goto	u1400
  2798  0078CA                     l798:
  2799  0078CA  504E               	movf	___fladd@aexp,w,c
  2800  0078CC  B4D8               	btfsc	status,2,c
  2801  0078CE  D020               	goto	l1855
  2802  0078D0  0E01               	movlw	1
  2803  0078D2  2641               	addwf	___fladd@b,f,c
  2804  0078D4  0E00               	movlw	0
  2805  0078D6  2242               	addwfc	___fladd@b+1,f,c
  2806  0078D8  2243               	addwfc	___fladd@b+2,f,c
  2807  0078DA  2244               	addwfc	___fladd@b+3,f,c
  2808  0078DC  A044               	btfss	___fladd@b+3,0,c
  2809  0078DE  D018               	goto	l1855
  2810  0078E0  C041  F049         	movff	___fladd@b,??___fladd
  2811  0078E4  C042  F04A         	movff	___fladd@b+1,??___fladd+1
  2812  0078E8  C043  F04B         	movff	___fladd@b+2,??___fladd+2
  2813  0078EC  C044  F04C         	movff	___fladd@b+3,??___fladd+3
  2814  0078F0  344C               	rlcf	??___fladd+3,w,c
  2815  0078F2  324C               	rrcf	??___fladd+3,f,c
  2816  0078F4  324B               	rrcf	??___fladd+2,f,c
  2817  0078F6  324A               	rrcf	??___fladd+1,f,c
  2818  0078F8  3249               	rrcf	??___fladd,f,c
  2819  0078FA  C049  F041         	movff	??___fladd,___fladd@b
  2820  0078FE  C04A  F042         	movff	??___fladd+1,___fladd@b+1
  2821  007902  C04B  F043         	movff	??___fladd+2,___fladd@b+2
  2822  007906  C04C  F044         	movff	??___fladd+3,___fladd@b+3
  2823  00790A  284F               	incf	___fladd@bexp,w,c
  2824  00790C  A4D8               	btfss	status,2,c
  2825  00790E  2A4F               	incf	___fladd@bexp,f,c
  2826  007910                     l1855:
  2827  007910  284F               	incf	___fladd@bexp,w,c
  2828  007912  B4D8               	btfsc	status,2,c
  2829  007914  D003               	goto	u1460
  2830  007916  504F               	movf	___fladd@bexp,w,c
  2831  007918  A4D8               	btfss	status,2,c
  2832  00791A  D00D               	goto	l1863
  2833  00791C                     u1460:
  2834  00791C  0E00               	movlw	0
  2835  00791E  6E41               	movwf	___fladd@b,c
  2836  007920  0E00               	movlw	0
  2837  007922  6E42               	movwf	___fladd@b+1,c
  2838  007924  0E00               	movlw	0
  2839  007926  6E43               	movwf	___fladd@b+2,c
  2840  007928  0E00               	movlw	0
  2841  00792A  6E44               	movwf	___fladd@b+3,c
  2842  00792C  504F               	movf	___fladd@bexp,w,c
  2843  00792E  A4D8               	btfss	status,2,c
  2844  007930  D002               	goto	l1863
  2845  007932  0E00               	movlw	0
  2846  007934  6E4D               	movwf	___fladd@signs,c
  2847  007936                     l1863:
  2848  007936  A04F               	btfss	___fladd@bexp,0,c
  2849  007938  D002               	goto	l1867
  2850  00793A  8E43               	bsf	___fladd@b+2,7,c
  2851  00793C  D001               	goto	l1869
  2852  00793E                     l1867:
  2853  00793E  9E43               	bcf	___fladd@b+2,7,c
  2854  007940                     l1869:
  2855  007940  90D8               	bcf	status,0,c
  2856  007942  304F               	rrcf	___fladd@bexp,w,c
  2857  007944  6E44               	movwf	___fladd@b+3,c
  2858  007946  BE4D               	btfsc	___fladd@signs,7,c
  2859  007948  8E44               	bsf	___fladd@b+3,7,c
  2860  00794A  C041  F041         	movff	___fladd@b,?___fladd
  2861  00794E  C042  F042         	movff	___fladd@b+1,?___fladd+1
  2862  007952  C043  F043         	movff	___fladd@b+2,?___fladd+2
  2863  007956  C044  F044         	movff	___fladd@b+3,?___fladd+3
  2864  00795A  0012               	return		;funcret
  2865  00795C                     __end_of___fladd:
  2866                           	opt callstack 0
  2867                           
  2868 ;; *************** function _PWM3_LoadDutyValue *****************
  2869 ;; Defined at:
  2870 ;;		line 74 in file "mcc_generated_files/pwm3.c"
  2871 ;; Parameters:    Size  Location     Type
  2872 ;;  dutyValue       2    0[COMRAM] unsigned short 
  2873 ;; Auto vars:     Size  Location     Type
  2874 ;;		None
  2875 ;; Return value:  Size  Location     Type
  2876 ;;                  1    wreg      void 
  2877 ;; Registers used:
  2878 ;;		wreg, status,2, status,0
  2879 ;; Tracked objects:
  2880 ;;		On entry : 0/0
  2881 ;;		On exit  : 0/0
  2882 ;;		Unchanged: 0/0
  2883 ;; Data sizes:     COMRAM   BANK0   BANK1   BANK2   BANK3   BANK4   BANK5   BANK6   BANK7
  2884 ;;      Params:         2       0       0       0       0       0       0       0       0
  2885 ;;      Locals:         0       0       0       0       0       0       0       0       0
  2886 ;;      Temps:          2       0       0       0       0       0       0       0       0
  2887 ;;      Totals:         4       0       0       0       0       0       0       0       0
  2888 ;;Total ram usage:        4 bytes
  2889 ;; Hardware stack levels used:    1
  2890 ;; This function calls:
  2891 ;;		Nothing
  2892 ;; This function is called by:
  2893 ;;		_motor_set
  2894 ;; This function uses a non-reentrant model
  2895 ;;
  2896                           
  2897                           	psect	text11
  2898  006FE8                     __ptext11:
  2899                           	opt callstack 0
  2900  006FE8                     _PWM3_LoadDutyValue:
  2901                           	opt callstack 29
  2902                           
  2903                           ;mcc_generated_files/pwm3.c: 74:  void PWM3_LoadDutyValue(uint16_t dutyValue);mcc_genera
      +                          ted_files/pwm3.c: 75:  {;mcc_generated_files/pwm3.c: 77:      PWM3DCH = (dutyValue & 0x0
      +                          3FC)>>2;
  2904                           
  2905                           ;incstack = 0
  2906  006FE8  C001  F003         	movff	PWM3_LoadDutyValue@dutyValue,??_PWM3_LoadDutyValue
  2907  006FEC  C002  F004         	movff	PWM3_LoadDutyValue@dutyValue+1,??_PWM3_LoadDutyValue+1
  2908  006FF0  90D8               	bcf	status,0,c
  2909  006FF2  3204               	rrcf	??_PWM3_LoadDutyValue+1,f,c
  2910  006FF4  3203               	rrcf	??_PWM3_LoadDutyValue,f,c
  2911  006FF6  90D8               	bcf	status,0,c
  2912  006FF8  3204               	rrcf	??_PWM3_LoadDutyValue+1,f,c
  2913  006FFA  3203               	rrcf	??_PWM3_LoadDutyValue,f,c
  2914  006FFC  5003               	movf	??_PWM3_LoadDutyValue,w,c
  2915  006FFE  6EA3               	movwf	4003,c	;volatile
  2916                           
  2917                           ;mcc_generated_files/pwm3.c: 80:      PWM3DCL = (dutyValue & 0x0003)<<6;
  2918  007000  C001  F003         	movff	PWM3_LoadDutyValue@dutyValue,??_PWM3_LoadDutyValue
  2919  007004  0E03               	movlw	3
  2920  007006  1603               	andwf	??_PWM3_LoadDutyValue,f,c
  2921  007008  0E06               	movlw	6
  2922  00700A  6E04               	movwf	(??_PWM3_LoadDutyValue+1)& (0+255),c
  2923  00700C                     u1105:
  2924  00700C  90D8               	bcf	status,0,c
  2925  00700E  3603               	rlcf	??_PWM3_LoadDutyValue,f,c
  2926  007010  2E04               	decfsz	(??_PWM3_LoadDutyValue+1)& (0+255),f,c
  2927  007012  D7FC               	goto	u1105
  2928  007014  5003               	movf	??_PWM3_LoadDutyValue,w,c
  2929  007016  6EA2               	movwf	4002,c	;volatile
  2930  007018  0012               	return		;funcret
  2931  00701A                     __end_of_PWM3_LoadDutyValue:
  2932                           	opt callstack 0
  2933                           
  2934 ;; *************** function _SYSTEM_Initialize *****************
  2935 ;; Defined at:
  2936 ;;		line 51 in file "mcc_generated_files/mcc.c"
  2937 ;; Parameters:    Size  Location     Type
  2938 ;;		None
  2939 ;; Auto vars:     Size  Location     Type
  2940 ;;		None
  2941 ;; Return value:  Size  Location     Type
  2942 ;;                  1    wreg      void 
  2943 ;; Registers used:
  2944 ;;		wreg, status,2, cstack
  2945 ;; Tracked objects:
  2946 ;;		On entry : 0/0
  2947 ;;		On exit  : 0/0
  2948 ;;		Unchanged: 0/0
  2949 ;; Data sizes:     COMRAM   BANK0   BANK1   BANK2   BANK3   BANK4   BANK5   BANK6   BANK7
  2950 ;;      Params:         0       0       0       0       0       0       0       0       0
  2951 ;;      Locals:         0       0       0       0       0       0       0       0       0
  2952 ;;      Temps:          0       0       0       0       0       0       0       0       0
  2953 ;;      Totals:         0       0       0       0       0       0       0       0       0
  2954 ;;Total ram usage:        0 bytes
  2955 ;; Hardware stack levels used:    1
  2956 ;; Hardware stack levels required when called:    1
  2957 ;; This function calls:
  2958 ;;		_OSCILLATOR_Initialize
  2959 ;;		_PIN_MANAGER_Initialize
  2960 ;;		_PMD_Initialize
  2961 ;;		_PWM3_Initialize
  2962 ;;		_PWM4_Initialize
  2963 ;;		_TMR2_Initialize
  2964 ;; This function is called by:
  2965 ;;		_main
  2966 ;; This function uses a non-reentrant model
  2967 ;;
  2968                           
  2969                           	psect	text12
  2970  006F94                     __ptext12:
  2971                           	opt callstack 0
  2972  006F94                     _SYSTEM_Initialize:
  2973                           	opt callstack 29
  2974                           
  2975                           ;mcc_generated_files/mcc.c: 53:     PMD_Initialize();
  2976                           
  2977                           ;incstack = 0
  2978  006F94  ECD7  F037         	call	_PMD_Initialize	;wreg free
  2979                           
  2980                           ;mcc_generated_files/mcc.c: 54:     PIN_MANAGER_Initialize();
  2981  006F98  EC26  F038         	call	_PIN_MANAGER_Initialize	;wreg free
  2982                           
  2983                           ;mcc_generated_files/mcc.c: 55:     OSCILLATOR_Initialize();
  2984  006F9C  ECBE  F037         	call	_OSCILLATOR_Initialize	;wreg free
  2985                           
  2986                           ;mcc_generated_files/mcc.c: 56:     PWM4_Initialize();
  2987  006FA0  ECA8  F037         	call	_PWM4_Initialize	;wreg free
  2988                           
  2989                           ;mcc_generated_files/mcc.c: 57:     PWM3_Initialize();
  2990  006FA4  EC9D  F037         	call	_PWM3_Initialize	;wreg free
  2991                           
  2992                           ;mcc_generated_files/mcc.c: 58:     TMR2_Initialize();
  2993  006FA8  ECE5  F037         	call	_TMR2_Initialize	;wreg free
  2994  006FAC  0012               	return		;funcret
  2995  006FAE                     __end_of_SYSTEM_Initialize:
  2996                           	opt callstack 0
  2997                           
  2998 ;; *************** function _TMR2_Initialize *****************
  2999 ;; Defined at:
  3000 ;;		line 62 in file "mcc_generated_files/tmr2.c"
  3001 ;; Parameters:    Size  Location     Type
  3002 ;;		None
  3003 ;; Auto vars:     Size  Location     Type
  3004 ;;		None
  3005 ;; Return value:  Size  Location     Type
  3006 ;;                  1    wreg      void 
  3007 ;; Registers used:
  3008 ;;		wreg, status,2
  3009 ;; Tracked objects:
  3010 ;;		On entry : 0/0
  3011 ;;		On exit  : 0/0
  3012 ;;		Unchanged: 0/0
  3013 ;; Data sizes:     COMRAM   BANK0   BANK1   BANK2   BANK3   BANK4   BANK5   BANK6   BANK7
  3014 ;;      Params:         0       0       0       0       0       0       0       0       0
  3015 ;;      Locals:         0       0       0       0       0       0       0       0       0
  3016 ;;      Temps:          0       0       0       0       0       0       0       0       0
  3017 ;;      Totals:         0       0       0       0       0       0       0       0       0
  3018 ;;Total ram usage:        0 bytes
  3019 ;; Hardware stack levels used:    1
  3020 ;; This function calls:
  3021 ;;		Nothing
  3022 ;; This function is called by:
  3023 ;;		_SYSTEM_Initialize
  3024 ;; This function uses a non-reentrant model
  3025 ;;
  3026                           
  3027                           	psect	text13
  3028  006FCA                     __ptext13:
  3029                           	opt callstack 0
  3030  006FCA                     _TMR2_Initialize:
  3031                           	opt callstack 29
  3032                           
  3033                           ;mcc_generated_files/tmr2.c: 67:     T2CLKCON = 0x01;
  3034                           
  3035                           ;incstack = 0
  3036  006FCA  0E01               	movlw	1
  3037  006FCC  6EBE               	movwf	4030,c	;volatile
  3038                           
  3039                           ;mcc_generated_files/tmr2.c: 70:     T2HLT = 0x00;
  3040  006FCE  0E00               	movlw	0
  3041  006FD0  6EBD               	movwf	4029,c	;volatile
  3042                           
  3043                           ;mcc_generated_files/tmr2.c: 73:     T2RST = 0x00;
  3044  006FD2  0E00               	movlw	0
  3045  006FD4  6EBF               	movwf	4031,c	;volatile
  3046                           
  3047                           ;mcc_generated_files/tmr2.c: 76:     T2PR = 0x9B;
  3048  006FD6  0E9B               	movlw	155
  3049  006FD8  6EBB               	movwf	4027,c	;volatile
  3050                           
  3051                           ;mcc_generated_files/tmr2.c: 79:     T2TMR = 0x00;
  3052  006FDA  0E00               	movlw	0
  3053  006FDC  6EBA               	movwf	4026,c	;volatile
  3054                           
  3055                           ;mcc_generated_files/tmr2.c: 82:     PIR4bits.TMR2IF = 0;
  3056  006FDE  010E               	movlb	14	; () banked
  3057  006FE0  93C9               	bcf	201,1,b	;volatile
  3058                           
  3059                           ;mcc_generated_files/tmr2.c: 85:     T2CON = 0xF0;
  3060  006FE2  0EF0               	movlw	240
  3061  006FE4  6EBC               	movwf	4028,c	;volatile
  3062                           
  3063                           ; BSR set to: 14
  3064  006FE6  0012               	return		;funcret
  3065  006FE8                     __end_of_TMR2_Initialize:
  3066                           	opt callstack 0
  3067                           
  3068 ;; *************** function _PWM4_Initialize *****************
  3069 ;; Defined at:
  3070 ;;		line 58 in file "mcc_generated_files/pwm4.c"
  3071 ;; Parameters:    Size  Location     Type
  3072 ;;		None
  3073 ;; Auto vars:     Size  Location     Type
  3074 ;;		None
  3075 ;; Return value:  Size  Location     Type
  3076 ;;                  1    wreg      void 
  3077 ;; Registers used:
  3078 ;;		wreg, status,2
  3079 ;; Tracked objects:
  3080 ;;		On entry : 0/0
  3081 ;;		On exit  : 0/0
  3082 ;;		Unchanged: 0/0
  3083 ;; Data sizes:     COMRAM   BANK0   BANK1   BANK2   BANK3   BANK4   BANK5   BANK6   BANK7
  3084 ;;      Params:         0       0       0       0       0       0       0       0       0
  3085 ;;      Locals:         0       0       0       0       0       0       0       0       0
  3086 ;;      Temps:          0       0       0       0       0       0       0       0       0
  3087 ;;      Totals:         0       0       0       0       0       0       0       0       0
  3088 ;;Total ram usage:        0 bytes
  3089 ;; Hardware stack levels used:    1
  3090 ;; This function calls:
  3091 ;;		Nothing
  3092 ;; This function is called by:
  3093 ;;		_SYSTEM_Initialize
  3094 ;; This function uses a non-reentrant model
  3095 ;;
  3096                           
  3097                           	psect	text14
  3098  006F50                     __ptext14:
  3099                           	opt callstack 0
  3100  006F50                     _PWM4_Initialize:
  3101                           	opt callstack 29
  3102                           
  3103                           ;mcc_generated_files/pwm4.c: 62:     PWM4CON = 0x80;
  3104                           
  3105                           ; BSR set to: 14
  3106                           ;incstack = 0
  3107  006F50  0E80               	movlw	128
  3108  006F52  6EA1               	movwf	4001,c	;volatile
  3109                           
  3110                           ;mcc_generated_files/pwm4.c: 65:     PWM4DCH = 0x0B;
  3111  006F54  0E0B               	movlw	11
  3112  006F56  6EA0               	movwf	4000,c	;volatile
  3113                           
  3114                           ;mcc_generated_files/pwm4.c: 68:     PWM4DCL = 0x80;
  3115  006F58  0E80               	movlw	128
  3116  006F5A  6E9F               	movwf	3999,c	;volatile
  3117                           
  3118                           ;mcc_generated_files/pwm4.c: 71:     CCPTMRSbits.P4TSEL = 1;
  3119  006F5C  50AD               	movf	4013,w,c	;volatile
  3120  006F5E  0B3F               	andlw	-193
  3121  006F60  0940               	iorlw	64
  3122  006F62  6EAD               	movwf	4013,c	;volatile
  3123  006F64  0012               	return		;funcret
  3124  006F66                     __end_of_PWM4_Initialize:
  3125                           	opt callstack 0
  3126                           
  3127 ;; *************** function _PWM3_Initialize *****************
  3128 ;; Defined at:
  3129 ;;		line 58 in file "mcc_generated_files/pwm3.c"
  3130 ;; Parameters:    Size  Location     Type
  3131 ;;		None
  3132 ;; Auto vars:     Size  Location     Type
  3133 ;;		None
  3134 ;; Return value:  Size  Location     Type
  3135 ;;                  1    wreg      void 
  3136 ;; Registers used:
  3137 ;;		wreg, status,2
  3138 ;; Tracked objects:
  3139 ;;		On entry : 0/0
  3140 ;;		On exit  : 0/0
  3141 ;;		Unchanged: 0/0
  3142 ;; Data sizes:     COMRAM   BANK0   BANK1   BANK2   BANK3   BANK4   BANK5   BANK6   BANK7
  3143 ;;      Params:         0       0       0       0       0       0       0       0       0
  3144 ;;      Locals:         0       0       0       0       0       0       0       0       0
  3145 ;;      Temps:          0       0       0       0       0       0       0       0       0
  3146 ;;      Totals:         0       0       0       0       0       0       0       0       0
  3147 ;;Total ram usage:        0 bytes
  3148 ;; Hardware stack levels used:    1
  3149 ;; This function calls:
  3150 ;;		Nothing
  3151 ;; This function is called by:
  3152 ;;		_SYSTEM_Initialize
  3153 ;; This function uses a non-reentrant model
  3154 ;;
  3155                           
  3156                           	psect	text15
  3157  006F3A                     __ptext15:
  3158                           	opt callstack 0
  3159  006F3A                     _PWM3_Initialize:
  3160                           	opt callstack 29
  3161                           
  3162                           ;mcc_generated_files/pwm3.c: 62:     PWM3CON = 0x80;
  3163                           
  3164                           ;incstack = 0
  3165  006F3A  0E80               	movlw	128
  3166  006F3C  6EA4               	movwf	4004,c	;volatile
  3167                           
  3168                           ;mcc_generated_files/pwm3.c: 65:     PWM3DCH = 0x07;
  3169  006F3E  0E07               	movlw	7
  3170  006F40  6EA3               	movwf	4003,c	;volatile
  3171                           
  3172                           ;mcc_generated_files/pwm3.c: 68:     PWM3DCL = 0x80;
  3173  006F42  0E80               	movlw	128
  3174  006F44  6EA2               	movwf	4002,c	;volatile
  3175                           
  3176                           ;mcc_generated_files/pwm3.c: 71:     CCPTMRSbits.P3TSEL = 1;
  3177  006F46  50AD               	movf	4013,w,c	;volatile
  3178  006F48  0BCF               	andlw	-49
  3179  006F4A  0910               	iorlw	16
  3180  006F4C  6EAD               	movwf	4013,c	;volatile
  3181  006F4E  0012               	return		;funcret
  3182  006F50                     __end_of_PWM3_Initialize:
  3183                           	opt callstack 0
  3184                           
  3185 ;; *************** function _PMD_Initialize *****************
  3186 ;; Defined at:
  3187 ;;		line 75 in file "mcc_generated_files/mcc.c"
  3188 ;; Parameters:    Size  Location     Type
  3189 ;;		None
  3190 ;; Auto vars:     Size  Location     Type
  3191 ;;		None
  3192 ;; Return value:  Size  Location     Type
  3193 ;;                  1    wreg      void 
  3194 ;; Registers used:
  3195 ;;		wreg, status,2
  3196 ;; Tracked objects:
  3197 ;;		On entry : 0/0
  3198 ;;		On exit  : 0/0
  3199 ;;		Unchanged: 0/0
  3200 ;; Data sizes:     COMRAM   BANK0   BANK1   BANK2   BANK3   BANK4   BANK5   BANK6   BANK7
  3201 ;;      Params:         0       0       0       0       0       0       0       0       0
  3202 ;;      Locals:         0       0       0       0       0       0       0       0       0
  3203 ;;      Temps:          0       0       0       0       0       0       0       0       0
  3204 ;;      Totals:         0       0       0       0       0       0       0       0       0
  3205 ;;Total ram usage:        0 bytes
  3206 ;; Hardware stack levels used:    1
  3207 ;; This function calls:
  3208 ;;		Nothing
  3209 ;; This function is called by:
  3210 ;;		_SYSTEM_Initialize
  3211 ;; This function uses a non-reentrant model
  3212 ;;
  3213                           
  3214                           	psect	text16
  3215  006FAE                     __ptext16:
  3216                           	opt callstack 0
  3217  006FAE                     _PMD_Initialize:
  3218                           	opt callstack 29
  3219                           
  3220                           ;mcc_generated_files/mcc.c: 78:     PMD0 = 0x00;
  3221                           
  3222                           ;incstack = 0
  3223  006FAE  0E00               	movlw	0
  3224  006FB0  010E               	movlb	14	; () banked
  3225  006FB2  6FDC               	movwf	220,b	;volatile
  3226                           
  3227                           ;mcc_generated_files/mcc.c: 80:     PMD1 = 0x00;
  3228  006FB4  0E00               	movlw	0
  3229  006FB6  6FDD               	movwf	221,b	;volatile
  3230                           
  3231                           ;mcc_generated_files/mcc.c: 82:     PMD2 = 0x00;
  3232  006FB8  0E00               	movlw	0
  3233  006FBA  6FDE               	movwf	222,b	;volatile
  3234                           
  3235                           ;mcc_generated_files/mcc.c: 84:     PMD3 = 0x00;
  3236  006FBC  0E00               	movlw	0
  3237  006FBE  6FDF               	movwf	223,b	;volatile
  3238                           
  3239                           ;mcc_generated_files/mcc.c: 86:     PMD4 = 0x00;
  3240  006FC0  0E00               	movlw	0
  3241  006FC2  6FE0               	movwf	224,b	;volatile
  3242                           
  3243                           ;mcc_generated_files/mcc.c: 88:     PMD5 = 0x00;
  3244  006FC4  0E00               	movlw	0
  3245  006FC6  6FE1               	movwf	225,b	;volatile
  3246                           
  3247                           ; BSR set to: 14
  3248  006FC8  0012               	return		;funcret
  3249  006FCA                     __end_of_PMD_Initialize:
  3250                           	opt callstack 0
  3251                           
  3252 ;; *************** function _PIN_MANAGER_Initialize *****************
  3253 ;; Defined at:
  3254 ;;		line 55 in file "mcc_generated_files/pin_manager.c"
  3255 ;; Parameters:    Size  Location     Type
  3256 ;;		None
  3257 ;; Auto vars:     Size  Location     Type
  3258 ;;		None
  3259 ;; Return value:  Size  Location     Type
  3260 ;;                  1    wreg      void 
  3261 ;; Registers used:
  3262 ;;		wreg, status,2
  3263 ;; Tracked objects:
  3264 ;;		On entry : 0/0
  3265 ;;		On exit  : 0/0
  3266 ;;		Unchanged: 0/0
  3267 ;; Data sizes:     COMRAM   BANK0   BANK1   BANK2   BANK3   BANK4   BANK5   BANK6   BANK7
  3268 ;;      Params:         0       0       0       0       0       0       0       0       0
  3269 ;;      Locals:         0       0       0       0       0       0       0       0       0
  3270 ;;      Temps:          0       0       0       0       0       0       0       0       0
  3271 ;;      Totals:         0       0       0       0       0       0       0       0       0
  3272 ;;Total ram usage:        0 bytes
  3273 ;; Hardware stack levels used:    1
  3274 ;; This function calls:
  3275 ;;		Nothing
  3276 ;; This function is called by:
  3277 ;;		_SYSTEM_Initialize
  3278 ;; This function uses a non-reentrant model
  3279 ;;
  3280                           
  3281                           	psect	text17
  3282  00704C                     __ptext17:
  3283                           	opt callstack 0
  3284  00704C                     _PIN_MANAGER_Initialize:
  3285                           	opt callstack 29
  3286                           
  3287                           ;mcc_generated_files/pin_manager.c: 60:     LATA = 0x00;
  3288                           
  3289                           ; BSR set to: 14
  3290                           ;incstack = 0
  3291  00704C  0E00               	movlw	0
  3292  00704E  6E82               	movwf	3970,c	;volatile
  3293                           
  3294                           ;mcc_generated_files/pin_manager.c: 61:     LATB = 0x00;
  3295  007050  0E00               	movlw	0
  3296  007052  6E83               	movwf	3971,c	;volatile
  3297                           
  3298                           ;mcc_generated_files/pin_manager.c: 62:     LATC = 0x00;
  3299  007054  0E00               	movlw	0
  3300  007056  6E84               	movwf	3972,c	;volatile
  3301                           
  3302                           ;mcc_generated_files/pin_manager.c: 67:     TRISA = 0xFC;
  3303  007058  0EFC               	movlw	252
  3304  00705A  6E87               	movwf	3975,c	;volatile
  3305                           
  3306                           ;mcc_generated_files/pin_manager.c: 68:     TRISB = 0xFF;
  3307  00705C  6888               	setf	3976,c	;volatile
  3308                           
  3309                           ;mcc_generated_files/pin_manager.c: 69:     TRISC = 0xFF;
  3310  00705E  6889               	setf	3977,c	;volatile
  3311                           
  3312                           ;mcc_generated_files/pin_manager.c: 74:     ANSELC = 0xFF;
  3313  007060  010F               	movlb	15	; () banked
  3314  007062  691C               	setf	28,b	;volatile
  3315                           
  3316                           ; BSR set to: 15
  3317                           ;mcc_generated_files/pin_manager.c: 75:     ANSELB = 0xFF;
  3318  007064  6914               	setf	20,b	;volatile
  3319                           
  3320                           ; BSR set to: 15
  3321                           ;mcc_generated_files/pin_manager.c: 76:     ANSELA = 0xFF;
  3322  007066  690C               	setf	12,b	;volatile
  3323                           
  3324                           ;mcc_generated_files/pin_manager.c: 81:     WPUE = 0x00;
  3325  007068  0E00               	movlw	0
  3326  00706A  6F28               	movwf	40,b	;volatile
  3327                           
  3328                           ;mcc_generated_files/pin_manager.c: 82:     WPUB = 0x00;
  3329  00706C  0E00               	movlw	0
  3330  00706E  6F13               	movwf	19,b	;volatile
  3331                           
  3332                           ;mcc_generated_files/pin_manager.c: 83:     WPUA = 0x00;
  3333  007070  0E00               	movlw	0
  3334  007072  6F0B               	movwf	11,b	;volatile
  3335                           
  3336                           ;mcc_generated_files/pin_manager.c: 84:     WPUC = 0x00;
  3337  007074  0E00               	movlw	0
  3338  007076  6F1B               	movwf	27,b	;volatile
  3339                           
  3340                           ;mcc_generated_files/pin_manager.c: 89:     ODCONA = 0x00;
  3341  007078  0E00               	movlw	0
  3342  00707A  6F0A               	movwf	10,b	;volatile
  3343                           
  3344                           ;mcc_generated_files/pin_manager.c: 90:     ODCONB = 0x00;
  3345  00707C  0E00               	movlw	0
  3346  00707E  6F12               	movwf	18,b	;volatile
  3347                           
  3348                           ;mcc_generated_files/pin_manager.c: 91:     ODCONC = 0x00;
  3349  007080  0E00               	movlw	0
  3350  007082  6F1A               	movwf	26,b	;volatile
  3351                           
  3352                           ; BSR set to: 15
  3353                           ;mcc_generated_files/pin_manager.c: 96:     SLRCONA = 0xFF;
  3354  007084  6909               	setf	9,b	;volatile
  3355                           
  3356                           ; BSR set to: 15
  3357                           ;mcc_generated_files/pin_manager.c: 97:     SLRCONB = 0xFF;
  3358  007086  6911               	setf	17,b	;volatile
  3359                           
  3360                           ; BSR set to: 15
  3361                           ;mcc_generated_files/pin_manager.c: 98:     SLRCONC = 0xFF;
  3362  007088  6919               	setf	25,b	;volatile
  3363                           
  3364                           ;mcc_generated_files/pin_manager.c: 107:     RA1PPS = 0x08;
  3365  00708A  0E08               	movlw	8
  3366  00708C  010E               	movlb	14	; () banked
  3367  00708E  6FE3               	movwf	227,b	;volatile
  3368                           
  3369                           ;mcc_generated_files/pin_manager.c: 108:     RA0PPS = 0x07;
  3370  007090  0E07               	movlw	7
  3371  007092  6FE2               	movwf	226,b	;volatile
  3372                           
  3373                           ; BSR set to: 14
  3374  007094  0012               	return		;funcret
  3375  007096                     __end_of_PIN_MANAGER_Initialize:
  3376                           	opt callstack 0
  3377                           
  3378 ;; *************** function _OSCILLATOR_Initialize *****************
  3379 ;; Defined at:
  3380 ;;		line 61 in file "mcc_generated_files/mcc.c"
  3381 ;; Parameters:    Size  Location     Type
  3382 ;;		None
  3383 ;; Auto vars:     Size  Location     Type
  3384 ;;		None
  3385 ;; Return value:  Size  Location     Type
  3386 ;;                  1    wreg      void 
  3387 ;; Registers used:
  3388 ;;		wreg, status,2
  3389 ;; Tracked objects:
  3390 ;;		On entry : 0/0
  3391 ;;		On exit  : 0/0
  3392 ;;		Unchanged: 0/0
  3393 ;; Data sizes:     COMRAM   BANK0   BANK1   BANK2   BANK3   BANK4   BANK5   BANK6   BANK7
  3394 ;;      Params:         0       0       0       0       0       0       0       0       0
  3395 ;;      Locals:         0       0       0       0       0       0       0       0       0
  3396 ;;      Temps:          0       0       0       0       0       0       0       0       0
  3397 ;;      Totals:         0       0       0       0       0       0       0       0       0
  3398 ;;Total ram usage:        0 bytes
  3399 ;; Hardware stack levels used:    1
  3400 ;; This function calls:
  3401 ;;		Nothing
  3402 ;; This function is called by:
  3403 ;;		_SYSTEM_Initialize
  3404 ;; This function uses a non-reentrant model
  3405 ;;
  3406                           
  3407                           	psect	text18
  3408  006F7C                     __ptext18:
  3409                           	opt callstack 0
  3410  006F7C                     _OSCILLATOR_Initialize:
  3411                           	opt callstack 29
  3412                           
  3413                           ;mcc_generated_files/mcc.c: 64:     OSCCON1 = 0x60;
  3414                           
  3415                           ; BSR set to: 14
  3416                           ;incstack = 0
  3417  006F7C  0E60               	movlw	96
  3418  006F7E  010E               	movlb	14	; () banked
  3419  006F80  6FD3               	movwf	211,b	;volatile
  3420                           
  3421                           ;mcc_generated_files/mcc.c: 66:     OSCCON3 = 0x00;
  3422  006F82  0E00               	movlw	0
  3423  006F84  6FD5               	movwf	213,b	;volatile
  3424                           
  3425                           ;mcc_generated_files/mcc.c: 68:     OSCEN = 0x00;
  3426  006F86  0E00               	movlw	0
  3427  006F88  6FD7               	movwf	215,b	;volatile
  3428                           
  3429                           ;mcc_generated_files/mcc.c: 70:     OSCFRQ = 0x02;
  3430  006F8A  0E02               	movlw	2
  3431  006F8C  6FD9               	movwf	217,b	;volatile
  3432                           
  3433                           ;mcc_generated_files/mcc.c: 72:     OSCTUNE = 0x00;
  3434  006F8E  0E00               	movlw	0
  3435  006F90  6FD8               	movwf	216,b	;volatile
  3436                           
  3437                           ; BSR set to: 14
  3438  006F92  0012               	return		;funcret
  3439  006F94                     __end_of_OSCILLATOR_Initialize:
  3440                           	opt callstack 0
  3441  0000                     
  3442                           	psect	rparam
  3443  0000                     tosu	equ	0xFFF
  3444                           tosh	equ	0xFFE
  3445                           tosl	equ	0xFFD
  3446                           stkptr	equ	0xFFC
  3447                           pclatu	equ	0xFFB
  3448                           pclath	equ	0xFFA
  3449                           pcl	equ	0xFF9
  3450                           tblptru	equ	0xFF8
  3451                           tblptrh	equ	0xFF7
  3452                           tblptrl	equ	0xFF6
  3453                           tablat	equ	0xFF5
  3454                           prodh	equ	0xFF4
  3455                           prodl	equ	0xFF3
  3456                           indf0	equ	0xFEF
  3457                           postinc0	equ	0xFEE
  3458                           postdec0	equ	0xFED
  3459                           preinc0	equ	0xFEC
  3460                           plusw0	equ	0xFEB
  3461                           fsr0h	equ	0xFEA
  3462                           fsr0l	equ	0xFE9
  3463                           wreg	equ	0xFE8
  3464                           indf1	equ	0xFE7
  3465                           postinc1	equ	0xFE6
  3466                           postdec1	equ	0xFE5
  3467                           preinc1	equ	0xFE4
  3468                           plusw1	equ	0xFE3
  3469                           fsr1h	equ	0xFE2
  3470                           fsr1l	equ	0xFE1
  3471                           bsr	equ	0xFE0
  3472                           indf2	equ	0xFDF
  3473                           postinc2	equ	0xFDE
  3474                           postdec2	equ	0xFDD
  3475                           preinc2	equ	0xFDC
  3476                           plusw2	equ	0xFDB
  3477                           fsr2h	equ	0xFDA
  3478                           fsr2l	equ	0xFD9
  3479                           status	equ	0xFD8


Data Sizes:
    Strings     0
    Constant    0
    Data        0
    BSS         0
    Persistent  2
    Stack       0

Auto Spaces:
    Space          Size  Autos    Used
    COMRAM           95     95      95
    BANK0           160     14      16
    BANK1           256      0       0
    BANK2           256      0       0
    BANK3           256      0       0
    BANK4           256      0       0
    BANK5           256      0       0
    BANK6           256      0       0
    BANK7           256      0       0

Pointer List with Targets:

    None.

Critical Paths under _main in COMRAM

    _main->_servo_set
    _servo_set->___fltol
    _servo_init->_PWM4_LoadDutyValue
    _motor_init->_motor_set
    _motor_set->___fltol
    ___fltol->___fladd
    ___flmul->___fldiv
    ___fldiv->___xxtofl
    ___fladd->___flmul

Critical Paths under _main in BANK0

    None.

Critical Paths under _main in BANK1

    None.

Critical Paths under _main in BANK2

    None.

Critical Paths under _main in BANK3

    None.

Critical Paths under _main in BANK4

    None.

Critical Paths under _main in BANK5

    None.

Critical Paths under _main in BANK6

    None.

Critical Paths under _main in BANK7

    None.

Call Graph Tables:

 ---------------------------------------------------------------------------------
 (Depth) Function   	        Calls       Base Space   Used Autos Params    Refs
 ---------------------------------------------------------------------------------
 (0) _main                                                14    14      0   25681
                                              0 BANK0     14    14      0
                  _SYSTEM_Initialize
                            ___fldiv
                           ___xxtofl
                         _motor_init
                          _motor_set
                         _servo_init
                          _servo_set
 ---------------------------------------------------------------------------------
 (1) _servo_set                                            5     1      4    6292
                                             90 COMRAM     5     1      4
                 _PWM4_LoadDutyValue
                            ___fladd
                            ___fldiv (ARG)
                            ___flmul
                            ___fltol
                           ___xxtofl
 ---------------------------------------------------------------------------------
 (1) _servo_init                                           2     1      1     316
                                              4 COMRAM     2     1      1
                 _PWM4_LoadDutyValue
 ---------------------------------------------------------------------------------
 (2) _PWM4_LoadDutyValue                                   4     2      2     196
                                              0 COMRAM     4     2      2
 ---------------------------------------------------------------------------------
 (1) _motor_init                                           0     0      0    7843
                          _motor_set
 ---------------------------------------------------------------------------------
 (1) _motor_set                                            3     3      0    7843
                                             90 COMRAM     3     3      0
                 _PWM3_LoadDutyValue
                            ___fladd
                            ___fldiv
                            ___flmul
                            ___fltol
                           ___xxtofl
 ---------------------------------------------------------------------------------
 (2) ___xxtofl                                            14    10      4     854
                                              0 COMRAM    14    10      4
 ---------------------------------------------------------------------------------
 (2) ___fltol                                             10     6      4     381
                                             80 COMRAM    10     6      4
                            ___fladd (ARG)
                            ___fldiv (ARG)
                            ___flmul (ARG)
                           ___xxtofl (ARG)
 ---------------------------------------------------------------------------------
 (2) ___flmul                                             25    17      8    1896
                                             39 COMRAM    25    17      8
                            ___fldiv (ARG)
                           ___xxtofl (ARG)
 ---------------------------------------------------------------------------------
 (2) ___fldiv                                             25    17      8    2007
                                             14 COMRAM    25    17      8
                           ___xxtofl (ARG)
 ---------------------------------------------------------------------------------
 (2) ___fladd                                             16     8      8    2540
                                             64 COMRAM    16     8      8
                            ___fldiv (ARG)
                            ___flmul (ARG)
                           ___xxtofl (ARG)
 ---------------------------------------------------------------------------------
 (2) _PWM3_LoadDutyValue                                   4     2      2     120
                                              0 COMRAM     4     2      2
 ---------------------------------------------------------------------------------
 (1) _SYSTEM_Initialize                                    0     0      0       0
              _OSCILLATOR_Initialize
             _PIN_MANAGER_Initialize
                     _PMD_Initialize
                    _PWM3_Initialize
                    _PWM4_Initialize
                    _TMR2_Initialize
 ---------------------------------------------------------------------------------
 (2) _TMR2_Initialize                                      0     0      0       0
 ---------------------------------------------------------------------------------
 (2) _PWM4_Initialize                                      0     0      0       0
 ---------------------------------------------------------------------------------
 (2) _PWM3_Initialize                                      0     0      0       0
 ---------------------------------------------------------------------------------
 (2) _PMD_Initialize                                       0     0      0       0
 ---------------------------------------------------------------------------------
 (2) _PIN_MANAGER_Initialize                               0     0      0       0
 ---------------------------------------------------------------------------------
 (2) _OSCILLATOR_Initialize                                0     0      0       0
 ---------------------------------------------------------------------------------
 Estimated maximum stack depth 2
 ---------------------------------------------------------------------------------

 Call Graph Graphs:

 _main (ROOT)
   _SYSTEM_Initialize
     _OSCILLATOR_Initialize
     _PIN_MANAGER_Initialize
     _PMD_Initialize
     _PWM3_Initialize
     _PWM4_Initialize
     _TMR2_Initialize
   ___fldiv
     ___xxtofl (ARG)
   ___xxtofl
   _motor_init
     _motor_set
       _PWM3_LoadDutyValue
       ___fladd
         ___fldiv (ARG)
           ___xxtofl (ARG)
         ___flmul (ARG)
           ___fldiv (ARG)
             ___xxtofl (ARG)
           ___xxtofl (ARG)
         ___xxtofl (ARG)
       ___fldiv
         ___xxtofl (ARG)
       ___flmul
         ___fldiv (ARG)
           ___xxtofl (ARG)
         ___xxtofl (ARG)
       ___fltol
         ___fladd (ARG)
           ___fldiv (ARG)
             ___xxtofl (ARG)
           ___flmul (ARG)
             ___fldiv (ARG)
               ___xxtofl (ARG)
             ___xxtofl (ARG)
           ___xxtofl (ARG)
         ___fldiv (ARG)
           ___xxtofl (ARG)
         ___flmul (ARG)
           ___fldiv (ARG)
             ___xxtofl (ARG)
           ___xxtofl (ARG)
         ___xxtofl (ARG)
       ___xxtofl
   _motor_set
     _PWM3_LoadDutyValue
     ___fladd
       ___fldiv (ARG)
         ___xxtofl (ARG)
       ___flmul (ARG)
         ___fldiv (ARG)
           ___xxtofl (ARG)
         ___xxtofl (ARG)
       ___xxtofl (ARG)
     ___fldiv
       ___xxtofl (ARG)
     ___flmul
       ___fldiv (ARG)
         ___xxtofl (ARG)
       ___xxtofl (ARG)
     ___fltol
       ___fladd (ARG)
         ___fldiv (ARG)
           ___xxtofl (ARG)
         ___flmul (ARG)
           ___fldiv (ARG)
             ___xxtofl (ARG)
           ___xxtofl (ARG)
         ___xxtofl (ARG)
       ___fldiv (ARG)
         ___xxtofl (ARG)
       ___flmul (ARG)
         ___fldiv (ARG)
           ___xxtofl (ARG)
         ___xxtofl (ARG)
       ___xxtofl (ARG)
     ___xxtofl
   _servo_init
     _PWM4_LoadDutyValue
   _servo_set
     _PWM4_LoadDutyValue
     ___fladd
       ___fldiv (ARG)
         ___xxtofl (ARG)
       ___flmul (ARG)
         ___fldiv (ARG)
           ___xxtofl (ARG)
         ___xxtofl (ARG)
       ___xxtofl (ARG)
     ___fldiv (ARG)
       ___xxtofl (ARG)
     ___flmul (ARG)
       ___fldiv (ARG)
         ___xxtofl (ARG)
       ___xxtofl (ARG)
     ___fltol (ARG)
       ___fladd (ARG)
         ___fldiv (ARG)
           ___xxtofl (ARG)
         ___flmul (ARG)
           ___fldiv (ARG)
             ___xxtofl (ARG)
           ___xxtofl (ARG)
         ___xxtofl (ARG)
       ___fldiv (ARG)
         ___xxtofl (ARG)
       ___flmul (ARG)
         ___fldiv (ARG)
           ___xxtofl (ARG)
         ___xxtofl (ARG)
       ___xxtofl (ARG)
     ___xxtofl (ARG)

 Address spaces:
Name               Size   Autos  Total    Cost      Usage
BITCOMRAM           5F      0       0       0        0.0%
EEDATA             100      0       0       0        0.0%
NULL                 0      0       0       0        0.0%
CODE                 0      0       0       0        0.0%
COMRAM              5F     5F      5F       1      100.0%
STACK                0      0       0       2        0.0%
DATA                 0      0      6F       3        0.0%
BITBANK0            A0      0       0       4        0.0%
BANK0               A0      E      10       5       10.0%
BITBANK1           100      0       0       6        0.0%
BANK1              100      0       0       7        0.0%
BITBANK2           100      0       0       8        0.0%
BANK2              100      0       0       9        0.0%
BITBANK3           100      0       0      10        0.0%
BANK3              100      0       0      11        0.0%
BITBANK4           100      0       0      12        0.0%
BANK4              100      0       0      13        0.0%
BITBANK5           100      0       0      14        0.0%
BANK5              100      0       0      15        0.0%
BITBANK6           100      0       0      16        0.0%
BANK6              100      0       0      17        0.0%
ABS                  0      0      6F      18        0.0%
BITBANK7           100      0       0      19        0.0%
BANK7              100      0       0      20        0.0%
BIGRAM             7FF      0       0      21        0.0%
BITSFR_2             0      0       0     200        0.0%
SFR_2                0      0       0     200        0.0%
BITSFR_1             0      0       0     200        0.0%
SFR_1                0      0       0     200        0.0%
BITSFR               0      0       0     200        0.0%
SFR                  0      0       0     200        0.0%


Microchip Technology PIC18 Macro Assembler V2.05 build -831301201 
Symbol Table                                                                                   Tue Apr  2 00:11:14 2019

                   ___fldiv@aexp 0027                     ___fldiv@bexp 0026  
                   ___fldiv@sign 001F                      __CFG_CP$OFF 000000  
                    __CFG_LVP$ON 000000                              l840 75A4  
                            l906 7344                              l828 753A  
                            l773 7792                              l774 7770  
                            l839 75A8                              l858 79DC  
                            l875 7C7A                              l867 7BF4  
                            l868 7BF0                              l789 7864  
                            l798 78CA                              l799 78C6  
                            l899 72C6                              _PR2 000FBB  
                   __CFG_CPD$OFF 000000          __size_of_PMD_Initialize 001C  
                _TMR2_Initialize 6FCA                  _PWM4_Initialize 6F50  
                            wreg 000FE8                     ___flmul@aexp 0039  
                   ___flmul@bexp 003A                     servo_set@pos 005B  
                   ___flmul@sign 0034                     ___flmul@temp 003F  
                   ___flmul@prod 003B                     __CFG_ZCD$OFF 000000  
                   ___fltol@exp1 005A                             l2001 763A  
                           l2007 7646                             l2031 798C  
                           l2009 7648                             l2105 7BBA  
                           l2033 799C                             l2203 72F4  
                           l2141 7C98                             l2125 7C38  
                           l2029 7988                             l2205 72FA  
                           l2047 79C8                             l2215 736A  
                           l2207 7306                             l2129 7C56  
                           l2057 79FA                             l2049 79CC  
                           l2153 71EC                             l2233 73B6  
                           l2217 7376                             l2209 732C  
                           l2321 7D34                             l2307 7CFE  
                           l2181 725A                             l2173 7246  
                           l2351 7DFC                             l2335 7D6C  
                           l1801 77EE                             l1713 76C4  
                           l2169 7236                             l1811 7854  
                           l2099 7B9C                             l2187 7276  
                           l2179 724E                             l1725 76E8  
                           l1717 76C8                             l2197 72D6  
                           l1911 7434                             l2383 7F3C  
                           l2367 7E9C                             l1819 7888  
                           l1835 78A8                             l1755 7724  
                           l1923 746C                             l1915 7438  
                           l2395 7FE4                             l2299 7CE4  
                           l1829 789E                             l1693 7680  
                           l1863 7936                             l1855 7910  
                           l1791 77D8                             l1783 77B6  
                           l1767 777E                             l1793 77DC  
                           l1769 7782                             l1689 767C  
                           l1961 7538                             l1937 749A  
                           l1929 7482                             l1867 793E  
                           l1955 7512                             l1947 74EA  
                           l1891 73F4                             l1869 7940  
                           l1973 756E                             l1967 7550  
                           l1895 73F8                             l1993 75EC  
                           l1997 7610                             u1200 7746  
                           u1105 700C                             u1210 7756  
                           u1220 7758                             u2110 7D2C  
                           u1400 78C0                             u2120 7D64  
                           u1250 779A                             u2050 7380  
                           u2130 7DF4                             u2140 7E94  
                           _LATA 000F82                             u2150 7F34  
                           _LATB 000F83                             u2207 7DD4  
                           _LATC 000F84                             u2160 7FDC  
                           u2217 7E74                             u2227 7F14  
                           u1460 791C                             u1380 78AC  
                           u1700 75FA                             u2237 7FBC  
                           u1710 761E                             u2095 703E  
                           u1800 79E8                             u2177 7CD6  
                           u1810 7B5E                             _T2PR 000FBB  
                           u2187 7D0C                             u1660 759E  
                           u1900 7C64                             u2197 7D44  
                           u1815 7B54                             u1920 71DA  
                           u1850 7BEA                             u1930 720A  
                           u1935 7200                             u1890 7C46  
                           u1970 7260                             _PMD0 000EDC  
                           _PMD1 000EDD                             _PMD2 000EDE  
                           _PMD3 000EDF                             _PMD4 000EE0  
                           _PMD5 000EE1                             _TMR2 000FBA  
                           _WPUA 000F0B                             _WPUB 000F13  
                           _WPUC 000F1B                             _WPUE 000F28  
                  __CFG_FCMEN$ON 000000                             _main 7CAE  
                           prodh 000FF4                             prodl 000FF3  
                           start 0000                  ___fldiv@new_exp 0020  
                  __CFG_CSWEN$ON 000000                     ___param_bank 000000  
                  __CFG_SCANE$ON 000000   __size_of_OSCILLATOR_Initialize 0018  
  __end_of_OSCILLATOR_Initialize 6F94                    ___fltol@sign1 0059  
                __end_of___fladd 795C                            ?_main 0001  
                __end_of___fldiv 7650                    __CFG_WDTE$OFF 000000  
                __end_of___flmul 7CAE                  __end_of___fltol 7288  
                          _T2CON 000FBC                            _T2HLT 000FBD  
                 __CFG_DEBUG$OFF 000000                            _T2TMR 000FBA  
                          _T2RST 000FBF                            _OSCEN 000ED7  
             _PWM4_LoadDutyValue 701A                            _TRISA 000F87  
                          _TRISB 000F88                            _TRISC 000F89  
                  __CFG_WRT0$OFF 000000                    __CFG_WRT1$OFF 000000  
                  __CFG_WRT2$OFF 000000                    __CFG_WRT3$OFF 000000  
                 __CFG_EBTR0$OFF 000000                   __CFG_EBTR1$OFF 000000  
                 __CFG_EBTR2$OFF 000000                   __CFG_EBTR3$OFF 000000  
                  __CFG_WRTB$OFF 000000                    __CFG_WRTC$OFF 000000  
                  __CFG_WRTD$OFF 000000                   __CFG_EBTRB$OFF 000000  
            ?_PWM4_LoadDutyValue 0001               __CFG_MCLRE$EXTMCLR 000000  
        __end_of_PWM3_Initialize 6F50                            status 000FD8  
                __initialization 6F2C                     __end_of_main 8000  
           ??_PWM4_LoadDutyValue 0003          __end_of_PWM4_Initialize 6F66  
        __end_of_TMR2_Initialize 6FE8                           ??_main 0060  
                  __activetblptr 000000                           _ANSELA 000F0C  
                         _ANSELB 000F14                           _ANSELC 000F1C  
                         _RA0PPS 000EE2                           _RA1PPS 000EE3  
                         _ODCONA 000F0A                           _ODCONB 000F12  
                         _ODCONC 000F1A                   __CFG_WDTCCS$SC 000000  
                         _OSCFRQ 000ED9                 __end_of___xxtofl 73C8  
                 __CFG_PWRTE$OFF 000000                   __CFG_XINST$OFF 000000  
      __CFG_RSTOSC$HFINTOSC_1MHZ 000000      __size_of_PWM3_LoadDutyValue 0032  
                      ??___fladd 0049                        ??___fldiv 0017  
                 __CFG_STVREN$ON 000000                        ??___flmul 0030  
                      ??___fltol 0055                   _PMD_Initialize 6FAE  
                servo_init@range 0005                 ?_PWM3_Initialize 0001  
                   ___xxtofl@arg 000B                     ___xxtofl@exp 000A  
              _SYSTEM_Initialize 6F94                     ___xxtofl@val 0001  
                     __accesstop 0060          __end_of__initialization 6F2C  
             ?_SYSTEM_Initialize 0001                    ___rparam_used 000001  
                     ___fltol@f1 0051                   __pcstackCOMRAM 0001  
            ??_SYSTEM_Initialize 0001                 ?_TMR2_Initialize 0001  
               ?_PWM4_Initialize 0001           __end_of_PMD_Initialize 6FCA  
    PWM4_LoadDutyValue@dutyValue 0001        __end_of_SYSTEM_Initialize 6FAE  
                     _center_val 006F                  __CFG_PPS1WAY$ON 000000  
                ?_PMD_Initialize 0001               __size_of_motor_set 00A8  
                      ?___xxtofl 0001               __size_of_servo_set 0090  
                        _OSCCON1 000ED3                          _OSCCON3 000ED5  
                        _OSCTUNE 000ED8                          _PWM3DCH 000FA3  
                        _PWM3DCL 000FA2                          _PWM4DCH 000FA0  
                        _PWM4DCL 000F9F                          _PWM3CON 000FA4  
                        _PWM4CON 000FA1                          _SLRCONA 000F09  
                        _SLRCONB 000F11                          _SLRCONC 000F19  
                        __Hparam 0000                          __Lparam 0000  
                        ___fladd 7650                          ___fldiv 73C8  
                        ___flmul 795C                          ___fltol 71CE  
                        __pcinit 6F2C                          __ramtop 0800  
                        __ptext0 7CAE                          __ptext1 7096  
                        __ptext2 6F66                          __ptext3 701A  
                        __ptext4 6F32                          __ptext5 7126  
                        __ptext6 7288                          __ptext7 71CE  
                        __ptext8 795C                          __ptext9 73C8  
          _OSCILLATOR_Initialize 6F7C                        _T2CONbits 000FBC  
                     ??___xxtofl 0005         ??_PIN_MANAGER_Initialize 0001  
                      _T2HLTbits 000FBD       __size_of_SYSTEM_Initialize 001A  
                        main@run 0066             end_of_initialization 6F2C  
                      _T2RSTbits 000FBF                 servo_init@center 0006  
              __end_of_motor_set 71CE                __end_of_servo_set 7126  
    __size_of_PWM4_LoadDutyValue 0032                       _motor_init 6F32  
          __CFG_WDTCPS$WDTCPS_31 000000                       _servo_init 6F66  
                    ___fladd@grs 0050                    ___xxtofl@sign 0009  
                    ___fldiv@grs 0022                      ___fldiv@rem 001B  
              motor_set@duty_val 005B                 __CFG_FEXTOSC$OFF 000000  
                    ___flmul@grs 0035       __end_of_PWM3_LoadDutyValue 701A  
               servo_set@new_val 005F           ?_OSCILLATOR_Initialize 0001  
            start_initialization 6F2C  __size_of_PIN_MANAGER_Initialize 004A  
               __CFG_LPBOREN$OFF 000000         __size_of_PWM3_Initialize 0016  
               ??_PMD_Initialize 0001                      _CCPTMRSbits 000FAD  
                    ?_motor_init 0001                      ?_servo_init 0005  
                      ___fladd@a 0045                        ___fladd@b 0041  
                      ___fldiv@a 0013                        ___fldiv@b 000F  
                      ___flmul@a 002C                        ___flmul@b 0028  
                  __pcstackBANK0 0060         __size_of_PWM4_Initialize 0016  
       __size_of_TMR2_Initialize 001E                __size_of___xxtofl 0140  
                      __pnvBANK0 006E                        _main$1106 0068  
         _PIN_MANAGER_Initialize 704C                         ?___fladd 0041  
                       ?___fldiv 000F                         ?___flmul 0028  
                       ?___fltol 0051                         _T2CLKCON 000FBE  
            __size_of_motor_init 0008                        _range_val 006E  
            __size_of_servo_init 0016                         _PIR4bits 000EC9  
                      _motor_set 7126                        _servo_set 7096  
              ??_PWM3_Initialize 0001                        main@i_439 006C  
              ??_TMR2_Initialize 0001                ??_PWM4_Initialize 0001  
                       __Hrparam 0000       __end_of_PWM4_LoadDutyValue 704C  
                       __Lrparam 0000               __CFG_BOREN$SBORDIS 000000  
                     ?_motor_set 0001          ??_OSCILLATOR_Initialize 0001  
                     ?_servo_set 005B                 __size_of___fladd 030C  
               __size_of___fldiv 0288                 __size_of___flmul 0352  
               __size_of___fltol 00BA               _PWM3_LoadDutyValue 6FE8  
                       ___xxtofl 7288                         __ptext10 7650  
                       __ptext11 6FE8                         __ptext12 6F94  
                       __ptext13 6FCA                         __ptext14 6F50  
                       __ptext15 6F3A                         __ptext16 6FAE  
                       __ptext17 704C                         __ptext18 6F7C  
            ?_PWM3_LoadDutyValue 0001                    __size_of_main 0352  
           __CFG_WDTCWS$WDTCWS_7 000000               __CFG_BORV$VBOR_190 000000  
           ??_PWM3_LoadDutyValue 0003                     ??_motor_init 005E  
                   ??_servo_init 0006                    motor_set@duty 005D  
             __end_of_motor_init 6F3A          ?_PIN_MANAGER_Initialize 0001  
              __CFG_CLKOUTEN$OFF 000000               __end_of_servo_init 6F7C  
                    ??_motor_set 005B                      ??_servo_set 005F  
    PWM3_LoadDutyValue@dutyValue 0001                    ___fladd@signs 004D  
 __end_of_PIN_MANAGER_Initialize 7096                     ___fladd@aexp 004E  
                   ___fladd@bexp 004F                  _PWM3_Initialize 6F3A  
