

Microchip MPLAB XC8 Assembler V2.05 build -831301201 
                                                                                               Mon May  6 19:58:30 2019

Microchip MPLAB XC8 C Compiler v2.05 (Free license) build 20181220022703 Og1 
     1                           	processor	18F25Q10
     2                           	fnconf	rparam,??,?,0
     3                           	opt	pw 120
     4                           	opt	flic
     5                           	psect	idataCOMRAM,global,class=CODE,delta=1,noexec
     6                           	psect	nvCOMRAM,global,class=COMRAM,space=1,delta=1,noexec
     7                           	psect	nvBANK0,global,class=BANK0,space=1,delta=1,lowdata,noexec
     8                           	psect	cinit,global,reloc=2,class=CODE,delta=1
     9                           	psect	bssCOMRAM,global,class=COMRAM,space=1,delta=1,noexec
    10                           	psect	dataCOMRAM,global,class=COMRAM,space=1,delta=1,noexec
    11                           	psect	bssBANK0,global,class=BANK0,space=1,delta=1,lowdata,noexec
    12                           	psect	bssBIGRAM,global,class=BIGRAM,space=1,delta=1,lowdata,noexec
    13                           	psect	cstackBANK1,global,class=BANK1,space=1,delta=1,noexec
    14                           	psect	cstackBANK0,global,class=BANK0,space=1,delta=1,noexec
    15                           	psect	cstackCOMRAM,global,class=COMRAM,space=1,delta=1,noexec
    16                           	psect	text0,global,reloc=2,class=CODE,delta=1
    17                           	psect	text1,global,reloc=2,class=CODE,delta=1
    18                           	psect	text2,global,reloc=2,class=CODE,delta=1
    19                           	psect	text3,global,reloc=2,class=CODE,delta=1
    20                           	psect	text4,global,reloc=2,class=CODE,delta=1
    21                           	psect	text5,global,reloc=2,class=CODE,delta=1
    22                           	psect	text6,global,reloc=2,class=CODE,delta=1
    23                           	psect	text7,global,reloc=2,class=CODE,delta=1
    24                           	psect	text8,global,reloc=2,class=CODE,delta=1,group=1
    25                           	psect	text9,global,reloc=2,class=CODE,delta=1,group=1
    26                           	psect	text10,global,reloc=2,class=CODE,delta=1,group=1
    27                           	psect	text11,global,reloc=2,class=CODE,delta=1,group=1
    28                           	psect	text12,global,reloc=2,class=CODE,delta=1,group=1
    29                           	psect	text13,global,reloc=2,class=CODE,delta=1
    30                           	psect	text14,global,reloc=2,class=CODE,delta=1
    31                           	psect	text15,global,reloc=2,class=CODE,delta=1
    32                           	psect	text16,global,reloc=2,class=CODE,delta=1
    33                           	psect	text17,global,reloc=2,class=CODE,delta=1
    34                           	psect	text18,global,reloc=2,class=CODE,delta=1
    35                           	psect	text19,global,reloc=2,class=CODE,delta=1
    36                           	psect	text20,global,reloc=2,class=CODE,delta=1
    37                           	psect	text21,global,reloc=2,class=CODE,delta=1
    38                           	psect	text22,global,reloc=2,class=CODE,delta=1
    39                           	psect	text23,global,reloc=2,class=CODE,delta=1,group=1
    40                           	psect	text24,global,reloc=2,class=CODE,delta=1
    41                           	psect	text25,global,reloc=2,class=CODE,delta=1
    42                           	psect	text26,global,reloc=2,class=CODE,delta=1
    43                           	psect	text27,global,reloc=2,class=CODE,delta=1
    44                           	psect	text28,global,reloc=2,class=CODE,delta=1
    45                           	psect	text29,global,reloc=2,class=CODE,delta=1
    46                           	psect	text30,global,reloc=2,class=CODE,delta=1
    47                           	psect	text31,global,reloc=2,class=CODE,delta=1
    48                           	psect	text32,global,reloc=2,class=CODE,delta=1
    49                           	psect	text33,global,reloc=2,class=CODE,delta=1
    50                           	psect	text34,global,reloc=2,class=CODE,delta=1
    51                           	psect	text35,global,reloc=2,class=CODE,delta=1
    52                           	psect	text36,global,reloc=2,class=CODE,delta=1
    53                           	psect	text37,global,reloc=2,class=CODE,delta=1
    54                           	psect	text38,global,reloc=2,class=CODE,delta=1
    55                           	psect	text39,global,reloc=2,class=CODE,delta=1
    56                           	psect	text40,global,reloc=2,class=CODE,delta=1
    57                           	psect	text41,global,reloc=2,class=CODE,delta=1
    58                           	psect	text42,global,reloc=2,class=CODE,delta=1
    59                           	psect	intcodelo,global,reloc=2,class=CODE,delta=1
    60                           	psect	text44,global,reloc=2,class=CODE,delta=1
    61                           	psect	text45,global,reloc=2,class=CODE,delta=1
    62                           	psect	text46,global,reloc=2,class=CODE,delta=1
    63                           	psect	text47,global,reloc=2,class=CODE,delta=1
    64                           	psect	text48,global,reloc=2,class=CODE,delta=1
    65                           	psect	text49,global,reloc=2,class=CODE,delta=1
    66                           	psect	text50,global,reloc=2,class=CODE,delta=1
    67                           	psect	text51,global,reloc=2,class=CODE,delta=1
    68                           	psect	text52,global,reloc=2,class=CODE,delta=1
    69                           	psect	text53,global,reloc=2,class=CODE,delta=1
    70                           	psect	text54,global,reloc=2,class=CODE,delta=1
    71                           	psect	text55,global,reloc=2,class=CODE,delta=1
    72                           	psect	text56,global,reloc=2,class=CODE,delta=1
    73                           	psect	text57,global,reloc=2,class=CODE,delta=1
    74                           	psect	text58,global,reloc=2,class=CODE,delta=1
    75                           	psect	text59,global,reloc=2,class=CODE,delta=1
    76                           	psect	text60,global,reloc=2,class=CODE,delta=1
    77                           	psect	text61,global,reloc=2,class=CODE,delta=1
    78                           	psect	text62,global,reloc=2,class=CODE,delta=1
    79                           	psect	text63,global,reloc=2,class=CODE,delta=1
    80                           	psect	text64,global,reloc=2,class=CODE,delta=1
    81                           	psect	text65,global,reloc=2,class=CODE,delta=1
    82                           	psect	text66,global,reloc=2,class=CODE,delta=1
    83                           	psect	text67,global,reloc=2,class=CODE,delta=1
    84                           	psect	text68,global,reloc=2,class=CODE,delta=1
    85                           	psect	intcode,global,reloc=2,class=CODE,delta=1
    86                           	psect	intcode_body,global,reloc=2,class=CODE,delta=1
    87                           	psect	text70,global,reloc=2,class=CODE,delta=1
    88                           	psect	text71,global,reloc=2,class=CODE,delta=1
    89                           	psect	text72,global,reloc=2,class=CODE,delta=1
    90                           	psect	intsave_regs,global,class=BIGRAM,space=1,delta=1,noexec
    91                           	psect	text73,global,reloc=2,class=CODE,delta=1
    92                           	psect	rparam,global,class=COMRAM,space=1,delta=1,noexec
    93                           	psect	temp,global,ovrld,common,class=COMRAM,space=1,delta=1
    94  0000                     
    95                           ; Version 2.05
    96                           ; Generated 20/12/2018 GMT
    97                           ; 
    98                           ; Copyright © 2018, Microchip Technology Inc. and its subsidiaries ("Microchip")
    99                           ; All rights reserved.
   100                           ; 
   101                           ; This software is developed by Microchip Technology Inc. and its subsidiaries ("Microch
      +                          ip").
   102                           ; 
   103                           ; Redistribution and use in source and binary forms, with or without modification, are
   104                           ; permitted provided that the following conditions are met:
   105                           ; 
   106                           ;     1. Redistributions of source code must retain the above copyright notice, this lis
      +                          t of
   107                           ;        conditions and the following disclaimer.
   108                           ; 
   109                           ;     2. Redistributions in binary form must reproduce the above copyright notice, this 
      +                          list
   110                           ;        of conditions and the following disclaimer in the documentation and/or other
   111                           ;        materials provided with the distribution.
   112                           ; 
   113                           ;     3. Microchip's name may not be used to endorse or promote products derived from th
      +                          is
   114                           ;        software without specific prior written permission.
   115                           ; 
   116                           ; THIS SOFTWARE IS PROVIDED BY MICROCHIP "AS IS" AND ANY EXPRESS OR IMPLIED WARRANTIES,
   117                           ; INCLUDING, BUT NOT LIMITED TO, THE IMPLIED WARRANTIES OF MERCHANTABILITY AND FITNESS F
      +                          OR
   118                           ; PURPOSE ARE DISCLAIMED.  IN NO EVENT SHALL MICROCHIP BE LIABLE FOR ANY DIRECT, INDIREC
      +                          T,
   119                           ; INCIDENTAL, SPECIAL, EXEMPLARY, OR CONSEQUENTIAL DAMAGES (INCLUDING BUT NOT LIMITED TO
   120                           ; PROCUREMENT OF SUBSTITUTE GOODS OR SERVICES; LOSS OF USE, DATA OR PROFITS; OR BUSINESS
   121                           ; INTERRUPTION) HOWSOEVER CAUSED AND ON ANY THEORY OF LIABILITY, WHETHER IN CONTRACT, ST
      +                          RICT
   122                           ; LIABILITY, OR TORT (INCLUDING NEGLIGENCE OR OTHERWISE) ARISING IN ANY WAY OUT OF THE U
      +                          SE OF
   123                           ; THIS SOFTWARE, EVEN IF ADVISED OF THE POSSIBILITY OF SUCH DAMAGE.
   124                           ; 
   125                           ; 
   126                           ; Code-generator required, PIC18F25Q10 Definitions
   127                           ; 
   128                           ; SFR Addresses
   129  0000                     
   130 ;; Function _EUSART1_DefaultFramingErrorHandler is unused but had its address taken
   131  0000                     
   132 ;; Function _EUSART1_DefaultOverrunErrorHandler is unused but had its address taken
   133  0000                     
   134 ;; Function _EUSART1_DefaultErrorHandler is unused but had its address taken
   135  0000                     
   136                           	psect	idataCOMRAM
   137  001B84                     __pidataCOMRAM:
   138                           	opt callstack 0
   139                           
   140                           ;initializer for _timing_val
   141  001B84  FF10               	dw	65296
   142                           
   143                           ;initializer for _servo_max
   144  001B86  0A                 	db	10
   145                           
   146                           ;initializer for _servo_min
   147  001B87  E7                 	db	231
   148                           
   149                           ;initializer for _servo_trim
   150  001B88  11                 	db	17
   151                           
   152                           	psect	nvCOMRAM
   153  00003A                     __pnvCOMRAM:
   154                           	opt callstack 0
   155  00003A                     _TMR3_InterruptHandler:
   156                           	opt callstack 0
   157  00003A                     	ds	2
   158  00003C                     _timer3ReloadVal:
   159                           	opt callstack 0
   160  00003C                     	ds	2
   161  00003E                     _TMR1_InterruptHandler:
   162                           	opt callstack 0
   163  00003E                     	ds	2
   164  000040                     _timer1ReloadVal:
   165                           	opt callstack 0
   166  000040                     	ds	2
   167  000042                     _CCP1_CallBack:
   168                           	opt callstack 0
   169  000042                     	ds	2
   170  000044                     _IOCCF2_InterruptHandler:
   171                           	opt callstack 0
   172  000044                     	ds	2
   173                           
   174                           	psect	nvBANK0
   175  0000D0                     __pnvBANK0:
   176                           	opt callstack 0
   177  0000D0                     _EUSART1_ErrorHandler:
   178                           	opt callstack 0
   179  0000D0                     	ds	2
   180  0000D2                     _EUSART1_OverrunErrorHandler:
   181                           	opt callstack 0
   182  0000D2                     	ds	2
   183  0000D4                     _EUSART1_FramingErrorHandler:
   184                           	opt callstack 0
   185  0000D4                     	ds	2
   186  0000D6                     _TMR2_InterruptHandler:
   187                           	opt callstack 0
   188  0000D6                     	ds	2
   189  0000                     _PIR6	set	3787
   190  0000                     _PIR3bits	set	3784
   191  0000                     _PIR1bits	set	3782
   192  0000                     _PIE1bits	set	3774
   193  0000                     _PIR0bits	set	3781
   194  0000                     _PIR6bits	set	3787
   195  0000                     _PIE6bits	set	3779
   196  0000                     _IPR1bits	set	3766
   197  0000                     _IPR0bits	set	3765
   198  0000                     _IPR6bits	set	3771
   199  0000                     _IPR4bits	set	3769
   200  0000                     _PIE4bits	set	3777
   201  0000                     _PIR4bits	set	3785
   202  0000                     _RC6PPS	set	3832
   203  0000                     _CCP1PPS	set	3754
   204  0000                     _PIE0bits	set	3773
   205  0000                     _PMD5	set	3809
   206  0000                     _PMD4	set	3808
   207  0000                     _PMD3	set	3807
   208  0000                     _PMD2	set	3806
   209  0000                     _PMD1	set	3805
   210  0000                     _PMD0	set	3804
   211  0000                     _OSCTUNE	set	3800
   212  0000                     _OSCFRQ	set	3801
   213  0000                     _OSCEN	set	3799
   214  0000                     _OSCCON3	set	3797
   215  0000                     _OSCCON1	set	3795
   216  0000                     _ADCON1bits	set	3924
   217  0000                     _ADPREVL	set	3932
   218  0000                     _ADPREVH	set	3933
   219  0000                     _ADCON2bits	set	3925
   220  0000                     _ADCON3bits	set	3926
   221  0000                     _ADRESL	set	3934
   222  0000                     _ADRESH	set	3935
   223  0000                     _ADCON0bits	set	3931
   224  0000                     _ADCON0	set	3931
   225  0000                     _ADPCH	set	3930
   226  0000                     _ADACQ	set	3927
   227  0000                     _ADPRE	set	3929
   228  0000                     _ADCAP	set	3928
   229  0000                     _ADREF	set	3923
   230  0000                     _ADCLK	set	3922
   231  0000                     _ADACT	set	3921
   232  0000                     _ADCON3	set	3926
   233  0000                     _ADCON2	set	3925
   234  0000                     _ADCON1	set	3924
   235  0000                     _IOCCPbits	set	3863
   236  0000                     _IOCCNbits	set	3862
   237  0000                     _IOCCFbits	set	3861
   238  0000                     _SLRCONC	set	3865
   239  0000                     _SLRCONB	set	3857
   240  0000                     _SLRCONA	set	3849
   241  0000                     _ODCONC	set	3866
   242  0000                     _ODCONB	set	3858
   243  0000                     _ODCONA	set	3850
   244  0000                     _WPUC	set	3867
   245  0000                     _WPUA	set	3851
   246  0000                     _WPUB	set	3859
   247  0000                     _WPUE	set	3880
   248  0000                     _ANSELA	set	3852
   249  0000                     _ANSELB	set	3860
   250  0000                     _ANSELC	set	3868
   251  0000                     _TRISBbits	set	3976
   252  0000                     _LATBbits	set	3971
   253  0000                     _TRISCbits	set	3977
   254  0000                     _LATCbits	set	3972
   255  0000                     _LATAbits	set	3970
   256  0000                     _T3GCONbits	set	4041
   257  0000                     _T3CONbits	set	4040
   258  0000                     _T3CON	set	4040
   259  0000                     _TMR3L	set	4038
   260  0000                     _TMR3H	set	4039
   261  0000                     _T3CLK	set	4043
   262  0000                     _T3GATE	set	4042
   263  0000                     _T3GCON	set	4041
   264  0000                     _ADERRL	set	3945
   265  0000                     _ADERRH	set	3946
   266  0000                     _ADFLTRL	set	3949
   267  0000                     _ADFLTRH	set	3950
   268  0000                     _ADSTATbits	set	3936
   269  0000                     _ADACCL	set	3947
   270  0000                     _ADACCH	set	3948
   271  0000                     _ADCNT	set	3938
   272  0000                     _ADSTPTH	set	3940
   273  0000                     _ADSTPTL	set	3939
   274  0000                     _ADUTHH	set	3944
   275  0000                     _ADUTHL	set	3943
   276  0000                     _ADLTHH	set	3942
   277  0000                     _ADLTHL	set	3941
   278  0000                     _ADRPT	set	3937
   279  0000                     _ADSTAT	set	3936
   280  0000                     _TX1REG	set	3993
   281  0000                     _RC1REG	set	3992
   282  0000                     _RC1STAbits	set	3996
   283  0000                     _TX1STAbits	set	3997
   284  0000                     _SP1BRGH	set	3995
   285  0000                     _SP1BRGL	set	3994
   286  0000                     _TX1STA	set	3997
   287  0000                     _RC1STA	set	3996
   288  0000                     _BAUD1CON	set	3998
   289  0000                     _T1GCONbits	set	4047
   290  0000                     _T1CONbits	set	4046
   291  0000                     _T1CON	set	4046
   292  0000                     _TMR1L	set	4044
   293  0000                     _TMR1H	set	4045
   294  0000                     _T1CLK	set	4049
   295  0000                     _T1GATE	set	4048
   296  0000                     _T1GCON	set	4047
   297  0000                     _CCPTMRSbits	set	4013
   298  0000                     _CCPR1L	set	4009
   299  0000                     _CCPR1H	set	4010
   300  0000                     _CCP1CAP	set	4012
   301  0000                     _CCP1CON	set	4011
   302  0000                     _INTCONbits	set	4082
   303  0000                     _PR2	set	4027
   304  0000                     _TMR2	set	4026
   305  0000                     _T2CONbits	set	4028
   306  0000                     _T2RSTbits	set	4031
   307  0000                     _T2HLTbits	set	4029
   308  0000                     _T2CON	set	4028
   309  0000                     _T2TMR	set	4026
   310  0000                     _T2PR	set	4027
   311  0000                     _T2RST	set	4031
   312  0000                     _T2HLT	set	4029
   313  0000                     _T2CLKCON	set	4030
   314  0000                     _TRISC	set	3977
   315  0000                     _TRISB	set	3976
   316  0000                     _TRISA	set	3975
   317  0000                     _LATC	set	3972
   318  0000                     _LATB	set	3971
   319  0000                     _LATA	set	3970
   320                           
   321                           ; #config settings
   322  0000                     
   323                           	psect	cinit
   324  001568                     __pcinit:
   325                           	opt callstack 0
   326  001568                     start_initialization:
   327                           	opt callstack 0
   328  001568                     __initialization:
   329                           	opt callstack 0
   330                           
   331                           ; Initialize objects allocated to COMRAM (5 bytes)
   332                           ; load TBLPTR registers with __pidataCOMRAM
   333  001568  0E84               	movlw	low __pidataCOMRAM
   334  00156A  6EF6               	movwf	tblptrl,c
   335  00156C  0E1B               	movlw	high __pidataCOMRAM
   336  00156E  6EF7               	movwf	tblptrh,c
   337  001570  0E00               	movlw	low (__pidataCOMRAM shr (0+16))
   338  001572  6EF8               	movwf	tblptru,c
   339  001574  EE00  F052         	lfsr	0,__pdataCOMRAM
   340  001578  EE10 F005          	lfsr	1,5
   341  00157C                     copy_data0:
   342  00157C  0009               	tblrd		*+
   343  00157E  CFF5 FFEE          	movff	tablat,postinc0
   344  001582  50E5               	movf	postdec1,w,c
   345  001584  50E1               	movf	fsr1l,w,c
   346  001586  E1FA               	bnz	copy_data0
   347                           
   348                           ; Clear objects allocated to BIGRAM (260 bytes)
   349  001588  EE01  F085         	lfsr	0,__pbssBIGRAM
   350  00158C  EE11 F004          	lfsr	1,260
   351  001590                     clear_0:
   352  001590  6AEE               	clrf	postinc0,c
   353  001592  50E5               	movf	postdec1,w,c
   354  001594  50E1               	movf	fsr1l,w,c
   355  001596  E1FC               	bnz	clear_0
   356  001598  50E2               	movf	fsr1h,w,c
   357  00159A  E1FA               	bnz	clear_0
   358                           
   359                           ; Clear objects allocated to BANK0 (19 bytes)
   360  00159C  EE00  F0BD         	lfsr	0,__pbssBANK0
   361  0015A0  0E13               	movlw	19
   362  0015A2                     clear_1:
   363  0015A2  6AEE               	clrf	postinc0,c
   364  0015A4  06E8               	decf	wreg,f,c
   365  0015A6  E1FD               	bnz	clear_1
   366                           
   367                           ; Clear objects allocated to COMRAM (12 bytes)
   368  0015A8  EE00  F046         	lfsr	0,__pbssCOMRAM
   369  0015AC  0E0C               	movlw	12
   370  0015AE                     clear_2:
   371  0015AE  6AEE               	clrf	postinc0,c
   372  0015B0  06E8               	decf	wreg,f,c
   373  0015B2  E1FD               	bnz	clear_2
   374  0015B4                     end_of_initialization:
   375                           	opt callstack 0
   376  0015B4                     __end_of__initialization:
   377                           	opt callstack 0
   378  0015B4  9057               	bcf	int$flags,0,c	;clear compiler interrupt flag (level 1)
   379  0015B6  9257               	bcf	int$flags,1,c	;clear compiler interrupt flag (level 2)
   380  0015B8  0E00               	movlw	low (__Lmediumconst shr (0+16))
   381  0015BA  6EF8               	movwf	tblptru,c
   382  0015BC  0100               	movlb	0
   383  0015BE  EF22  F007         	goto	_main	;jump to C main() function
   384                           
   385                           	psect	bssCOMRAM
   386  000046                     __pbssCOMRAM:
   387                           	opt callstack 0
   388  000046                     _status:
   389                           	opt callstack 0
   390  000046                     	ds	8
   391  00004E                     _delay_between_ack:
   392                           	opt callstack 0
   393  00004E                     	ds	2
   394  000050                     _ADCC_InterruptHandler:
   395                           	opt callstack 0
   396  000050                     	ds	2
   397                           
   398                           	psect	dataCOMRAM
   399  000052                     __pdataCOMRAM:
   400                           	opt callstack 0
   401  000052                     _timing_val:
   402                           	opt callstack 0
   403  000052                     	ds	2
   404  000054                     _servo_max:
   405                           	opt callstack 0
   406  000054                     	ds	1
   407  000055                     _servo_min:
   408                           	opt callstack 0
   409  000055                     	ds	1
   410  000056                     _servo_trim:
   411                           	opt callstack 0
   412  000056                     	ds	1
   413                           
   414                           	psect	bssBANK0
   415  0000BD                     __pbssBANK0:
   416                           	opt callstack 0
   417  0000BD                     _carctl:
   418                           	opt callstack 0
   419  0000BD                     	ds	6
   420  0000C3                     _dg:
   421                           	opt callstack 0
   422  0000C3                     	ds	4
   423  0000C7                     _pg:
   424                           	opt callstack 0
   425  0000C7                     	ds	4
   426  0000CB                     _stateTime:
   427                           	opt callstack 0
   428  0000CB                     	ds	2
   429  0000CD                     _last_error:
   430                           	opt callstack 0
   431  0000CD                     	ds	1
   432  0000CE                     _sp:
   433                           	opt callstack 0
   434  0000CE                     	ds	1
   435  0000CF                     _eusart1RxLastError:
   436                           	opt callstack 0
   437  0000CF                     	ds	1
   438                           
   439                           	psect	bssBIGRAM
   440  000185                     __pbssBIGRAM:
   441                           	opt callstack 0
   442  000185                     _myCam:
   443                           	opt callstack 0
   444  000185                     	ds	260
   445                           
   446                           	psect	cstackBANK1
   447  000100                     __pcstackBANK1:
   448                           	opt callstack 0
   449  000100                     main@cam_pixels:
   450                           	opt callstack 0
   451                           
   452                           ; 128 bytes @ 0x0
   453  000100                     	ds	128
   454  000180                     main@dis:
   455                           	opt callstack 0
   456                           
   457                           ; 4 bytes @ 0x80
   458  000180                     	ds	4
   459  000184                     main@response:
   460                           	opt callstack 0
   461                           
   462                           ; 1 bytes @ 0x84
   463  000184                     	ds	1
   464                           
   465                           	psect	cstackBANK0
   466  000060                     __pcstackBANK0:
   467                           	opt callstack 0
   468  000060                     ?_ping_get:
   469                           	opt callstack 0
   470  000060                     ?___fltol:
   471                           	opt callstack 0
   472  000060                     ADCC_SelectChannel@acquisitionDelay:
   473                           	opt callstack 0
   474  000060                     carcontrol_steering@steering:
   475                           	opt callstack 0
   476  000060                     carcontrol_throttle@throttle:
   477                           	opt callstack 0
   478  000060                     IOCCF2_SetInterruptHandler@InterruptHandler:
   479                           	opt callstack 0
   480  000060                     TMR2_SetInterruptHandler@InterruptHandler:
   481                           	opt callstack 0
   482  000060                     CCP1_SetCallBack@customCallBack:
   483                           	opt callstack 0
   484  000060                     TMR1_WriteTimer@timerVal:
   485                           	opt callstack 0
   486  000060                     TMR1_SetInterruptHandler@InterruptHandler:
   487                           	opt callstack 0
   488  000060                     EUSART1_SetFramingErrorHandler@interruptHandler:
   489                           	opt callstack 0
   490  000060                     EUSART1_SetOverrunErrorHandler@interruptHandler:
   491                           	opt callstack 0
   492  000060                     EUSART1_SetErrorHandler@interruptHandler:
   493                           	opt callstack 0
   494  000060                     ADCC_SetInterruptHandler@InterruptHandler:
   495                           	opt callstack 0
   496  000060                     TMR3_WriteTimer@timerVal:
   497                           	opt callstack 0
   498  000060                     TMR3_SetInterruptHandler@InterruptHandler:
   499                           	opt callstack 0
   500  000060                     cam_get@pixels:
   501                           	opt callstack 0
   502  000060                     pid_init@pgain:
   503                           	opt callstack 0
   504  000060                     ___flge@ff1:
   505                           	opt callstack 0
   506  000060                     ___fltol@f1:
   507                           	opt callstack 0
   508                           
   509                           ; 4 bytes @ 0x0
   510  000060                     	ds	1
   511  000061                     ADCC_SelectChannel@channel:
   512                           	opt callstack 0
   513                           
   514                           ; 1 bytes @ 0x1
   515  000061                     	ds	1
   516  000062                     ??_TMR3_Initialize:
   517  000062                     ??_TMR1_Initialize:
   518  000062                     ??_cam_start:
   519  000062                     cam_get@i:
   520                           	opt callstack 0
   521                           
   522                           ; 2 bytes @ 0x2
   523  000062                     	ds	2
   524  000064                     ??___fltol:
   525  000064                     cam_get@i_2617:
   526                           	opt callstack 0
   527  000064                     pid_init@dgain:
   528                           	opt callstack 0
   529  000064                     ___flge@ff2:
   530                           	opt callstack 0
   531                           
   532                           ; 4 bytes @ 0x4
   533  000064                     	ds	4
   534  000068                     ??___flge:
   535  000068                     pid_init@setpoint:
   536                           	opt callstack 0
   537  000068                     ___fltol@sign1:
   538                           	opt callstack 0
   539                           
   540                           ; 1 bytes @ 0x8
   541  000068                     	ds	1
   542  000069                     ___fltol@exp1:
   543                           	opt callstack 0
   544                           
   545                           ; 1 bytes @ 0x9
   546  000069                     	ds	1
   547  00006A                     ?___wmul:
   548                           	opt callstack 0
   549  00006A                     ___wmul@multiplier:
   550                           	opt callstack 0
   551                           
   552                           ; 2 bytes @ 0xA
   553  00006A                     	ds	2
   554  00006C                     ___wmul@multiplicand:
   555                           	opt callstack 0
   556                           
   557                           ; 2 bytes @ 0xC
   558  00006C                     	ds	2
   559  00006E                     ___wmul@product:
   560                           	opt callstack 0
   561                           
   562                           ; 2 bytes @ 0xE
   563  00006E                     	ds	2
   564  000070                     ?___xxtofl:
   565                           	opt callstack 0
   566  000070                     ___xxtofl@val:
   567                           	opt callstack 0
   568                           
   569                           ; 4 bytes @ 0x10
   570  000070                     	ds	4
   571  000074                     ??___xxtofl:
   572                           
   573                           ; 1 bytes @ 0x14
   574  000074                     	ds	4
   575  000078                     ___xxtofl@sign:
   576                           	opt callstack 0
   577                           
   578                           ; 1 bytes @ 0x18
   579  000078                     	ds	1
   580  000079                     ___xxtofl@exp:
   581                           	opt callstack 0
   582                           
   583                           ; 1 bytes @ 0x19
   584  000079                     	ds	1
   585  00007A                     ___xxtofl@arg:
   586                           	opt callstack 0
   587                           
   588                           ; 4 bytes @ 0x1A
   589  00007A                     	ds	4
   590  00007E                     ?___flmul:
   591                           	opt callstack 0
   592  00007E                     ___flmul@b:
   593                           	opt callstack 0
   594                           
   595                           ; 4 bytes @ 0x1E
   596  00007E                     	ds	4
   597  000082                     ___flmul@a:
   598                           	opt callstack 0
   599                           
   600                           ; 4 bytes @ 0x22
   601  000082                     	ds	4
   602  000086                     ??___flmul:
   603                           
   604                           ; 1 bytes @ 0x26
   605  000086                     	ds	4
   606  00008A                     ___flmul@sign:
   607                           	opt callstack 0
   608                           
   609                           ; 1 bytes @ 0x2A
   610  00008A                     	ds	1
   611  00008B                     ___flmul@grs:
   612                           	opt callstack 0
   613                           
   614                           ; 4 bytes @ 0x2B
   615  00008B                     	ds	4
   616  00008F                     ___flmul@aexp:
   617                           	opt callstack 0
   618                           
   619                           ; 1 bytes @ 0x2F
   620  00008F                     	ds	1
   621  000090                     ___flmul@bexp:
   622                           	opt callstack 0
   623                           
   624                           ; 1 bytes @ 0x30
   625  000090                     	ds	1
   626  000091                     ___flmul@prod:
   627                           	opt callstack 0
   628                           
   629                           ; 4 bytes @ 0x31
   630  000091                     	ds	4
   631  000095                     ___flmul@temp:
   632                           	opt callstack 0
   633                           
   634                           ; 2 bytes @ 0x35
   635  000095                     	ds	2
   636  000097                     ?___fladd:
   637                           	opt callstack 0
   638  000097                     ___fladd@b:
   639                           	opt callstack 0
   640                           
   641                           ; 4 bytes @ 0x37
   642  000097                     	ds	4
   643  00009B                     ___fladd@a:
   644                           	opt callstack 0
   645                           
   646                           ; 4 bytes @ 0x3B
   647  00009B                     	ds	4
   648  00009F                     ??___fladd:
   649                           
   650                           ; 1 bytes @ 0x3F
   651  00009F                     	ds	4
   652  0000A3                     ___fladd@signs:
   653                           	opt callstack 0
   654                           
   655                           ; 1 bytes @ 0x43
   656  0000A3                     	ds	1
   657  0000A4                     ___fladd@aexp:
   658                           	opt callstack 0
   659                           
   660                           ; 1 bytes @ 0x44
   661  0000A4                     	ds	1
   662  0000A5                     ___fladd@bexp:
   663                           	opt callstack 0
   664                           
   665                           ; 1 bytes @ 0x45
   666  0000A5                     	ds	1
   667  0000A6                     ___fladd@grs:
   668                           	opt callstack 0
   669                           
   670                           ; 1 bytes @ 0x46
   671  0000A6                     	ds	1
   672  0000A7                     pid_getResponse@pixels:
   673                           	opt callstack 0
   674                           
   675                           ; 2 bytes @ 0x47
   676  0000A7                     	ds	2
   677  0000A9                     ??_pid_getResponse:
   678                           
   679                           ; 1 bytes @ 0x49
   680  0000A9                     	ds	4
   681  0000AD                     _pid_getResponse$3446:
   682                           	opt callstack 0
   683                           
   684                           ; 4 bytes @ 0x4D
   685  0000AD                     	ds	4
   686  0000B1                     pid_getResponse@der_error:
   687                           	opt callstack 0
   688                           
   689                           ; 2 bytes @ 0x51
   690  0000B1                     	ds	2
   691  0000B3                     pid_getResponse@der_min:
   692                           	opt callstack 0
   693                           
   694                           ; 2 bytes @ 0x53
   695  0000B3                     	ds	2
   696  0000B5                     pid_getResponse@der_min_loc:
   697                           	opt callstack 0
   698                           
   699                           ; 1 bytes @ 0x55
   700  0000B5                     	ds	1
   701  0000B6                     pid_getResponse@der:
   702                           	opt callstack 0
   703                           
   704                           ; 2 bytes @ 0x56
   705  0000B6                     	ds	2
   706  0000B8                     pid_getResponse@error:
   707                           	opt callstack 0
   708                           
   709                           ; 1 bytes @ 0x58
   710  0000B8                     	ds	1
   711  0000B9                     pid_getResponse@i:
   712                           	opt callstack 0
   713                           
   714                           ; 2 bytes @ 0x59
   715  0000B9                     	ds	2
   716  0000BB                     ??_main:
   717                           
   718                           ; 1 bytes @ 0x5B
   719  0000BB                     	ds	2
   720                           
   721                           	psect	cstackCOMRAM
   722  000001                     __pcstackCOMRAM:
   723                           	opt callstack 0
   724  000001                     ??_carcontrol_ISR:
   725  000001                     
   726                           ; 1 bytes @ 0x0
   727  000001                     	ds	3
   728  000004                     ??_INTERRUPT_InterruptManagerHigh:
   729                           
   730                           ; 1 bytes @ 0x3
   731  000004                     	ds	2
   732  000006                     ?i1___xxtofl:
   733                           	opt callstack 0
   734  000006                     i1IOCCF2_SetInterruptHandler@InterruptHandler:
   735                           	opt callstack 0
   736  000006                     i1TMR1_WriteTimer@timerVal:
   737                           	opt callstack 0
   738  000006                     i1TMR1_SetInterruptHandler@InterruptHandler:
   739                           	opt callstack 0
   740  000006                     i1TMR3_WriteTimer@timerVal:
   741                           	opt callstack 0
   742  000006                     i1TMR3_SetInterruptHandler@InterruptHandler:
   743                           	opt callstack 0
   744  000006                     i1___xxtofl@val:
   745                           	opt callstack 0
   746                           
   747                           ; 4 bytes @ 0x5
   748  000006                     	ds	2
   749  000008                     ??_timer_ISR:
   750  000008                     ??_adc_ready_ISR:
   751  000008                     ??i1_cam_start:
   752                           
   753                           ; 1 bytes @ 0x7
   754  000008                     	ds	1
   755  000009                     
   756                           ; 1 bytes @ 0x8
   757  000009                     	ds	1
   758  00000A                     ??i1___xxtofl:
   759                           
   760                           ; 1 bytes @ 0x9
   761  00000A                     	ds	4
   762  00000E                     i1___xxtofl@sign:
   763                           	opt callstack 0
   764                           
   765                           ; 1 bytes @ 0xD
   766  00000E                     	ds	1
   767  00000F                     i1___xxtofl@exp:
   768                           	opt callstack 0
   769                           
   770                           ; 1 bytes @ 0xE
   771  00000F                     	ds	1
   772  000010                     i1___xxtofl@arg:
   773                           	opt callstack 0
   774                           
   775                           ; 4 bytes @ 0xF
   776  000010                     	ds	4
   777  000014                     ?i1___flmul:
   778                           	opt callstack 0
   779  000014                     i1___flmul@b:
   780                           	opt callstack 0
   781                           
   782                           ; 4 bytes @ 0x13
   783  000014                     	ds	4
   784  000018                     i1___flmul@a:
   785                           	opt callstack 0
   786                           
   787                           ; 4 bytes @ 0x17
   788  000018                     	ds	4
   789  00001C                     ??i1___flmul:
   790                           
   791                           ; 1 bytes @ 0x1B
   792  00001C                     	ds	4
   793  000020                     i1___flmul@sign:
   794                           	opt callstack 0
   795                           
   796                           ; 1 bytes @ 0x1F
   797  000020                     	ds	1
   798  000021                     i1___flmul@grs:
   799                           	opt callstack 0
   800                           
   801                           ; 4 bytes @ 0x20
   802  000021                     	ds	4
   803  000025                     i1___flmul@aexp:
   804                           	opt callstack 0
   805                           
   806                           ; 1 bytes @ 0x24
   807  000025                     	ds	1
   808  000026                     i1___flmul@bexp:
   809                           	opt callstack 0
   810                           
   811                           ; 1 bytes @ 0x25
   812  000026                     	ds	1
   813  000027                     i1___flmul@prod:
   814                           	opt callstack 0
   815                           
   816                           ; 4 bytes @ 0x26
   817  000027                     	ds	4
   818  00002B                     i1___flmul@temp:
   819                           	opt callstack 0
   820                           
   821                           ; 2 bytes @ 0x2A
   822  00002B                     	ds	2
   823  00002D                     ping_CCP1_triggered@timeOfFlight:
   824                           	opt callstack 0
   825                           
   826                           ; 2 bytes @ 0x2C
   827  00002D                     	ds	2
   828  00002F                     CCP1_CaptureISR@module:
   829                           	opt callstack 0
   830                           
   831                           ; 2 bytes @ 0x2E
   832  00002F                     	ds	2
   833  000031                     ??_INTERRUPT_InterruptManagerLow:
   834                           
   835                           ; 1 bytes @ 0x30
   836  000031                     	ds	9
   837                           
   838 ;;
   839 ;;Main: autosize = 0, tempsize = 2, incstack = 0, save=0
   840 ;;
   841 ;; *************** function _main *****************
   842 ;; Defined at:
   843 ;;		line 53 in file "main.c"
   844 ;; Parameters:    Size  Location     Type
   845 ;;		None
   846 ;; Auto vars:     Size  Location     Type
   847 ;;  dis             4  128[BANK1 ] float 
   848 ;;  response        1  132[BANK1 ] char 
   849 ;;  cam_pixels    128    0[BANK1 ] unsigned char [128]
   850 ;; Return value:  Size  Location     Type
   851 ;;                  1    wreg      void 
   852 ;; Registers used:
   853 ;;		wreg, fsr1l, fsr1h, fsr2l, fsr2h, status,2, status,0, prodl, prodh, cstack
   854 ;; Tracked objects:
   855 ;;		On entry : 0/0
   856 ;;		On exit  : 0/0
   857 ;;		Unchanged: 0/0
   858 ;; Data sizes:     COMRAM   BANK0   BANK1   BANK2   BANK3   BANK4   BANK5   BANK6   BANK7
   859 ;;      Params:         0       0       0       0       0       0       0       0       0
   860 ;;      Locals:         0       0     133       0       0       0       0       0       0
   861 ;;      Temps:          0       2       0       0       0       0       0       0       0
   862 ;;      Totals:         0       2     133       0       0       0       0       0       0
   863 ;;Total ram usage:      135 bytes
   864 ;; Hardware stack levels required when called:   11
   865 ;; This function calls:
   866 ;;		_SYSTEM_Initialize
   867 ;;		___flge
   868 ;;		_cam_get
   869 ;;		_cam_init
   870 ;;		_cam_start
   871 ;;		_carcontrol_init
   872 ;;		_carcontrol_steering
   873 ;;		_carcontrol_throttle
   874 ;;		_pid_getResponse
   875 ;;		_pid_init
   876 ;;		_ping_get
   877 ;;		_ping_init
   878 ;;		_ping_send
   879 ;; This function is called by:
   880 ;;		Startup code after reset
   881 ;; This function uses a non-reentrant model
   882 ;;
   883                           
   884                           	psect	text0
   885  000E44                     __ptext0:
   886                           	opt callstack 0
   887  000E44                     _main:
   888                           	opt callstack 20
   889                           
   890                           ;main.c: 56:     SYSTEM_Initialize();
   891                           
   892                           ;incstack = 0
   893  000E44  EC8D  F00C         	call	_SYSTEM_Initialize	;wreg free
   894                           
   895                           ;main.c: 69:     (INTCONbits.GIEL = 1);
   896  000E48  8CF2               	bsf	4082,6,c	;volatile
   897                           
   898                           ;main.c: 70:     (INTCONbits.GIEH = 1);
   899  000E4A  8EF2               	bsf	4082,7,c	;volatile
   900                           
   901                           ;main.c: 71:     (INTCONbits.PEIE = 1);
   902  000E4C  8CF2               	bsf	4082,6,c	;volatile
   903                           
   904                           ;main.c: 76:     carcontrol_init();
   905  000E4E  EC9D  F00B         	call	_carcontrol_init	;wreg free
   906                           
   907                           ;main.c: 77:     cam_init();
   908  000E52  EC82  F00B         	call	_cam_init	;wreg free
   909                           
   910                           ;main.c: 78:     pid_init(105,4,.1);
   911  000E56  0E00               	movlw	0
   912  000E58  0100               	movlb	0	; () banked
   913  000E5A  6F60               	movwf	pid_init@pgain& (0+255),b
   914  000E5C  0E00               	movlw	0
   915  000E5E  6F61               	movwf	(pid_init@pgain+1)& (0+255),b
   916  000E60  0E80               	movlw	128
   917  000E62  6F62               	movwf	(pid_init@pgain+2)& (0+255),b
   918  000E64  0E40               	movlw	64
   919  000E66  6F63               	movwf	(pid_init@pgain+3)& (0+255),b
   920  000E68  0ECD               	movlw	205
   921  000E6A  6F64               	movwf	pid_init@dgain& (0+255),b
   922  000E6C  0ECC               	movlw	204
   923  000E6E  6F65               	movwf	(pid_init@dgain+1)& (0+255),b
   924  000E70  0ECC               	movlw	204
   925  000E72  6F66               	movwf	(pid_init@dgain+2)& (0+255),b
   926  000E74  0E3D               	movlw	61
   927  000E76  6F67               	movwf	(pid_init@dgain+3)& (0+255),b
   928  000E78  0E69               	movlw	105
   929  000E7A  ECE9  F00B         	call	_pid_init
   930                           
   931                           ;main.c: 79:     ping_init();
   932  000E7E  EC49  F00B         	call	_ping_init	;wreg free
   933                           
   934                           ;main.c: 81:     carcontrol_throttle(0);
   935  000E82  0E00               	movlw	0
   936  000E84  EC63  F00D         	call	_carcontrol_throttle
   937                           
   938                           ;main.c: 82:     carcontrol_steering(0);
   939  000E88  0E00               	movlw	0
   940  000E8A  EC01  F00C         	call	_carcontrol_steering
   941                           
   942                           ;main.c: 84:     uint8_t cam_pixels[128];;main.c: 86:     cam_start();
   943  000E8E  EC7E  F009         	call	_cam_start	;wreg free
   944                           
   945                           ;main.c: 87:     _delay((unsigned long)((500)*(64000000/4000.0)));
   946  000E92  0E29               	movlw	41
   947  000E94  0100               	movlb	0	; () banked
   948  000E96  6FBC               	movwf	(??_main+1)& (0+255),b
   949  000E98  0E96               	movlw	150
   950  000E9A  6FBB               	movwf	??_main& (0+255),b
   951  000E9C  0E7F               	movlw	127
   952  000E9E                     u3407:
   953  000E9E  2EE8               	decfsz	wreg,f,c
   954  000EA0  D7FE               	bra	u3407
   955  000EA2  2FBB               	decfsz	??_main& (0+255),f,b
   956  000EA4  D7FC               	bra	u3407
   957  000EA6  2FBC               	decfsz	(??_main+1)& (0+255),f,b
   958  000EA8  D7FA               	bra	u3407
   959  000EAA                     l4449:
   960                           
   961                           ;main.c: 90:     {;main.c: 91:         ping_send();
   962  000EAA  EC67  F00B         	call	_ping_send	;wreg free
   963                           
   964                           ;main.c: 92:         cam_get(cam_pixels);
   965  000EAE  0E00               	movlw	low main@cam_pixels
   966  000EB0  0100               	movlb	0	; () banked
   967  000EB2  6F60               	movwf	cam_get@pixels& (0+255),b
   968  000EB4  0E01               	movlw	high main@cam_pixels
   969  000EB6  6F61               	movwf	(cam_get@pixels+1)& (0+255),b
   970  000EB8  EC3C  F009         	call	_cam_get	;wreg free
   971                           
   972                           ;main.c: 93:         int8_t response = pid_getResponse(cam_pixels);
   973  000EBC  0E00               	movlw	low main@cam_pixels
   974  000EBE  0100               	movlb	0	; () banked
   975  000EC0  6FA7               	movwf	pid_getResponse@pixels& (0+255),b
   976  000EC2  0E01               	movlw	high main@cam_pixels
   977  000EC4  6FA8               	movwf	(pid_getResponse@pixels+1)& (0+255),b
   978  000EC6  EC2D  F005         	call	_pid_getResponse	;wreg free
   979  000ECA  0101               	movlb	1	; () banked
   980  000ECC  6F84               	movwf	main@response& (0+255),b
   981                           
   982                           ; BSR set to: 1
   983                           ;main.c: 94:         carcontrol_steering(response);
   984  000ECE  5184               	movf	main@response& (0+255),w,b
   985  000ED0  EC01  F00C         	call	_carcontrol_steering
   986                           
   987                           ;main.c: 95:         _delay((unsigned long)((20)*(64000000/4000.0)));
   988  000ED4  0E02               	movlw	2
   989  000ED6  0100               	movlb	0	; () banked
   990  000ED8  6FBC               	movwf	(??_main+1)& (0+255),b
   991  000EDA  0EA0               	movlw	160
   992  000EDC  6FBB               	movwf	??_main& (0+255),b
   993  000EDE  0E92               	movlw	146
   994  000EE0                     u3417:
   995  000EE0  2EE8               	decfsz	wreg,f,c
   996  000EE2  D7FE               	bra	u3417
   997  000EE4  2FBB               	decfsz	??_main& (0+255),f,b
   998  000EE6  D7FC               	bra	u3417
   999  000EE8  2FBC               	decfsz	(??_main+1)& (0+255),f,b
  1000  000EEA  D7FA               	bra	u3417
  1001  000EEC  F000               	nop	
  1002                           
  1003                           ;main.c: 96:         float dis = ping_get();
  1004  000EEE  ECD1  F00B         	call	_ping_get	;wreg free
  1005  000EF2  C060  F180         	movff	?_ping_get,main@dis
  1006  000EF6  C061  F181         	movff	?_ping_get+1,main@dis+1
  1007  000EFA  C062  F182         	movff	?_ping_get+2,main@dis+2
  1008  000EFE  C063  F183         	movff	?_ping_get+3,main@dis+3
  1009                           
  1010                           ;main.c: 97:         if (dis < 20) {
  1011  000F02  C180  F060         	movff	main@dis,___flge@ff1
  1012  000F06  C181  F061         	movff	main@dis+1,___flge@ff1+1
  1013  000F0A  C182  F062         	movff	main@dis+2,___flge@ff1+2
  1014  000F0E  C183  F063         	movff	main@dis+3,___flge@ff1+3
  1015  000F12  0E00               	movlw	0
  1016  000F14  0100               	movlb	0	; () banked
  1017  000F16  6F64               	movwf	___flge@ff2& (0+255),b
  1018  000F18  0E00               	movlw	0
  1019  000F1A  6F65               	movwf	(___flge@ff2+1)& (0+255),b
  1020  000F1C  0EA0               	movlw	160
  1021  000F1E  6F66               	movwf	(___flge@ff2+2)& (0+255),b
  1022  000F20  0E41               	movlw	65
  1023  000F22  6F67               	movwf	(___flge@ff2+3)& (0+255),b
  1024  000F24  EC15  F008         	call	___flge	;wreg free
  1025  000F28  0100               	movlb	0	; () banked
  1026  000F2A  B0D8               	btfsc	status,0,c
  1027  000F2C  D007               	goto	l4465
  1028                           
  1029                           ; BSR set to: 0
  1030                           ;main.c: 98:             carcontrol_throttle(0);
  1031  000F2E  0E00               	movlw	0
  1032  000F30  EC63  F00D         	call	_carcontrol_throttle
  1033                           
  1034                           ;main.c: 99:             carcontrol_steering(0);
  1035  000F34  0E00               	movlw	0
  1036  000F36  EC01  F00C         	call	_carcontrol_steering
  1037                           
  1038                           ;main.c: 100:         } else {
  1039  000F3A  D7B7               	goto	l4449
  1040  000F3C                     l4465:
  1041                           
  1042                           ; BSR set to: 0
  1043                           ;main.c: 101:             carcontrol_throttle(11);
  1044  000F3C  0E0B               	movlw	11
  1045  000F3E  EC63  F00D         	call	_carcontrol_throttle
  1046  000F42  D7B3               	goto	l4449
  1047  000F44                     __end_of_main:
  1048                           	opt callstack 0
  1049                           
  1050 ;; *************** function _ping_send *****************
  1051 ;; Defined at:
  1052 ;;		line 112 in file "ping.c"
  1053 ;; Parameters:    Size  Location     Type
  1054 ;;		None
  1055 ;; Auto vars:     Size  Location     Type
  1056 ;;		None
  1057 ;; Return value:  Size  Location     Type
  1058 ;;                  1    wreg      void 
  1059 ;; Registers used:
  1060 ;;		wreg, status,2, status,0, cstack
  1061 ;; Tracked objects:
  1062 ;;		On entry : 0/0
  1063 ;;		On exit  : 0/0
  1064 ;;		Unchanged: 0/0
  1065 ;; Data sizes:     COMRAM   BANK0   BANK1   BANK2   BANK3   BANK4   BANK5   BANK6   BANK7
  1066 ;;      Params:         0       0       0       0       0       0       0       0       0
  1067 ;;      Locals:         0       0       0       0       0       0       0       0       0
  1068 ;;      Temps:          0       0       0       0       0       0       0       0       0
  1069 ;;      Totals:         0       0       0       0       0       0       0       0       0
  1070 ;;Total ram usage:        0 bytes
  1071 ;; Hardware stack levels used:    1
  1072 ;; Hardware stack levels required when called:    9
  1073 ;; This function calls:
  1074 ;;		_TMR1_SetInterruptHandler
  1075 ;;		_TMR1_StartTimer
  1076 ;;		_TMR1_WriteTimer
  1077 ;; This function is called by:
  1078 ;;		_main
  1079 ;; This function uses a non-reentrant model
  1080 ;;
  1081                           
  1082                           	psect	text1
  1083  0016CE                     __ptext1:
  1084                           	opt callstack 0
  1085  0016CE                     _ping_send:
  1086                           	opt callstack 21
  1087                           
  1088                           ;ping.c: 113:     _delay((unsigned long)((10)*(64000000/4000000.0)));
  1089                           
  1090                           ;incstack = 0
  1091  0016CE  0E35               	movlw	53
  1092  0016D0                     u3427:
  1093  0016D0  2EE8               	decfsz	wreg,f,c
  1094  0016D2  D7FE               	bra	u3427
  1095  0016D4  F000               	nop	
  1096                           
  1097                           ;ping.c: 114:     if (!status.pingStarted) {
  1098  0016D6  504B               	movf	_status+5,w,c	;volatile
  1099  0016D8  A4D8               	btfss	status,2,c
  1100  0016DA  0012               	return	
  1101                           
  1102                           ;ping.c: 115:         do { LATCbits.LATC2 = 1; } while(0);
  1103  0016DC  8484               	bsf	3972,2,c	;volatile
  1104                           
  1105                           ;ping.c: 116:         do { TRISCbits.TRISC2 = 0; } while(0);
  1106  0016DE  9489               	bcf	3977,2,c	;volatile
  1107                           
  1108                           ;ping.c: 117:         TMR1_SetInterruptHandler(ping_TMR1Overflow_isr);
  1109  0016E0  0E3C               	movlw	low _ping_TMR1Overflow_isr
  1110  0016E2  0100               	movlb	0	; () banked
  1111  0016E4  6F60               	movwf	TMR1_SetInterruptHandler@InterruptHandler& (0+255),b
  1112  0016E6  0E1A               	movlw	high _ping_TMR1Overflow_isr
  1113  0016E8  6F61               	movwf	(TMR1_SetInterruptHandler@InterruptHandler+1)& (0+255),b
  1114  0016EA  EC95  F00D         	call	_TMR1_SetInterruptHandler	;wreg free
  1115                           
  1116                           ;ping.c: 118:         TMR1_WriteTimer(0xFFFF);
  1117  0016EE  0EFF               	movlw	255
  1118  0016F0  0100               	movlb	0	; () banked
  1119  0016F2  6F61               	movwf	(TMR1_WriteTimer@timerVal+1)& (0+255),b
  1120  0016F4  6960               	setf	TMR1_WriteTimer@timerVal& (0+255),b
  1121  0016F6  ECEE  F00C         	call	_TMR1_WriteTimer	;wreg free
  1122                           
  1123                           ;ping.c: 119:         TMR1_StartTimer();
  1124  0016FA  ECC5  F00D         	call	_TMR1_StartTimer	;wreg free
  1125                           
  1126                           ;ping.c: 120:         status.pingStarted = 1;
  1127  0016FE  0E01               	movlw	1
  1128  001700  6E4B               	movwf	_status+5,c	;volatile
  1129  001702  0012               	return		;funcret
  1130  001704                     __end_of_ping_send:
  1131                           	opt callstack 0
  1132                           
  1133 ;; *************** function _TMR1_WriteTimer *****************
  1134 ;; Defined at:
  1135 ;;		line 127 in file "mcc_generated_files/tmr1.c"
  1136 ;; Parameters:    Size  Location     Type
  1137 ;;  timerVal        2    0[BANK0 ] unsigned short 
  1138 ;; Auto vars:     Size  Location     Type
  1139 ;;		None
  1140 ;; Return value:  Size  Location     Type
  1141 ;;                  1    wreg      void 
  1142 ;; Registers used:
  1143 ;;		wreg, status,2
  1144 ;; Tracked objects:
  1145 ;;		On entry : 0/0
  1146 ;;		On exit  : 0/0
  1147 ;;		Unchanged: 0/0
  1148 ;; Data sizes:     COMRAM   BANK0   BANK1   BANK2   BANK3   BANK4   BANK5   BANK6   BANK7
  1149 ;;      Params:         0       2       0       0       0       0       0       0       0
  1150 ;;      Locals:         0       0       0       0       0       0       0       0       0
  1151 ;;      Temps:          0       0       0       0       0       0       0       0       0
  1152 ;;      Totals:         0       2       0       0       0       0       0       0       0
  1153 ;;Total ram usage:        2 bytes
  1154 ;; Hardware stack levels used:    1
  1155 ;; Hardware stack levels required when called:    8
  1156 ;; This function calls:
  1157 ;;		Nothing
  1158 ;; This function is called by:
  1159 ;;		_ping_send
  1160 ;;		_TMR1_Reload
  1161 ;; This function uses a non-reentrant model
  1162 ;;
  1163                           
  1164                           	psect	text2
  1165  0019DC                     __ptext2:
  1166                           	opt callstack 0
  1167  0019DC                     _TMR1_WriteTimer:
  1168                           	opt callstack 21
  1169                           
  1170                           ;mcc_generated_files/tmr1.c: 127: void TMR1_WriteTimer(uint16_t timerVal);mcc_generated_
      +                          files/tmr1.c: 128: {;mcc_generated_files/tmr1.c: 129:     if (T1CONbits.nT1SYNC == 1)
  1171                           
  1172                           ;incstack = 0
  1173  0019DC  A4CE               	btfss	4046,2,c	;volatile
  1174  0019DE  D008               	goto	l3559
  1175                           
  1176                           ;mcc_generated_files/tmr1.c: 130:     {;mcc_generated_files/tmr1.c: 132:         T1CONbi
      +                          ts.TMR1ON = 0;
  1177  0019E0  90CE               	bcf	4046,0,c	;volatile
  1178                           
  1179                           ;mcc_generated_files/tmr1.c: 135:         TMR1H = (timerVal >> 8);
  1180  0019E2  0100               	movlb	0	; () banked
  1181  0019E4  5161               	movf	(TMR1_WriteTimer@timerVal+1)& (0+255),w,b
  1182  0019E6  6ECD               	movwf	4045,c	;volatile
  1183                           
  1184                           ; BSR set to: 0
  1185                           ;mcc_generated_files/tmr1.c: 136:         TMR1L = timerVal;
  1186  0019E8  C060  FFCC         	movff	TMR1_WriteTimer@timerVal,4044	;volatile
  1187                           
  1188                           ; BSR set to: 0
  1189                           ;mcc_generated_files/tmr1.c: 139:         T1CONbits.TMR1ON =1;
  1190  0019EC  80CE               	bsf	4046,0,c	;volatile
  1191                           
  1192                           ;mcc_generated_files/tmr1.c: 140:     }
  1193  0019EE  0012               	return	
  1194  0019F0                     l3559:
  1195                           
  1196                           ;mcc_generated_files/tmr1.c: 142:     {;mcc_generated_files/tmr1.c: 144:         TMR1H =
      +                           (timerVal >> 8);
  1197  0019F0  0100               	movlb	0	; () banked
  1198  0019F2  5161               	movf	(TMR1_WriteTimer@timerVal+1)& (0+255),w,b
  1199  0019F4  6ECD               	movwf	4045,c	;volatile
  1200                           
  1201                           ; BSR set to: 0
  1202                           ;mcc_generated_files/tmr1.c: 145:         TMR1L = timerVal;
  1203  0019F6  C060  FFCC         	movff	TMR1_WriteTimer@timerVal,4044	;volatile
  1204                           
  1205                           ; BSR set to: 0
  1206  0019FA  0012               	return		;funcret
  1207  0019FC                     __end_of_TMR1_WriteTimer:
  1208                           	opt callstack 0
  1209                           
  1210 ;; *************** function _TMR1_StartTimer *****************
  1211 ;; Defined at:
  1212 ;;		line 99 in file "mcc_generated_files/tmr1.c"
  1213 ;; Parameters:    Size  Location     Type
  1214 ;;		None
  1215 ;; Auto vars:     Size  Location     Type
  1216 ;;		None
  1217 ;; Return value:  Size  Location     Type
  1218 ;;                  1    wreg      void 
  1219 ;; Registers used:
  1220 ;;		None
  1221 ;; Tracked objects:
  1222 ;;		On entry : 0/0
  1223 ;;		On exit  : 0/0
  1224 ;;		Unchanged: 0/0
  1225 ;; Data sizes:     COMRAM   BANK0   BANK1   BANK2   BANK3   BANK4   BANK5   BANK6   BANK7
  1226 ;;      Params:         0       0       0       0       0       0       0       0       0
  1227 ;;      Locals:         0       0       0       0       0       0       0       0       0
  1228 ;;      Temps:          0       0       0       0       0       0       0       0       0
  1229 ;;      Totals:         0       0       0       0       0       0       0       0       0
  1230 ;;Total ram usage:        0 bytes
  1231 ;; Hardware stack levels used:    1
  1232 ;; Hardware stack levels required when called:    8
  1233 ;; This function calls:
  1234 ;;		Nothing
  1235 ;; This function is called by:
  1236 ;;		_ping_send
  1237 ;; This function uses a non-reentrant model
  1238 ;;
  1239                           
  1240                           	psect	text3
  1241  001B8A                     __ptext3:
  1242                           	opt callstack 0
  1243  001B8A                     _TMR1_StartTimer:
  1244                           	opt callstack 21
  1245                           
  1246                           ;mcc_generated_files/tmr1.c: 102:     T1CONbits.TMR1ON = 1;
  1247                           
  1248                           ; BSR set to: 0
  1249                           ;incstack = 0
  1250  001B8A  80CE               	bsf	4046,0,c	;volatile
  1251  001B8C  0012               	return		;funcret
  1252  001B8E                     __end_of_TMR1_StartTimer:
  1253                           	opt callstack 0
  1254                           
  1255 ;; *************** function _ping_init *****************
  1256 ;; Defined at:
  1257 ;;		line 97 in file "ping.c"
  1258 ;; Parameters:    Size  Location     Type
  1259 ;;		None
  1260 ;; Auto vars:     Size  Location     Type
  1261 ;;		None
  1262 ;; Return value:  Size  Location     Type
  1263 ;;                  1    wreg      void 
  1264 ;; Registers used:
  1265 ;;		wreg, status,2, status,0, cstack
  1266 ;; Tracked objects:
  1267 ;;		On entry : 0/0
  1268 ;;		On exit  : 0/0
  1269 ;;		Unchanged: 0/0
  1270 ;; Data sizes:     COMRAM   BANK0   BANK1   BANK2   BANK3   BANK4   BANK5   BANK6   BANK7
  1271 ;;      Params:         0       0       0       0       0       0       0       0       0
  1272 ;;      Locals:         0       0       0       0       0       0       0       0       0
  1273 ;;      Temps:          0       0       0       0       0       0       0       0       0
  1274 ;;      Totals:         0       0       0       0       0       0       0       0       0
  1275 ;;Total ram usage:        0 bytes
  1276 ;; Hardware stack levels used:    1
  1277 ;; Hardware stack levels required when called:    9
  1278 ;; This function calls:
  1279 ;;		_CCP1_SetCallBack
  1280 ;;		_IOCCF2_SetInterruptHandler
  1281 ;;		_TMR1_SetInterruptHandler
  1282 ;; This function is called by:
  1283 ;;		_main
  1284 ;; This function uses a non-reentrant model
  1285 ;;
  1286                           
  1287                           	psect	text4
  1288  001692                     __ptext4:
  1289                           	opt callstack 0
  1290  001692                     _ping_init:
  1291                           	opt callstack 21
  1292                           
  1293                           ;incstack = 0
  1294                           ;ping.c: 98:     do { LATCbits.LATC1 = 1; } while(0);
  1295  001692  8284               	bsf	3972,1,c	;volatile
  1296                           
  1297                           ;ping.c: 99:     status.readReady = 0;
  1298  001694  0E00               	movlw	0
  1299  001696  6E46               	movwf	_status,c	;volatile
  1300                           
  1301                           ;ping.c: 100:     status.pingStarted = 0;
  1302  001698  0E00               	movlw	0
  1303  00169A  6E4B               	movwf	_status+5,c	;volatile
  1304                           
  1305                           ;ping.c: 101:     PIE6bits.CCP1IE = 0;
  1306  00169C  010E               	movlb	14	; () banked
  1307  00169E  91C3               	bcf	195,0,b	;volatile
  1308                           
  1309                           ; BSR set to: 14
  1310                           ;ping.c: 102:     TMR1_SetInterruptHandler(TMR1_DefaultInterruptHandler);
  1311  0016A0  0E9C               	movlw	low _TMR1_DefaultInterruptHandler
  1312  0016A2  0100               	movlb	0	; () banked
  1313  0016A4  6F60               	movwf	TMR1_SetInterruptHandler@InterruptHandler& (0+255),b
  1314  0016A6  0E1B               	movlw	high _TMR1_DefaultInterruptHandler
  1315  0016A8  6F61               	movwf	(TMR1_SetInterruptHandler@InterruptHandler+1)& (0+255),b
  1316  0016AA  EC95  F00D         	call	_TMR1_SetInterruptHandler	;wreg free
  1317                           
  1318                           ;ping.c: 103:     IOCCF2_SetInterruptHandler(IOCCF2_DefaultInterruptHandler);
  1319  0016AE  0E9E               	movlw	low _IOCCF2_DefaultInterruptHandler
  1320  0016B0  0100               	movlb	0	; () banked
  1321  0016B2  6F60               	movwf	IOCCF2_SetInterruptHandler@InterruptHandler& (0+255),b
  1322  0016B4  0E1B               	movlw	high _IOCCF2_DefaultInterruptHandler
  1323  0016B6  6F61               	movwf	(IOCCF2_SetInterruptHandler@InterruptHandler+1)& (0+255),b
  1324  0016B8  EC9A  F00D         	call	_IOCCF2_SetInterruptHandler	;wreg free
  1325                           
  1326                           ;ping.c: 104:     CCP1_SetCallBack(ping_CCP1_triggered);
  1327  0016BC  0E42               	movlw	low _ping_CCP1_triggered
  1328  0016BE  0100               	movlb	0	; () banked
  1329  0016C0  6F60               	movwf	CCP1_SetCallBack@customCallBack& (0+255),b
  1330  0016C2  0E14               	movlw	high _ping_CCP1_triggered
  1331  0016C4  6F61               	movwf	(CCP1_SetCallBack@customCallBack+1)& (0+255),b
  1332  0016C6  ECAE  F00D         	call	_CCP1_SetCallBack	;wreg free
  1333  0016CA  9284               	bcf	3972,1,c	;volatile
  1334  0016CC  0012               	return		;funcret
  1335  0016CE                     __end_of_ping_init:
  1336                           	opt callstack 0
  1337                           
  1338 ;; *************** function _ping_get *****************
  1339 ;; Defined at:
  1340 ;;		line 129 in file "ping.c"
  1341 ;; Parameters:    Size  Location     Type
  1342 ;;		None
  1343 ;; Auto vars:     Size  Location     Type
  1344 ;;		None
  1345 ;; Return value:  Size  Location     Type
  1346 ;;                  4    0[BANK0 ] float 
  1347 ;; Registers used:
  1348 ;;		wreg, status,2
  1349 ;; Tracked objects:
  1350 ;;		On entry : 0/0
  1351 ;;		On exit  : 0/0
  1352 ;;		Unchanged: 0/0
  1353 ;; Data sizes:     COMRAM   BANK0   BANK1   BANK2   BANK3   BANK4   BANK5   BANK6   BANK7
  1354 ;;      Params:         0       4       0       0       0       0       0       0       0
  1355 ;;      Locals:         0       0       0       0       0       0       0       0       0
  1356 ;;      Temps:          0       0       0       0       0       0       0       0       0
  1357 ;;      Totals:         0       4       0       0       0       0       0       0       0
  1358 ;;Total ram usage:        4 bytes
  1359 ;; Hardware stack levels used:    1
  1360 ;; Hardware stack levels required when called:    8
  1361 ;; This function calls:
  1362 ;;		Nothing
  1363 ;; This function is called by:
  1364 ;;		_main
  1365 ;; This function uses a non-reentrant model
  1366 ;;
  1367                           
  1368                           	psect	text5
  1369  0017A2                     __ptext5:
  1370                           	opt callstack 0
  1371  0017A2                     _ping_get:
  1372                           	opt callstack 22
  1373                           
  1374                           ;ping.c: 130:     if (status.readReady) {
  1375                           
  1376                           ;incstack = 0
  1377  0017A2  5046               	movf	_status,w,c	;volatile
  1378  0017A4  B4D8               	btfsc	status,2,c
  1379  0017A6  D00B               	goto	l4367
  1380                           
  1381                           ;ping.c: 131:         status.readReady = 0;
  1382  0017A8  0E00               	movlw	0
  1383  0017AA  6E46               	movwf	_status,c	;volatile
  1384                           
  1385                           ;ping.c: 132:         return status.measurment;
  1386  0017AC  C047  F060         	movff	_status+1,?_ping_get	;volatile
  1387  0017B0  C048  F061         	movff	_status+2,?_ping_get+1	;volatile
  1388  0017B4  C049  F062         	movff	_status+3,?_ping_get+2	;volatile
  1389  0017B8  C04A  F063         	movff	_status+4,?_ping_get+3	;volatile
  1390  0017BC  0012               	return	
  1391  0017BE                     l4367:
  1392                           
  1393                           ;ping.c: 134:         return 0;
  1394  0017BE  0E00               	movlw	0
  1395  0017C0  0100               	movlb	0	; () banked
  1396  0017C2  6F60               	movwf	?_ping_get& (0+255),b
  1397  0017C4  0E00               	movlw	0
  1398  0017C6  6F61               	movwf	(?_ping_get+1)& (0+255),b
  1399  0017C8  0E00               	movlw	0
  1400  0017CA  6F62               	movwf	(?_ping_get+2)& (0+255),b
  1401  0017CC  0E00               	movlw	0
  1402  0017CE  6F63               	movwf	(?_ping_get+3)& (0+255),b
  1403  0017D0  0012               	return		;funcret
  1404  0017D2                     __end_of_ping_get:
  1405                           	opt callstack 0
  1406                           
  1407 ;; *************** function _pid_init *****************
  1408 ;; Defined at:
  1409 ;;		line 9 in file "cam_pid.c"
  1410 ;; Parameters:    Size  Location     Type
  1411 ;;  setpoint        1    wreg     unsigned char 
  1412 ;;  pgain           4    0[BANK0 ] float 
  1413 ;;  dgain           4    4[BANK0 ] float 
  1414 ;; Auto vars:     Size  Location     Type
  1415 ;;  setpoint        1    8[BANK0 ] unsigned char 
  1416 ;; Return value:  Size  Location     Type
  1417 ;;                  1    wreg      void 
  1418 ;; Registers used:
  1419 ;;		wreg, status,2
  1420 ;; Tracked objects:
  1421 ;;		On entry : 0/0
  1422 ;;		On exit  : 0/0
  1423 ;;		Unchanged: 0/0
  1424 ;; Data sizes:     COMRAM   BANK0   BANK1   BANK2   BANK3   BANK4   BANK5   BANK6   BANK7
  1425 ;;      Params:         0       8       0       0       0       0       0       0       0
  1426 ;;      Locals:         0       1       0       0       0       0       0       0       0
  1427 ;;      Temps:          0       0       0       0       0       0       0       0       0
  1428 ;;      Totals:         0       9       0       0       0       0       0       0       0
  1429 ;;Total ram usage:        9 bytes
  1430 ;; Hardware stack levels used:    1
  1431 ;; Hardware stack levels required when called:    8
  1432 ;; This function calls:
  1433 ;;		Nothing
  1434 ;; This function is called by:
  1435 ;;		_main
  1436 ;; This function uses a non-reentrant model
  1437 ;;
  1438                           
  1439                           	psect	text6
  1440  0017D2                     __ptext6:
  1441                           	opt callstack 0
  1442  0017D2                     _pid_init:
  1443                           	opt callstack 22
  1444                           
  1445                           ;incstack = 0
  1446                           ;pid_init@setpoint stored from wreg
  1447  0017D2  0100               	movlb	0	; () banked
  1448  0017D4  6F68               	movwf	pid_init@setpoint& (0+255),b
  1449                           
  1450                           ;cam_pid.c: 10:     sp = setpoint;
  1451  0017D6  C068  F0CE         	movff	pid_init@setpoint,_sp
  1452                           
  1453                           ;cam_pid.c: 11:     pg = pgain;
  1454  0017DA  C060  F0C7         	movff	pid_init@pgain,_pg
  1455  0017DE  C061  F0C8         	movff	pid_init@pgain+1,_pg+1
  1456  0017E2  C062  F0C9         	movff	pid_init@pgain+2,_pg+2
  1457  0017E6  C063  F0CA         	movff	pid_init@pgain+3,_pg+3
  1458                           
  1459                           ;cam_pid.c: 12:     dg = dgain;
  1460  0017EA  C064  F0C3         	movff	pid_init@dgain,_dg
  1461  0017EE  C065  F0C4         	movff	pid_init@dgain+1,_dg+1
  1462  0017F2  C066  F0C5         	movff	pid_init@dgain+2,_dg+2
  1463  0017F6  C067  F0C6         	movff	pid_init@dgain+3,_dg+3
  1464                           
  1465                           ;cam_pid.c: 13:     last_error = 0;
  1466  0017FA  0E00               	movlw	0
  1467  0017FC  0100               	movlb	0	; () banked
  1468  0017FE  6FCD               	movwf	_last_error& (0+255),b
  1469                           
  1470                           ; BSR set to: 0
  1471  001800  0012               	return		;funcret
  1472  001802                     __end_of_pid_init:
  1473                           	opt callstack 0
  1474                           
  1475 ;; *************** function _pid_getResponse *****************
  1476 ;; Defined at:
  1477 ;;		line 26 in file "cam_pid.c"
  1478 ;; Parameters:    Size  Location     Type
  1479 ;;  pixels          2   71[BANK0 ] PTR unsigned char 
  1480 ;;		 -> main@cam_pixels(128), 
  1481 ;; Auto vars:     Size  Location     Type
  1482 ;;  i               2   89[BANK0 ] int 
  1483 ;;  der             2   86[BANK0 ] short 
  1484 ;;  der_min         2   83[BANK0 ] short 
  1485 ;;  der_error       2   81[BANK0 ] short 
  1486 ;;  error           1   88[BANK0 ] unsigned char 
  1487 ;;  der_min_loc     1   85[BANK0 ] unsigned char 
  1488 ;; Return value:  Size  Location     Type
  1489 ;;                  1    wreg      char 
  1490 ;; Registers used:
  1491 ;;		wreg, fsr2l, fsr2h, status,2, status,0, prodl, prodh, cstack
  1492 ;; Tracked objects:
  1493 ;;		On entry : 0/0
  1494 ;;		On exit  : 0/0
  1495 ;;		Unchanged: 0/0
  1496 ;; Data sizes:     COMRAM   BANK0   BANK1   BANK2   BANK3   BANK4   BANK5   BANK6   BANK7
  1497 ;;      Params:         0       2       0       0       0       0       0       0       0
  1498 ;;      Locals:         0      14       0       0       0       0       0       0       0
  1499 ;;      Temps:          0       4       0       0       0       0       0       0       0
  1500 ;;      Totals:         0      20       0       0       0       0       0       0       0
  1501 ;;Total ram usage:       20 bytes
  1502 ;; Hardware stack levels used:    1
  1503 ;; Hardware stack levels required when called:    9
  1504 ;; This function calls:
  1505 ;;		___fladd
  1506 ;;		___flmul
  1507 ;;		___fltol
  1508 ;;		___wmul
  1509 ;;		___xxtofl
  1510 ;; This function is called by:
  1511 ;;		_main
  1512 ;; This function uses a non-reentrant model
  1513 ;;
  1514                           
  1515                           	psect	text7
  1516  000A5A                     __ptext7:
  1517                           	opt callstack 0
  1518  000A5A                     _pid_getResponse:
  1519                           	opt callstack 21
  1520                           
  1521                           ;cam_pid.c: 31:     int16_t der_min = 0;
  1522                           
  1523                           ; BSR set to: 0
  1524                           ;incstack = 0
  1525  000A5A  0E00               	movlw	0
  1526  000A5C  0100               	movlb	0	; () banked
  1527  000A5E  6FB4               	movwf	(pid_getResponse@der_min+1)& (0+255),b
  1528  000A60  0E00               	movlw	0
  1529  000A62  6FB3               	movwf	pid_getResponse@der_min& (0+255),b
  1530                           
  1531                           ;cam_pid.c: 32:     uint8_t der_min_loc = 0;
  1532  000A64  0E00               	movlw	0
  1533  000A66  6FB5               	movwf	pid_getResponse@der_min_loc& (0+255),b
  1534                           
  1535                           ;cam_pid.c: 34:     for (int i = 0; i < 126; i++) {
  1536  000A68  0E00               	movlw	0
  1537  000A6A  6FBA               	movwf	(pid_getResponse@i+1)& (0+255),b
  1538  000A6C  0E00               	movlw	0
  1539  000A6E  6FB9               	movwf	pid_getResponse@i& (0+255),b
  1540  000A70                     l4337:
  1541                           
  1542                           ; BSR set to: 0
  1543                           ;cam_pid.c: 35:         der = pixels[i+1] - pixels[i];
  1544  000A70  51B9               	movf	pid_getResponse@i& (0+255),w,b
  1545  000A72  25A7               	addwf	pid_getResponse@pixels& (0+255),w,b
  1546  000A74  6FA9               	movwf	??_pid_getResponse& (0+255),b
  1547  000A76  51BA               	movf	(pid_getResponse@i+1)& (0+255),w,b
  1548  000A78  21A8               	addwfc	(pid_getResponse@pixels+1)& (0+255),w,b
  1549  000A7A  6FAA               	movwf	(??_pid_getResponse+1)& (0+255),b
  1550  000A7C  0E01               	movlw	1
  1551  000A7E  25A9               	addwf	??_pid_getResponse& (0+255),w,b
  1552  000A80  6ED9               	movwf	fsr2l,c
  1553  000A82  0E00               	movlw	0
  1554  000A84  21AA               	addwfc	(??_pid_getResponse+1)& (0+255),w,b
  1555  000A86  6EDA               	movwf	fsr2h,c
  1556  000A88  50DF               	movf	indf2,w,c
  1557  000A8A  6FAB               	movwf	(??_pid_getResponse+2)& (0+255),b
  1558  000A8C  51B9               	movf	pid_getResponse@i& (0+255),w,b
  1559  000A8E  25A7               	addwf	pid_getResponse@pixels& (0+255),w,b
  1560  000A90  6ED9               	movwf	fsr2l,c
  1561  000A92  51BA               	movf	(pid_getResponse@i+1)& (0+255),w,b
  1562  000A94  21A8               	addwfc	(pid_getResponse@pixels+1)& (0+255),w,b
  1563  000A96  6EDA               	movwf	fsr2h,c
  1564  000A98  50DF               	movf	indf2,w,c
  1565  000A9A  6FAC               	movwf	(??_pid_getResponse+3)& (0+255),b
  1566  000A9C  51AC               	movf	(??_pid_getResponse+3)& (0+255),w,b
  1567  000A9E  5DAB               	subwf	(??_pid_getResponse+2)& (0+255),w,b
  1568  000AA0  6FB6               	movwf	pid_getResponse@der& (0+255),b
  1569  000AA2  6BB7               	clrf	(pid_getResponse@der+1)& (0+255),b
  1570  000AA4  A0D8               	btfss	status,0,c
  1571  000AA6  07B7               	decf	(pid_getResponse@der+1)& (0+255),f,b
  1572                           
  1573                           ; BSR set to: 0
  1574                           ;cam_pid.c: 36:         if (der < der_min) {
  1575  000AA8  51B3               	movf	pid_getResponse@der_min& (0+255),w,b
  1576  000AAA  5DB6               	subwf	pid_getResponse@der& (0+255),w,b
  1577  000AAC  51B7               	movf	(pid_getResponse@der+1)& (0+255),w,b
  1578  000AAE  0A80               	xorlw	128
  1579  000AB0  6FA9               	movwf	??_pid_getResponse& (0+255),b
  1580  000AB2  51B4               	movf	(pid_getResponse@der_min+1)& (0+255),w,b
  1581  000AB4  0A80               	xorlw	128
  1582  000AB6  59A9               	subwfb	??_pid_getResponse& (0+255),w,b
  1583  000AB8  B0D8               	btfsc	status,0,c
  1584  000ABA  D006               	goto	l4343
  1585                           
  1586                           ; BSR set to: 0
  1587                           ;cam_pid.c: 40:             der_min = der;
  1588  000ABC  C0B6  F0B3         	movff	pid_getResponse@der,pid_getResponse@der_min
  1589  000AC0  C0B7  F0B4         	movff	pid_getResponse@der+1,pid_getResponse@der_min+1
  1590                           
  1591                           ;cam_pid.c: 41:             der_min_loc = i;
  1592  000AC4  C0B9  F0B5         	movff	pid_getResponse@i,pid_getResponse@der_min_loc
  1593  000AC8                     l4343:
  1594                           
  1595                           ; BSR set to: 0
  1596                           ;cam_pid.c: 43:     }
  1597  000AC8  4BB9               	infsnz	pid_getResponse@i& (0+255),f,b
  1598  000ACA  2BBA               	incf	(pid_getResponse@i+1)& (0+255),f,b
  1599                           
  1600                           ; BSR set to: 0
  1601  000ACC  BFBA               	btfsc	(pid_getResponse@i+1)& (0+255),7,b
  1602  000ACE  D7D0               	goto	l4337
  1603  000AD0  51BA               	movf	(pid_getResponse@i+1)& (0+255),w,b
  1604  000AD2  E104               	bnz	u3200
  1605  000AD4  0E7E               	movlw	126
  1606  000AD6  5DB9               	subwf	pid_getResponse@i& (0+255),w,b
  1607  000AD8  A0D8               	btfss	status,0,c
  1608  000ADA  D7CA               	goto	l4337
  1609  000ADC                     u3200:
  1610                           
  1611                           ; BSR set to: 0
  1612                           ;cam_pid.c: 45:     uint8_t error = sp - der_min_loc;
  1613  000ADC  51B5               	movf	pid_getResponse@der_min_loc& (0+255),w,b
  1614  000ADE  5DCE               	subwf	_sp& (0+255),w,b
  1615  000AE0  6FB8               	movwf	pid_getResponse@error& (0+255),b
  1616                           
  1617                           ;cam_pid.c: 46:     int16_t der_error = error - last_error;
  1618  000AE2  51CD               	movf	_last_error& (0+255),w,b
  1619  000AE4  5DB8               	subwf	pid_getResponse@error& (0+255),w,b
  1620  000AE6  6FB1               	movwf	pid_getResponse@der_error& (0+255),b
  1621  000AE8  6BB2               	clrf	(pid_getResponse@der_error+1)& (0+255),b
  1622  000AEA  A0D8               	btfss	status,0,c
  1623  000AEC  07B2               	decf	(pid_getResponse@der_error+1)& (0+255),f,b
  1624                           
  1625                           ; BSR set to: 0
  1626                           ;cam_pid.c: 48:     last_error = error;
  1627  000AEE  C0B8  F0CD         	movff	pid_getResponse@error,_last_error
  1628                           
  1629                           ; BSR set to: 0
  1630                           ;cam_pid.c: 50:     return (int8_t) pg*error + dg * der_error;
  1631  000AF2  C0C3  F082         	movff	_dg,___flmul@a
  1632  000AF6  C0C4  F083         	movff	_dg+1,___flmul@a+1
  1633  000AFA  C0C5  F084         	movff	_dg+2,___flmul@a+2
  1634  000AFE  C0C6  F085         	movff	_dg+3,___flmul@a+3
  1635  000B02  C0B1  F070         	movff	pid_getResponse@der_error,___xxtofl@val
  1636  000B06  C0B2  F071         	movff	pid_getResponse@der_error+1,___xxtofl@val+1
  1637  000B0A  0E00               	movlw	0
  1638  000B0C  BF71               	btfsc	(___xxtofl@val+1)& (0+255),7,b
  1639  000B0E  0EFF               	movlw	-1
  1640  000B10  6F72               	movwf	(___xxtofl@val+2)& (0+255),b
  1641  000B12  6F73               	movwf	(___xxtofl@val+3)& (0+255),b
  1642  000B14  0E01               	movlw	1
  1643  000B16  ECE0  F005         	call	___xxtofl
  1644  000B1A  C070  F07E         	movff	?___xxtofl,___flmul@b
  1645  000B1E  C071  F07F         	movff	?___xxtofl+1,___flmul@b+1
  1646  000B22  C072  F080         	movff	?___xxtofl+2,___flmul@b+2
  1647  000B26  C073  F081         	movff	?___xxtofl+3,___flmul@b+3
  1648  000B2A  EC53  F000         	call	___flmul	;wreg free
  1649  000B2E  C07E  F09B         	movff	?___flmul,___fladd@a
  1650  000B32  C07F  F09C         	movff	?___flmul+1,___fladd@a+1
  1651  000B36  C080  F09D         	movff	?___flmul+2,___fladd@a+2
  1652  000B3A  C081  F09E         	movff	?___flmul+3,___fladd@a+3
  1653  000B3E  C0C7  F060         	movff	_pg,___fltol@f1
  1654  000B42  C0C8  F061         	movff	_pg+1,___fltol@f1+1
  1655  000B46  C0C9  F062         	movff	_pg+2,___fltol@f1+2
  1656  000B4A  C0CA  F063         	movff	_pg+3,___fltol@f1+3
  1657  000B4E  ECDE  F008         	call	___fltol	;wreg free
  1658  000B52  0100               	movlb	0	; () banked
  1659  000B54  5160               	movf	?___fltol& (0+255),w,b
  1660  000B56  6F6A               	movwf	___wmul@multiplier& (0+255),b
  1661  000B58  6B6B               	clrf	(___wmul@multiplier+1)& (0+255),b
  1662  000B5A  BF6A               	btfsc	___wmul@multiplier& (0+255),7,b
  1663  000B5C  076B               	decf	(___wmul@multiplier+1)& (0+255),f,b
  1664  000B5E  C0B8  F06C         	movff	pid_getResponse@error,___wmul@multiplicand
  1665  000B62  6B6D               	clrf	(___wmul@multiplicand+1)& (0+255),b
  1666  000B64  ECA2  F00C         	call	___wmul	;wreg free
  1667  000B68  0100               	movlb	0	; () banked
  1668  000B6A  C06A  F070         	movff	?___wmul,___xxtofl@val
  1669  000B6E  C06B  F071         	movff	?___wmul+1,___xxtofl@val+1
  1670  000B72  0E00               	movlw	0
  1671  000B74  BF71               	btfsc	(___xxtofl@val+1)& (0+255),7,b
  1672  000B76  0EFF               	movlw	-1
  1673  000B78  6F72               	movwf	(___xxtofl@val+2)& (0+255),b
  1674  000B7A  6F73               	movwf	(___xxtofl@val+3)& (0+255),b
  1675  000B7C  0E01               	movlw	1
  1676  000B7E  ECE0  F005         	call	___xxtofl
  1677  000B82  C070  F097         	movff	?___xxtofl,___fladd@b
  1678  000B86  C071  F098         	movff	?___xxtofl+1,___fladd@b+1
  1679  000B8A  C072  F099         	movff	?___xxtofl+2,___fladd@b+2
  1680  000B8E  C073  F09A         	movff	?___xxtofl+3,___fladd@b+3
  1681  000B92  ECA6  F003         	call	___fladd	;wreg free
  1682  000B96  C097  F0AD         	movff	?___fladd,_pid_getResponse$3446
  1683  000B9A  C098  F0AE         	movff	?___fladd+1,_pid_getResponse$3446+1
  1684  000B9E  C099  F0AF         	movff	?___fladd+2,_pid_getResponse$3446+2
  1685  000BA2  C09A  F0B0         	movff	?___fladd+3,_pid_getResponse$3446+3
  1686                           
  1687                           ;cam_pid.c: 50:     return (int8_t) pg*error + dg * der_error;
  1688  000BA6  C0AD  F060         	movff	_pid_getResponse$3446,___fltol@f1
  1689  000BAA  C0AE  F061         	movff	_pid_getResponse$3446+1,___fltol@f1+1
  1690  000BAE  C0AF  F062         	movff	_pid_getResponse$3446+2,___fltol@f1+2
  1691  000BB2  C0B0  F063         	movff	_pid_getResponse$3446+3,___fltol@f1+3
  1692  000BB6  ECDE  F008         	call	___fltol	;wreg free
  1693  000BBA  0100               	movlb	0	; () banked
  1694  000BBC  5160               	movf	?___fltol& (0+255),w,b
  1695                           
  1696                           ; BSR set to: 0
  1697  000BBE  0012               	return		;funcret
  1698  000BC0                     __end_of_pid_getResponse:
  1699                           	opt callstack 0
  1700                           
  1701 ;; *************** function ___xxtofl *****************
  1702 ;; Defined at:
  1703 ;;		line 10 in file "/Applications/microchip/xc8/v2.05/pic/sources/c99/common/xxtofl.c"
  1704 ;; Parameters:    Size  Location     Type
  1705 ;;  sign            1    wreg     unsigned char 
  1706 ;;  val             4   16[BANK0 ] long 
  1707 ;; Auto vars:     Size  Location     Type
  1708 ;;  sign            1   24[BANK0 ] unsigned char 
  1709 ;;  arg             4   26[BANK0 ] unsigned long 
  1710 ;;  exp             1   25[BANK0 ] unsigned char 
  1711 ;; Return value:  Size  Location     Type
  1712 ;;                  4   16[BANK0 ] unsigned char 
  1713 ;; Registers used:
  1714 ;;		wreg, status,2, status,0
  1715 ;; Tracked objects:
  1716 ;;		On entry : 0/0
  1717 ;;		On exit  : 0/0
  1718 ;;		Unchanged: 0/0
  1719 ;; Data sizes:     COMRAM   BANK0   BANK1   BANK2   BANK3   BANK4   BANK5   BANK6   BANK7
  1720 ;;      Params:         0       4       0       0       0       0       0       0       0
  1721 ;;      Locals:         0       6       0       0       0       0       0       0       0
  1722 ;;      Temps:          0       4       0       0       0       0       0       0       0
  1723 ;;      Totals:         0      14       0       0       0       0       0       0       0
  1724 ;;Total ram usage:       14 bytes
  1725 ;; Hardware stack levels used:    1
  1726 ;; Hardware stack levels required when called:    8
  1727 ;; This function calls:
  1728 ;;		Nothing
  1729 ;; This function is called by:
  1730 ;;		_pid_getResponse
  1731 ;; This function uses a non-reentrant model
  1732 ;;
  1733                           
  1734                           	psect	text8
  1735  000BC0                     __ptext8:
  1736                           	opt callstack 0
  1737  000BC0                     ___xxtofl:
  1738                           	opt callstack 21
  1739                           
  1740                           ; BSR set to: 0
  1741                           ;incstack = 0
  1742                           ;___xxtofl@sign stored from wreg
  1743  000BC0  0100               	movlb	0	; () banked
  1744  000BC2  6F78               	movwf	___xxtofl@sign& (0+255),b
  1745  000BC4  0100               	movlb	0	; () banked
  1746  000BC6  5178               	movf	___xxtofl@sign& (0+255),w,b
  1747  000BC8  A4D8               	btfss	status,2,c
  1748                           
  1749                           ; BSR set to: 0
  1750  000BCA  AF73               	btfss	(___xxtofl@val+3)& (0+255),7,b
  1751  000BCC  D01A               	goto	l1651
  1752                           
  1753                           ; BSR set to: 0
  1754  000BCE  C070  F074         	movff	___xxtofl@val,??___xxtofl
  1755  000BD2  C071  F075         	movff	___xxtofl@val+1,??___xxtofl+1
  1756  000BD6  C072  F076         	movff	___xxtofl@val+2,??___xxtofl+2
  1757  000BDA  C073  F077         	movff	___xxtofl@val+3,??___xxtofl+3
  1758  000BDE  1F74               	comf	??___xxtofl& (0+255),f,b
  1759  000BE0  1F75               	comf	(??___xxtofl+1)& (0+255),f,b
  1760  000BE2  1F76               	comf	(??___xxtofl+2)& (0+255),f,b
  1761  000BE4  1F77               	comf	(??___xxtofl+3)& (0+255),f,b
  1762  000BE6  2B74               	incf	??___xxtofl& (0+255),f,b
  1763  000BE8  0E00               	movlw	0
  1764  000BEA  2375               	addwfc	(??___xxtofl+1)& (0+255),f,b
  1765  000BEC  2376               	addwfc	(??___xxtofl+2)& (0+255),f,b
  1766  000BEE  2377               	addwfc	(??___xxtofl+3)& (0+255),f,b
  1767  000BF0  C074  F07A         	movff	??___xxtofl,___xxtofl@arg
  1768  000BF4  C075  F07B         	movff	??___xxtofl+1,___xxtofl@arg+1
  1769  000BF8  C076  F07C         	movff	??___xxtofl+2,___xxtofl@arg+2
  1770  000BFC  C077  F07D         	movff	??___xxtofl+3,___xxtofl@arg+3
  1771  000C00  D008               	goto	l4101
  1772  000C02                     l1651:
  1773                           
  1774                           ; BSR set to: 0
  1775  000C02  C070  F07A         	movff	___xxtofl@val,___xxtofl@arg
  1776  000C06  C071  F07B         	movff	___xxtofl@val+1,___xxtofl@arg+1
  1777  000C0A  C072  F07C         	movff	___xxtofl@val+2,___xxtofl@arg+2
  1778  000C0E  C073  F07D         	movff	___xxtofl@val+3,___xxtofl@arg+3
  1779  000C12                     l4101:
  1780                           
  1781                           ; BSR set to: 0
  1782  000C12  5170               	movf	___xxtofl@val& (0+255),w,b
  1783  000C14  1171               	iorwf	(___xxtofl@val+1)& (0+255),w,b
  1784  000C16  1172               	iorwf	(___xxtofl@val+2)& (0+255),w,b
  1785  000C18  1173               	iorwf	(___xxtofl@val+3)& (0+255),w,b
  1786  000C1A  A4D8               	btfss	status,2,c
  1787  000C1C  D009               	goto	l4107
  1788                           
  1789                           ; BSR set to: 0
  1790  000C1E  0E00               	movlw	0
  1791  000C20  6F70               	movwf	?___xxtofl& (0+255),b
  1792  000C22  0E00               	movlw	0
  1793  000C24  6F71               	movwf	(?___xxtofl+1)& (0+255),b
  1794  000C26  0E00               	movlw	0
  1795  000C28  6F72               	movwf	(?___xxtofl+2)& (0+255),b
  1796  000C2A  0E00               	movlw	0
  1797  000C2C  6F73               	movwf	(?___xxtofl+3)& (0+255),b
  1798  000C2E  0012               	return	
  1799  000C30                     l4107:
  1800                           
  1801                           ; BSR set to: 0
  1802  000C30  0E96               	movlw	150
  1803  000C32  6F79               	movwf	___xxtofl@exp& (0+255),b
  1804  000C34  D006               	goto	l4111
  1805  000C36                     l4109:
  1806                           
  1807                           ; BSR set to: 0
  1808  000C36  2B79               	incf	___xxtofl@exp& (0+255),f,b
  1809  000C38  90D8               	bcf	status,0,c
  1810  000C3A  337D               	rrcf	(___xxtofl@arg+3)& (0+255),f,b
  1811  000C3C  337C               	rrcf	(___xxtofl@arg+2)& (0+255),f,b
  1812  000C3E  337B               	rrcf	(___xxtofl@arg+1)& (0+255),f,b
  1813  000C40  337A               	rrcf	___xxtofl@arg& (0+255),f,b
  1814  000C42                     l4111:
  1815                           
  1816                           ; BSR set to: 0
  1817  000C42  0E00               	movlw	0
  1818  000C44  157A               	andwf	___xxtofl@arg& (0+255),w,b
  1819  000C46  6F74               	movwf	??___xxtofl& (0+255),b
  1820  000C48  0E00               	movlw	0
  1821  000C4A  157B               	andwf	(___xxtofl@arg+1)& (0+255),w,b
  1822  000C4C  6F75               	movwf	(??___xxtofl+1)& (0+255),b
  1823  000C4E  0E00               	movlw	0
  1824  000C50  157C               	andwf	(___xxtofl@arg+2)& (0+255),w,b
  1825  000C52  6F76               	movwf	(??___xxtofl+2)& (0+255),b
  1826  000C54  0EFE               	movlw	254
  1827  000C56  157D               	andwf	(___xxtofl@arg+3)& (0+255),w,b
  1828  000C58  6F77               	movwf	(??___xxtofl+3)& (0+255),b
  1829  000C5A  5174               	movf	??___xxtofl& (0+255),w,b
  1830  000C5C  1175               	iorwf	(??___xxtofl+1)& (0+255),w,b
  1831  000C5E  1176               	iorwf	(??___xxtofl+2)& (0+255),w,b
  1832  000C60  1177               	iorwf	(??___xxtofl+3)& (0+255),w,b
  1833  000C62  B4D8               	btfsc	status,2,c
  1834  000C64  D00D               	goto	l1658
  1835  000C66  D7E7               	goto	l4109
  1836  000C68                     l4113:
  1837                           
  1838                           ; BSR set to: 0
  1839  000C68  2B79               	incf	___xxtofl@exp& (0+255),f,b
  1840                           
  1841                           ; BSR set to: 0
  1842  000C6A  0E01               	movlw	1
  1843  000C6C  277A               	addwf	___xxtofl@arg& (0+255),f,b
  1844  000C6E  0E00               	movlw	0
  1845  000C70  237B               	addwfc	(___xxtofl@arg+1)& (0+255),f,b
  1846  000C72  237C               	addwfc	(___xxtofl@arg+2)& (0+255),f,b
  1847  000C74  237D               	addwfc	(___xxtofl@arg+3)& (0+255),f,b
  1848                           
  1849                           ; BSR set to: 0
  1850  000C76  90D8               	bcf	status,0,c
  1851  000C78  337D               	rrcf	(___xxtofl@arg+3)& (0+255),f,b
  1852  000C7A  337C               	rrcf	(___xxtofl@arg+2)& (0+255),f,b
  1853  000C7C  337B               	rrcf	(___xxtofl@arg+1)& (0+255),f,b
  1854  000C7E  337A               	rrcf	___xxtofl@arg& (0+255),f,b
  1855  000C80                     l1658:
  1856                           
  1857                           ; BSR set to: 0
  1858  000C80  0E00               	movlw	0
  1859  000C82  157A               	andwf	___xxtofl@arg& (0+255),w,b
  1860  000C84  6F74               	movwf	??___xxtofl& (0+255),b
  1861  000C86  0E00               	movlw	0
  1862  000C88  157B               	andwf	(___xxtofl@arg+1)& (0+255),w,b
  1863  000C8A  6F75               	movwf	(??___xxtofl+1)& (0+255),b
  1864  000C8C  0E00               	movlw	0
  1865  000C8E  157C               	andwf	(___xxtofl@arg+2)& (0+255),w,b
  1866  000C90  6F76               	movwf	(??___xxtofl+2)& (0+255),b
  1867  000C92  0EFF               	movlw	255
  1868  000C94  157D               	andwf	(___xxtofl@arg+3)& (0+255),w,b
  1869  000C96  6F77               	movwf	(??___xxtofl+3)& (0+255),b
  1870  000C98  5174               	movf	??___xxtofl& (0+255),w,b
  1871  000C9A  1175               	iorwf	(??___xxtofl+1)& (0+255),w,b
  1872  000C9C  1176               	iorwf	(??___xxtofl+2)& (0+255),w,b
  1873  000C9E  1177               	iorwf	(??___xxtofl+3)& (0+255),w,b
  1874  000CA0  B4D8               	btfsc	status,2,c
  1875  000CA2  D007               	goto	l4121
  1876  000CA4  D7E1               	goto	l4113
  1877  000CA6                     l4119:
  1878                           
  1879                           ; BSR set to: 0
  1880  000CA6  0779               	decf	___xxtofl@exp& (0+255),f,b
  1881  000CA8  90D8               	bcf	status,0,c
  1882  000CAA  377A               	rlcf	___xxtofl@arg& (0+255),f,b
  1883  000CAC  377B               	rlcf	(___xxtofl@arg+1)& (0+255),f,b
  1884  000CAE  377C               	rlcf	(___xxtofl@arg+2)& (0+255),f,b
  1885  000CB0  377D               	rlcf	(___xxtofl@arg+3)& (0+255),f,b
  1886  000CB2                     l4121:
  1887                           
  1888                           ; BSR set to: 0
  1889  000CB2  BF7C               	btfsc	(___xxtofl@arg+2)& (0+255),7,b
  1890  000CB4  D003               	goto	u2930
  1891                           
  1892                           ; BSR set to: 0
  1893  000CB6  0E02               	movlw	2
  1894  000CB8  6179               	cpfslt	___xxtofl@exp& (0+255),b
  1895  000CBA  D7F5               	goto	l4119
  1896  000CBC                     u2930:
  1897                           
  1898                           ; BSR set to: 0
  1899  000CBC  A179               	btfss	___xxtofl@exp& (0+255),0,b
  1900                           
  1901                           ; BSR set to: 0
  1902  000CBE  9F7C               	bcf	(___xxtofl@arg+2)& (0+255),7,b
  1903                           
  1904                           ; BSR set to: 0
  1905  000CC0  90D8               	bcf	status,0,c
  1906  000CC2  3379               	rrcf	___xxtofl@exp& (0+255),f,b
  1907                           
  1908                           ; BSR set to: 0
  1909  000CC4  C079  F074         	movff	___xxtofl@exp,??___xxtofl
  1910  000CC8  6B75               	clrf	(??___xxtofl+1)& (0+255),b
  1911  000CCA  6B76               	clrf	(??___xxtofl+2)& (0+255),b
  1912  000CCC  6B77               	clrf	(??___xxtofl+3)& (0+255),b
  1913  000CCE  C074  F077         	movff	??___xxtofl,??___xxtofl+3
  1914  000CD2  6B76               	clrf	(??___xxtofl+2)& (0+255),b
  1915  000CD4  6B75               	clrf	(??___xxtofl+1)& (0+255),b
  1916  000CD6  6B74               	clrf	??___xxtofl& (0+255),b
  1917  000CD8  5174               	movf	??___xxtofl& (0+255),w,b
  1918  000CDA  137A               	iorwf	___xxtofl@arg& (0+255),f,b
  1919  000CDC  5175               	movf	(??___xxtofl+1)& (0+255),w,b
  1920  000CDE  137B               	iorwf	(___xxtofl@arg+1)& (0+255),f,b
  1921  000CE0  5176               	movf	(??___xxtofl+2)& (0+255),w,b
  1922  000CE2  137C               	iorwf	(___xxtofl@arg+2)& (0+255),f,b
  1923  000CE4  5177               	movf	(??___xxtofl+3)& (0+255),w,b
  1924  000CE6  137D               	iorwf	(___xxtofl@arg+3)& (0+255),f,b
  1925                           
  1926                           ; BSR set to: 0
  1927  000CE8  5178               	movf	___xxtofl@sign& (0+255),w,b
  1928  000CEA  A4D8               	btfss	status,2,c
  1929                           
  1930                           ; BSR set to: 0
  1931  000CEC  AF73               	btfss	(___xxtofl@val+3)& (0+255),7,b
  1932  000CEE  D001               	goto	l4137
  1933                           
  1934                           ; BSR set to: 0
  1935  000CF0  8F7D               	bsf	(___xxtofl@arg+3)& (0+255),7,b
  1936  000CF2                     l4137:
  1937                           
  1938                           ; BSR set to: 0
  1939  000CF2  C07A  F070         	movff	___xxtofl@arg,?___xxtofl
  1940  000CF6  C07B  F071         	movff	___xxtofl@arg+1,?___xxtofl+1
  1941  000CFA  C07C  F072         	movff	___xxtofl@arg+2,?___xxtofl+2
  1942  000CFE  C07D  F073         	movff	___xxtofl@arg+3,?___xxtofl+3
  1943                           
  1944                           ; BSR set to: 0
  1945  000D02  0012               	return		;funcret
  1946  000D04                     __end_of___xxtofl:
  1947                           	opt callstack 0
  1948                           
  1949 ;; *************** function ___wmul *****************
  1950 ;; Defined at:
  1951 ;;		line 15 in file "/Applications/microchip/xc8/v2.05/pic/sources/c99/common/Umul16.c"
  1952 ;; Parameters:    Size  Location     Type
  1953 ;;  multiplier      2   10[BANK0 ] unsigned int 
  1954 ;;  multiplicand    2   12[BANK0 ] unsigned int 
  1955 ;; Auto vars:     Size  Location     Type
  1956 ;;  product         2   14[BANK0 ] unsigned int 
  1957 ;; Return value:  Size  Location     Type
  1958 ;;                  2   10[BANK0 ] unsigned int 
  1959 ;; Registers used:
  1960 ;;		wreg, status,2, status,0, prodl, prodh
  1961 ;; Tracked objects:
  1962 ;;		On entry : 0/0
  1963 ;;		On exit  : 0/0
  1964 ;;		Unchanged: 0/0
  1965 ;; Data sizes:     COMRAM   BANK0   BANK1   BANK2   BANK3   BANK4   BANK5   BANK6   BANK7
  1966 ;;      Params:         0       4       0       0       0       0       0       0       0
  1967 ;;      Locals:         0       2       0       0       0       0       0       0       0
  1968 ;;      Temps:          0       0       0       0       0       0       0       0       0
  1969 ;;      Totals:         0       6       0       0       0       0       0       0       0
  1970 ;;Total ram usage:        6 bytes
  1971 ;; Hardware stack levels used:    1
  1972 ;; Hardware stack levels required when called:    8
  1973 ;; This function calls:
  1974 ;;		Nothing
  1975 ;; This function is called by:
  1976 ;;		_pid_getResponse
  1977 ;; This function uses a non-reentrant model
  1978 ;;
  1979                           
  1980                           	psect	text9
  1981  001944                     __ptext9:
  1982                           	opt callstack 0
  1983  001944                     ___wmul:
  1984                           	opt callstack 21
  1985                           
  1986                           ; BSR set to: 0
  1987                           ;incstack = 0
  1988  001944  0100               	movlb	0	; () banked
  1989  001946  516A               	movf	___wmul@multiplier& (0+255),w,b
  1990  001948  036C               	mulwf	___wmul@multiplicand& (0+255),b
  1991  00194A  CFF3 F06E          	movff	prodl,___wmul@product
  1992  00194E  CFF4 F06F          	movff	prodh,___wmul@product+1
  1993  001952  516A               	movf	___wmul@multiplier& (0+255),w,b
  1994  001954  036D               	mulwf	(___wmul@multiplicand+1)& (0+255),b
  1995  001956  50F3               	movf	prodl,w,c
  1996  001958  276F               	addwf	(___wmul@product+1)& (0+255),f,b
  1997  00195A  516B               	movf	(___wmul@multiplier+1)& (0+255),w,b
  1998  00195C  036C               	mulwf	___wmul@multiplicand& (0+255),b
  1999  00195E  50F3               	movf	prodl,w,c
  2000  001960  276F               	addwf	(___wmul@product+1)& (0+255),f,b
  2001                           
  2002                           ; BSR set to: 0
  2003  001962  C06E  F06A         	movff	___wmul@product,?___wmul
  2004  001966  C06F  F06B         	movff	___wmul@product+1,?___wmul+1
  2005                           
  2006                           ; BSR set to: 0
  2007  00196A  0012               	return		;funcret
  2008  00196C                     __end_of___wmul:
  2009                           	opt callstack 0
  2010                           
  2011 ;; *************** function ___fltol *****************
  2012 ;; Defined at:
  2013 ;;		line 43 in file "/Applications/microchip/xc8/v2.05/pic/sources/c99/common/fltol.c"
  2014 ;; Parameters:    Size  Location     Type
  2015 ;;  f1              4    0[BANK0 ] unsigned int 
  2016 ;; Auto vars:     Size  Location     Type
  2017 ;;  exp1            1    9[BANK0 ] unsigned char 
  2018 ;;  sign1           1    8[BANK0 ] unsigned char 
  2019 ;; Return value:  Size  Location     Type
  2020 ;;                  4    0[BANK0 ] long 
  2021 ;; Registers used:
  2022 ;;		wreg, status,2, status,0
  2023 ;; Tracked objects:
  2024 ;;		On entry : 0/0
  2025 ;;		On exit  : 0/0
  2026 ;;		Unchanged: 0/0
  2027 ;; Data sizes:     COMRAM   BANK0   BANK1   BANK2   BANK3   BANK4   BANK5   BANK6   BANK7
  2028 ;;      Params:         0       4       0       0       0       0       0       0       0
  2029 ;;      Locals:         0       2       0       0       0       0       0       0       0
  2030 ;;      Temps:          0       4       0       0       0       0       0       0       0
  2031 ;;      Totals:         0      10       0       0       0       0       0       0       0
  2032 ;;Total ram usage:       10 bytes
  2033 ;; Hardware stack levels used:    1
  2034 ;; Hardware stack levels required when called:    8
  2035 ;; This function calls:
  2036 ;;		Nothing
  2037 ;; This function is called by:
  2038 ;;		_pid_getResponse
  2039 ;; This function uses a non-reentrant model
  2040 ;;
  2041                           
  2042                           	psect	text10
  2043  0011BC                     __ptext10:
  2044                           	opt callstack 0
  2045  0011BC                     ___fltol:
  2046                           	opt callstack 21
  2047                           
  2048                           ; BSR set to: 0
  2049                           ;incstack = 0
  2050  0011BC  0100               	movlb	0	; () banked
  2051  0011BE  3562               	rlcf	(___fltol@f1+2)& (0+255),w,b
  2052  0011C0  3563               	rlcf	(___fltol@f1+3)& (0+255),w,b
  2053  0011C2  6F69               	movwf	___fltol@exp1& (0+255),b
  2054  0011C4  5169               	movf	___fltol@exp1& (0+255),w,b
  2055  0011C6  A4D8               	btfss	status,2,c
  2056  0011C8  D009               	goto	l4057
  2057  0011CA                     u2800:
  2058                           
  2059                           ; BSR set to: 0
  2060  0011CA  0E00               	movlw	0
  2061  0011CC  6F60               	movwf	?___fltol& (0+255),b
  2062  0011CE  0E00               	movlw	0
  2063  0011D0  6F61               	movwf	(?___fltol+1)& (0+255),b
  2064  0011D2  0E00               	movlw	0
  2065  0011D4  6F62               	movwf	(?___fltol+2)& (0+255),b
  2066  0011D6  0E00               	movlw	0
  2067  0011D8  6F63               	movwf	(?___fltol+3)& (0+255),b
  2068  0011DA  0012               	return	
  2069  0011DC                     l4057:
  2070                           
  2071                           ; BSR set to: 0
  2072  0011DC  C060  F064         	movff	___fltol@f1,??___fltol
  2073  0011E0  C061  F065         	movff	___fltol@f1+1,??___fltol+1
  2074  0011E4  C062  F066         	movff	___fltol@f1+2,??___fltol+2
  2075  0011E8  C063  F067         	movff	___fltol@f1+3,??___fltol+3
  2076  0011EC  0E20               	movlw	32
  2077  0011EE  D005               	goto	u2810
  2078  0011F0                     u2815:
  2079  0011F0  90D8               	bcf	status,0,c
  2080  0011F2  3367               	rrcf	(??___fltol+3)& (0+255),f,b
  2081  0011F4  3366               	rrcf	(??___fltol+2)& (0+255),f,b
  2082  0011F6  3365               	rrcf	(??___fltol+1)& (0+255),f,b
  2083  0011F8  3364               	rrcf	??___fltol& (0+255),f,b
  2084  0011FA                     u2810:
  2085  0011FA  2EE8               	decfsz	wreg,f,c
  2086  0011FC  D7F9               	goto	u2815
  2087  0011FE  5164               	movf	??___fltol& (0+255),w,b
  2088  001200  6F68               	movwf	___fltol@sign1& (0+255),b
  2089                           
  2090                           ; BSR set to: 0
  2091  001202  8F62               	bsf	(___fltol@f1+2)& (0+255),7,b
  2092                           
  2093                           ; BSR set to: 0
  2094  001204  0EFF               	movlw	255
  2095  001206  1760               	andwf	___fltol@f1& (0+255),f,b
  2096  001208  0EFF               	movlw	255
  2097  00120A  1761               	andwf	(___fltol@f1+1)& (0+255),f,b
  2098  00120C  0EFF               	movlw	255
  2099  00120E  1762               	andwf	(___fltol@f1+2)& (0+255),f,b
  2100  001210  0E00               	movlw	0
  2101  001212  1763               	andwf	(___fltol@f1+3)& (0+255),f,b
  2102                           
  2103                           ; BSR set to: 0
  2104  001214  0E96               	movlw	150
  2105  001216  5F69               	subwf	___fltol@exp1& (0+255),f,b
  2106                           
  2107                           ; BSR set to: 0
  2108  001218  AF69               	btfss	___fltol@exp1& (0+255),7,b
  2109  00121A  D00D               	goto	l4077
  2110                           
  2111                           ; BSR set to: 0
  2112  00121C  5169               	movf	___fltol@exp1& (0+255),w,b
  2113  00121E  0A80               	xorlw	128
  2114  001220  0F97               	addlw	151
  2115  001222  A0D8               	btfss	status,0,c
  2116  001224  D7D2               	goto	u2800
  2117  001226                     l4073:
  2118                           
  2119                           ; BSR set to: 0
  2120  001226  90D8               	bcf	status,0,c
  2121  001228  3363               	rrcf	(___fltol@f1+3)& (0+255),f,b
  2122  00122A  3362               	rrcf	(___fltol@f1+2)& (0+255),f,b
  2123  00122C  3361               	rrcf	(___fltol@f1+1)& (0+255),f,b
  2124  00122E  3360               	rrcf	___fltol@f1& (0+255),f,b
  2125                           
  2126                           ; BSR set to: 0
  2127  001230  3F69               	incfsz	___fltol@exp1& (0+255),f,b
  2128  001232  D7F9               	goto	l4073
  2129  001234  D00D               	goto	u2850
  2130  001236                     l4077:
  2131                           
  2132                           ; BSR set to: 0
  2133  001236  0E1F               	movlw	31
  2134  001238  6569               	cpfsgt	___fltol@exp1& (0+255),b
  2135  00123A  D007               	goto	l4085
  2136  00123C  D7C6               	goto	u2800
  2137  00123E                     l4083:
  2138                           
  2139                           ; BSR set to: 0
  2140  00123E  90D8               	bcf	status,0,c
  2141  001240  3760               	rlcf	___fltol@f1& (0+255),f,b
  2142  001242  3761               	rlcf	(___fltol@f1+1)& (0+255),f,b
  2143  001244  3762               	rlcf	(___fltol@f1+2)& (0+255),f,b
  2144  001246  3763               	rlcf	(___fltol@f1+3)& (0+255),f,b
  2145  001248  0769               	decf	___fltol@exp1& (0+255),f,b
  2146  00124A                     l4085:
  2147                           
  2148                           ; BSR set to: 0
  2149  00124A  5169               	movf	___fltol@exp1& (0+255),w,b
  2150  00124C  A4D8               	btfss	status,2,c
  2151  00124E  D7F7               	goto	l4083
  2152  001250                     u2850:
  2153                           
  2154                           ; BSR set to: 0
  2155  001250  5168               	movf	___fltol@sign1& (0+255),w,b
  2156  001252  B4D8               	btfsc	status,2,c
  2157  001254  D008               	goto	l4091
  2158                           
  2159                           ; BSR set to: 0
  2160  001256  1F63               	comf	(___fltol@f1+3)& (0+255),f,b
  2161  001258  1F62               	comf	(___fltol@f1+2)& (0+255),f,b
  2162  00125A  1F61               	comf	(___fltol@f1+1)& (0+255),f,b
  2163  00125C  6D60               	negf	___fltol@f1& (0+255),b
  2164  00125E  0E00               	movlw	0
  2165  001260  2361               	addwfc	(___fltol@f1+1)& (0+255),f,b
  2166  001262  2362               	addwfc	(___fltol@f1+2)& (0+255),f,b
  2167  001264  2363               	addwfc	(___fltol@f1+3)& (0+255),f,b
  2168  001266                     l4091:
  2169                           
  2170                           ; BSR set to: 0
  2171  001266  C060  F060         	movff	___fltol@f1,?___fltol
  2172  00126A  C061  F061         	movff	___fltol@f1+1,?___fltol+1
  2173  00126E  C062  F062         	movff	___fltol@f1+2,?___fltol+2
  2174  001272  C063  F063         	movff	___fltol@f1+3,?___fltol+3
  2175                           
  2176                           ; BSR set to: 0
  2177  001276  0012               	return		;funcret
  2178  001278                     __end_of___fltol:
  2179                           	opt callstack 0
  2180                           
  2181 ;; *************** function ___flmul *****************
  2182 ;; Defined at:
  2183 ;;		line 8 in file "/Applications/microchip/xc8/v2.05/pic/sources/c99/common/sprcmul.c"
  2184 ;; Parameters:    Size  Location     Type
  2185 ;;  b               4   30[BANK0 ] long 
  2186 ;;  a               4   34[BANK0 ] long 
  2187 ;; Auto vars:     Size  Location     Type
  2188 ;;  prod            4   49[BANK0 ] struct .
  2189 ;;  grs             4   43[BANK0 ] unsigned long 
  2190 ;;  temp            2   53[BANK0 ] struct .
  2191 ;;  bexp            1   48[BANK0 ] unsigned char 
  2192 ;;  aexp            1   47[BANK0 ] unsigned char 
  2193 ;;  sign            1   42[BANK0 ] unsigned char 
  2194 ;; Return value:  Size  Location     Type
  2195 ;;                  4   30[BANK0 ] unsigned char 
  2196 ;; Registers used:
  2197 ;;		wreg, status,2, status,0, prodl, prodh
  2198 ;; Tracked objects:
  2199 ;;		On entry : 0/0
  2200 ;;		On exit  : 0/0
  2201 ;;		Unchanged: 0/0
  2202 ;; Data sizes:     COMRAM   BANK0   BANK1   BANK2   BANK3   BANK4   BANK5   BANK6   BANK7
  2203 ;;      Params:         0       8       0       0       0       0       0       0       0
  2204 ;;      Locals:         0      13       0       0       0       0       0       0       0
  2205 ;;      Temps:          0       4       0       0       0       0       0       0       0
  2206 ;;      Totals:         0      25       0       0       0       0       0       0       0
  2207 ;;Total ram usage:       25 bytes
  2208 ;; Hardware stack levels used:    1
  2209 ;; Hardware stack levels required when called:    8
  2210 ;; This function calls:
  2211 ;;		Nothing
  2212 ;; This function is called by:
  2213 ;;		_pid_getResponse
  2214 ;; This function uses a non-reentrant model
  2215 ;;
  2216                           
  2217                           	psect	text11
  2218  0000A6                     __ptext11:
  2219                           	opt callstack 0
  2220  0000A6                     ___flmul:
  2221                           	opt callstack 21
  2222                           
  2223                           ; BSR set to: 0
  2224                           ;incstack = 0
  2225  0000A6  0100               	movlb	0	; () banked
  2226  0000A8  5181               	movf	(___flmul@b+3)& (0+255),w,b
  2227  0000AA  0B80               	andlw	128
  2228  0000AC  6F8A               	movwf	___flmul@sign& (0+255),b
  2229  0000AE  5181               	movf	(___flmul@b+3)& (0+255),w,b
  2230  0000B0  2581               	addwf	(___flmul@b+3)& (0+255),w,b
  2231  0000B2  6F90               	movwf	___flmul@bexp& (0+255),b
  2232                           
  2233                           ; BSR set to: 0
  2234  0000B4  BF80               	btfsc	(___flmul@b+2)& (0+255),7,b
  2235                           
  2236                           ; BSR set to: 0
  2237  0000B6  8190               	bsf	___flmul@bexp& (0+255),0,b
  2238                           
  2239                           ; BSR set to: 0
  2240  0000B8  5190               	movf	___flmul@bexp& (0+255),w,b
  2241  0000BA  B4D8               	btfsc	status,2,c
  2242  0000BC  D00D               	goto	l3935
  2243                           
  2244                           ; BSR set to: 0
  2245  0000BE  2990               	incf	___flmul@bexp& (0+255),w,b
  2246  0000C0  A4D8               	btfss	status,2,c
  2247  0000C2  D008               	goto	l3933
  2248                           
  2249                           ; BSR set to: 0
  2250  0000C4  0E00               	movlw	0
  2251  0000C6  6F7E               	movwf	___flmul@b& (0+255),b
  2252  0000C8  0E00               	movlw	0
  2253  0000CA  6F7F               	movwf	(___flmul@b+1)& (0+255),b
  2254  0000CC  0E00               	movlw	0
  2255  0000CE  6F80               	movwf	(___flmul@b+2)& (0+255),b
  2256  0000D0  0E00               	movlw	0
  2257  0000D2  6F81               	movwf	(___flmul@b+3)& (0+255),b
  2258  0000D4                     l3933:
  2259                           
  2260                           ; BSR set to: 0
  2261  0000D4  8F80               	bsf	(___flmul@b+2)& (0+255),7,b
  2262  0000D6  D008               	goto	l3937
  2263  0000D8                     l3935:
  2264                           
  2265                           ; BSR set to: 0
  2266  0000D8  0E00               	movlw	0
  2267  0000DA  6F7E               	movwf	___flmul@b& (0+255),b
  2268  0000DC  0E00               	movlw	0
  2269  0000DE  6F7F               	movwf	(___flmul@b+1)& (0+255),b
  2270  0000E0  0E00               	movlw	0
  2271  0000E2  6F80               	movwf	(___flmul@b+2)& (0+255),b
  2272  0000E4  0E00               	movlw	0
  2273  0000E6  6F81               	movwf	(___flmul@b+3)& (0+255),b
  2274  0000E8                     l3937:
  2275                           
  2276                           ; BSR set to: 0
  2277  0000E8  5185               	movf	(___flmul@a+3)& (0+255),w,b
  2278  0000EA  0B80               	andlw	128
  2279  0000EC  1B8A               	xorwf	___flmul@sign& (0+255),f,b
  2280                           
  2281                           ; BSR set to: 0
  2282  0000EE  5185               	movf	(___flmul@a+3)& (0+255),w,b
  2283  0000F0  2585               	addwf	(___flmul@a+3)& (0+255),w,b
  2284  0000F2  6F8F               	movwf	___flmul@aexp& (0+255),b
  2285                           
  2286                           ; BSR set to: 0
  2287  0000F4  BF84               	btfsc	(___flmul@a+2)& (0+255),7,b
  2288                           
  2289                           ; BSR set to: 0
  2290  0000F6  818F               	bsf	___flmul@aexp& (0+255),0,b
  2291                           
  2292                           ; BSR set to: 0
  2293  0000F8  518F               	movf	___flmul@aexp& (0+255),w,b
  2294  0000FA  B4D8               	btfsc	status,2,c
  2295  0000FC  D00D               	goto	l3953
  2296                           
  2297                           ; BSR set to: 0
  2298  0000FE  298F               	incf	___flmul@aexp& (0+255),w,b
  2299  000100  A4D8               	btfss	status,2,c
  2300  000102  D008               	goto	l3951
  2301                           
  2302                           ; BSR set to: 0
  2303  000104  0E00               	movlw	0
  2304  000106  6F82               	movwf	___flmul@a& (0+255),b
  2305  000108  0E00               	movlw	0
  2306  00010A  6F83               	movwf	(___flmul@a+1)& (0+255),b
  2307  00010C  0E00               	movlw	0
  2308  00010E  6F84               	movwf	(___flmul@a+2)& (0+255),b
  2309  000110  0E00               	movlw	0
  2310  000112  6F85               	movwf	(___flmul@a+3)& (0+255),b
  2311  000114                     l3951:
  2312                           
  2313                           ; BSR set to: 0
  2314  000114  8F84               	bsf	(___flmul@a+2)& (0+255),7,b
  2315  000116  D008               	goto	l1610
  2316  000118                     l3953:
  2317                           
  2318                           ; BSR set to: 0
  2319  000118  0E00               	movlw	0
  2320  00011A  6F82               	movwf	___flmul@a& (0+255),b
  2321  00011C  0E00               	movlw	0
  2322  00011E  6F83               	movwf	(___flmul@a+1)& (0+255),b
  2323  000120  0E00               	movlw	0
  2324  000122  6F84               	movwf	(___flmul@a+2)& (0+255),b
  2325  000124  0E00               	movlw	0
  2326  000126  6F85               	movwf	(___flmul@a+3)& (0+255),b
  2327  000128                     l1610:
  2328                           
  2329                           ; BSR set to: 0
  2330  000128  518F               	movf	___flmul@aexp& (0+255),w,b
  2331  00012A  B4D8               	btfsc	status,2,c
  2332  00012C  D003               	goto	u2680
  2333                           
  2334                           ; BSR set to: 0
  2335  00012E  5190               	movf	___flmul@bexp& (0+255),w,b
  2336  000130  A4D8               	btfss	status,2,c
  2337  000132  D009               	goto	l3961
  2338  000134                     u2680:
  2339                           
  2340                           ; BSR set to: 0
  2341  000134  0E00               	movlw	0
  2342  000136  6F7E               	movwf	?___flmul& (0+255),b
  2343  000138  0E00               	movlw	0
  2344  00013A  6F7F               	movwf	(?___flmul+1)& (0+255),b
  2345  00013C  0E00               	movlw	0
  2346  00013E  6F80               	movwf	(?___flmul+2)& (0+255),b
  2347  000140  0E00               	movlw	0
  2348  000142  6F81               	movwf	(?___flmul+3)& (0+255),b
  2349  000144  0012               	return	
  2350  000146                     l3961:
  2351                           
  2352                           ; BSR set to: 0
  2353  000146  5184               	movf	(___flmul@a+2)& (0+255),w,b
  2354  000148  037E               	mulwf	___flmul@b& (0+255),b
  2355  00014A  CFF3 F095          	movff	prodl,___flmul@temp
  2356  00014E  CFF4 F096          	movff	prodh,___flmul@temp+1
  2357                           
  2358                           ; BSR set to: 0
  2359  000152  5195               	movf	___flmul@temp& (0+255),w,b
  2360  000154  6F8B               	movwf	___flmul@grs& (0+255),b
  2361  000156  6B8C               	clrf	(___flmul@grs+1)& (0+255),b
  2362  000158  6B8D               	clrf	(___flmul@grs+2)& (0+255),b
  2363  00015A  6B8E               	clrf	(___flmul@grs+3)& (0+255),b
  2364                           
  2365                           ; BSR set to: 0
  2366  00015C  5196               	movf	(___flmul@temp+1)& (0+255),w,b
  2367  00015E  6F91               	movwf	___flmul@prod& (0+255),b
  2368  000160  6B92               	clrf	(___flmul@prod+1)& (0+255),b
  2369  000162  6B93               	clrf	(___flmul@prod+2)& (0+255),b
  2370  000164  6B94               	clrf	(___flmul@prod+3)& (0+255),b
  2371  000166  5183               	movf	(___flmul@a+1)& (0+255),w,b
  2372  000168  037F               	mulwf	(___flmul@b+1)& (0+255),b
  2373  00016A  CFF3 F095          	movff	prodl,___flmul@temp
  2374  00016E  CFF4 F096          	movff	prodh,___flmul@temp+1
  2375                           
  2376                           ; BSR set to: 0
  2377  000172  5195               	movf	___flmul@temp& (0+255),w,b
  2378  000174  278B               	addwf	___flmul@grs& (0+255),f,b
  2379  000176  0E00               	movlw	0
  2380  000178  238C               	addwfc	(___flmul@grs+1)& (0+255),f,b
  2381  00017A  238D               	addwfc	(___flmul@grs+2)& (0+255),f,b
  2382  00017C  238E               	addwfc	(___flmul@grs+3)& (0+255),f,b
  2383                           
  2384                           ; BSR set to: 0
  2385  00017E  5196               	movf	(___flmul@temp+1)& (0+255),w,b
  2386  000180  2791               	addwf	___flmul@prod& (0+255),f,b
  2387  000182  0E00               	movlw	0
  2388  000184  2392               	addwfc	(___flmul@prod+1)& (0+255),f,b
  2389  000186  2393               	addwfc	(___flmul@prod+2)& (0+255),f,b
  2390  000188  2394               	addwfc	(___flmul@prod+3)& (0+255),f,b
  2391  00018A  5182               	movf	___flmul@a& (0+255),w,b
  2392  00018C  0380               	mulwf	(___flmul@b+2)& (0+255),b
  2393  00018E  CFF3 F095          	movff	prodl,___flmul@temp
  2394  000192  CFF4 F096          	movff	prodh,___flmul@temp+1
  2395                           
  2396                           ; BSR set to: 0
  2397  000196  5195               	movf	___flmul@temp& (0+255),w,b
  2398  000198  278B               	addwf	___flmul@grs& (0+255),f,b
  2399  00019A  0E00               	movlw	0
  2400  00019C  238C               	addwfc	(___flmul@grs+1)& (0+255),f,b
  2401  00019E  238D               	addwfc	(___flmul@grs+2)& (0+255),f,b
  2402  0001A0  238E               	addwfc	(___flmul@grs+3)& (0+255),f,b
  2403                           
  2404                           ; BSR set to: 0
  2405  0001A2  5196               	movf	(___flmul@temp+1)& (0+255),w,b
  2406  0001A4  2791               	addwf	___flmul@prod& (0+255),f,b
  2407  0001A6  0E00               	movlw	0
  2408  0001A8  2392               	addwfc	(___flmul@prod+1)& (0+255),f,b
  2409  0001AA  2393               	addwfc	(___flmul@prod+2)& (0+255),f,b
  2410  0001AC  2394               	addwfc	(___flmul@prod+3)& (0+255),f,b
  2411                           
  2412                           ; BSR set to: 0
  2413  0001AE  C08D  F08E         	movff	___flmul@grs+2,___flmul@grs+3
  2414  0001B2  C08C  F08D         	movff	___flmul@grs+1,___flmul@grs+2
  2415  0001B6  C08B  F08C         	movff	___flmul@grs,___flmul@grs+1
  2416  0001BA  6B8B               	clrf	___flmul@grs& (0+255),b
  2417                           
  2418                           ; BSR set to: 0
  2419  0001BC  5182               	movf	___flmul@a& (0+255),w,b
  2420  0001BE  037F               	mulwf	(___flmul@b+1)& (0+255),b
  2421  0001C0  CFF3 F095          	movff	prodl,___flmul@temp
  2422  0001C4  CFF4 F096          	movff	prodh,___flmul@temp+1
  2423                           
  2424                           ; BSR set to: 0
  2425  0001C8  5195               	movf	___flmul@temp& (0+255),w,b
  2426  0001CA  278B               	addwf	___flmul@grs& (0+255),f,b
  2427  0001CC  5196               	movf	(___flmul@temp+1)& (0+255),w,b
  2428  0001CE  238C               	addwfc	(___flmul@grs+1)& (0+255),f,b
  2429  0001D0  0E00               	movlw	0
  2430  0001D2  238D               	addwfc	(___flmul@grs+2)& (0+255),f,b
  2431  0001D4  0E00               	movlw	0
  2432  0001D6  238E               	addwfc	(___flmul@grs+3)& (0+255),f,b
  2433                           
  2434                           ; BSR set to: 0
  2435  0001D8  5183               	movf	(___flmul@a+1)& (0+255),w,b
  2436  0001DA  037E               	mulwf	___flmul@b& (0+255),b
  2437  0001DC  CFF3 F095          	movff	prodl,___flmul@temp
  2438  0001E0  CFF4 F096          	movff	prodh,___flmul@temp+1
  2439                           
  2440                           ; BSR set to: 0
  2441  0001E4  5195               	movf	___flmul@temp& (0+255),w,b
  2442  0001E6  278B               	addwf	___flmul@grs& (0+255),f,b
  2443  0001E8  5196               	movf	(___flmul@temp+1)& (0+255),w,b
  2444  0001EA  238C               	addwfc	(___flmul@grs+1)& (0+255),f,b
  2445  0001EC  0E00               	movlw	0
  2446  0001EE  238D               	addwfc	(___flmul@grs+2)& (0+255),f,b
  2447  0001F0  0E00               	movlw	0
  2448  0001F2  238E               	addwfc	(___flmul@grs+3)& (0+255),f,b
  2449                           
  2450                           ; BSR set to: 0
  2451  0001F4  C08D  F08E         	movff	___flmul@grs+2,___flmul@grs+3
  2452  0001F8  C08C  F08D         	movff	___flmul@grs+1,___flmul@grs+2
  2453  0001FC  C08B  F08C         	movff	___flmul@grs,___flmul@grs+1
  2454  000200  6B8B               	clrf	___flmul@grs& (0+255),b
  2455  000202  5182               	movf	___flmul@a& (0+255),w,b
  2456  000204  037E               	mulwf	___flmul@b& (0+255),b
  2457  000206  CFF3 F095          	movff	prodl,___flmul@temp
  2458  00020A  CFF4 F096          	movff	prodh,___flmul@temp+1
  2459                           
  2460                           ; BSR set to: 0
  2461  00020E  5195               	movf	___flmul@temp& (0+255),w,b
  2462  000210  278B               	addwf	___flmul@grs& (0+255),f,b
  2463  000212  5196               	movf	(___flmul@temp+1)& (0+255),w,b
  2464  000214  238C               	addwfc	(___flmul@grs+1)& (0+255),f,b
  2465  000216  0E00               	movlw	0
  2466  000218  238D               	addwfc	(___flmul@grs+2)& (0+255),f,b
  2467  00021A  0E00               	movlw	0
  2468  00021C  238E               	addwfc	(___flmul@grs+3)& (0+255),f,b
  2469                           
  2470                           ; BSR set to: 0
  2471  00021E  5184               	movf	(___flmul@a+2)& (0+255),w,b
  2472  000220  037F               	mulwf	(___flmul@b+1)& (0+255),b
  2473  000222  CFF3 F095          	movff	prodl,___flmul@temp
  2474  000226  CFF4 F096          	movff	prodh,___flmul@temp+1
  2475  00022A  5195               	movf	___flmul@temp& (0+255),w,b
  2476  00022C  2791               	addwf	___flmul@prod& (0+255),f,b
  2477  00022E  5196               	movf	(___flmul@temp+1)& (0+255),w,b
  2478  000230  2392               	addwfc	(___flmul@prod+1)& (0+255),f,b
  2479  000232  0E00               	movlw	0
  2480  000234  2393               	addwfc	(___flmul@prod+2)& (0+255),f,b
  2481  000236  0E00               	movlw	0
  2482  000238  2394               	addwfc	(___flmul@prod+3)& (0+255),f,b
  2483                           
  2484                           ; BSR set to: 0
  2485  00023A  5183               	movf	(___flmul@a+1)& (0+255),w,b
  2486  00023C  0380               	mulwf	(___flmul@b+2)& (0+255),b
  2487  00023E  CFF3 F095          	movff	prodl,___flmul@temp
  2488  000242  CFF4 F096          	movff	prodh,___flmul@temp+1
  2489                           
  2490                           ; BSR set to: 0
  2491  000246  5195               	movf	___flmul@temp& (0+255),w,b
  2492  000248  2791               	addwf	___flmul@prod& (0+255),f,b
  2493  00024A  5196               	movf	(___flmul@temp+1)& (0+255),w,b
  2494  00024C  2392               	addwfc	(___flmul@prod+1)& (0+255),f,b
  2495  00024E  0E00               	movlw	0
  2496  000250  2393               	addwfc	(___flmul@prod+2)& (0+255),f,b
  2497  000252  0E00               	movlw	0
  2498  000254  2394               	addwfc	(___flmul@prod+3)& (0+255),f,b
  2499  000256  5184               	movf	(___flmul@a+2)& (0+255),w,b
  2500  000258  0380               	mulwf	(___flmul@b+2)& (0+255),b
  2501  00025A  CFF3 F095          	movff	prodl,___flmul@temp
  2502  00025E  CFF4 F096          	movff	prodh,___flmul@temp+1
  2503                           
  2504                           ; BSR set to: 0
  2505  000262  5195               	movf	___flmul@temp& (0+255),w,b
  2506  000264  6F86               	movwf	??___flmul& (0+255),b
  2507  000266  5196               	movf	(___flmul@temp+1)& (0+255),w,b
  2508  000268  6F87               	movwf	(??___flmul+1)& (0+255),b
  2509  00026A  6B88               	clrf	(??___flmul+2)& (0+255),b
  2510  00026C  6B89               	clrf	(??___flmul+3)& (0+255),b
  2511  00026E  C088  F089         	movff	??___flmul+2,??___flmul+3
  2512  000272  C087  F088         	movff	??___flmul+1,??___flmul+2
  2513  000276  C086  F087         	movff	??___flmul,??___flmul+1
  2514  00027A  6B86               	clrf	??___flmul& (0+255),b
  2515  00027C  5186               	movf	??___flmul& (0+255),w,b
  2516  00027E  2791               	addwf	___flmul@prod& (0+255),f,b
  2517  000280  5187               	movf	(??___flmul+1)& (0+255),w,b
  2518  000282  2392               	addwfc	(___flmul@prod+1)& (0+255),f,b
  2519  000284  5188               	movf	(??___flmul+2)& (0+255),w,b
  2520  000286  2393               	addwfc	(___flmul@prod+2)& (0+255),f,b
  2521  000288  5189               	movf	(??___flmul+3)& (0+255),w,b
  2522  00028A  2394               	addwfc	(___flmul@prod+3)& (0+255),f,b
  2523                           
  2524                           ; BSR set to: 0
  2525  00028C  C08B  F086         	movff	___flmul@grs,??___flmul
  2526  000290  C08C  F087         	movff	___flmul@grs+1,??___flmul+1
  2527  000294  C08D  F088         	movff	___flmul@grs+2,??___flmul+2
  2528  000298  C08E  F089         	movff	___flmul@grs+3,??___flmul+3
  2529  00029C  0E19               	movlw	25
  2530  00029E  D005               	goto	u2690
  2531  0002A0                     u2695:
  2532  0002A0  90D8               	bcf	status,0,c
  2533  0002A2  3389               	rrcf	(??___flmul+3)& (0+255),f,b
  2534  0002A4  3388               	rrcf	(??___flmul+2)& (0+255),f,b
  2535  0002A6  3387               	rrcf	(??___flmul+1)& (0+255),f,b
  2536  0002A8  3386               	rrcf	??___flmul& (0+255),f,b
  2537  0002AA                     u2690:
  2538  0002AA  2EE8               	decfsz	wreg,f,c
  2539  0002AC  D7F9               	goto	u2695
  2540  0002AE  5186               	movf	??___flmul& (0+255),w,b
  2541  0002B0  2791               	addwf	___flmul@prod& (0+255),f,b
  2542  0002B2  5187               	movf	(??___flmul+1)& (0+255),w,b
  2543  0002B4  2392               	addwfc	(___flmul@prod+1)& (0+255),f,b
  2544  0002B6  5188               	movf	(??___flmul+2)& (0+255),w,b
  2545  0002B8  2393               	addwfc	(___flmul@prod+2)& (0+255),f,b
  2546  0002BA  5189               	movf	(??___flmul+3)& (0+255),w,b
  2547  0002BC  2394               	addwfc	(___flmul@prod+3)& (0+255),f,b
  2548                           
  2549                           ; BSR set to: 0
  2550  0002BE  C08D  F08E         	movff	___flmul@grs+2,___flmul@grs+3
  2551  0002C2  C08C  F08D         	movff	___flmul@grs+1,___flmul@grs+2
  2552  0002C6  C08B  F08C         	movff	___flmul@grs,___flmul@grs+1
  2553  0002CA  6B8B               	clrf	___flmul@grs& (0+255),b
  2554                           
  2555                           ; BSR set to: 0
  2556  0002CC  518F               	movf	___flmul@aexp& (0+255),w,b
  2557  0002CE  C090  F086         	movff	___flmul@bexp,??___flmul
  2558  0002D2  6B87               	clrf	(??___flmul+1)& (0+255),b
  2559  0002D4  2786               	addwf	??___flmul& (0+255),f,b
  2560  0002D6  0E00               	movlw	0
  2561  0002D8  2387               	addwfc	(??___flmul+1)& (0+255),f,b
  2562  0002DA  0E82               	movlw	130
  2563  0002DC  2586               	addwf	??___flmul& (0+255),w,b
  2564  0002DE  6F95               	movwf	___flmul@temp& (0+255),b
  2565  0002E0  0EFF               	movlw	255
  2566  0002E2  2187               	addwfc	(??___flmul+1)& (0+255),w,b
  2567  0002E4  6F96               	movwf	(___flmul@temp+1)& (0+255),b
  2568  0002E6  D00F               	goto	l4009
  2569  0002E8                     l4003:
  2570                           
  2571                           ; BSR set to: 0
  2572  0002E8  90D8               	bcf	status,0,c
  2573  0002EA  3791               	rlcf	___flmul@prod& (0+255),f,b
  2574  0002EC  3792               	rlcf	(___flmul@prod+1)& (0+255),f,b
  2575  0002EE  3793               	rlcf	(___flmul@prod+2)& (0+255),f,b
  2576  0002F0  3794               	rlcf	(___flmul@prod+3)& (0+255),f,b
  2577                           
  2578                           ; BSR set to: 0
  2579  0002F2  BF8E               	btfsc	(___flmul@grs+3)& (0+255),7,b
  2580                           
  2581                           ; BSR set to: 0
  2582  0002F4  8191               	bsf	___flmul@prod& (0+255),0,b
  2583                           
  2584                           ; BSR set to: 0
  2585  0002F6  90D8               	bcf	status,0,c
  2586  0002F8  378B               	rlcf	___flmul@grs& (0+255),f,b
  2587  0002FA  378C               	rlcf	(___flmul@grs+1)& (0+255),f,b
  2588  0002FC  378D               	rlcf	(___flmul@grs+2)& (0+255),f,b
  2589  0002FE  378E               	rlcf	(___flmul@grs+3)& (0+255),f,b
  2590  000300  0795               	decf	___flmul@temp& (0+255),f,b
  2591  000302  A0D8               	btfss	status,0,c
  2592  000304  0796               	decf	(___flmul@temp+1)& (0+255),f,b
  2593  000306                     l4009:
  2594                           
  2595                           ; BSR set to: 0
  2596  000306  AF93               	btfss	(___flmul@prod+2)& (0+255),7,b
  2597  000308  D7EF               	goto	l4003
  2598                           
  2599                           ; BSR set to: 0
  2600  00030A  0E00               	movlw	0
  2601  00030C  6F8F               	movwf	___flmul@aexp& (0+255),b
  2602                           
  2603                           ; BSR set to: 0
  2604  00030E  AF8E               	btfss	(___flmul@grs+3)& (0+255),7,b
  2605  000310  D017               	goto	l1619
  2606                           
  2607                           ; BSR set to: 0
  2608  000312  0EFF               	movlw	255
  2609  000314  158B               	andwf	___flmul@grs& (0+255),w,b
  2610  000316  6F86               	movwf	??___flmul& (0+255),b
  2611  000318  0EFF               	movlw	255
  2612  00031A  158C               	andwf	(___flmul@grs+1)& (0+255),w,b
  2613  00031C  6F87               	movwf	(??___flmul+1)& (0+255),b
  2614  00031E  0EFF               	movlw	255
  2615  000320  158D               	andwf	(___flmul@grs+2)& (0+255),w,b
  2616  000322  6F88               	movwf	(??___flmul+2)& (0+255),b
  2617  000324  0E7F               	movlw	127
  2618  000326  158E               	andwf	(___flmul@grs+3)& (0+255),w,b
  2619  000328  6F89               	movwf	(??___flmul+3)& (0+255),b
  2620  00032A  5186               	movf	??___flmul& (0+255),w,b
  2621  00032C  1187               	iorwf	(??___flmul+1)& (0+255),w,b
  2622  00032E  1188               	iorwf	(??___flmul+2)& (0+255),w,b
  2623  000330  1189               	iorwf	(??___flmul+3)& (0+255),w,b
  2624  000332  B4D8               	btfsc	status,2,c
  2625  000334  D003               	goto	l1620
  2626  000336                     u2730:
  2627                           
  2628                           ; BSR set to: 0
  2629  000336  0E01               	movlw	1
  2630  000338  6F8F               	movwf	___flmul@aexp& (0+255),b
  2631  00033A  D002               	goto	l1619
  2632  00033C                     l1620:
  2633                           
  2634                           ; BSR set to: 0
  2635  00033C  B191               	btfsc	___flmul@prod& (0+255),0,b
  2636  00033E  D7FB               	goto	u2730
  2637  000340                     l1619:
  2638                           
  2639                           ; BSR set to: 0
  2640  000340  518F               	movf	___flmul@aexp& (0+255),w,b
  2641  000342  B4D8               	btfsc	status,2,c
  2642  000344  D01F               	goto	l4029
  2643                           
  2644                           ; BSR set to: 0
  2645  000346  0E01               	movlw	1
  2646  000348  2791               	addwf	___flmul@prod& (0+255),f,b
  2647  00034A  0E00               	movlw	0
  2648  00034C  2392               	addwfc	(___flmul@prod+1)& (0+255),f,b
  2649  00034E  2393               	addwfc	(___flmul@prod+2)& (0+255),f,b
  2650  000350  2394               	addwfc	(___flmul@prod+3)& (0+255),f,b
  2651                           
  2652                           ; BSR set to: 0
  2653  000352  A194               	btfss	(___flmul@prod+3)& (0+255),0,b
  2654  000354  D017               	goto	l4029
  2655                           
  2656                           ; BSR set to: 0
  2657  000356  C091  F086         	movff	___flmul@prod,??___flmul
  2658  00035A  C092  F087         	movff	___flmul@prod+1,??___flmul+1
  2659  00035E  C093  F088         	movff	___flmul@prod+2,??___flmul+2
  2660  000362  C094  F089         	movff	___flmul@prod+3,??___flmul+3
  2661  000366  3589               	rlcf	(??___flmul+3)& (0+255),w,b
  2662  000368  3389               	rrcf	(??___flmul+3)& (0+255),f,b
  2663  00036A  3388               	rrcf	(??___flmul+2)& (0+255),f,b
  2664  00036C  3387               	rrcf	(??___flmul+1)& (0+255),f,b
  2665  00036E  3386               	rrcf	??___flmul& (0+255),f,b
  2666  000370  C086  F091         	movff	??___flmul,___flmul@prod
  2667  000374  C087  F092         	movff	??___flmul+1,___flmul@prod+1
  2668  000378  C088  F093         	movff	??___flmul+2,___flmul@prod+2
  2669  00037C  C089  F094         	movff	??___flmul+3,___flmul@prod+3
  2670                           
  2671                           ; BSR set to: 0
  2672  000380  4B95               	infsnz	___flmul@temp& (0+255),f,b
  2673  000382  2B96               	incf	(___flmul@temp+1)& (0+255),f,b
  2674  000384                     l4029:
  2675                           
  2676                           ; BSR set to: 0
  2677  000384  BF96               	btfsc	(___flmul@temp+1)& (0+255),7,b
  2678  000386  D00D               	goto	l4033
  2679  000388  5196               	movf	(___flmul@temp+1)& (0+255),w,b
  2680  00038A  E103               	bnz	u2770
  2681  00038C  2995               	incf	___flmul@temp& (0+255),w,b
  2682  00038E  A0D8               	btfss	status,0,c
  2683  000390  D008               	goto	l4033
  2684  000392                     u2770:
  2685                           
  2686                           ; BSR set to: 0
  2687  000392  0E00               	movlw	0
  2688  000394  6F91               	movwf	___flmul@prod& (0+255),b
  2689  000396  0E00               	movlw	0
  2690  000398  6F92               	movwf	(___flmul@prod+1)& (0+255),b
  2691  00039A  0E80               	movlw	128
  2692  00039C  6F93               	movwf	(___flmul@prod+2)& (0+255),b
  2693  00039E  0E7F               	movlw	127
  2694  0003A0  D020               	goto	L1
  2695  0003A2                     l4033:
  2696                           
  2697                           ; BSR set to: 0
  2698  0003A2  BF96               	btfsc	(___flmul@temp+1)& (0+255),7,b
  2699  0003A4  D005               	goto	u2780
  2700  0003A6  5196               	movf	(___flmul@temp+1)& (0+255),w,b
  2701  0003A8  E10E               	bnz	l1627
  2702  0003AA  0595               	decf	___flmul@temp& (0+255),w,b
  2703  0003AC  B0D8               	btfsc	status,0,c
  2704  0003AE  D00B               	goto	l1627
  2705  0003B0                     u2780:
  2706                           
  2707                           ; BSR set to: 0
  2708  0003B0  0E00               	movlw	0
  2709  0003B2  6F91               	movwf	___flmul@prod& (0+255),b
  2710  0003B4  0E00               	movlw	0
  2711  0003B6  6F92               	movwf	(___flmul@prod+1)& (0+255),b
  2712  0003B8  0E00               	movlw	0
  2713  0003BA  6F93               	movwf	(___flmul@prod+2)& (0+255),b
  2714  0003BC  0E00               	movlw	0
  2715  0003BE  6F94               	movwf	(___flmul@prod+3)& (0+255),b
  2716  0003C0  0E00               	movlw	0
  2717  0003C2  6F8A               	movwf	___flmul@sign& (0+255),b
  2718  0003C4  D00F               	goto	l4045
  2719  0003C6                     l1627:
  2720                           
  2721                           ; BSR set to: 0
  2722  0003C6  C095  F090         	movff	___flmul@temp,___flmul@bexp
  2723                           
  2724                           ; BSR set to: 0
  2725  0003CA  0EFF               	movlw	255
  2726  0003CC  1791               	andwf	___flmul@prod& (0+255),f,b
  2727  0003CE  0EFF               	movlw	255
  2728  0003D0  1792               	andwf	(___flmul@prod+1)& (0+255),f,b
  2729  0003D2  0E7F               	movlw	127
  2730  0003D4  1793               	andwf	(___flmul@prod+2)& (0+255),f,b
  2731  0003D6  0E00               	movlw	0
  2732  0003D8  1794               	andwf	(___flmul@prod+3)& (0+255),f,b
  2733                           
  2734                           ; BSR set to: 0
  2735  0003DA  B190               	btfsc	___flmul@bexp& (0+255),0,b
  2736                           
  2737                           ; BSR set to: 0
  2738  0003DC  8F93               	bsf	(___flmul@prod+2)& (0+255),7,b
  2739                           
  2740                           ; BSR set to: 0
  2741  0003DE  90D8               	bcf	status,0,c
  2742  0003E0  3190               	rrcf	___flmul@bexp& (0+255),w,b
  2743  0003E2                     L1:
  2744  0003E2  6F94               	movwf	(___flmul@prod+3)& (0+255),b
  2745  0003E4                     l4045:
  2746                           
  2747                           ; BSR set to: 0
  2748  0003E4  518A               	movf	___flmul@sign& (0+255),w,b
  2749  0003E6  1394               	iorwf	(___flmul@prod+3)& (0+255),f,b
  2750                           
  2751                           ; BSR set to: 0
  2752  0003E8  C091  F07E         	movff	___flmul@prod,?___flmul
  2753  0003EC  C092  F07F         	movff	___flmul@prod+1,?___flmul+1
  2754  0003F0  C093  F080         	movff	___flmul@prod+2,?___flmul+2
  2755  0003F4  C094  F081         	movff	___flmul@prod+3,?___flmul+3
  2756                           
  2757                           ; BSR set to: 0
  2758  0003F8  0012               	return		;funcret
  2759  0003FA                     __end_of___flmul:
  2760                           	opt callstack 0
  2761                           
  2762 ;; *************** function ___fladd *****************
  2763 ;; Defined at:
  2764 ;;		line 10 in file "/Applications/microchip/xc8/v2.05/pic/sources/c99/common/sprcadd.c"
  2765 ;; Parameters:    Size  Location     Type
  2766 ;;  b               4   55[BANK0 ] unsigned char 
  2767 ;;  a               4   59[BANK0 ] unsigned char 
  2768 ;; Auto vars:     Size  Location     Type
  2769 ;;  grs             1   70[BANK0 ] unsigned char 
  2770 ;;  bexp            1   69[BANK0 ] unsigned char 
  2771 ;;  aexp            1   68[BANK0 ] unsigned char 
  2772 ;;  signs           1   67[BANK0 ] unsigned char 
  2773 ;; Return value:  Size  Location     Type
  2774 ;;                  4   55[BANK0 ] unsigned char 
  2775 ;; Registers used:
  2776 ;;		wreg, status,2, status,0
  2777 ;; Tracked objects:
  2778 ;;		On entry : 0/0
  2779 ;;		On exit  : 0/0
  2780 ;;		Unchanged: 0/0
  2781 ;; Data sizes:     COMRAM   BANK0   BANK1   BANK2   BANK3   BANK4   BANK5   BANK6   BANK7
  2782 ;;      Params:         0       8       0       0       0       0       0       0       0
  2783 ;;      Locals:         0       4       0       0       0       0       0       0       0
  2784 ;;      Temps:          0       4       0       0       0       0       0       0       0
  2785 ;;      Totals:         0      16       0       0       0       0       0       0       0
  2786 ;;Total ram usage:       16 bytes
  2787 ;; Hardware stack levels used:    1
  2788 ;; Hardware stack levels required when called:    8
  2789 ;; This function calls:
  2790 ;;		Nothing
  2791 ;; This function is called by:
  2792 ;;		_pid_getResponse
  2793 ;; This function uses a non-reentrant model
  2794 ;;
  2795                           
  2796                           	psect	text12
  2797  00074C                     __ptext12:
  2798                           	opt callstack 0
  2799  00074C                     ___fladd:
  2800                           	opt callstack 21
  2801                           
  2802                           ; BSR set to: 0
  2803                           ;incstack = 0
  2804  00074C  0100               	movlb	0	; () banked
  2805  00074E  519A               	movf	(___fladd@b+3)& (0+255),w,b
  2806  000750  0B80               	andlw	128
  2807  000752  6FA3               	movwf	___fladd@signs& (0+255),b
  2808  000754  519A               	movf	(___fladd@b+3)& (0+255),w,b
  2809  000756  259A               	addwf	(___fladd@b+3)& (0+255),w,b
  2810  000758  6FA5               	movwf	___fladd@bexp& (0+255),b
  2811                           
  2812                           ; BSR set to: 0
  2813  00075A  BF99               	btfsc	(___fladd@b+2)& (0+255),7,b
  2814                           
  2815                           ; BSR set to: 0
  2816  00075C  81A5               	bsf	___fladd@bexp& (0+255),0,b
  2817                           
  2818                           ; BSR set to: 0
  2819  00075E  51A5               	movf	___fladd@bexp& (0+255),w,b
  2820  000760  B4D8               	btfsc	status,2,c
  2821  000762  D00D               	goto	l3735
  2822                           
  2823                           ; BSR set to: 0
  2824  000764  29A5               	incf	___fladd@bexp& (0+255),w,b
  2825  000766  A4D8               	btfss	status,2,c
  2826  000768  D008               	goto	l3731
  2827                           
  2828                           ; BSR set to: 0
  2829  00076A  0E00               	movlw	0
  2830  00076C  6F97               	movwf	___fladd@b& (0+255),b
  2831  00076E  0E00               	movlw	0
  2832  000770  6F98               	movwf	(___fladd@b+1)& (0+255),b
  2833  000772  0E00               	movlw	0
  2834  000774  6F99               	movwf	(___fladd@b+2)& (0+255),b
  2835  000776  0E00               	movlw	0
  2836  000778  6F9A               	movwf	(___fladd@b+3)& (0+255),b
  2837  00077A                     l3731:
  2838                           
  2839                           ; BSR set to: 0
  2840  00077A  8F99               	bsf	(___fladd@b+2)& (0+255),7,b
  2841  00077C  D006               	goto	L2
  2842  00077E                     l3735:
  2843                           
  2844                           ; BSR set to: 0
  2845  00077E  0E00               	movlw	0
  2846  000780  6F97               	movwf	___fladd@b& (0+255),b
  2847  000782  0E00               	movlw	0
  2848  000784  6F98               	movwf	(___fladd@b+1)& (0+255),b
  2849  000786  0E00               	movlw	0
  2850  000788  6F99               	movwf	(___fladd@b+2)& (0+255),b
  2851  00078A                     L2:
  2852  00078A  0E00               	movlw	0
  2853  00078C  6F9A               	movwf	(___fladd@b+3)& (0+255),b
  2854                           
  2855                           ; BSR set to: 0
  2856  00078E  519E               	movf	(___fladd@a+3)& (0+255),w,b
  2857  000790  0B80               	andlw	128
  2858  000792  6FA4               	movwf	___fladd@aexp& (0+255),b
  2859                           
  2860                           ; BSR set to: 0
  2861  000794  51A3               	movf	___fladd@signs& (0+255),w,b
  2862  000796  19A4               	xorwf	___fladd@aexp& (0+255),w,b
  2863  000798  A4D8               	btfss	status,2,c
  2864                           
  2865                           ; BSR set to: 0
  2866  00079A  8DA3               	bsf	___fladd@signs& (0+255),6,b
  2867                           
  2868                           ; BSR set to: 0
  2869  00079C  519E               	movf	(___fladd@a+3)& (0+255),w,b
  2870  00079E  259E               	addwf	(___fladd@a+3)& (0+255),w,b
  2871  0007A0  6FA4               	movwf	___fladd@aexp& (0+255),b
  2872                           
  2873                           ; BSR set to: 0
  2874  0007A2  BF9D               	btfsc	(___fladd@a+2)& (0+255),7,b
  2875                           
  2876                           ; BSR set to: 0
  2877  0007A4  81A4               	bsf	___fladd@aexp& (0+255),0,b
  2878                           
  2879                           ; BSR set to: 0
  2880  0007A6  51A4               	movf	___fladd@aexp& (0+255),w,b
  2881  0007A8  B4D8               	btfsc	status,2,c
  2882  0007AA  D00D               	goto	l3759
  2883                           
  2884                           ; BSR set to: 0
  2885  0007AC  29A4               	incf	___fladd@aexp& (0+255),w,b
  2886  0007AE  A4D8               	btfss	status,2,c
  2887  0007B0  D008               	goto	l3755
  2888                           
  2889                           ; BSR set to: 0
  2890  0007B2  0E00               	movlw	0
  2891  0007B4  6F9B               	movwf	___fladd@a& (0+255),b
  2892  0007B6  0E00               	movlw	0
  2893  0007B8  6F9C               	movwf	(___fladd@a+1)& (0+255),b
  2894  0007BA  0E00               	movlw	0
  2895  0007BC  6F9D               	movwf	(___fladd@a+2)& (0+255),b
  2896  0007BE  0E00               	movlw	0
  2897  0007C0  6F9E               	movwf	(___fladd@a+3)& (0+255),b
  2898  0007C2                     l3755:
  2899                           
  2900                           ; BSR set to: 0
  2901  0007C2  8F9D               	bsf	(___fladd@a+2)& (0+255),7,b
  2902  0007C4  D006               	goto	L3
  2903  0007C6                     l3759:
  2904                           
  2905                           ; BSR set to: 0
  2906  0007C6  0E00               	movlw	0
  2907  0007C8  6F9B               	movwf	___fladd@a& (0+255),b
  2908  0007CA  0E00               	movlw	0
  2909  0007CC  6F9C               	movwf	(___fladd@a+1)& (0+255),b
  2910  0007CE  0E00               	movlw	0
  2911  0007D0  6F9D               	movwf	(___fladd@a+2)& (0+255),b
  2912  0007D2                     L3:
  2913  0007D2  0E00               	movlw	0
  2914  0007D4  6F9E               	movwf	(___fladd@a+3)& (0+255),b
  2915                           
  2916                           ; BSR set to: 0
  2917  0007D6  51A5               	movf	___fladd@bexp& (0+255),w,b
  2918  0007D8  5DA4               	subwf	___fladd@aexp& (0+255),w,b
  2919  0007DA  B0D8               	btfsc	status,0,c
  2920  0007DC  D022               	goto	l3797
  2921                           
  2922                           ; BSR set to: 0
  2923  0007DE  ADA3               	btfss	___fladd@signs& (0+255),6,b
  2924  0007E0  D002               	goto	l3767
  2925                           
  2926                           ; BSR set to: 0
  2927  0007E2  0E80               	movlw	128
  2928  0007E4  1BA3               	xorwf	___fladd@signs& (0+255),f,b
  2929  0007E6                     l3767:
  2930                           
  2931                           ; BSR set to: 0
  2932  0007E6  C0A5  F0A6         	movff	___fladd@bexp,___fladd@grs
  2933                           
  2934                           ; BSR set to: 0
  2935  0007EA  C0A4  F0A5         	movff	___fladd@aexp,___fladd@bexp
  2936                           
  2937                           ; BSR set to: 0
  2938  0007EE  C0A6  F0A4         	movff	___fladd@grs,___fladd@aexp
  2939                           
  2940                           ; BSR set to: 0
  2941  0007F2  C097  F0A6         	movff	___fladd@b,___fladd@grs
  2942                           
  2943                           ; BSR set to: 0
  2944  0007F6  C09B  F097         	movff	___fladd@a,___fladd@b
  2945                           
  2946                           ; BSR set to: 0
  2947  0007FA  C0A6  F09B         	movff	___fladd@grs,___fladd@a
  2948                           
  2949                           ; BSR set to: 0
  2950  0007FE  C098  F0A6         	movff	___fladd@b+1,___fladd@grs
  2951                           
  2952                           ; BSR set to: 0
  2953  000802  C09C  F098         	movff	___fladd@a+1,___fladd@b+1
  2954                           
  2955                           ; BSR set to: 0
  2956  000806  C0A6  F09C         	movff	___fladd@grs,___fladd@a+1
  2957                           
  2958                           ; BSR set to: 0
  2959  00080A  C099  F0A6         	movff	___fladd@b+2,___fladd@grs
  2960                           
  2961                           ; BSR set to: 0
  2962  00080E  C09D  F099         	movff	___fladd@a+2,___fladd@b+2
  2963                           
  2964                           ; BSR set to: 0
  2965  000812  C0A6  F09D         	movff	___fladd@grs,___fladd@a+2
  2966                           
  2967                           ; BSR set to: 0
  2968  000816  C09A  F0A6         	movff	___fladd@b+3,___fladd@grs
  2969                           
  2970                           ; BSR set to: 0
  2971  00081A  C09E  F09A         	movff	___fladd@a+3,___fladd@b+3
  2972                           
  2973                           ; BSR set to: 0
  2974  00081E  C0A6  F09E         	movff	___fladd@grs,___fladd@a+3
  2975  000822                     l3797:
  2976                           
  2977                           ; BSR set to: 0
  2978  000822  0E00               	movlw	0
  2979  000824  6FA6               	movwf	___fladd@grs& (0+255),b
  2980                           
  2981                           ; BSR set to: 0
  2982  000826  51A5               	movf	___fladd@bexp& (0+255),w,b
  2983  000828  C0A4  F09F         	movff	___fladd@aexp,??___fladd
  2984  00082C  6BA0               	clrf	(??___fladd+1)& (0+255),b
  2985  00082E  5F9F               	subwf	??___fladd& (0+255),f,b
  2986  000830  0E00               	movlw	0
  2987  000832  5BA0               	subwfb	(??___fladd+1)& (0+255),f,b
  2988  000834  BFA0               	btfsc	(??___fladd+1)& (0+255),7,b
  2989  000836  D02C               	goto	l1525
  2990  000838  51A0               	movf	(??___fladd+1)& (0+255),w,b
  2991  00083A  E104               	bnz	u2310
  2992  00083C  0E1A               	movlw	26
  2993  00083E  5D9F               	subwf	??___fladd& (0+255),w,b
  2994  000840  A0D8               	btfss	status,0,c
  2995  000842  D026               	goto	l1525
  2996  000844                     u2310:
  2997                           
  2998                           ; BSR set to: 0
  2999  000844  5197               	movf	___fladd@b& (0+255),w,b
  3000  000846  1198               	iorwf	(___fladd@b+1)& (0+255),w,b
  3001  000848  1199               	iorwf	(___fladd@b+2)& (0+255),w,b
  3002  00084A  119A               	iorwf	(___fladd@b+3)& (0+255),w,b
  3003  00084C  B4D8               	btfsc	status,2,c
  3004  00084E  D002               	goto	u2320
  3005  000850  0E01               	movlw	1
  3006  000852  D001               	goto	u2330
  3007  000854                     u2320:
  3008  000854  0E00               	movlw	0
  3009  000856                     u2330:
  3010  000856  6FA6               	movwf	___fladd@grs& (0+255),b
  3011                           
  3012                           ; BSR set to: 0
  3013  000858  0E00               	movlw	0
  3014  00085A  6F97               	movwf	___fladd@b& (0+255),b
  3015  00085C  0E00               	movlw	0
  3016  00085E  6F98               	movwf	(___fladd@b+1)& (0+255),b
  3017  000860  0E00               	movlw	0
  3018  000862  6F99               	movwf	(___fladd@b+2)& (0+255),b
  3019  000864  0E00               	movlw	0
  3020  000866  6F9A               	movwf	(___fladd@b+3)& (0+255),b
  3021                           
  3022                           ; BSR set to: 0
  3023  000868  C0A4  F0A5         	movff	___fladd@aexp,___fladd@bexp
  3024  00086C  D015               	goto	u2360
  3025  00086E                     l1526:
  3026                           
  3027                           ; BSR set to: 0
  3028  00086E  A1A6               	btfss	___fladd@grs& (0+255),0,b
  3029  000870  D005               	goto	l3809
  3030                           
  3031                           ; BSR set to: 0
  3032  000872  90D8               	bcf	status,0,c
  3033  000874  31A6               	rrcf	___fladd@grs& (0+255),w,b
  3034  000876  0901               	iorlw	1
  3035  000878  6FA6               	movwf	___fladd@grs& (0+255),b
  3036  00087A  D002               	goto	l3811
  3037  00087C                     l3809:
  3038                           
  3039                           ; BSR set to: 0
  3040  00087C  90D8               	bcf	status,0,c
  3041  00087E  33A6               	rrcf	___fladd@grs& (0+255),f,b
  3042  000880                     l3811:
  3043                           
  3044                           ; BSR set to: 0
  3045  000880  B197               	btfsc	___fladd@b& (0+255),0,b
  3046                           
  3047                           ; BSR set to: 0
  3048  000882  8FA6               	bsf	___fladd@grs& (0+255),7,b
  3049                           
  3050                           ; BSR set to: 0
  3051  000884  359A               	rlcf	(___fladd@b+3)& (0+255),w,b
  3052  000886  339A               	rrcf	(___fladd@b+3)& (0+255),f,b
  3053  000888  3399               	rrcf	(___fladd@b+2)& (0+255),f,b
  3054  00088A  3398               	rrcf	(___fladd@b+1)& (0+255),f,b
  3055  00088C  3397               	rrcf	___fladd@b& (0+255),f,b
  3056                           
  3057                           ; BSR set to: 0
  3058  00088E  2BA5               	incf	___fladd@bexp& (0+255),f,b
  3059  000890                     l1525:
  3060                           
  3061                           ; BSR set to: 0
  3062  000890  51A4               	movf	___fladd@aexp& (0+255),w,b
  3063  000892  5DA5               	subwf	___fladd@bexp& (0+255),w,b
  3064  000894  A0D8               	btfss	status,0,c
  3065  000896  D7EB               	goto	l1526
  3066  000898                     u2360:
  3067                           
  3068                           ; BSR set to: 0
  3069  000898  BDA3               	btfsc	___fladd@signs& (0+255),6,b
  3070  00089A  D028               	goto	l3843
  3071                           
  3072                           ; BSR set to: 0
  3073  00089C  51A5               	movf	___fladd@bexp& (0+255),w,b
  3074  00089E  A4D8               	btfss	status,2,c
  3075  0008A0  D009               	goto	l3825
  3076                           
  3077                           ; BSR set to: 0
  3078  0008A2  0E00               	movlw	0
  3079  0008A4  6F97               	movwf	?___fladd& (0+255),b
  3080  0008A6  0E00               	movlw	0
  3081  0008A8  6F98               	movwf	(?___fladd+1)& (0+255),b
  3082  0008AA  0E00               	movlw	0
  3083  0008AC  6F99               	movwf	(?___fladd+2)& (0+255),b
  3084  0008AE  0E00               	movlw	0
  3085  0008B0  6F9A               	movwf	(?___fladd+3)& (0+255),b
  3086  0008B2  0012               	return	
  3087  0008B4                     l3825:
  3088                           
  3089                           ; BSR set to: 0
  3090  0008B4  519B               	movf	___fladd@a& (0+255),w,b
  3091  0008B6  2797               	addwf	___fladd@b& (0+255),f,b
  3092  0008B8  519C               	movf	(___fladd@a+1)& (0+255),w,b
  3093  0008BA  2398               	addwfc	(___fladd@b+1)& (0+255),f,b
  3094  0008BC  519D               	movf	(___fladd@a+2)& (0+255),w,b
  3095  0008BE  2399               	addwfc	(___fladd@b+2)& (0+255),f,b
  3096  0008C0  519E               	movf	(___fladd@a+3)& (0+255),w,b
  3097  0008C2  239A               	addwfc	(___fladd@b+3)& (0+255),f,b
  3098                           
  3099                           ; BSR set to: 0
  3100  0008C4  A19A               	btfss	(___fladd@b+3)& (0+255),0,b
  3101  0008C6  D071               	goto	u2490
  3102                           
  3103                           ; BSR set to: 0
  3104  0008C8  A1A6               	btfss	___fladd@grs& (0+255),0,b
  3105  0008CA  D005               	goto	l3833
  3106                           
  3107                           ; BSR set to: 0
  3108  0008CC  90D8               	bcf	status,0,c
  3109  0008CE  31A6               	rrcf	___fladd@grs& (0+255),w,b
  3110  0008D0  0901               	iorlw	1
  3111  0008D2  6FA6               	movwf	___fladd@grs& (0+255),b
  3112  0008D4  D002               	goto	l3835
  3113  0008D6                     l3833:
  3114                           
  3115                           ; BSR set to: 0
  3116  0008D6  90D8               	bcf	status,0,c
  3117  0008D8  33A6               	rrcf	___fladd@grs& (0+255),f,b
  3118  0008DA                     l3835:
  3119                           
  3120                           ; BSR set to: 0
  3121  0008DA  B197               	btfsc	___fladd@b& (0+255),0,b
  3122                           
  3123                           ; BSR set to: 0
  3124  0008DC  8FA6               	bsf	___fladd@grs& (0+255),7,b
  3125                           
  3126                           ; BSR set to: 0
  3127  0008DE  359A               	rlcf	(___fladd@b+3)& (0+255),w,b
  3128  0008E0  339A               	rrcf	(___fladd@b+3)& (0+255),f,b
  3129  0008E2  3399               	rrcf	(___fladd@b+2)& (0+255),f,b
  3130  0008E4  3398               	rrcf	(___fladd@b+1)& (0+255),f,b
  3131  0008E6  3397               	rrcf	___fladd@b& (0+255),f,b
  3132                           
  3133                           ; BSR set to: 0
  3134  0008E8  2BA5               	incf	___fladd@bexp& (0+255),f,b
  3135  0008EA  D05F               	goto	u2490
  3136  0008EC                     l3843:
  3137                           
  3138                           ; BSR set to: 0
  3139  0008EC  519B               	movf	___fladd@a& (0+255),w,b
  3140  0008EE  5D97               	subwf	___fladd@b& (0+255),w,b
  3141  0008F0  519C               	movf	(___fladd@a+1)& (0+255),w,b
  3142  0008F2  5998               	subwfb	(___fladd@b+1)& (0+255),w,b
  3143  0008F4  519D               	movf	(___fladd@a+2)& (0+255),w,b
  3144  0008F6  5999               	subwfb	(___fladd@b+2)& (0+255),w,b
  3145  0008F8  519A               	movf	(___fladd@b+3)& (0+255),w,b
  3146  0008FA  0A80               	xorlw	128
  3147  0008FC  6F9F               	movwf	??___fladd& (0+255),b
  3148  0008FE  519E               	movf	(___fladd@a+3)& (0+255),w,b
  3149  000900  0A80               	xorlw	128
  3150  000902  599F               	subwfb	??___fladd& (0+255),w,b
  3151  000904  B0D8               	btfsc	status,0,c
  3152  000906  D025               	goto	l3853
  3153                           
  3154                           ; BSR set to: 0
  3155  000908  5197               	movf	___fladd@b& (0+255),w,b
  3156  00090A  5D9B               	subwf	___fladd@a& (0+255),w,b
  3157  00090C  6F9F               	movwf	??___fladd& (0+255),b
  3158  00090E  5198               	movf	(___fladd@b+1)& (0+255),w,b
  3159  000910  599C               	subwfb	(___fladd@a+1)& (0+255),w,b
  3160  000912  6FA0               	movwf	(??___fladd+1)& (0+255),b
  3161  000914  5199               	movf	(___fladd@b+2)& (0+255),w,b
  3162  000916  599D               	subwfb	(___fladd@a+2)& (0+255),w,b
  3163  000918  6FA1               	movwf	(??___fladd+2)& (0+255),b
  3164  00091A  519A               	movf	(___fladd@b+3)& (0+255),w,b
  3165  00091C  599E               	subwfb	(___fladd@a+3)& (0+255),w,b
  3166  00091E  6FA2               	movwf	(??___fladd+3)& (0+255),b
  3167  000920  0EFF               	movlw	255
  3168  000922  259F               	addwf	??___fladd& (0+255),w,b
  3169  000924  6F97               	movwf	___fladd@b& (0+255),b
  3170  000926  0EFF               	movlw	255
  3171  000928  21A0               	addwfc	(??___fladd+1)& (0+255),w,b
  3172  00092A  6F98               	movwf	(___fladd@b+1)& (0+255),b
  3173  00092C  0EFF               	movlw	255
  3174  00092E  21A1               	addwfc	(??___fladd+2)& (0+255),w,b
  3175  000930  6F99               	movwf	(___fladd@b+2)& (0+255),b
  3176  000932  0EFF               	movlw	255
  3177  000934  21A2               	addwfc	(??___fladd+3)& (0+255),w,b
  3178  000936  6F9A               	movwf	(___fladd@b+3)& (0+255),b
  3179  000938  0E80               	movlw	128
  3180  00093A  1BA3               	xorwf	___fladd@signs& (0+255),f,b
  3181                           
  3182                           ; BSR set to: 0
  3183  00093C  6DA6               	negf	___fladd@grs& (0+255),b
  3184                           
  3185                           ; BSR set to: 0
  3186  00093E  51A6               	movf	___fladd@grs& (0+255),w,b
  3187  000940  A4D8               	btfss	status,2,c
  3188  000942  D00F               	goto	l1541
  3189                           
  3190                           ; BSR set to: 0
  3191  000944  0E01               	movlw	1
  3192  000946  2797               	addwf	___fladd@b& (0+255),f,b
  3193  000948  0E00               	movlw	0
  3194  00094A  2398               	addwfc	(___fladd@b+1)& (0+255),f,b
  3195  00094C  2399               	addwfc	(___fladd@b+2)& (0+255),f,b
  3196  00094E  239A               	addwfc	(___fladd@b+3)& (0+255),f,b
  3197  000950  D008               	goto	l1541
  3198  000952                     l3853:
  3199                           
  3200                           ; BSR set to: 0
  3201  000952  519B               	movf	___fladd@a& (0+255),w,b
  3202  000954  5F97               	subwf	___fladd@b& (0+255),f,b
  3203  000956  519C               	movf	(___fladd@a+1)& (0+255),w,b
  3204  000958  5B98               	subwfb	(___fladd@b+1)& (0+255),f,b
  3205  00095A  519D               	movf	(___fladd@a+2)& (0+255),w,b
  3206  00095C  5B99               	subwfb	(___fladd@b+2)& (0+255),f,b
  3207  00095E  519E               	movf	(___fladd@a+3)& (0+255),w,b
  3208  000960  5B9A               	subwfb	(___fladd@b+3)& (0+255),f,b
  3209  000962                     l1541:
  3210                           
  3211                           ; BSR set to: 0
  3212  000962  5197               	movf	___fladd@b& (0+255),w,b
  3213  000964  1198               	iorwf	(___fladd@b+1)& (0+255),w,b
  3214  000966  1199               	iorwf	(___fladd@b+2)& (0+255),w,b
  3215  000968  119A               	iorwf	(___fladd@b+3)& (0+255),w,b
  3216  00096A  A4D8               	btfss	status,2,c
  3217  00096C  D01C               	goto	l3877
  3218                           
  3219                           ; BSR set to: 0
  3220  00096E  51A6               	movf	___fladd@grs& (0+255),w,b
  3221  000970  A4D8               	btfss	status,2,c
  3222  000972  D019               	goto	l3877
  3223                           
  3224                           ; BSR set to: 0
  3225  000974  0E00               	movlw	0
  3226  000976  6F97               	movwf	?___fladd& (0+255),b
  3227  000978  0E00               	movlw	0
  3228  00097A  6F98               	movwf	(?___fladd+1)& (0+255),b
  3229  00097C  0E00               	movlw	0
  3230  00097E  6F99               	movwf	(?___fladd+2)& (0+255),b
  3231  000980  0E00               	movlw	0
  3232  000982  6F9A               	movwf	(?___fladd+3)& (0+255),b
  3233  000984  0012               	return	
  3234  000986                     l3861:
  3235                           
  3236                           ; BSR set to: 0
  3237  000986  90D8               	bcf	status,0,c
  3238  000988  3797               	rlcf	___fladd@b& (0+255),f,b
  3239  00098A  3798               	rlcf	(___fladd@b+1)& (0+255),f,b
  3240  00098C  3799               	rlcf	(___fladd@b+2)& (0+255),f,b
  3241  00098E  379A               	rlcf	(___fladd@b+3)& (0+255),f,b
  3242                           
  3243                           ; BSR set to: 0
  3244  000990  BFA6               	btfsc	___fladd@grs& (0+255),7,b
  3245                           
  3246                           ; BSR set to: 0
  3247  000992  8197               	bsf	___fladd@b& (0+255),0,b
  3248                           
  3249                           ; BSR set to: 0
  3250  000994  A1A6               	btfss	___fladd@grs& (0+255),0,b
  3251  000996  D002               	goto	l3871
  3252                           
  3253                           ; BSR set to: 0
  3254  000998  80D8               	bsf	status,0,c
  3255  00099A  D001               	goto	L4
  3256  00099C                     l3871:
  3257                           
  3258                           ; BSR set to: 0
  3259  00099C  90D8               	bcf	status,0,c
  3260  00099E                     L4:
  3261  00099E  37A6               	rlcf	___fladd@grs& (0+255),f,b
  3262                           
  3263                           ; BSR set to: 0
  3264  0009A0  51A5               	movf	___fladd@bexp& (0+255),w,b
  3265  0009A2  A4D8               	btfss	status,2,c
  3266                           
  3267                           ; BSR set to: 0
  3268  0009A4  07A5               	decf	___fladd@bexp& (0+255),f,b
  3269  0009A6                     l3877:
  3270                           
  3271                           ; BSR set to: 0
  3272  0009A6  AF99               	btfss	(___fladd@b+2)& (0+255),7,b
  3273  0009A8  D7EE               	goto	l3861
  3274  0009AA                     u2490:
  3275                           
  3276                           ; BSR set to: 0
  3277  0009AA  0E00               	movlw	0
  3278  0009AC  6FA4               	movwf	___fladd@aexp& (0+255),b
  3279                           
  3280                           ; BSR set to: 0
  3281  0009AE  AFA6               	btfss	___fladd@grs& (0+255),7,b
  3282  0009B0  D00B               	goto	l1550
  3283                           
  3284                           ; BSR set to: 0
  3285  0009B2  C0A6  F09F         	movff	___fladd@grs,??___fladd
  3286  0009B6  0E7F               	movlw	127
  3287  0009B8  179F               	andwf	??___fladd& (0+255),f,b
  3288  0009BA  B4D8               	btfsc	status,2,c
  3289  0009BC  D003               	goto	l1551
  3290  0009BE                     u2510:
  3291                           
  3292                           ; BSR set to: 0
  3293  0009BE  0E01               	movlw	1
  3294  0009C0  6FA4               	movwf	___fladd@aexp& (0+255),b
  3295  0009C2  D002               	goto	l1550
  3296  0009C4                     l1551:
  3297                           
  3298                           ; BSR set to: 0
  3299  0009C4  B197               	btfsc	___fladd@b& (0+255),0,b
  3300  0009C6  D7FB               	goto	u2510
  3301  0009C8                     l1550:
  3302                           
  3303                           ; BSR set to: 0
  3304  0009C8  51A4               	movf	___fladd@aexp& (0+255),w,b
  3305  0009CA  B4D8               	btfsc	status,2,c
  3306  0009CC  D020               	goto	l3897
  3307                           
  3308                           ; BSR set to: 0
  3309  0009CE  0E01               	movlw	1
  3310  0009D0  2797               	addwf	___fladd@b& (0+255),f,b
  3311  0009D2  0E00               	movlw	0
  3312  0009D4  2398               	addwfc	(___fladd@b+1)& (0+255),f,b
  3313  0009D6  2399               	addwfc	(___fladd@b+2)& (0+255),f,b
  3314  0009D8  239A               	addwfc	(___fladd@b+3)& (0+255),f,b
  3315                           
  3316                           ; BSR set to: 0
  3317  0009DA  A19A               	btfss	(___fladd@b+3)& (0+255),0,b
  3318  0009DC  D018               	goto	l3897
  3319                           
  3320                           ; BSR set to: 0
  3321  0009DE  C097  F09F         	movff	___fladd@b,??___fladd
  3322  0009E2  C098  F0A0         	movff	___fladd@b+1,??___fladd+1
  3323  0009E6  C099  F0A1         	movff	___fladd@b+2,??___fladd+2
  3324  0009EA  C09A  F0A2         	movff	___fladd@b+3,??___fladd+3
  3325  0009EE  35A2               	rlcf	(??___fladd+3)& (0+255),w,b
  3326  0009F0  33A2               	rrcf	(??___fladd+3)& (0+255),f,b
  3327  0009F2  33A1               	rrcf	(??___fladd+2)& (0+255),f,b
  3328  0009F4  33A0               	rrcf	(??___fladd+1)& (0+255),f,b
  3329  0009F6  339F               	rrcf	??___fladd& (0+255),f,b
  3330  0009F8  C09F  F097         	movff	??___fladd,___fladd@b
  3331  0009FC  C0A0  F098         	movff	??___fladd+1,___fladd@b+1
  3332  000A00  C0A1  F099         	movff	??___fladd+2,___fladd@b+2
  3333  000A04  C0A2  F09A         	movff	??___fladd+3,___fladd@b+3
  3334  000A08  29A5               	incf	___fladd@bexp& (0+255),w,b
  3335  000A0A  A4D8               	btfss	status,2,c
  3336                           
  3337                           ; BSR set to: 0
  3338  000A0C  2BA5               	incf	___fladd@bexp& (0+255),f,b
  3339  000A0E                     l3897:
  3340                           
  3341                           ; BSR set to: 0
  3342  000A0E  29A5               	incf	___fladd@bexp& (0+255),w,b
  3343  000A10  B4D8               	btfsc	status,2,c
  3344  000A12  D003               	goto	u2570
  3345                           
  3346                           ; BSR set to: 0
  3347  000A14  51A5               	movf	___fladd@bexp& (0+255),w,b
  3348  000A16  A4D8               	btfss	status,2,c
  3349  000A18  D00D               	goto	l3905
  3350  000A1A                     u2570:
  3351                           
  3352                           ; BSR set to: 0
  3353  000A1A  0E00               	movlw	0
  3354  000A1C  6F97               	movwf	___fladd@b& (0+255),b
  3355  000A1E  0E00               	movlw	0
  3356  000A20  6F98               	movwf	(___fladd@b+1)& (0+255),b
  3357  000A22  0E00               	movlw	0
  3358  000A24  6F99               	movwf	(___fladd@b+2)& (0+255),b
  3359  000A26  0E00               	movlw	0
  3360  000A28  6F9A               	movwf	(___fladd@b+3)& (0+255),b
  3361  000A2A  51A5               	movf	___fladd@bexp& (0+255),w,b
  3362  000A2C  A4D8               	btfss	status,2,c
  3363  000A2E  D002               	goto	l3905
  3364                           
  3365                           ; BSR set to: 0
  3366  000A30  0E00               	movlw	0
  3367  000A32  6FA3               	movwf	___fladd@signs& (0+255),b
  3368  000A34                     l3905:
  3369                           
  3370                           ; BSR set to: 0
  3371  000A34  A1A5               	btfss	___fladd@bexp& (0+255),0,b
  3372  000A36  D002               	goto	l3909
  3373                           
  3374                           ; BSR set to: 0
  3375  000A38  8F99               	bsf	(___fladd@b+2)& (0+255),7,b
  3376  000A3A  D001               	goto	l3911
  3377  000A3C                     l3909:
  3378                           
  3379                           ; BSR set to: 0
  3380  000A3C  9F99               	bcf	(___fladd@b+2)& (0+255),7,b
  3381  000A3E                     l3911:
  3382                           
  3383                           ; BSR set to: 0
  3384  000A3E  90D8               	bcf	status,0,c
  3385  000A40  31A5               	rrcf	___fladd@bexp& (0+255),w,b
  3386  000A42  6F9A               	movwf	(___fladd@b+3)& (0+255),b
  3387                           
  3388                           ; BSR set to: 0
  3389  000A44  BFA3               	btfsc	___fladd@signs& (0+255),7,b
  3390                           
  3391                           ; BSR set to: 0
  3392  000A46  8F9A               	bsf	(___fladd@b+3)& (0+255),7,b
  3393                           
  3394                           ; BSR set to: 0
  3395  000A48  C097  F097         	movff	___fladd@b,?___fladd
  3396  000A4C  C098  F098         	movff	___fladd@b+1,?___fladd+1
  3397  000A50  C099  F099         	movff	___fladd@b+2,?___fladd+2
  3398  000A54  C09A  F09A         	movff	___fladd@b+3,?___fladd+3
  3399                           
  3400                           ; BSR set to: 0
  3401  000A58  0012               	return		;funcret
  3402  000A5A                     __end_of___fladd:
  3403                           	opt callstack 0
  3404                           
  3405 ;; *************** function _carcontrol_init *****************
  3406 ;; Defined at:
  3407 ;;		line 27 in file "car_ctrl.c"
  3408 ;; Parameters:    Size  Location     Type
  3409 ;;		None
  3410 ;; Auto vars:     Size  Location     Type
  3411 ;;		None
  3412 ;; Return value:  Size  Location     Type
  3413 ;;                  1    wreg      void 
  3414 ;; Registers used:
  3415 ;;		wreg, status,2, status,0, cstack
  3416 ;; Tracked objects:
  3417 ;;		On entry : 0/0
  3418 ;;		On exit  : 0/0
  3419 ;;		Unchanged: 0/0
  3420 ;; Data sizes:     COMRAM   BANK0   BANK1   BANK2   BANK3   BANK4   BANK5   BANK6   BANK7
  3421 ;;      Params:         0       0       0       0       0       0       0       0       0
  3422 ;;      Locals:         0       0       0       0       0       0       0       0       0
  3423 ;;      Temps:          0       0       0       0       0       0       0       0       0
  3424 ;;      Totals:         0       0       0       0       0       0       0       0       0
  3425 ;;Total ram usage:        0 bytes
  3426 ;; Hardware stack levels used:    1
  3427 ;; Hardware stack levels required when called:    9
  3428 ;; This function calls:
  3429 ;;		_TMR2_SetInterruptHandler
  3430 ;;		_carcontrol_steering
  3431 ;;		_carcontrol_throttle
  3432 ;; This function is called by:
  3433 ;;		_main
  3434 ;; This function uses a non-reentrant model
  3435 ;;
  3436                           
  3437                           	psect	text13
  3438  00173A                     __ptext13:
  3439                           	opt callstack 0
  3440  00173A                     _carcontrol_init:
  3441                           	opt callstack 21
  3442                           
  3443                           ;car_ctrl.c: 28:     carctl.state = state_unset;
  3444                           
  3445                           ; BSR set to: 0
  3446                           ;incstack = 0
  3447  00173A  0E00               	movlw	0
  3448  00173C  0100               	movlb	0	; () banked
  3449  00173E  6FBE               	movwf	(_carctl+1)& (0+255),b	;volatile
  3450                           
  3451                           ; BSR set to: 0
  3452                           ;car_ctrl.c: 29:     carcontrol_throttle(0);
  3453  001740  0E00               	movlw	0
  3454  001742  EC63  F00D         	call	_carcontrol_throttle
  3455                           
  3456                           ;car_ctrl.c: 30:     carcontrol_steering(0);
  3457  001746  0E00               	movlw	0
  3458  001748  EC01  F00C         	call	_carcontrol_steering
  3459                           
  3460                           ;car_ctrl.c: 31:     carctl.servoHighTime = 50;
  3461  00174C  0E32               	movlw	50
  3462  00174E  0100               	movlb	0	; () banked
  3463  001750  6FC2               	movwf	(_carctl+5)& (0+255),b	;volatile
  3464                           
  3465                           ; BSR set to: 0
  3466                           ;car_ctrl.c: 33:     TMR2_SetInterruptHandler(carcontrol_ISR);
  3467  001752  0E44               	movlw	low _carcontrol_ISR
  3468  001754  6F60               	movwf	TMR2_SetInterruptHandler@InterruptHandler& (0+255),b
  3469  001756  0E0F               	movlw	high _carcontrol_ISR
  3470  001758  6F61               	movwf	(TMR2_SetInterruptHandler@InterruptHandler+1)& (0+255),b
  3471  00175A  EC90  F00D         	call	_TMR2_SetInterruptHandler	;wreg free
  3472                           
  3473                           ;car_ctrl.c: 34:     stateTime = 0;
  3474  00175E  0E00               	movlw	0
  3475  001760  0100               	movlb	0	; () banked
  3476  001762  6FCC               	movwf	(_stateTime+1)& (0+255),b
  3477  001764  0E00               	movlw	0
  3478  001766  6FCB               	movwf	_stateTime& (0+255),b
  3479                           
  3480                           ; BSR set to: 0
  3481                           ;car_ctrl.c: 35:     carctl.initialized = 1;
  3482  001768  0E01               	movlw	1
  3483  00176A  6FBD               	movwf	_carctl& (0+255),b	;volatile
  3484                           
  3485                           ; BSR set to: 0
  3486  00176C  0012               	return		;funcret
  3487  00176E                     __end_of_carcontrol_init:
  3488                           	opt callstack 0
  3489                           
  3490 ;; *************** function _carcontrol_throttle *****************
  3491 ;; Defined at:
  3492 ;;		line 118 in file "car_ctrl.c"
  3493 ;; Parameters:    Size  Location     Type
  3494 ;;  throttle        1    wreg     unsigned char 
  3495 ;; Auto vars:     Size  Location     Type
  3496 ;;  throttle        1    0[BANK0 ] unsigned char 
  3497 ;; Return value:  Size  Location     Type
  3498 ;;                  1    wreg      void 
  3499 ;; Registers used:
  3500 ;;		wreg, status,2, status,0
  3501 ;; Tracked objects:
  3502 ;;		On entry : 0/0
  3503 ;;		On exit  : 0/0
  3504 ;;		Unchanged: 0/0
  3505 ;; Data sizes:     COMRAM   BANK0   BANK1   BANK2   BANK3   BANK4   BANK5   BANK6   BANK7
  3506 ;;      Params:         0       0       0       0       0       0       0       0       0
  3507 ;;      Locals:         0       1       0       0       0       0       0       0       0
  3508 ;;      Temps:          0       0       0       0       0       0       0       0       0
  3509 ;;      Totals:         0       1       0       0       0       0       0       0       0
  3510 ;;Total ram usage:        1 bytes
  3511 ;; Hardware stack levels used:    1
  3512 ;; Hardware stack levels required when called:    8
  3513 ;; This function calls:
  3514 ;;		Nothing
  3515 ;; This function is called by:
  3516 ;;		_main
  3517 ;;		_carcontrol_init
  3518 ;; This function uses a non-reentrant model
  3519 ;;
  3520                           
  3521                           	psect	text14
  3522  001AC6                     __ptext14:
  3523                           	opt callstack 0
  3524  001AC6                     _carcontrol_throttle:
  3525                           	opt callstack 22
  3526                           
  3527                           ; BSR set to: 0
  3528                           ;incstack = 0
  3529                           ;carcontrol_throttle@throttle stored from wreg
  3530  001AC6  0100               	movlb	0	; () banked
  3531  001AC8  6F60               	movwf	carcontrol_throttle@throttle& (0+255),b
  3532                           
  3533                           ;car_ctrl.c: 120:     if (throttle > 100) throttle = 100;
  3534  001ACA  0E64               	movlw	100
  3535  001ACC  0100               	movlb	0	; () banked
  3536  001ACE  6560               	cpfsgt	carcontrol_throttle@throttle& (0+255),b
  3537  001AD0  D002               	goto	l3591
  3538                           
  3539                           ; BSR set to: 0
  3540  001AD2  0E64               	movlw	100
  3541  001AD4  6F60               	movwf	carcontrol_throttle@throttle& (0+255),b
  3542  001AD6                     l3591:
  3543                           
  3544                           ; BSR set to: 0
  3545                           ;car_ctrl.c: 121:     carctl.throttleHighTime = throttle;
  3546  001AD6  C060  F0C1         	movff	carcontrol_throttle@throttle,_carctl+4	;volatile
  3547                           
  3548                           ; BSR set to: 0
  3549  001ADA  0012               	return		;funcret
  3550  001ADC                     __end_of_carcontrol_throttle:
  3551                           	opt callstack 0
  3552                           
  3553 ;; *************** function _carcontrol_steering *****************
  3554 ;; Defined at:
  3555 ;;		line 93 in file "car_ctrl.c"
  3556 ;; Parameters:    Size  Location     Type
  3557 ;;  steering        1    wreg     char 
  3558 ;; Auto vars:     Size  Location     Type
  3559 ;;  steering        1    0[BANK0 ] char 
  3560 ;; Return value:  Size  Location     Type
  3561 ;;                  1    wreg      void 
  3562 ;; Registers used:
  3563 ;;		wreg, status,2, status,0
  3564 ;; Tracked objects:
  3565 ;;		On entry : 0/0
  3566 ;;		On exit  : 0/0
  3567 ;;		Unchanged: 0/0
  3568 ;; Data sizes:     COMRAM   BANK0   BANK1   BANK2   BANK3   BANK4   BANK5   BANK6   BANK7
  3569 ;;      Params:         0       0       0       0       0       0       0       0       0
  3570 ;;      Locals:         0       1       0       0       0       0       0       0       0
  3571 ;;      Temps:          0       0       0       0       0       0       0       0       0
  3572 ;;      Totals:         0       1       0       0       0       0       0       0       0
  3573 ;;Total ram usage:        1 bytes
  3574 ;; Hardware stack levels used:    1
  3575 ;; Hardware stack levels required when called:    8
  3576 ;; This function calls:
  3577 ;;		Nothing
  3578 ;; This function is called by:
  3579 ;;		_main
  3580 ;;		_carcontrol_init
  3581 ;; This function uses a non-reentrant model
  3582 ;;
  3583                           
  3584                           	psect	text15
  3585  001802                     __ptext15:
  3586                           	opt callstack 0
  3587  001802                     _carcontrol_steering:
  3588                           	opt callstack 22
  3589                           
  3590                           ; BSR set to: 0
  3591                           ;incstack = 0
  3592                           ;carcontrol_steering@steering stored from wreg
  3593  001802  0100               	movlb	0	; () banked
  3594  001804  6F60               	movwf	carcontrol_steering@steering& (0+255),b
  3595                           
  3596                           ;car_ctrl.c: 105:     steering = steering + servo_trim;
  3597  001806  0100               	movlb	0	; () banked
  3598  001808  5160               	movf	carcontrol_steering@steering& (0+255),w,b
  3599  00180A  0F11               	addlw	17
  3600  00180C  6F60               	movwf	carcontrol_steering@steering& (0+255),b
  3601                           
  3602                           ;car_ctrl.c: 108:     if (steering < servo_min) steering = servo_min;
  3603  00180E  5160               	movf	carcontrol_steering@steering& (0+255),w,b
  3604  001810  0A80               	xorlw	128
  3605  001812  0F99               	addlw	153
  3606  001814  B0D8               	btfsc	status,0,c
  3607  001816  D002               	goto	l3597
  3608                           
  3609                           ; BSR set to: 0
  3610  001818  0EE7               	movlw	231
  3611  00181A  6F60               	movwf	carcontrol_steering@steering& (0+255),b
  3612  00181C                     l3597:
  3613                           
  3614                           ; BSR set to: 0
  3615                           ;car_ctrl.c: 109:     if (steering > servo_max) steering = servo_max;
  3616  00181C  5160               	movf	carcontrol_steering@steering& (0+255),w,b
  3617  00181E  0A80               	xorlw	128
  3618  001820  0F75               	addlw	-139
  3619  001822  A0D8               	btfss	status,0,c
  3620  001824  D002               	goto	l3601
  3621                           
  3622                           ; BSR set to: 0
  3623  001826  0E0A               	movlw	10
  3624  001828  6F60               	movwf	carcontrol_steering@steering& (0+255),b
  3625  00182A                     l3601:
  3626                           
  3627                           ; BSR set to: 0
  3628                           ;car_ctrl.c: 111:     carctl.servoHighTime = steering + 50;
  3629  00182A  5160               	movf	carcontrol_steering@steering& (0+255),w,b
  3630  00182C  0F32               	addlw	50
  3631  00182E  6FC2               	movwf	(_carctl+5)& (0+255),b	;volatile
  3632                           
  3633                           ; BSR set to: 0
  3634  001830  0012               	return		;funcret
  3635  001832                     __end_of_carcontrol_steering:
  3636                           	opt callstack 0
  3637                           
  3638 ;; *************** function _cam_start *****************
  3639 ;; Defined at:
  3640 ;;		line 118 in file "cam.c"
  3641 ;; Parameters:    Size  Location     Type
  3642 ;;		None
  3643 ;; Auto vars:     Size  Location     Type
  3644 ;;		None
  3645 ;; Return value:  Size  Location     Type
  3646 ;;                  1    wreg      void 
  3647 ;; Registers used:
  3648 ;;		wreg, fsr2l, fsr2h, status,2, status,0, cstack
  3649 ;; Tracked objects:
  3650 ;;		On entry : 0/0
  3651 ;;		On exit  : 0/0
  3652 ;;		Unchanged: 0/0
  3653 ;; Data sizes:     COMRAM   BANK0   BANK1   BANK2   BANK3   BANK4   BANK5   BANK6   BANK7
  3654 ;;      Params:         0       0       0       0       0       0       0       0       0
  3655 ;;      Locals:         0       0       0       0       0       0       0       0       0
  3656 ;;      Temps:          0       1       0       0       0       0       0       0       0
  3657 ;;      Totals:         0       1       0       0       0       0       0       0       0
  3658 ;;Total ram usage:        1 bytes
  3659 ;; Hardware stack levels used:    1
  3660 ;; Hardware stack levels required when called:    9
  3661 ;; This function calls:
  3662 ;;		_TMR3_SetInterruptHandler
  3663 ;;		_TMR3_StartTimer
  3664 ;;		_TMR3_WriteTimer
  3665 ;; This function is called by:
  3666 ;;		_main
  3667 ;;		_TMR3_ISR
  3668 ;; This function uses a non-reentrant model
  3669 ;;
  3670                           
  3671                           	psect	text16
  3672  0012FC                     __ptext16:
  3673                           	opt callstack 0
  3674  0012FC                     _cam_start:
  3675                           	opt callstack 0
  3676                           
  3677                           ; BSR set to: 0
  3678                           ;Skip over the trampoline to the duplicate function for level 1
  3679  0012FC  B057               	btfsc	btemp,0,c
  3680  0012FE  EF54  F00A         	goto	i1_cam_start
  3681  001302                     _cam_start$intlevel0:
  3682                           	opt callstack 21
  3683                           
  3684                           ;cam.c: 120:     if (myCam.status == CAM_DONE){
  3685                           
  3686                           ;incstack = 0
  3687  001302  C286  FFE8         	movff	_myCam+257,wreg	;volatile
  3688  001306  0A02               	xorlw	2
  3689  001308  A4D8               	btfss	status,2,c
  3690  00130A  0012               	return	
  3691                           
  3692                           ;cam.c: 121:         myCam.status = CAM_START;
  3693  00130C  0E00               	movlw	0
  3694  00130E  CFE8 F286          	movff	wreg,_myCam+257	;volatile
  3695                           
  3696                           ;cam.c: 122:         myCam.index = 0;
  3697  001312  0E00               	movlw	0
  3698  001314  CFE8 F287          	movff	wreg,_myCam+258	;volatile
  3699  001318  0E00               	movlw	0
  3700  00131A  CFE8 F288          	movff	wreg,_myCam+259	;volatile
  3701                           
  3702                           ;cam.c: 123:         myCam.readFromFirst = !myCam.readFromFirst;
  3703  00131E  EE21  F085         	lfsr	2,_myCam
  3704  001322  50DF               	movf	indf2,w,c
  3705  001324  A4D8               	btfss	status,2,c
  3706  001326  D004               	goto	u3130
  3707  001328  0100               	movlb	0	; () banked
  3708  00132A  6B62               	clrf	??_cam_start& (0+255),b
  3709  00132C  2B62               	incf	??_cam_start& (0+255),f,b
  3710  00132E  D002               	goto	u3148
  3711  001330                     u3130:
  3712  001330  0100               	movlb	0	; () banked
  3713  001332  6B62               	clrf	??_cam_start& (0+255),b
  3714  001334                     u3148:
  3715  001334  C062  F185         	movff	??_cam_start,_myCam
  3716                           
  3717                           ; BSR set to: 0
  3718  001338  8483               	bsf	3971,2,c	;volatile
  3719                           
  3720                           ; BSR set to: 0
  3721                           ;cam.c: 125:         _delay((unsigned long)((3)*(64000000/4000000.0)));
  3722  00133A  0E10               	movlw	16
  3723  00133C                     u3437:
  3724  00133C  2EE8               	decfsz	wreg,f,c
  3725  00133E  D7FE               	bra	u3437
  3726  001340  8283               	bsf	3971,1,c	;volatile
  3727                           
  3728                           ;cam.c: 127:         TMR3_SetInterruptHandler(timer_ISR);
  3729  001342  0E6A               	movlw	low _timer_ISR
  3730  001344  0100               	movlb	0	; () banked
  3731  001346  6F60               	movwf	TMR3_SetInterruptHandler@InterruptHandler& (0+255),b
  3732  001348  0E13               	movlw	high _timer_ISR
  3733  00134A  6F61               	movwf	(TMR3_SetInterruptHandler@InterruptHandler+1)& (0+255),b
  3734  00134C  EC8B  F00D         	call	_TMR3_SetInterruptHandler	;wreg free
  3735                           
  3736                           ;cam.c: 128:         TMR3_WriteTimer(timing_val);
  3737  001350  C052  F060         	movff	_timing_val,TMR3_WriteTimer@timerVal
  3738  001354  C053  F061         	movff	_timing_val+1,TMR3_WriteTimer@timerVal+1
  3739  001358  ECFE  F00C         	call	_TMR3_WriteTimer	;wreg free
  3740                           
  3741                           ;cam.c: 129:         TMR3_StartTimer();
  3742  00135C  ECC7  F00D         	call	_TMR3_StartTimer	;wreg free
  3743                           
  3744                           ;cam.c: 130:         ADCON0bits.ADON = 1;
  3745  001360  010F               	movlb	15	; () banked
  3746  001362  8F5B               	bsf	91,7,b	;volatile
  3747                           
  3748                           ; BSR set to: 15
  3749                           ;cam.c: 131:         PIE1bits.ADIE = 0;
  3750  001364  010E               	movlb	14	; () banked
  3751  001366  91BE               	bcf	190,0,b	;volatile
  3752  001368  0012               	return		;funcret
  3753  00136A                     __end_of_cam_start:
  3754                           	opt callstack 0
  3755                           
  3756 ;; *************** function _TMR3_WriteTimer *****************
  3757 ;; Defined at:
  3758 ;;		line 127 in file "mcc_generated_files/tmr3.c"
  3759 ;; Parameters:    Size  Location     Type
  3760 ;;  timerVal        2    0[BANK0 ] unsigned short 
  3761 ;; Auto vars:     Size  Location     Type
  3762 ;;		None
  3763 ;; Return value:  Size  Location     Type
  3764 ;;                  1    wreg      void 
  3765 ;; Registers used:
  3766 ;;		wreg, status,2
  3767 ;; Tracked objects:
  3768 ;;		On entry : 0/0
  3769 ;;		On exit  : 0/0
  3770 ;;		Unchanged: 0/0
  3771 ;; Data sizes:     COMRAM   BANK0   BANK1   BANK2   BANK3   BANK4   BANK5   BANK6   BANK7
  3772 ;;      Params:         0       2       0       0       0       0       0       0       0
  3773 ;;      Locals:         0       0       0       0       0       0       0       0       0
  3774 ;;      Temps:          0       0       0       0       0       0       0       0       0
  3775 ;;      Totals:         0       2       0       0       0       0       0       0       0
  3776 ;;Total ram usage:        2 bytes
  3777 ;; Hardware stack levels used:    1
  3778 ;; Hardware stack levels required when called:    8
  3779 ;; This function calls:
  3780 ;;		Nothing
  3781 ;; This function is called by:
  3782 ;;		_cam_start
  3783 ;;		_TMR3_Reload
  3784 ;; This function uses a non-reentrant model
  3785 ;;
  3786                           
  3787                           	psect	text17
  3788  0019FC                     __ptext17:
  3789                           	opt callstack 0
  3790  0019FC                     _TMR3_WriteTimer:
  3791                           	opt callstack 21
  3792                           
  3793                           ;mcc_generated_files/tmr3.c: 127: void TMR3_WriteTimer(uint16_t timerVal);mcc_generated_
      +                          files/tmr3.c: 128: {;mcc_generated_files/tmr3.c: 129:     if (T3CONbits.nT3SYNC == 1)
  3794                           
  3795                           ;incstack = 0
  3796  0019FC  A4C8               	btfss	4040,2,c	;volatile
  3797  0019FE  D008               	goto	l3583
  3798                           
  3799                           ;mcc_generated_files/tmr3.c: 130:     {;mcc_generated_files/tmr3.c: 132:         T3CONbi
      +                          ts.TMR3ON = 0;
  3800  001A00  90C8               	bcf	4040,0,c	;volatile
  3801                           
  3802                           ;mcc_generated_files/tmr3.c: 135:         TMR3H = (timerVal >> 8);
  3803  001A02  0100               	movlb	0	; () banked
  3804  001A04  5161               	movf	(TMR3_WriteTimer@timerVal+1)& (0+255),w,b
  3805  001A06  6EC7               	movwf	4039,c	;volatile
  3806                           
  3807                           ; BSR set to: 0
  3808                           ;mcc_generated_files/tmr3.c: 136:         TMR3L = timerVal;
  3809  001A08  C060  FFC6         	movff	TMR3_WriteTimer@timerVal,4038	;volatile
  3810                           
  3811                           ; BSR set to: 0
  3812                           ;mcc_generated_files/tmr3.c: 139:         T3CONbits.TMR3ON =1;
  3813  001A0C  80C8               	bsf	4040,0,c	;volatile
  3814                           
  3815                           ;mcc_generated_files/tmr3.c: 140:     }
  3816  001A0E  0012               	return	
  3817  001A10                     l3583:
  3818                           
  3819                           ;mcc_generated_files/tmr3.c: 142:     {;mcc_generated_files/tmr3.c: 144:         TMR3H =
      +                           (timerVal >> 8);
  3820  001A10  0100               	movlb	0	; () banked
  3821  001A12  5161               	movf	(TMR3_WriteTimer@timerVal+1)& (0+255),w,b
  3822  001A14  6EC7               	movwf	4039,c	;volatile
  3823                           
  3824                           ; BSR set to: 0
  3825                           ;mcc_generated_files/tmr3.c: 145:         TMR3L = timerVal;
  3826  001A16  C060  FFC6         	movff	TMR3_WriteTimer@timerVal,4038	;volatile
  3827                           
  3828                           ; BSR set to: 0
  3829  001A1A  0012               	return		;funcret
  3830  001A1C                     __end_of_TMR3_WriteTimer:
  3831                           	opt callstack 0
  3832                           
  3833 ;; *************** function _TMR3_StartTimer *****************
  3834 ;; Defined at:
  3835 ;;		line 99 in file "mcc_generated_files/tmr3.c"
  3836 ;; Parameters:    Size  Location     Type
  3837 ;;		None
  3838 ;; Auto vars:     Size  Location     Type
  3839 ;;		None
  3840 ;; Return value:  Size  Location     Type
  3841 ;;                  1    wreg      void 
  3842 ;; Registers used:
  3843 ;;		None
  3844 ;; Tracked objects:
  3845 ;;		On entry : 0/0
  3846 ;;		On exit  : 0/0
  3847 ;;		Unchanged: 0/0
  3848 ;; Data sizes:     COMRAM   BANK0   BANK1   BANK2   BANK3   BANK4   BANK5   BANK6   BANK7
  3849 ;;      Params:         0       0       0       0       0       0       0       0       0
  3850 ;;      Locals:         0       0       0       0       0       0       0       0       0
  3851 ;;      Temps:          0       0       0       0       0       0       0       0       0
  3852 ;;      Totals:         0       0       0       0       0       0       0       0       0
  3853 ;;Total ram usage:        0 bytes
  3854 ;; Hardware stack levels used:    1
  3855 ;; Hardware stack levels required when called:    8
  3856 ;; This function calls:
  3857 ;;		Nothing
  3858 ;; This function is called by:
  3859 ;;		_cam_start
  3860 ;; This function uses a non-reentrant model
  3861 ;;
  3862                           
  3863                           	psect	text18
  3864  001B8E                     __ptext18:
  3865                           	opt callstack 0
  3866  001B8E                     _TMR3_StartTimer:
  3867                           	opt callstack 21
  3868                           
  3869                           ;mcc_generated_files/tmr3.c: 102:     T3CONbits.TMR3ON = 1;
  3870                           
  3871                           ; BSR set to: 0
  3872                           ;incstack = 0
  3873  001B8E  80C8               	bsf	4040,0,c	;volatile
  3874  001B90  0012               	return		;funcret
  3875  001B92                     __end_of_TMR3_StartTimer:
  3876                           	opt callstack 0
  3877                           
  3878 ;; *************** function _cam_init *****************
  3879 ;; Defined at:
  3880 ;;		line 103 in file "cam.c"
  3881 ;; Parameters:    Size  Location     Type
  3882 ;;		None
  3883 ;; Auto vars:     Size  Location     Type
  3884 ;;		None
  3885 ;; Return value:  Size  Location     Type
  3886 ;;                  1    wreg      void 
  3887 ;; Registers used:
  3888 ;;		wreg, status,2, status,0, cstack
  3889 ;; Tracked objects:
  3890 ;;		On entry : 0/0
  3891 ;;		On exit  : 0/0
  3892 ;;		Unchanged: 0/0
  3893 ;; Data sizes:     COMRAM   BANK0   BANK1   BANK2   BANK3   BANK4   BANK5   BANK6   BANK7
  3894 ;;      Params:         0       0       0       0       0       0       0       0       0
  3895 ;;      Locals:         0       0       0       0       0       0       0       0       0
  3896 ;;      Temps:          0       0       0       0       0       0       0       0       0
  3897 ;;      Totals:         0       0       0       0       0       0       0       0       0
  3898 ;;Total ram usage:        0 bytes
  3899 ;; Hardware stack levels used:    1
  3900 ;; Hardware stack levels required when called:    9
  3901 ;; This function calls:
  3902 ;;		_ADCC_SelectChannel
  3903 ;;		_ADCC_SetInterruptHandler
  3904 ;; This function is called by:
  3905 ;;		_main
  3906 ;; This function uses a non-reentrant model
  3907 ;;
  3908                           
  3909                           	psect	text19
  3910  001704                     __ptext19:
  3911                           	opt callstack 0
  3912  001704                     _cam_init:
  3913                           	opt callstack 21
  3914                           
  3915                           ;incstack = 0
  3916                           ;cam.c: 104:     do { LATBbits.LATB2 = 0; } while(0);
  3917  001704  9483               	bcf	3971,2,c	;volatile
  3918                           
  3919                           ;cam.c: 105:     do { LATBbits.LATB1 = 0; } while(0);
  3920  001706  9283               	bcf	3971,1,c	;volatile
  3921                           
  3922                           ;cam.c: 106:     do { TRISBbits.TRISB2 = 0; } while(0);
  3923  001708  9488               	bcf	3976,2,c	;volatile
  3924                           
  3925                           ;cam.c: 107:     do { TRISBbits.TRISB1 = 0; } while(0);
  3926  00170A  9288               	bcf	3976,1,c	;volatile
  3927                           
  3928                           ;cam.c: 108:     ADCC_SetInterruptHandler(adc_ready_ISR);
  3929  00170C  0EFC               	movlw	low _adc_ready_ISR
  3930  00170E  0100               	movlb	0	; () banked
  3931  001710  6F60               	movwf	ADCC_SetInterruptHandler@InterruptHandler& (0+255),b
  3932  001712  0E10               	movlw	high _adc_ready_ISR
  3933  001714  6F61               	movwf	(ADCC_SetInterruptHandler@InterruptHandler+1)& (0+255),b
  3934  001716  EC86  F00D         	call	_ADCC_SetInterruptHandler	;wreg free
  3935                           
  3936                           ;cam.c: 109:     ADCC_SelectChannel(CAM_A0,2);
  3937  00171A  0E02               	movlw	2
  3938  00171C  0100               	movlb	0	; () banked
  3939  00171E  6F60               	movwf	ADCC_SelectChannel@acquisitionDelay& (0+255),b
  3940  001720  0E0B               	movlw	11
  3941  001722  EC6E  F00D         	call	_ADCC_SelectChannel
  3942                           
  3943                           ;cam.c: 110:     myCam.index = 0;
  3944  001726  0E00               	movlw	0
  3945  001728  CFE8 F287          	movff	wreg,_myCam+258	;volatile
  3946  00172C  0E00               	movlw	0
  3947  00172E  CFE8 F288          	movff	wreg,_myCam+259	;volatile
  3948                           
  3949                           ;cam.c: 111:     myCam.status = CAM_DONE;
  3950  001732  0E02               	movlw	2
  3951  001734  CFE8 F286          	movff	wreg,_myCam+257	;volatile
  3952  001738  0012               	return		;funcret
  3953  00173A                     __end_of_cam_init:
  3954                           	opt callstack 0
  3955                           
  3956 ;; *************** function _ADCC_SetInterruptHandler *****************
  3957 ;; Defined at:
  3958 ;;		line 304 in file "mcc_generated_files/adcc.c"
  3959 ;; Parameters:    Size  Location     Type
  3960 ;;  InterruptHan    2    0[BANK0 ] PTR FTN()void 
  3961 ;;		 -> adc_ready_ISR(1), 
  3962 ;; Auto vars:     Size  Location     Type
  3963 ;;		None
  3964 ;; Return value:  Size  Location     Type
  3965 ;;                  1    wreg      void 
  3966 ;; Registers used:
  3967 ;;		wreg, status,2, status,0
  3968 ;; Tracked objects:
  3969 ;;		On entry : 0/0
  3970 ;;		On exit  : 0/0
  3971 ;;		Unchanged: 0/0
  3972 ;; Data sizes:     COMRAM   BANK0   BANK1   BANK2   BANK3   BANK4   BANK5   BANK6   BANK7
  3973 ;;      Params:         0       2       0       0       0       0       0       0       0
  3974 ;;      Locals:         0       0       0       0       0       0       0       0       0
  3975 ;;      Temps:          0       0       0       0       0       0       0       0       0
  3976 ;;      Totals:         0       2       0       0       0       0       0       0       0
  3977 ;;Total ram usage:        2 bytes
  3978 ;; Hardware stack levels used:    1
  3979 ;; Hardware stack levels required when called:    8
  3980 ;; This function calls:
  3981 ;;		Nothing
  3982 ;; This function is called by:
  3983 ;;		_cam_init
  3984 ;; This function uses a non-reentrant model
  3985 ;;
  3986                           
  3987                           	psect	text20
  3988  001B0C                     __ptext20:
  3989                           	opt callstack 0
  3990  001B0C                     _ADCC_SetInterruptHandler:
  3991                           	opt callstack 21
  3992                           
  3993                           ;mcc_generated_files/adcc.c: 304: void ADCC_SetInterruptHandler(void (*InterruptHandler)
      +                          (void));mcc_generated_files/adcc.c: 305: {;mcc_generated_files/adcc.c: 306:     ADCC_Int
      +                          erruptHandler = InterruptHandler;
  3994                           
  3995                           ;incstack = 0
  3996  001B0C  C060  F050         	movff	ADCC_SetInterruptHandler@InterruptHandler,_ADCC_InterruptHandler
  3997  001B10  C061  F051         	movff	ADCC_SetInterruptHandler@InterruptHandler+1,_ADCC_InterruptHandler+1
  3998  001B14  0012               	return		;funcret
  3999  001B16                     __end_of_ADCC_SetInterruptHandler:
  4000                           	opt callstack 0
  4001                           
  4002 ;; *************** function _ADCC_SelectChannel *****************
  4003 ;; Defined at:
  4004 ;;		line 115 in file "mcc_generated_files/adcc.c"
  4005 ;; Parameters:    Size  Location     Type
  4006 ;;  channel         1    wreg     enum E9316
  4007 ;;  acquisitionD    1    0[BANK0 ] unsigned char 
  4008 ;; Auto vars:     Size  Location     Type
  4009 ;;  channel         1    1[BANK0 ] enum E9316
  4010 ;; Return value:  Size  Location     Type
  4011 ;;                  1    wreg      void 
  4012 ;; Registers used:
  4013 ;;		wreg
  4014 ;; Tracked objects:
  4015 ;;		On entry : 0/0
  4016 ;;		On exit  : 0/0
  4017 ;;		Unchanged: 0/0
  4018 ;; Data sizes:     COMRAM   BANK0   BANK1   BANK2   BANK3   BANK4   BANK5   BANK6   BANK7
  4019 ;;      Params:         0       1       0       0       0       0       0       0       0
  4020 ;;      Locals:         0       1       0       0       0       0       0       0       0
  4021 ;;      Temps:          0       0       0       0       0       0       0       0       0
  4022 ;;      Totals:         0       2       0       0       0       0       0       0       0
  4023 ;;Total ram usage:        2 bytes
  4024 ;; Hardware stack levels used:    1
  4025 ;; Hardware stack levels required when called:    8
  4026 ;; This function calls:
  4027 ;;		Nothing
  4028 ;; This function is called by:
  4029 ;;		_cam_init
  4030 ;; This function uses a non-reentrant model
  4031 ;;
  4032                           
  4033                           	psect	text21
  4034  001ADC                     __ptext21:
  4035                           	opt callstack 0
  4036  001ADC                     _ADCC_SelectChannel:
  4037                           	opt callstack 21
  4038                           
  4039                           ;incstack = 0
  4040                           ;ADCC_SelectChannel@channel stored from wreg
  4041  001ADC  0100               	movlb	0	; () banked
  4042  001ADE  6F61               	movwf	ADCC_SelectChannel@channel& (0+255),b
  4043                           
  4044                           ;mcc_generated_files/adcc.c: 115: void ADCC_SelectChannel(adcc_channel_t channel, uint8_
      +                          t acquisitionDelay);mcc_generated_files/adcc.c: 116: {;mcc_generated_files/adcc.c: 118: 
      +                              ADPCH = channel;
  4045  001AE0  C061  FF5A         	movff	ADCC_SelectChannel@channel,3930	;volatile
  4046                           
  4047                           ;mcc_generated_files/adcc.c: 120:     ADACQ = acquisitionDelay;
  4048  001AE4  C060  FF57         	movff	ADCC_SelectChannel@acquisitionDelay,3927	;volatile
  4049                           
  4050                           ;mcc_generated_files/adcc.c: 123:     ADCON0bits.ADON = 1;
  4051  001AE8  010F               	movlb	15	; () banked
  4052  001AEA  8F5B               	bsf	91,7,b	;volatile
  4053                           
  4054                           ; BSR set to: 15
  4055  001AEC  0012               	return		;funcret
  4056  001AEE                     __end_of_ADCC_SelectChannel:
  4057                           	opt callstack 0
  4058                           
  4059 ;; *************** function _cam_get *****************
  4060 ;; Defined at:
  4061 ;;		line 150 in file "cam.c"
  4062 ;; Parameters:    Size  Location     Type
  4063 ;;  pixels          2    0[BANK0 ] PTR unsigned char 
  4064 ;;		 -> main@cam_pixels(128), 
  4065 ;; Auto vars:     Size  Location     Type
  4066 ;;  i               2    4[BANK0 ] int 
  4067 ;;  i               2    2[BANK0 ] int 
  4068 ;; Return value:  Size  Location     Type
  4069 ;;                  1    wreg      void 
  4070 ;; Registers used:
  4071 ;;		wreg, fsr1l, fsr1h, fsr2l, fsr2h, status,2, status,0
  4072 ;; Tracked objects:
  4073 ;;		On entry : 0/0
  4074 ;;		On exit  : 0/0
  4075 ;;		Unchanged: 0/0
  4076 ;; Data sizes:     COMRAM   BANK0   BANK1   BANK2   BANK3   BANK4   BANK5   BANK6   BANK7
  4077 ;;      Params:         0       2       0       0       0       0       0       0       0
  4078 ;;      Locals:         0       4       0       0       0       0       0       0       0
  4079 ;;      Temps:          0       0       0       0       0       0       0       0       0
  4080 ;;      Totals:         0       6       0       0       0       0       0       0       0
  4081 ;;Total ram usage:        6 bytes
  4082 ;; Hardware stack levels used:    1
  4083 ;; Hardware stack levels required when called:    8
  4084 ;; This function calls:
  4085 ;;		Nothing
  4086 ;; This function is called by:
  4087 ;;		_main
  4088 ;; This function uses a non-reentrant model
  4089 ;;
  4090                           
  4091                           	psect	text22
  4092  001278                     __ptext22:
  4093                           	opt callstack 0
  4094  001278                     _cam_get:
  4095                           	opt callstack 22
  4096                           
  4097                           ;cam.c: 151:     if (myCam.readFromFirst) {
  4098                           
  4099                           ; BSR set to: 15
  4100                           ;incstack = 0
  4101  001278  EE21  F085         	lfsr	2,_myCam
  4102  00127C  50DF               	movf	indf2,w,c
  4103  00127E  B4D8               	btfsc	status,2,c
  4104  001280  D01E               	goto	l4319
  4105                           
  4106                           ;cam.c: 152:         for (int i = 0; i < 128; i++){
  4107  001282  0E00               	movlw	0
  4108  001284  0100               	movlb	0	; () banked
  4109  001286  6F63               	movwf	(cam_get@i+1)& (0+255),b
  4110  001288  0E00               	movlw	0
  4111  00128A  6F62               	movwf	cam_get@i& (0+255),b
  4112  00128C                     l4313:
  4113                           
  4114                           ; BSR set to: 0
  4115                           ;cam.c: 153:             pixels[i] = myCam.cam_pixels_1[i];
  4116  00128C  0E86               	movlw	low (_myCam+1)
  4117  00128E  2562               	addwf	cam_get@i& (0+255),w,b
  4118  001290  6ED9               	movwf	fsr2l,c
  4119  001292  0E01               	movlw	high (_myCam+1)
  4120  001294  2163               	addwfc	(cam_get@i+1)& (0+255),w,b
  4121  001296  6EDA               	movwf	fsr2h,c
  4122  001298  5162               	movf	cam_get@i& (0+255),w,b
  4123  00129A  2560               	addwf	cam_get@pixels& (0+255),w,b
  4124  00129C  6EE1               	movwf	fsr1l,c
  4125  00129E  5163               	movf	(cam_get@i+1)& (0+255),w,b
  4126  0012A0  2161               	addwfc	(cam_get@pixels+1)& (0+255),w,b
  4127  0012A2  6EE2               	movwf	fsr1h,c
  4128  0012A4  CFDF FFE7          	movff	indf2,indf1
  4129                           
  4130                           ; BSR set to: 0
  4131                           ;cam.c: 154:         }
  4132  0012A8  4B62               	infsnz	cam_get@i& (0+255),f,b
  4133  0012AA  2B63               	incf	(cam_get@i+1)& (0+255),f,b
  4134                           
  4135                           ; BSR set to: 0
  4136  0012AC  BF63               	btfsc	(cam_get@i+1)& (0+255),7,b
  4137  0012AE  D7EE               	goto	l4313
  4138  0012B0  5163               	movf	(cam_get@i+1)& (0+255),w,b
  4139  0012B2  E123               	bnz	l976
  4140  0012B4  0E80               	movlw	128
  4141  0012B6  5D62               	subwf	cam_get@i& (0+255),w,b
  4142  0012B8  B0D8               	btfsc	status,0,c
  4143  0012BA  0012               	return	
  4144  0012BC  D7E7               	goto	l4313
  4145  0012BE                     l4319:
  4146                           
  4147                           ;cam.c: 156:         for (int i = 0; i < 128; i++){
  4148  0012BE  0E00               	movlw	0
  4149  0012C0  0100               	movlb	0	; () banked
  4150  0012C2  6F65               	movwf	(cam_get@i_2617+1)& (0+255),b
  4151  0012C4  0E00               	movlw	0
  4152  0012C6  6F64               	movwf	cam_get@i_2617& (0+255),b
  4153  0012C8                     l4325:
  4154                           
  4155                           ; BSR set to: 0
  4156                           ;cam.c: 157:             pixels[i] = myCam.cam_pixels_2[i];
  4157  0012C8  0E06               	movlw	low (_myCam+129)
  4158  0012CA  2564               	addwf	cam_get@i_2617& (0+255),w,b
  4159  0012CC  6ED9               	movwf	fsr2l,c
  4160  0012CE  0E02               	movlw	high (_myCam+129)
  4161  0012D0  2165               	addwfc	(cam_get@i_2617+1)& (0+255),w,b
  4162  0012D2  6EDA               	movwf	fsr2h,c
  4163  0012D4  5164               	movf	cam_get@i_2617& (0+255),w,b
  4164  0012D6  2560               	addwf	cam_get@pixels& (0+255),w,b
  4165  0012D8  6EE1               	movwf	fsr1l,c
  4166  0012DA  5165               	movf	(cam_get@i_2617+1)& (0+255),w,b
  4167  0012DC  2161               	addwfc	(cam_get@pixels+1)& (0+255),w,b
  4168  0012DE  6EE2               	movwf	fsr1h,c
  4169  0012E0  CFDF FFE7          	movff	indf2,indf1
  4170                           
  4171                           ; BSR set to: 0
  4172                           ;cam.c: 158:         }
  4173  0012E4  4B64               	infsnz	cam_get@i_2617& (0+255),f,b
  4174  0012E6  2B65               	incf	(cam_get@i_2617+1)& (0+255),f,b
  4175                           
  4176                           ; BSR set to: 0
  4177  0012E8  BF65               	btfsc	(cam_get@i_2617+1)& (0+255),7,b
  4178  0012EA  D7EE               	goto	l4325
  4179  0012EC  5165               	movf	(cam_get@i_2617+1)& (0+255),w,b
  4180  0012EE  E105               	bnz	u3180
  4181  0012F0  0E80               	movlw	128
  4182  0012F2  5D64               	subwf	cam_get@i_2617& (0+255),w,b
  4183  0012F4  B0D8               	btfsc	status,0,c
  4184  0012F6  0012               	return	
  4185  0012F8  D7E7               	goto	l4325
  4186  0012FA                     u3180:
  4187  0012FA                     l976:
  4188                           
  4189                           ; BSR set to: 0
  4190  0012FA  0012               	return		;funcret
  4191  0012FC                     __end_of_cam_get:
  4192                           	opt callstack 0
  4193                           
  4194 ;; *************** function ___flge *****************
  4195 ;; Defined at:
  4196 ;;		line 4 in file "/Applications/microchip/xc8/v2.05/pic/sources/c99/common/flge.c"
  4197 ;; Parameters:    Size  Location     Type
  4198 ;;  ff1             4    0[BANK0 ] void 
  4199 ;;  ff2             4    4[BANK0 ] void 
  4200 ;; Auto vars:     Size  Location     Type
  4201 ;;		None
  4202 ;; Return value:  Size  Location     Type
  4203 ;;		None               void
  4204 ;; Registers used:
  4205 ;;		wreg, status,2, status,0
  4206 ;; Tracked objects:
  4207 ;;		On entry : 0/0
  4208 ;;		On exit  : 0/0
  4209 ;;		Unchanged: 0/0
  4210 ;; Data sizes:     COMRAM   BANK0   BANK1   BANK2   BANK3   BANK4   BANK5   BANK6   BANK7
  4211 ;;      Params:         0       8       0       0       0       0       0       0       0
  4212 ;;      Locals:         0       0       0       0       0       0       0       0       0
  4213 ;;      Temps:          0       4       0       0       0       0       0       0       0
  4214 ;;      Totals:         0      12       0       0       0       0       0       0       0
  4215 ;;Total ram usage:       12 bytes
  4216 ;; Hardware stack levels used:    1
  4217 ;; Hardware stack levels required when called:    8
  4218 ;; This function calls:
  4219 ;;		Nothing
  4220 ;; This function is called by:
  4221 ;;		_main
  4222 ;; This function uses a non-reentrant model
  4223 ;;
  4224                           
  4225                           	psect	text23
  4226  00102A                     __ptext23:
  4227                           	opt callstack 0
  4228  00102A                     ___flge:
  4229                           	opt callstack 22
  4230                           
  4231                           ; BSR set to: 0
  4232                           ;incstack = 0
  4233  00102A  0E00               	movlw	0
  4234  00102C  0100               	movlb	0	; () banked
  4235  00102E  1560               	andwf	___flge@ff1& (0+255),w,b
  4236  001030  6F68               	movwf	??___flge& (0+255),b
  4237  001032  0E00               	movlw	0
  4238  001034  1561               	andwf	(___flge@ff1+1)& (0+255),w,b
  4239  001036  6F69               	movwf	(??___flge+1)& (0+255),b
  4240  001038  0E80               	movlw	128
  4241  00103A  1562               	andwf	(___flge@ff1+2)& (0+255),w,b
  4242  00103C  6F6A               	movwf	(??___flge+2)& (0+255),b
  4243  00103E  0E7F               	movlw	127
  4244  001040  1563               	andwf	(___flge@ff1+3)& (0+255),w,b
  4245  001042  6F6B               	movwf	(??___flge+3)& (0+255),b
  4246  001044  5168               	movf	??___flge& (0+255),w,b
  4247  001046  1169               	iorwf	(??___flge+1)& (0+255),w,b
  4248  001048  116A               	iorwf	(??___flge+2)& (0+255),w,b
  4249  00104A  116B               	iorwf	(??___flge+3)& (0+255),w,b
  4250  00104C  A4D8               	btfss	status,2,c
  4251  00104E  D008               	goto	l4375
  4252                           
  4253                           ; BSR set to: 0
  4254  001050  0E00               	movlw	0
  4255  001052  6F60               	movwf	___flge@ff1& (0+255),b
  4256  001054  0E00               	movlw	0
  4257  001056  6F61               	movwf	(___flge@ff1+1)& (0+255),b
  4258  001058  0E00               	movlw	0
  4259  00105A  6F62               	movwf	(___flge@ff1+2)& (0+255),b
  4260  00105C  0E00               	movlw	0
  4261  00105E  6F63               	movwf	(___flge@ff1+3)& (0+255),b
  4262  001060                     l4375:
  4263                           
  4264                           ; BSR set to: 0
  4265  001060  0E00               	movlw	0
  4266  001062  1564               	andwf	___flge@ff2& (0+255),w,b
  4267  001064  6F68               	movwf	??___flge& (0+255),b
  4268  001066  0E00               	movlw	0
  4269  001068  1565               	andwf	(___flge@ff2+1)& (0+255),w,b
  4270  00106A  6F69               	movwf	(??___flge+1)& (0+255),b
  4271  00106C  0E80               	movlw	128
  4272  00106E  1566               	andwf	(___flge@ff2+2)& (0+255),w,b
  4273  001070  6F6A               	movwf	(??___flge+2)& (0+255),b
  4274  001072  0E7F               	movlw	127
  4275  001074  1567               	andwf	(___flge@ff2+3)& (0+255),w,b
  4276  001076  6F6B               	movwf	(??___flge+3)& (0+255),b
  4277  001078  5168               	movf	??___flge& (0+255),w,b
  4278  00107A  1169               	iorwf	(??___flge+1)& (0+255),w,b
  4279  00107C  116A               	iorwf	(??___flge+2)& (0+255),w,b
  4280  00107E  116B               	iorwf	(??___flge+3)& (0+255),w,b
  4281  001080  A4D8               	btfss	status,2,c
  4282  001082  D008               	goto	l4379
  4283                           
  4284                           ; BSR set to: 0
  4285  001084  0E00               	movlw	0
  4286  001086  6F64               	movwf	___flge@ff2& (0+255),b
  4287  001088  0E00               	movlw	0
  4288  00108A  6F65               	movwf	(___flge@ff2+1)& (0+255),b
  4289  00108C  0E00               	movlw	0
  4290  00108E  6F66               	movwf	(___flge@ff2+2)& (0+255),b
  4291  001090  0E00               	movlw	0
  4292  001092  6F67               	movwf	(___flge@ff2+3)& (0+255),b
  4293  001094                     l4379:
  4294                           
  4295                           ; BSR set to: 0
  4296  001094  AF63               	btfss	(___flge@ff1+3)& (0+255),7,b
  4297  001096  D009               	goto	l4383
  4298                           
  4299                           ; BSR set to: 0
  4300  001098  6D60               	negf	___flge@ff1& (0+255),b
  4301  00109A  1F61               	comf	(___flge@ff1+1)& (0+255),f,b
  4302  00109C  B0D8               	btfsc	status,0,c
  4303  00109E  2B61               	incf	(___flge@ff1+1)& (0+255),f,b
  4304  0010A0  1F62               	comf	(___flge@ff1+2)& (0+255),f,b
  4305  0010A2  B0D8               	btfsc	status,0,c
  4306  0010A4  2B62               	incf	(___flge@ff1+2)& (0+255),f,b
  4307  0010A6  0E80               	movlw	128
  4308  0010A8  5763               	subfwb	(___flge@ff1+3)& (0+255),f,b
  4309  0010AA                     l4383:
  4310                           
  4311                           ; BSR set to: 0
  4312  0010AA  AF67               	btfss	(___flge@ff2+3)& (0+255),7,b
  4313  0010AC  D009               	goto	l1261
  4314                           
  4315                           ; BSR set to: 0
  4316  0010AE  6D64               	negf	___flge@ff2& (0+255),b
  4317  0010B0  1F65               	comf	(___flge@ff2+1)& (0+255),f,b
  4318  0010B2  B0D8               	btfsc	status,0,c
  4319  0010B4  2B65               	incf	(___flge@ff2+1)& (0+255),f,b
  4320  0010B6  1F66               	comf	(___flge@ff2+2)& (0+255),f,b
  4321  0010B8  B0D8               	btfsc	status,0,c
  4322  0010BA  2B66               	incf	(___flge@ff2+2)& (0+255),f,b
  4323  0010BC  0E80               	movlw	128
  4324  0010BE  5767               	subfwb	(___flge@ff2+3)& (0+255),f,b
  4325  0010C0                     l1261:
  4326                           
  4327                           ; BSR set to: 0
  4328  0010C0  0E00               	movlw	0
  4329  0010C2  1B60               	xorwf	___flge@ff1& (0+255),f,b
  4330  0010C4  0E00               	movlw	0
  4331  0010C6  1B61               	xorwf	(___flge@ff1+1)& (0+255),f,b
  4332  0010C8  0E00               	movlw	0
  4333  0010CA  1B62               	xorwf	(___flge@ff1+2)& (0+255),f,b
  4334  0010CC  0E80               	movlw	128
  4335  0010CE  1B63               	xorwf	(___flge@ff1+3)& (0+255),f,b
  4336  0010D0  0E00               	movlw	0
  4337  0010D2  1B64               	xorwf	___flge@ff2& (0+255),f,b
  4338  0010D4  0E00               	movlw	0
  4339  0010D6  1B65               	xorwf	(___flge@ff2+1)& (0+255),f,b
  4340  0010D8  0E00               	movlw	0
  4341  0010DA  1B66               	xorwf	(___flge@ff2+2)& (0+255),f,b
  4342  0010DC  0E80               	movlw	128
  4343  0010DE  1B67               	xorwf	(___flge@ff2+3)& (0+255),f,b
  4344  0010E0  5164               	movf	___flge@ff2& (0+255),w,b
  4345  0010E2  5D60               	subwf	___flge@ff1& (0+255),w,b
  4346  0010E4  5165               	movf	(___flge@ff2+1)& (0+255),w,b
  4347  0010E6  5961               	subwfb	(___flge@ff1+1)& (0+255),w,b
  4348  0010E8  5166               	movf	(___flge@ff2+2)& (0+255),w,b
  4349  0010EA  5962               	subwfb	(___flge@ff1+2)& (0+255),w,b
  4350  0010EC  5167               	movf	(___flge@ff2+3)& (0+255),w,b
  4351  0010EE  5963               	subwfb	(___flge@ff1+3)& (0+255),w,b
  4352  0010F0  B0D8               	btfsc	status,0,c
  4353  0010F2  D002               	goto	l4389
  4354                           
  4355                           ; BSR set to: 0
  4356  0010F4  90D8               	bcf	status,0,c
  4357  0010F6  0012               	return	
  4358  0010F8                     l4389:
  4359                           
  4360                           ; BSR set to: 0
  4361  0010F8  80D8               	bsf	status,0,c
  4362                           
  4363                           ; BSR set to: 0
  4364  0010FA  0012               	return		;funcret
  4365  0010FC                     __end_of___flge:
  4366                           	opt callstack 0
  4367                           
  4368 ;; *************** function _SYSTEM_Initialize *****************
  4369 ;; Defined at:
  4370 ;;		line 50 in file "mcc_generated_files/mcc.c"
  4371 ;; Parameters:    Size  Location     Type
  4372 ;;		None
  4373 ;; Auto vars:     Size  Location     Type
  4374 ;;		None
  4375 ;; Return value:  Size  Location     Type
  4376 ;;                  1    wreg      void 
  4377 ;; Registers used:
  4378 ;;		wreg, status,2, status,0, cstack
  4379 ;; Tracked objects:
  4380 ;;		On entry : 0/0
  4381 ;;		On exit  : 0/0
  4382 ;;		Unchanged: 0/0
  4383 ;; Data sizes:     COMRAM   BANK0   BANK1   BANK2   BANK3   BANK4   BANK5   BANK6   BANK7
  4384 ;;      Params:         0       0       0       0       0       0       0       0       0
  4385 ;;      Locals:         0       0       0       0       0       0       0       0       0
  4386 ;;      Temps:          0       0       0       0       0       0       0       0       0
  4387 ;;      Totals:         0       0       0       0       0       0       0       0       0
  4388 ;;Total ram usage:        0 bytes
  4389 ;; Hardware stack levels used:    1
  4390 ;; Hardware stack levels required when called:   10
  4391 ;; This function calls:
  4392 ;;		_ADCC_Initialize
  4393 ;;		_CCP1_Initialize
  4394 ;;		_EUSART1_Initialize
  4395 ;;		_INTERRUPT_Initialize
  4396 ;;		_OSCILLATOR_Initialize
  4397 ;;		_PIN_MANAGER_Initialize
  4398 ;;		_PMD_Initialize
  4399 ;;		_TMR1_Initialize
  4400 ;;		_TMR2_Initialize
  4401 ;;		_TMR3_Initialize
  4402 ;; This function is called by:
  4403 ;;		_main
  4404 ;; This function uses a non-reentrant model
  4405 ;;
  4406                           
  4407                           	psect	text24
  4408  00191A                     __ptext24:
  4409                           	opt callstack 0
  4410  00191A                     _SYSTEM_Initialize:
  4411                           	opt callstack 20
  4412                           
  4413                           ;mcc_generated_files/mcc.c: 52:     INTERRUPT_Initialize();
  4414                           
  4415                           ; BSR set to: 0
  4416                           ;incstack = 0
  4417  00191A  EC77  F00D         	call	_INTERRUPT_Initialize	;wreg free
  4418                           
  4419                           ;mcc_generated_files/mcc.c: 53:     PMD_Initialize();
  4420  00191E  EC2D  F00D         	call	_PMD_Initialize	;wreg free
  4421                           
  4422                           ;mcc_generated_files/mcc.c: 54:     PIN_MANAGER_Initialize();
  4423  001922  ECEC  F009         	call	_PIN_MANAGER_Initialize	;wreg free
  4424                           
  4425                           ;mcc_generated_files/mcc.c: 55:     OSCILLATOR_Initialize();
  4426  001926  EC57  F00D         	call	_OSCILLATOR_Initialize	;wreg free
  4427                           
  4428                           ;mcc_generated_files/mcc.c: 56:     ADCC_Initialize();
  4429  00192A  EC85  F00A         	call	_ADCC_Initialize	;wreg free
  4430                           
  4431                           ;mcc_generated_files/mcc.c: 57:     CCP1_Initialize();
  4432  00192E  EC60  F00C         	call	_CCP1_Initialize	;wreg free
  4433                           
  4434                           ;mcc_generated_files/mcc.c: 58:     TMR3_Initialize();
  4435  001932  EC27  F00B         	call	_TMR3_Initialize	;wreg free
  4436                           
  4437                           ;mcc_generated_files/mcc.c: 59:     TMR2_Initialize();
  4438  001936  EC49  F00C         	call	_TMR2_Initialize	;wreg free
  4439                           
  4440                           ;mcc_generated_files/mcc.c: 60:     TMR1_Initialize();
  4441  00193A  ECE1  F00A         	call	_TMR1_Initialize	;wreg free
  4442                           
  4443                           ;mcc_generated_files/mcc.c: 61:     EUSART1_Initialize();
  4444  00193E  EC04  F00B         	call	_EUSART1_Initialize	;wreg free
  4445  001942  0012               	return		;funcret
  4446  001944                     __end_of_SYSTEM_Initialize:
  4447                           	opt callstack 0
  4448                           
  4449 ;; *************** function _TMR3_Initialize *****************
  4450 ;; Defined at:
  4451 ;;		line 64 in file "mcc_generated_files/tmr3.c"
  4452 ;; Parameters:    Size  Location     Type
  4453 ;;		None
  4454 ;; Auto vars:     Size  Location     Type
  4455 ;;		None
  4456 ;; Return value:  Size  Location     Type
  4457 ;;                  1    wreg      void 
  4458 ;; Registers used:
  4459 ;;		wreg, status,2, status,0, cstack
  4460 ;; Tracked objects:
  4461 ;;		On entry : 0/0
  4462 ;;		On exit  : 0/0
  4463 ;;		Unchanged: 0/0
  4464 ;; Data sizes:     COMRAM   BANK0   BANK1   BANK2   BANK3   BANK4   BANK5   BANK6   BANK7
  4465 ;;      Params:         0       0       0       0       0       0       0       0       0
  4466 ;;      Locals:         0       0       0       0       0       0       0       0       0
  4467 ;;      Temps:          0       2       0       0       0       0       0       0       0
  4468 ;;      Totals:         0       2       0       0       0       0       0       0       0
  4469 ;;Total ram usage:        2 bytes
  4470 ;; Hardware stack levels used:    1
  4471 ;; Hardware stack levels required when called:    9
  4472 ;; This function calls:
  4473 ;;		_TMR3_SetInterruptHandler
  4474 ;; This function is called by:
  4475 ;;		_SYSTEM_Initialize
  4476 ;; This function uses a non-reentrant model
  4477 ;;
  4478                           
  4479                           	psect	text25
  4480  00164E                     __ptext25:
  4481                           	opt callstack 0
  4482  00164E                     _TMR3_Initialize:
  4483                           	opt callstack 20
  4484                           
  4485                           ;mcc_generated_files/tmr3.c: 69:     T3GCON = 0x00;
  4486                           
  4487                           ;incstack = 0
  4488  00164E  0E00               	movlw	0
  4489  001650  6EC9               	movwf	4041,c	;volatile
  4490                           
  4491                           ;mcc_generated_files/tmr3.c: 72:     T3GATE = 0x00;
  4492  001652  0E00               	movlw	0
  4493  001654  6ECA               	movwf	4042,c	;volatile
  4494                           
  4495                           ;mcc_generated_files/tmr3.c: 75:     T3CLK = 0x01;
  4496  001656  0E01               	movlw	1
  4497  001658  6ECB               	movwf	4043,c	;volatile
  4498                           
  4499                           ;mcc_generated_files/tmr3.c: 78:     TMR3H = 0xFF;
  4500  00165A  68C7               	setf	4039,c	;volatile
  4501                           
  4502                           ;mcc_generated_files/tmr3.c: 81:     TMR3L = 0x10;
  4503  00165C  0E10               	movlw	16
  4504  00165E  6EC6               	movwf	4038,c	;volatile
  4505                           
  4506                           ;mcc_generated_files/tmr3.c: 84:     timer3ReloadVal=(uint16_t)((TMR3H << 8) | TMR3L);
  4507  001660  50C6               	movf	4038,w,c	;volatile
  4508  001662  CFC7 F062          	movff	4039,??_TMR3_Initialize	;volatile
  4509  001666  0100               	movlb	0	; () banked
  4510  001668  6B63               	clrf	(??_TMR3_Initialize+1)& (0+255),b
  4511  00166A  C062  F063         	movff	??_TMR3_Initialize,??_TMR3_Initialize+1
  4512  00166E  6B62               	clrf	??_TMR3_Initialize& (0+255),b
  4513  001670  1162               	iorwf	??_TMR3_Initialize& (0+255),w,b
  4514  001672  6E3C               	movwf	_timer3ReloadVal,c	;volatile
  4515  001674  5163               	movf	(??_TMR3_Initialize+1)& (0+255),w,b
  4516  001676  6E3D               	movwf	_timer3ReloadVal+1,c	;volatile
  4517                           
  4518                           ; BSR set to: 0
  4519                           ;mcc_generated_files/tmr3.c: 87:     PIR4bits.TMR3IF = 0;
  4520  001678  010E               	movlb	14	; () banked
  4521  00167A  95C9               	bcf	201,2,b	;volatile
  4522                           
  4523                           ; BSR set to: 14
  4524                           ;mcc_generated_files/tmr3.c: 90:     PIE4bits.TMR3IE = 1;
  4525  00167C  85C1               	bsf	193,2,b	;volatile
  4526                           
  4527                           ; BSR set to: 14
  4528                           ;mcc_generated_files/tmr3.c: 93:     TMR3_SetInterruptHandler(TMR3_DefaultInterruptHandl
      +                          er);
  4529  00167E  0E9A               	movlw	low _TMR3_DefaultInterruptHandler
  4530  001680  0100               	movlb	0	; () banked
  4531  001682  6F60               	movwf	TMR3_SetInterruptHandler@InterruptHandler& (0+255),b
  4532  001684  0E1B               	movlw	high _TMR3_DefaultInterruptHandler
  4533  001686  6F61               	movwf	(TMR3_SetInterruptHandler@InterruptHandler+1)& (0+255),b
  4534  001688  EC8B  F00D         	call	_TMR3_SetInterruptHandler	;wreg free
  4535                           
  4536                           ;mcc_generated_files/tmr3.c: 96:     T3CON = 0x03;
  4537  00168C  0E03               	movlw	3
  4538  00168E  6EC8               	movwf	4040,c	;volatile
  4539  001690  0012               	return		;funcret
  4540  001692                     __end_of_TMR3_Initialize:
  4541                           	opt callstack 0
  4542                           
  4543 ;; *************** function _TMR3_SetInterruptHandler *****************
  4544 ;; Defined at:
  4545 ;;		line 178 in file "mcc_generated_files/tmr3.c"
  4546 ;; Parameters:    Size  Location     Type
  4547 ;;  InterruptHan    2    0[BANK0 ] PTR FTN()void 
  4548 ;;		 -> timer_ISR(1), cam_start(1), TMR3_DefaultInterruptHandler(1), 
  4549 ;; Auto vars:     Size  Location     Type
  4550 ;;		None
  4551 ;; Return value:  Size  Location     Type
  4552 ;;                  1    wreg      void 
  4553 ;; Registers used:
  4554 ;;		wreg, status,2, status,0
  4555 ;; Tracked objects:
  4556 ;;		On entry : 0/0
  4557 ;;		On exit  : 0/0
  4558 ;;		Unchanged: 0/0
  4559 ;; Data sizes:     COMRAM   BANK0   BANK1   BANK2   BANK3   BANK4   BANK5   BANK6   BANK7
  4560 ;;      Params:         0       2       0       0       0       0       0       0       0
  4561 ;;      Locals:         0       0       0       0       0       0       0       0       0
  4562 ;;      Temps:          0       0       0       0       0       0       0       0       0
  4563 ;;      Totals:         0       2       0       0       0       0       0       0       0
  4564 ;;Total ram usage:        2 bytes
  4565 ;; Hardware stack levels used:    1
  4566 ;; Hardware stack levels required when called:    8
  4567 ;; This function calls:
  4568 ;;		Nothing
  4569 ;; This function is called by:
  4570 ;;		_TMR3_Initialize
  4571 ;;		_cam_start
  4572 ;; This function uses a non-reentrant model
  4573 ;;
  4574                           
  4575                           	psect	text26
  4576  001B16                     __ptext26:
  4577                           	opt callstack 0
  4578  001B16                     _TMR3_SetInterruptHandler:
  4579                           	opt callstack 21
  4580                           
  4581                           ;mcc_generated_files/tmr3.c: 179:     TMR3_InterruptHandler = InterruptHandler;
  4582                           
  4583                           ;incstack = 0
  4584  001B16  C060  F03A         	movff	TMR3_SetInterruptHandler@InterruptHandler,_TMR3_InterruptHandler
  4585  001B1A  C061  F03B         	movff	TMR3_SetInterruptHandler@InterruptHandler+1,_TMR3_InterruptHandler+1
  4586  001B1E  0012               	return		;funcret
  4587  001B20                     __end_of_TMR3_SetInterruptHandler:
  4588                           	opt callstack 0
  4589                           
  4590 ;; *************** function _TMR2_Initialize *****************
  4591 ;; Defined at:
  4592 ;;		line 64 in file "mcc_generated_files/tmr2.c"
  4593 ;; Parameters:    Size  Location     Type
  4594 ;;		None
  4595 ;; Auto vars:     Size  Location     Type
  4596 ;;		None
  4597 ;; Return value:  Size  Location     Type
  4598 ;;                  1    wreg      void 
  4599 ;; Registers used:
  4600 ;;		wreg, status,2, status,0, cstack
  4601 ;; Tracked objects:
  4602 ;;		On entry : 0/0
  4603 ;;		On exit  : 0/0
  4604 ;;		Unchanged: 0/0
  4605 ;; Data sizes:     COMRAM   BANK0   BANK1   BANK2   BANK3   BANK4   BANK5   BANK6   BANK7
  4606 ;;      Params:         0       0       0       0       0       0       0       0       0
  4607 ;;      Locals:         0       0       0       0       0       0       0       0       0
  4608 ;;      Temps:          0       0       0       0       0       0       0       0       0
  4609 ;;      Totals:         0       0       0       0       0       0       0       0       0
  4610 ;;Total ram usage:        0 bytes
  4611 ;; Hardware stack levels used:    1
  4612 ;; Hardware stack levels required when called:    9
  4613 ;; This function calls:
  4614 ;;		_TMR2_SetInterruptHandler
  4615 ;; This function is called by:
  4616 ;;		_SYSTEM_Initialize
  4617 ;; This function uses a non-reentrant model
  4618 ;;
  4619                           
  4620                           	psect	text27
  4621  001892                     __ptext27:
  4622                           	opt callstack 0
  4623  001892                     _TMR2_Initialize:
  4624                           	opt callstack 20
  4625                           
  4626                           ;mcc_generated_files/tmr2.c: 69:     T2CLKCON = 0x01;
  4627                           
  4628                           ;incstack = 0
  4629  001892  0E01               	movlw	1
  4630  001894  6EBE               	movwf	4030,c	;volatile
  4631                           
  4632                           ;mcc_generated_files/tmr2.c: 72:     T2HLT = 0x00;
  4633  001896  0E00               	movlw	0
  4634  001898  6EBD               	movwf	4029,c	;volatile
  4635                           
  4636                           ;mcc_generated_files/tmr2.c: 75:     T2RST = 0x00;
  4637  00189A  0E00               	movlw	0
  4638  00189C  6EBF               	movwf	4031,c	;volatile
  4639                           
  4640                           ;mcc_generated_files/tmr2.c: 78:     T2PR = 0x04;
  4641  00189E  0E04               	movlw	4
  4642  0018A0  6EBB               	movwf	4027,c	;volatile
  4643                           
  4644                           ;mcc_generated_files/tmr2.c: 81:     T2TMR = 0x00;
  4645  0018A2  0E00               	movlw	0
  4646  0018A4  6EBA               	movwf	4026,c	;volatile
  4647                           
  4648                           ;mcc_generated_files/tmr2.c: 84:     PIR4bits.TMR2IF = 0;
  4649  0018A6  010E               	movlb	14	; () banked
  4650  0018A8  93C9               	bcf	201,1,b	;volatile
  4651                           
  4652                           ; BSR set to: 14
  4653                           ;mcc_generated_files/tmr2.c: 87:     PIE4bits.TMR2IE = 1;
  4654  0018AA  83C1               	bsf	193,1,b	;volatile
  4655                           
  4656                           ; BSR set to: 14
  4657                           ;mcc_generated_files/tmr2.c: 90:     TMR2_SetInterruptHandler(TMR2_DefaultInterruptHandl
      +                          er);
  4658  0018AC  0EA2               	movlw	low _TMR2_DefaultInterruptHandler
  4659  0018AE  0100               	movlb	0	; () banked
  4660  0018B0  6F60               	movwf	TMR2_SetInterruptHandler@InterruptHandler& (0+255),b
  4661  0018B2  0E1B               	movlw	high _TMR2_DefaultInterruptHandler
  4662  0018B4  6F61               	movwf	(TMR2_SetInterruptHandler@InterruptHandler+1)& (0+255),b
  4663  0018B6  EC90  F00D         	call	_TMR2_SetInterruptHandler	;wreg free
  4664                           
  4665                           ;mcc_generated_files/tmr2.c: 93:     T2CON = 0xD0;
  4666  0018BA  0ED0               	movlw	208
  4667  0018BC  6EBC               	movwf	4028,c	;volatile
  4668  0018BE  0012               	return		;funcret
  4669  0018C0                     __end_of_TMR2_Initialize:
  4670                           	opt callstack 0
  4671                           
  4672 ;; *************** function _TMR2_SetInterruptHandler *****************
  4673 ;; Defined at:
  4674 ;;		line 178 in file "mcc_generated_files/tmr2.c"
  4675 ;; Parameters:    Size  Location     Type
  4676 ;;  InterruptHan    2    0[BANK0 ] PTR FTN()void 
  4677 ;;		 -> carcontrol_ISR(1), TMR2_DefaultInterruptHandler(1), 
  4678 ;; Auto vars:     Size  Location     Type
  4679 ;;		None
  4680 ;; Return value:  Size  Location     Type
  4681 ;;                  1    wreg      void 
  4682 ;; Registers used:
  4683 ;;		wreg, status,2, status,0
  4684 ;; Tracked objects:
  4685 ;;		On entry : 0/0
  4686 ;;		On exit  : 0/0
  4687 ;;		Unchanged: 0/0
  4688 ;; Data sizes:     COMRAM   BANK0   BANK1   BANK2   BANK3   BANK4   BANK5   BANK6   BANK7
  4689 ;;      Params:         0       2       0       0       0       0       0       0       0
  4690 ;;      Locals:         0       0       0       0       0       0       0       0       0
  4691 ;;      Temps:          0       0       0       0       0       0       0       0       0
  4692 ;;      Totals:         0       2       0       0       0       0       0       0       0
  4693 ;;Total ram usage:        2 bytes
  4694 ;; Hardware stack levels used:    1
  4695 ;; Hardware stack levels required when called:    8
  4696 ;; This function calls:
  4697 ;;		Nothing
  4698 ;; This function is called by:
  4699 ;;		_TMR2_Initialize
  4700 ;;		_carcontrol_init
  4701 ;; This function uses a non-reentrant model
  4702 ;;
  4703                           
  4704                           	psect	text28
  4705  001B20                     __ptext28:
  4706                           	opt callstack 0
  4707  001B20                     _TMR2_SetInterruptHandler:
  4708                           	opt callstack 21
  4709                           
  4710                           ;mcc_generated_files/tmr2.c: 179:     TMR2_InterruptHandler = InterruptHandler;
  4711                           
  4712                           ;incstack = 0
  4713  001B20  C060  F0D6         	movff	TMR2_SetInterruptHandler@InterruptHandler,_TMR2_InterruptHandler
  4714  001B24  C061  F0D7         	movff	TMR2_SetInterruptHandler@InterruptHandler+1,_TMR2_InterruptHandler+1
  4715  001B28  0012               	return		;funcret
  4716  001B2A                     __end_of_TMR2_SetInterruptHandler:
  4717                           	opt callstack 0
  4718                           
  4719 ;; *************** function _TMR1_Initialize *****************
  4720 ;; Defined at:
  4721 ;;		line 64 in file "mcc_generated_files/tmr1.c"
  4722 ;; Parameters:    Size  Location     Type
  4723 ;;		None
  4724 ;; Auto vars:     Size  Location     Type
  4725 ;;		None
  4726 ;; Return value:  Size  Location     Type
  4727 ;;                  1    wreg      void 
  4728 ;; Registers used:
  4729 ;;		wreg, status,2, status,0, cstack
  4730 ;; Tracked objects:
  4731 ;;		On entry : 0/0
  4732 ;;		On exit  : 0/0
  4733 ;;		Unchanged: 0/0
  4734 ;; Data sizes:     COMRAM   BANK0   BANK1   BANK2   BANK3   BANK4   BANK5   BANK6   BANK7
  4735 ;;      Params:         0       0       0       0       0       0       0       0       0
  4736 ;;      Locals:         0       0       0       0       0       0       0       0       0
  4737 ;;      Temps:          0       2       0       0       0       0       0       0       0
  4738 ;;      Totals:         0       2       0       0       0       0       0       0       0
  4739 ;;Total ram usage:        2 bytes
  4740 ;; Hardware stack levels used:    1
  4741 ;; Hardware stack levels required when called:    9
  4742 ;; This function calls:
  4743 ;;		_TMR1_SetInterruptHandler
  4744 ;; This function is called by:
  4745 ;;		_SYSTEM_Initialize
  4746 ;; This function uses a non-reentrant model
  4747 ;;
  4748                           
  4749                           	psect	text29
  4750  0015C2                     __ptext29:
  4751                           	opt callstack 0
  4752  0015C2                     _TMR1_Initialize:
  4753                           	opt callstack 20
  4754                           
  4755                           ;mcc_generated_files/tmr1.c: 69:     T1GCON = 0x00;
  4756                           
  4757                           ;incstack = 0
  4758  0015C2  0E00               	movlw	0
  4759  0015C4  6ECF               	movwf	4047,c	;volatile
  4760                           
  4761                           ;mcc_generated_files/tmr1.c: 72:     T1GATE = 0x00;
  4762  0015C6  0E00               	movlw	0
  4763  0015C8  6ED0               	movwf	4048,c	;volatile
  4764                           
  4765                           ;mcc_generated_files/tmr1.c: 75:     T1CLK = 0x01;
  4766  0015CA  0E01               	movlw	1
  4767  0015CC  6ED1               	movwf	4049,c	;volatile
  4768                           
  4769                           ;mcc_generated_files/tmr1.c: 78:     TMR1H = 0x63;
  4770  0015CE  0E63               	movlw	99
  4771  0015D0  6ECD               	movwf	4045,c	;volatile
  4772                           
  4773                           ;mcc_generated_files/tmr1.c: 81:     TMR1L = 0xC0;
  4774  0015D2  0EC0               	movlw	192
  4775  0015D4  6ECC               	movwf	4044,c	;volatile
  4776                           
  4777                           ;mcc_generated_files/tmr1.c: 84:     timer1ReloadVal=(uint16_t)((TMR1H << 8) | TMR1L);
  4778  0015D6  50CC               	movf	4044,w,c	;volatile
  4779  0015D8  CFCD F062          	movff	4045,??_TMR1_Initialize	;volatile
  4780  0015DC  0100               	movlb	0	; () banked
  4781  0015DE  6B63               	clrf	(??_TMR1_Initialize+1)& (0+255),b
  4782  0015E0  C062  F063         	movff	??_TMR1_Initialize,??_TMR1_Initialize+1
  4783  0015E4  6B62               	clrf	??_TMR1_Initialize& (0+255),b
  4784  0015E6  1162               	iorwf	??_TMR1_Initialize& (0+255),w,b
  4785  0015E8  6E40               	movwf	_timer1ReloadVal,c	;volatile
  4786  0015EA  5163               	movf	(??_TMR1_Initialize+1)& (0+255),w,b
  4787  0015EC  6E41               	movwf	_timer1ReloadVal+1,c	;volatile
  4788                           
  4789                           ; BSR set to: 0
  4790                           ;mcc_generated_files/tmr1.c: 87:     PIR4bits.TMR1IF = 0;
  4791  0015EE  010E               	movlb	14	; () banked
  4792  0015F0  91C9               	bcf	201,0,b	;volatile
  4793                           
  4794                           ; BSR set to: 14
  4795                           ;mcc_generated_files/tmr1.c: 90:     PIE4bits.TMR1IE = 1;
  4796  0015F2  81C1               	bsf	193,0,b	;volatile
  4797                           
  4798                           ; BSR set to: 14
  4799                           ;mcc_generated_files/tmr1.c: 93:     TMR1_SetInterruptHandler(TMR1_DefaultInterruptHandl
      +                          er);
  4800  0015F4  0E9C               	movlw	low _TMR1_DefaultInterruptHandler
  4801  0015F6  0100               	movlb	0	; () banked
  4802  0015F8  6F60               	movwf	TMR1_SetInterruptHandler@InterruptHandler& (0+255),b
  4803  0015FA  0E1B               	movlw	high _TMR1_DefaultInterruptHandler
  4804  0015FC  6F61               	movwf	(TMR1_SetInterruptHandler@InterruptHandler+1)& (0+255),b
  4805  0015FE  EC95  F00D         	call	_TMR1_SetInterruptHandler	;wreg free
  4806                           
  4807                           ;mcc_generated_files/tmr1.c: 96:     T1CON = 0x33;
  4808  001602  0E33               	movlw	51
  4809  001604  6ECE               	movwf	4046,c	;volatile
  4810  001606  0012               	return		;funcret
  4811  001608                     __end_of_TMR1_Initialize:
  4812                           	opt callstack 0
  4813                           
  4814 ;; *************** function _TMR1_SetInterruptHandler *****************
  4815 ;; Defined at:
  4816 ;;		line 178 in file "mcc_generated_files/tmr1.c"
  4817 ;; Parameters:    Size  Location     Type
  4818 ;;  InterruptHan    2    0[BANK0 ] PTR FTN()void 
  4819 ;;		 -> ping_TMR1Overflow_isr(1), TMR1_DefaultInterruptHandler(1), 
  4820 ;; Auto vars:     Size  Location     Type
  4821 ;;		None
  4822 ;; Return value:  Size  Location     Type
  4823 ;;                  1    wreg      void 
  4824 ;; Registers used:
  4825 ;;		wreg, status,2, status,0
  4826 ;; Tracked objects:
  4827 ;;		On entry : 0/0
  4828 ;;		On exit  : 0/0
  4829 ;;		Unchanged: 0/0
  4830 ;; Data sizes:     COMRAM   BANK0   BANK1   BANK2   BANK3   BANK4   BANK5   BANK6   BANK7
  4831 ;;      Params:         0       2       0       0       0       0       0       0       0
  4832 ;;      Locals:         0       0       0       0       0       0       0       0       0
  4833 ;;      Temps:          0       0       0       0       0       0       0       0       0
  4834 ;;      Totals:         0       2       0       0       0       0       0       0       0
  4835 ;;Total ram usage:        2 bytes
  4836 ;; Hardware stack levels used:    1
  4837 ;; Hardware stack levels required when called:    8
  4838 ;; This function calls:
  4839 ;;		Nothing
  4840 ;; This function is called by:
  4841 ;;		_TMR1_Initialize
  4842 ;;		_ping_init
  4843 ;;		_ping_send
  4844 ;; This function uses a non-reentrant model
  4845 ;;
  4846                           
  4847                           	psect	text30
  4848  001B2A                     __ptext30:
  4849                           	opt callstack 0
  4850  001B2A                     _TMR1_SetInterruptHandler:
  4851                           	opt callstack 21
  4852                           
  4853                           ;mcc_generated_files/tmr1.c: 179:     TMR1_InterruptHandler = InterruptHandler;
  4854                           
  4855                           ;incstack = 0
  4856  001B2A  C060  F03E         	movff	TMR1_SetInterruptHandler@InterruptHandler,_TMR1_InterruptHandler
  4857  001B2E  C061  F03F         	movff	TMR1_SetInterruptHandler@InterruptHandler+1,_TMR1_InterruptHandler+1
  4858  001B32  0012               	return		;funcret
  4859  001B34                     __end_of_TMR1_SetInterruptHandler:
  4860                           	opt callstack 0
  4861                           
  4862 ;; *************** function _PMD_Initialize *****************
  4863 ;; Defined at:
  4864 ;;		line 78 in file "mcc_generated_files/mcc.c"
  4865 ;; Parameters:    Size  Location     Type
  4866 ;;		None
  4867 ;; Auto vars:     Size  Location     Type
  4868 ;;		None
  4869 ;; Return value:  Size  Location     Type
  4870 ;;                  1    wreg      void 
  4871 ;; Registers used:
  4872 ;;		wreg, status,2
  4873 ;; Tracked objects:
  4874 ;;		On entry : 0/0
  4875 ;;		On exit  : 0/0
  4876 ;;		Unchanged: 0/0
  4877 ;; Data sizes:     COMRAM   BANK0   BANK1   BANK2   BANK3   BANK4   BANK5   BANK6   BANK7
  4878 ;;      Params:         0       0       0       0       0       0       0       0       0
  4879 ;;      Locals:         0       0       0       0       0       0       0       0       0
  4880 ;;      Temps:          0       0       0       0       0       0       0       0       0
  4881 ;;      Totals:         0       0       0       0       0       0       0       0       0
  4882 ;;Total ram usage:        0 bytes
  4883 ;; Hardware stack levels used:    1
  4884 ;; Hardware stack levels required when called:    8
  4885 ;; This function calls:
  4886 ;;		Nothing
  4887 ;; This function is called by:
  4888 ;;		_SYSTEM_Initialize
  4889 ;; This function uses a non-reentrant model
  4890 ;;
  4891                           
  4892                           	psect	text31
  4893  001A5A                     __ptext31:
  4894                           	opt callstack 0
  4895  001A5A                     _PMD_Initialize:
  4896                           	opt callstack 21
  4897                           
  4898                           ;mcc_generated_files/mcc.c: 81:     PMD0 = 0x00;
  4899                           
  4900                           ;incstack = 0
  4901  001A5A  0E00               	movlw	0
  4902  001A5C  010E               	movlb	14	; () banked
  4903  001A5E  6FDC               	movwf	220,b	;volatile
  4904                           
  4905                           ;mcc_generated_files/mcc.c: 83:     PMD1 = 0x00;
  4906  001A60  0E00               	movlw	0
  4907  001A62  6FDD               	movwf	221,b	;volatile
  4908                           
  4909                           ;mcc_generated_files/mcc.c: 85:     PMD2 = 0x00;
  4910  001A64  0E00               	movlw	0
  4911  001A66  6FDE               	movwf	222,b	;volatile
  4912                           
  4913                           ;mcc_generated_files/mcc.c: 87:     PMD3 = 0x00;
  4914  001A68  0E00               	movlw	0
  4915  001A6A  6FDF               	movwf	223,b	;volatile
  4916                           
  4917                           ;mcc_generated_files/mcc.c: 89:     PMD4 = 0x00;
  4918  001A6C  0E00               	movlw	0
  4919  001A6E  6FE0               	movwf	224,b	;volatile
  4920                           
  4921                           ;mcc_generated_files/mcc.c: 91:     PMD5 = 0x00;
  4922  001A70  0E00               	movlw	0
  4923  001A72  6FE1               	movwf	225,b	;volatile
  4924                           
  4925                           ; BSR set to: 14
  4926  001A74  0012               	return		;funcret
  4927  001A76                     __end_of_PMD_Initialize:
  4928                           	opt callstack 0
  4929                           
  4930 ;; *************** function _PIN_MANAGER_Initialize *****************
  4931 ;; Defined at:
  4932 ;;		line 57 in file "mcc_generated_files/pin_manager.c"
  4933 ;; Parameters:    Size  Location     Type
  4934 ;;		None
  4935 ;; Auto vars:     Size  Location     Type
  4936 ;;		None
  4937 ;; Return value:  Size  Location     Type
  4938 ;;                  1    wreg      void 
  4939 ;; Registers used:
  4940 ;;		wreg, status,2, status,0, cstack
  4941 ;; Tracked objects:
  4942 ;;		On entry : 0/0
  4943 ;;		On exit  : 0/0
  4944 ;;		Unchanged: 0/0
  4945 ;; Data sizes:     COMRAM   BANK0   BANK1   BANK2   BANK3   BANK4   BANK5   BANK6   BANK7
  4946 ;;      Params:         0       0       0       0       0       0       0       0       0
  4947 ;;      Locals:         0       0       0       0       0       0       0       0       0
  4948 ;;      Temps:          0       0       0       0       0       0       0       0       0
  4949 ;;      Totals:         0       0       0       0       0       0       0       0       0
  4950 ;;Total ram usage:        0 bytes
  4951 ;; Hardware stack levels used:    1
  4952 ;; Hardware stack levels required when called:    9
  4953 ;; This function calls:
  4954 ;;		_IOCCF2_SetInterruptHandler
  4955 ;; This function is called by:
  4956 ;;		_SYSTEM_Initialize
  4957 ;; This function uses a non-reentrant model
  4958 ;;
  4959                           
  4960                           	psect	text32
  4961  0013D8                     __ptext32:
  4962                           	opt callstack 0
  4963  0013D8                     _PIN_MANAGER_Initialize:
  4964                           	opt callstack 20
  4965                           
  4966                           ;mcc_generated_files/pin_manager.c: 62:     LATA = 0x00;
  4967                           
  4968                           ; BSR set to: 14
  4969                           ;incstack = 0
  4970  0013D8  0E00               	movlw	0
  4971  0013DA  6E82               	movwf	3970,c	;volatile
  4972                           
  4973                           ;mcc_generated_files/pin_manager.c: 63:     LATB = 0x00;
  4974  0013DC  0E00               	movlw	0
  4975  0013DE  6E83               	movwf	3971,c	;volatile
  4976                           
  4977                           ;mcc_generated_files/pin_manager.c: 64:     LATC = 0x00;
  4978  0013E0  0E00               	movlw	0
  4979  0013E2  6E84               	movwf	3972,c	;volatile
  4980                           
  4981                           ;mcc_generated_files/pin_manager.c: 69:     TRISA = 0xF0;
  4982  0013E4  0EF0               	movlw	240
  4983  0013E6  6E87               	movwf	3975,c	;volatile
  4984                           
  4985                           ;mcc_generated_files/pin_manager.c: 70:     TRISB = 0xF9;
  4986  0013E8  0EF9               	movlw	249
  4987  0013EA  6E88               	movwf	3976,c	;volatile
  4988                           
  4989                           ;mcc_generated_files/pin_manager.c: 71:     TRISC = 0x3D;
  4990  0013EC  0E3D               	movlw	61
  4991  0013EE  6E89               	movwf	3977,c	;volatile
  4992                           
  4993                           ;mcc_generated_files/pin_manager.c: 76:     ANSELC = 0x3B;
  4994  0013F0  0E3B               	movlw	59
  4995  0013F2  010F               	movlb	15	; () banked
  4996  0013F4  6F1C               	movwf	28,b	;volatile
  4997                           
  4998                           ;mcc_generated_files/pin_manager.c: 77:     ANSELB = 0xF9;
  4999  0013F6  0EF9               	movlw	249
  5000  0013F8  6F14               	movwf	20,b	;volatile
  5001                           
  5002                           ;mcc_generated_files/pin_manager.c: 78:     ANSELA = 0xFA;
  5003  0013FA  0EFA               	movlw	250
  5004  0013FC  6F0C               	movwf	12,b	;volatile
  5005                           
  5006                           ;mcc_generated_files/pin_manager.c: 83:     WPUE = 0x00;
  5007  0013FE  0E00               	movlw	0
  5008  001400  6F28               	movwf	40,b	;volatile
  5009                           
  5010                           ;mcc_generated_files/pin_manager.c: 84:     WPUB = 0x00;
  5011  001402  0E00               	movlw	0
  5012  001404  6F13               	movwf	19,b	;volatile
  5013                           
  5014                           ;mcc_generated_files/pin_manager.c: 85:     WPUA = 0x00;
  5015  001406  0E00               	movlw	0
  5016  001408  6F0B               	movwf	11,b	;volatile
  5017                           
  5018                           ;mcc_generated_files/pin_manager.c: 86:     WPUC = 0x00;
  5019  00140A  0E00               	movlw	0
  5020  00140C  6F1B               	movwf	27,b	;volatile
  5021                           
  5022                           ;mcc_generated_files/pin_manager.c: 91:     ODCONA = 0x00;
  5023  00140E  0E00               	movlw	0
  5024  001410  6F0A               	movwf	10,b	;volatile
  5025                           
  5026                           ;mcc_generated_files/pin_manager.c: 92:     ODCONB = 0x00;
  5027  001412  0E00               	movlw	0
  5028  001414  6F12               	movwf	18,b	;volatile
  5029                           
  5030                           ;mcc_generated_files/pin_manager.c: 93:     ODCONC = 0x00;
  5031  001416  0E00               	movlw	0
  5032  001418  6F1A               	movwf	26,b	;volatile
  5033                           
  5034                           ; BSR set to: 15
  5035                           ;mcc_generated_files/pin_manager.c: 98:     SLRCONA = 0xFF;
  5036  00141A  6909               	setf	9,b	;volatile
  5037                           
  5038                           ; BSR set to: 15
  5039                           ;mcc_generated_files/pin_manager.c: 99:     SLRCONB = 0xFF;
  5040  00141C  6911               	setf	17,b	;volatile
  5041                           
  5042                           ; BSR set to: 15
  5043                           ;mcc_generated_files/pin_manager.c: 100:     SLRCONC = 0xFF;
  5044  00141E  6919               	setf	25,b	;volatile
  5045                           
  5046                           ; BSR set to: 15
  5047                           ;mcc_generated_files/pin_manager.c: 107:     IOCCFbits.IOCCF2 = 0;
  5048  001420  9515               	bcf	21,2,b	;volatile
  5049                           
  5050                           ; BSR set to: 15
  5051                           ;mcc_generated_files/pin_manager.c: 109:     IOCCNbits.IOCCN2 = 0;
  5052  001422  9516               	bcf	22,2,b	;volatile
  5053                           
  5054                           ; BSR set to: 15
  5055                           ;mcc_generated_files/pin_manager.c: 111:     IOCCPbits.IOCCP2 = 1;
  5056  001424  8517               	bsf	23,2,b	;volatile
  5057                           
  5058                           ; BSR set to: 15
  5059                           ;mcc_generated_files/pin_manager.c: 116:     IOCCF2_SetInterruptHandler(IOCCF2_DefaultIn
      +                          terruptHandler);
  5060  001426  0E9E               	movlw	low _IOCCF2_DefaultInterruptHandler
  5061  001428  0100               	movlb	0	; () banked
  5062  00142A  6F60               	movwf	IOCCF2_SetInterruptHandler@InterruptHandler& (0+255),b
  5063  00142C  0E1B               	movlw	high _IOCCF2_DefaultInterruptHandler
  5064  00142E  6F61               	movwf	(IOCCF2_SetInterruptHandler@InterruptHandler+1)& (0+255),b
  5065  001430  EC9A  F00D         	call	_IOCCF2_SetInterruptHandler	;wreg free
  5066                           
  5067                           ;mcc_generated_files/pin_manager.c: 119:     PIE0bits.IOCIE = 1;
  5068  001434  010E               	movlb	14	; () banked
  5069  001436  89BD               	bsf	189,4,b	;volatile
  5070                           
  5071                           ; BSR set to: 14
  5072                           ;mcc_generated_files/pin_manager.c: 122:     CCP1PPS = 0x12;
  5073  001438  0E12               	movlw	18
  5074  00143A  6FAA               	movwf	170,b	;volatile
  5075                           
  5076                           ; BSR set to: 14
  5077                           ;mcc_generated_files/pin_manager.c: 123:     RC6PPS = 0x09;
  5078  00143C  0E09               	movlw	9
  5079  00143E  6FF8               	movwf	248,b	;volatile
  5080                           
  5081                           ; BSR set to: 14
  5082  001440  0012               	return		;funcret
  5083  001442                     __end_of_PIN_MANAGER_Initialize:
  5084                           	opt callstack 0
  5085                           
  5086 ;; *************** function _IOCCF2_SetInterruptHandler *****************
  5087 ;; Defined at:
  5088 ;;		line 153 in file "mcc_generated_files/pin_manager.c"
  5089 ;; Parameters:    Size  Location     Type
  5090 ;;  InterruptHan    2    0[BANK0 ] PTR FTN()void 
  5091 ;;		 -> ping_RC2_went_HIGH(1), IOCCF2_DefaultInterruptHandler(1), 
  5092 ;; Auto vars:     Size  Location     Type
  5093 ;;		None
  5094 ;; Return value:  Size  Location     Type
  5095 ;;                  1    wreg      void 
  5096 ;; Registers used:
  5097 ;;		wreg, status,2, status,0
  5098 ;; Tracked objects:
  5099 ;;		On entry : 0/0
  5100 ;;		On exit  : 0/0
  5101 ;;		Unchanged: 0/0
  5102 ;; Data sizes:     COMRAM   BANK0   BANK1   BANK2   BANK3   BANK4   BANK5   BANK6   BANK7
  5103 ;;      Params:         0       2       0       0       0       0       0       0       0
  5104 ;;      Locals:         0       0       0       0       0       0       0       0       0
  5105 ;;      Temps:          0       0       0       0       0       0       0       0       0
  5106 ;;      Totals:         0       2       0       0       0       0       0       0       0
  5107 ;;Total ram usage:        2 bytes
  5108 ;; Hardware stack levels used:    1
  5109 ;; Hardware stack levels required when called:    8
  5110 ;; This function calls:
  5111 ;;		Nothing
  5112 ;; This function is called by:
  5113 ;;		_PIN_MANAGER_Initialize
  5114 ;;		_ping_init
  5115 ;; This function uses a non-reentrant model
  5116 ;;
  5117                           
  5118                           	psect	text33
  5119  001B34                     __ptext33:
  5120                           	opt callstack 0
  5121  001B34                     _IOCCF2_SetInterruptHandler:
  5122                           	opt callstack 21
  5123                           
  5124                           ;mcc_generated_files/pin_manager.c: 154:     IOCCF2_InterruptHandler = InterruptHandler;
  5125                           
  5126                           ; BSR set to: 14
  5127                           ;incstack = 0
  5128  001B34  C060  F044         	movff	IOCCF2_SetInterruptHandler@InterruptHandler,_IOCCF2_InterruptHandler
  5129  001B38  C061  F045         	movff	IOCCF2_SetInterruptHandler@InterruptHandler+1,_IOCCF2_InterruptHandler+1
  5130  001B3C  0012               	return		;funcret
  5131  001B3E                     __end_of_IOCCF2_SetInterruptHandler:
  5132                           	opt callstack 0
  5133                           
  5134 ;; *************** function _OSCILLATOR_Initialize *****************
  5135 ;; Defined at:
  5136 ;;		line 64 in file "mcc_generated_files/mcc.c"
  5137 ;; Parameters:    Size  Location     Type
  5138 ;;		None
  5139 ;; Auto vars:     Size  Location     Type
  5140 ;;		None
  5141 ;; Return value:  Size  Location     Type
  5142 ;;                  1    wreg      void 
  5143 ;; Registers used:
  5144 ;;		wreg, status,2
  5145 ;; Tracked objects:
  5146 ;;		On entry : 0/0
  5147 ;;		On exit  : 0/0
  5148 ;;		Unchanged: 0/0
  5149 ;; Data sizes:     COMRAM   BANK0   BANK1   BANK2   BANK3   BANK4   BANK5   BANK6   BANK7
  5150 ;;      Params:         0       0       0       0       0       0       0       0       0
  5151 ;;      Locals:         0       0       0       0       0       0       0       0       0
  5152 ;;      Temps:          0       0       0       0       0       0       0       0       0
  5153 ;;      Totals:         0       0       0       0       0       0       0       0       0
  5154 ;;Total ram usage:        0 bytes
  5155 ;; Hardware stack levels used:    1
  5156 ;; Hardware stack levels required when called:    8
  5157 ;; This function calls:
  5158 ;;		Nothing
  5159 ;; This function is called by:
  5160 ;;		_SYSTEM_Initialize
  5161 ;; This function uses a non-reentrant model
  5162 ;;
  5163                           
  5164                           	psect	text34
  5165  001AAE                     __ptext34:
  5166                           	opt callstack 0
  5167  001AAE                     _OSCILLATOR_Initialize:
  5168                           	opt callstack 21
  5169                           
  5170                           ;mcc_generated_files/mcc.c: 67:     OSCCON1 = 0x60;
  5171                           
  5172                           ;incstack = 0
  5173  001AAE  0E60               	movlw	96
  5174  001AB0  010E               	movlb	14	; () banked
  5175  001AB2  6FD3               	movwf	211,b	;volatile
  5176                           
  5177                           ;mcc_generated_files/mcc.c: 69:     OSCCON3 = 0x00;
  5178  001AB4  0E00               	movlw	0
  5179  001AB6  6FD5               	movwf	213,b	;volatile
  5180                           
  5181                           ;mcc_generated_files/mcc.c: 71:     OSCEN = 0x00;
  5182  001AB8  0E00               	movlw	0
  5183  001ABA  6FD7               	movwf	215,b	;volatile
  5184                           
  5185                           ;mcc_generated_files/mcc.c: 73:     OSCFRQ = 0x08;
  5186  001ABC  0E08               	movlw	8
  5187  001ABE  6FD9               	movwf	217,b	;volatile
  5188                           
  5189                           ;mcc_generated_files/mcc.c: 75:     OSCTUNE = 0x00;
  5190  001AC0  0E00               	movlw	0
  5191  001AC2  6FD8               	movwf	216,b	;volatile
  5192                           
  5193                           ; BSR set to: 14
  5194  001AC4  0012               	return		;funcret
  5195  001AC6                     __end_of_OSCILLATOR_Initialize:
  5196                           	opt callstack 0
  5197                           
  5198 ;; *************** function _INTERRUPT_Initialize *****************
  5199 ;; Defined at:
  5200 ;;		line 52 in file "mcc_generated_files/interrupt_manager.c"
  5201 ;; Parameters:    Size  Location     Type
  5202 ;;		None
  5203 ;; Auto vars:     Size  Location     Type
  5204 ;;		None
  5205 ;; Return value:  Size  Location     Type
  5206 ;;                  1    wreg      void 
  5207 ;; Registers used:
  5208 ;;		None
  5209 ;; Tracked objects:
  5210 ;;		On entry : 0/0
  5211 ;;		On exit  : 0/0
  5212 ;;		Unchanged: 0/0
  5213 ;; Data sizes:     COMRAM   BANK0   BANK1   BANK2   BANK3   BANK4   BANK5   BANK6   BANK7
  5214 ;;      Params:         0       0       0       0       0       0       0       0       0
  5215 ;;      Locals:         0       0       0       0       0       0       0       0       0
  5216 ;;      Temps:          0       0       0       0       0       0       0       0       0
  5217 ;;      Totals:         0       0       0       0       0       0       0       0       0
  5218 ;;Total ram usage:        0 bytes
  5219 ;; Hardware stack levels used:    1
  5220 ;; Hardware stack levels required when called:    8
  5221 ;; This function calls:
  5222 ;;		Nothing
  5223 ;; This function is called by:
  5224 ;;		_SYSTEM_Initialize
  5225 ;; This function uses a non-reentrant model
  5226 ;;
  5227                           
  5228                           	psect	text35
  5229  001AEE                     __ptext35:
  5230                           	opt callstack 0
  5231  001AEE                     _INTERRUPT_Initialize:
  5232                           	opt callstack 21
  5233                           
  5234                           ;mcc_generated_files/interrupt_manager.c: 55:     INTCONbits.IPEN = 1;
  5235                           
  5236                           ; BSR set to: 14
  5237                           ;incstack = 0
  5238  001AEE  8AF2               	bsf	4082,5,c	;volatile
  5239                           
  5240                           ;mcc_generated_files/interrupt_manager.c: 60:     IPR4bits.TMR2IP = 1;
  5241  001AF0  010E               	movlb	14	; () banked
  5242  001AF2  83B9               	bsf	185,1,b	;volatile
  5243                           
  5244                           ;mcc_generated_files/interrupt_manager.c: 64:     IPR4bits.TMR1IP = 0;
  5245  001AF4  91B9               	bcf	185,0,b	;volatile
  5246                           
  5247                           ;mcc_generated_files/interrupt_manager.c: 67:     IPR4bits.TMR3IP = 0;
  5248  001AF6  95B9               	bcf	185,2,b	;volatile
  5249                           
  5250                           ;mcc_generated_files/interrupt_manager.c: 70:     IPR6bits.CCP1IP = 0;
  5251  001AF8  91BB               	bcf	187,0,b	;volatile
  5252                           
  5253                           ;mcc_generated_files/interrupt_manager.c: 73:     IPR0bits.IOCIP = 0;
  5254  001AFA  99B5               	bcf	181,4,b	;volatile
  5255                           
  5256                           ;mcc_generated_files/interrupt_manager.c: 76:     IPR1bits.ADIP = 0;
  5257  001AFC  91B6               	bcf	182,0,b	;volatile
  5258                           
  5259                           ; BSR set to: 14
  5260  001AFE  0012               	return		;funcret
  5261  001B00                     __end_of_INTERRUPT_Initialize:
  5262                           	opt callstack 0
  5263                           
  5264 ;; *************** function _EUSART1_Initialize *****************
  5265 ;; Defined at:
  5266 ;;		line 65 in file "mcc_generated_files/eusart1.c"
  5267 ;; Parameters:    Size  Location     Type
  5268 ;;		None
  5269 ;; Auto vars:     Size  Location     Type
  5270 ;;		None
  5271 ;; Return value:  Size  Location     Type
  5272 ;;                  1    wreg      void 
  5273 ;; Registers used:
  5274 ;;		wreg, status,2, status,0, cstack
  5275 ;; Tracked objects:
  5276 ;;		On entry : 0/0
  5277 ;;		On exit  : 0/0
  5278 ;;		Unchanged: 0/0
  5279 ;; Data sizes:     COMRAM   BANK0   BANK1   BANK2   BANK3   BANK4   BANK5   BANK6   BANK7
  5280 ;;      Params:         0       0       0       0       0       0       0       0       0
  5281 ;;      Locals:         0       0       0       0       0       0       0       0       0
  5282 ;;      Temps:          0       0       0       0       0       0       0       0       0
  5283 ;;      Totals:         0       0       0       0       0       0       0       0       0
  5284 ;;Total ram usage:        0 bytes
  5285 ;; Hardware stack levels used:    1
  5286 ;; Hardware stack levels required when called:    9
  5287 ;; This function calls:
  5288 ;;		_EUSART1_SetErrorHandler
  5289 ;;		_EUSART1_SetFramingErrorHandler
  5290 ;;		_EUSART1_SetOverrunErrorHandler
  5291 ;; This function is called by:
  5292 ;;		_SYSTEM_Initialize
  5293 ;; This function uses a non-reentrant model
  5294 ;;
  5295                           
  5296                           	psect	text36
  5297  001608                     __ptext36:
  5298                           	opt callstack 0
  5299  001608                     _EUSART1_Initialize:
  5300                           	opt callstack 20
  5301                           
  5302                           ;mcc_generated_files/eusart1.c: 70:     BAUD1CON = 0x08;
  5303                           
  5304                           ; BSR set to: 14
  5305                           ;incstack = 0
  5306  001608  0E08               	movlw	8
  5307  00160A  6E9E               	movwf	3998,c	;volatile
  5308                           
  5309                           ;mcc_generated_files/eusart1.c: 73:     RC1STA = 0x80;
  5310  00160C  0E80               	movlw	128
  5311  00160E  6E9C               	movwf	3996,c	;volatile
  5312                           
  5313                           ;mcc_generated_files/eusart1.c: 76:     TX1STA = 0x24;
  5314  001610  0E24               	movlw	36
  5315  001612  6E9D               	movwf	3997,c	;volatile
  5316                           
  5317                           ;mcc_generated_files/eusart1.c: 79:     SP1BRGL = 0x82;
  5318  001614  0E82               	movlw	130
  5319  001616  6E9A               	movwf	3994,c	;volatile
  5320                           
  5321                           ;mcc_generated_files/eusart1.c: 82:     SP1BRGH = 0x06;
  5322  001618  0E06               	movlw	6
  5323  00161A  6E9B               	movwf	3995,c	;volatile
  5324                           
  5325                           ;mcc_generated_files/eusart1.c: 85:     EUSART1_SetFramingErrorHandler(EUSART1_DefaultFr
      +                          amingErrorHandler);
  5326  00161C  0E00               	movlw	0
  5327  00161E  0100               	movlb	0	; () banked
  5328  001620  6F60               	movwf	EUSART1_SetFramingErrorHandler@interruptHandler& (0+255),b
  5329  001622  0E00               	movlw	0
  5330  001624  6F61               	movwf	(EUSART1_SetFramingErrorHandler@interruptHandler+1)& (0+255),b
  5331  001626  ECA4  F00D         	call	_EUSART1_SetFramingErrorHandler	;wreg free
  5332                           
  5333                           ;mcc_generated_files/eusart1.c: 86:     EUSART1_SetOverrunErrorHandler(EUSART1_DefaultOv
      +                          errunErrorHandler);
  5334  00162A  0E00               	movlw	0
  5335  00162C  0100               	movlb	0	; () banked
  5336  00162E  6F60               	movwf	EUSART1_SetOverrunErrorHandler@interruptHandler& (0+255),b
  5337  001630  0E00               	movlw	0
  5338  001632  6F61               	movwf	(EUSART1_SetOverrunErrorHandler@interruptHandler+1)& (0+255),b
  5339  001634  EC9F  F00D         	call	_EUSART1_SetOverrunErrorHandler	;wreg free
  5340                           
  5341                           ;mcc_generated_files/eusart1.c: 87:     EUSART1_SetErrorHandler(EUSART1_DefaultErrorHand
      +                          ler);
  5342  001638  0E00               	movlw	0
  5343  00163A  0100               	movlb	0	; () banked
  5344  00163C  6F60               	movwf	EUSART1_SetErrorHandler@interruptHandler& (0+255),b
  5345  00163E  0E00               	movlw	0
  5346  001640  6F61               	movwf	(EUSART1_SetErrorHandler@interruptHandler+1)& (0+255),b
  5347  001642  ECA9  F00D         	call	_EUSART1_SetErrorHandler	;wreg free
  5348                           
  5349                           ;mcc_generated_files/eusart1.c: 89:     eusart1RxLastError.status = 0;
  5350  001646  0E00               	movlw	0
  5351  001648  0100               	movlb	0	; () banked
  5352  00164A  6FCF               	movwf	_eusart1RxLastError& (0+255),b	;volatile
  5353                           
  5354                           ; BSR set to: 0
  5355  00164C  0012               	return		;funcret
  5356  00164E                     __end_of_EUSART1_Initialize:
  5357                           	opt callstack 0
  5358                           
  5359 ;; *************** function _EUSART1_SetOverrunErrorHandler *****************
  5360 ;; Defined at:
  5361 ;;		line 169 in file "mcc_generated_files/eusart1.c"
  5362 ;; Parameters:    Size  Location     Type
  5363 ;;  interruptHan    2    0[BANK0 ] PTR FTN()void 
  5364 ;;		 -> EUSART1_DefaultOverrunErrorHandler(1), 
  5365 ;; Auto vars:     Size  Location     Type
  5366 ;;		None
  5367 ;; Return value:  Size  Location     Type
  5368 ;;                  1    wreg      void 
  5369 ;; Registers used:
  5370 ;;		wreg, status,2, status,0
  5371 ;; Tracked objects:
  5372 ;;		On entry : 0/0
  5373 ;;		On exit  : 0/0
  5374 ;;		Unchanged: 0/0
  5375 ;; Data sizes:     COMRAM   BANK0   BANK1   BANK2   BANK3   BANK4   BANK5   BANK6   BANK7
  5376 ;;      Params:         0       2       0       0       0       0       0       0       0
  5377 ;;      Locals:         0       0       0       0       0       0       0       0       0
  5378 ;;      Temps:          0       0       0       0       0       0       0       0       0
  5379 ;;      Totals:         0       2       0       0       0       0       0       0       0
  5380 ;;Total ram usage:        2 bytes
  5381 ;; Hardware stack levels used:    1
  5382 ;; Hardware stack levels required when called:    8
  5383 ;; This function calls:
  5384 ;;		Nothing
  5385 ;; This function is called by:
  5386 ;;		_EUSART1_Initialize
  5387 ;; This function uses a non-reentrant model
  5388 ;;
  5389                           
  5390                           	psect	text37
  5391  001B3E                     __ptext37:
  5392                           	opt callstack 0
  5393  001B3E                     _EUSART1_SetOverrunErrorHandler:
  5394                           	opt callstack 20
  5395                           
  5396                           ;mcc_generated_files/eusart1.c: 170:     EUSART1_OverrunErrorHandler = interruptHandler;
  5397                           
  5398                           ; BSR set to: 0
  5399                           ;incstack = 0
  5400  001B3E  C060  F0D2         	movff	EUSART1_SetOverrunErrorHandler@interruptHandler,_EUSART1_OverrunErrorHandler
  5401  001B42  C061  F0D3         	movff	EUSART1_SetOverrunErrorHandler@interruptHandler+1,_EUSART1_OverrunErrorHandler+1
  5402  001B46  0012               	return		;funcret
  5403  001B48                     __end_of_EUSART1_SetOverrunErrorHandler:
  5404                           	opt callstack 0
  5405                           
  5406 ;; *************** function _EUSART1_SetFramingErrorHandler *****************
  5407 ;; Defined at:
  5408 ;;		line 165 in file "mcc_generated_files/eusart1.c"
  5409 ;; Parameters:    Size  Location     Type
  5410 ;;  interruptHan    2    0[BANK0 ] PTR FTN()void 
  5411 ;;		 -> EUSART1_DefaultFramingErrorHandler(1), 
  5412 ;; Auto vars:     Size  Location     Type
  5413 ;;		None
  5414 ;; Return value:  Size  Location     Type
  5415 ;;                  1    wreg      void 
  5416 ;; Registers used:
  5417 ;;		wreg, status,2, status,0
  5418 ;; Tracked objects:
  5419 ;;		On entry : 0/0
  5420 ;;		On exit  : 0/0
  5421 ;;		Unchanged: 0/0
  5422 ;; Data sizes:     COMRAM   BANK0   BANK1   BANK2   BANK3   BANK4   BANK5   BANK6   BANK7
  5423 ;;      Params:         0       2       0       0       0       0       0       0       0
  5424 ;;      Locals:         0       0       0       0       0       0       0       0       0
  5425 ;;      Temps:          0       0       0       0       0       0       0       0       0
  5426 ;;      Totals:         0       2       0       0       0       0       0       0       0
  5427 ;;Total ram usage:        2 bytes
  5428 ;; Hardware stack levels used:    1
  5429 ;; Hardware stack levels required when called:    8
  5430 ;; This function calls:
  5431 ;;		Nothing
  5432 ;; This function is called by:
  5433 ;;		_EUSART1_Initialize
  5434 ;; This function uses a non-reentrant model
  5435 ;;
  5436                           
  5437                           	psect	text38
  5438  001B48                     __ptext38:
  5439                           	opt callstack 0
  5440  001B48                     _EUSART1_SetFramingErrorHandler:
  5441                           	opt callstack 20
  5442                           
  5443                           ;mcc_generated_files/eusart1.c: 166:     EUSART1_FramingErrorHandler = interruptHandler;
  5444                           
  5445                           ;incstack = 0
  5446  001B48  C060  F0D4         	movff	EUSART1_SetFramingErrorHandler@interruptHandler,_EUSART1_FramingErrorHandler
  5447  001B4C  C061  F0D5         	movff	EUSART1_SetFramingErrorHandler@interruptHandler+1,_EUSART1_FramingErrorHandler+1
  5448  001B50  0012               	return		;funcret
  5449  001B52                     __end_of_EUSART1_SetFramingErrorHandler:
  5450                           	opt callstack 0
  5451                           
  5452 ;; *************** function _EUSART1_SetErrorHandler *****************
  5453 ;; Defined at:
  5454 ;;		line 173 in file "mcc_generated_files/eusart1.c"
  5455 ;; Parameters:    Size  Location     Type
  5456 ;;  interruptHan    2    0[BANK0 ] PTR FTN()void 
  5457 ;;		 -> EUSART1_DefaultErrorHandler(1), 
  5458 ;; Auto vars:     Size  Location     Type
  5459 ;;		None
  5460 ;; Return value:  Size  Location     Type
  5461 ;;                  1    wreg      void 
  5462 ;; Registers used:
  5463 ;;		wreg, status,2, status,0
  5464 ;; Tracked objects:
  5465 ;;		On entry : 0/0
  5466 ;;		On exit  : 0/0
  5467 ;;		Unchanged: 0/0
  5468 ;; Data sizes:     COMRAM   BANK0   BANK1   BANK2   BANK3   BANK4   BANK5   BANK6   BANK7
  5469 ;;      Params:         0       2       0       0       0       0       0       0       0
  5470 ;;      Locals:         0       0       0       0       0       0       0       0       0
  5471 ;;      Temps:          0       0       0       0       0       0       0       0       0
  5472 ;;      Totals:         0       2       0       0       0       0       0       0       0
  5473 ;;Total ram usage:        2 bytes
  5474 ;; Hardware stack levels used:    1
  5475 ;; Hardware stack levels required when called:    8
  5476 ;; This function calls:
  5477 ;;		Nothing
  5478 ;; This function is called by:
  5479 ;;		_EUSART1_Initialize
  5480 ;; This function uses a non-reentrant model
  5481 ;;
  5482                           
  5483                           	psect	text39
  5484  001B52                     __ptext39:
  5485                           	opt callstack 0
  5486  001B52                     _EUSART1_SetErrorHandler:
  5487                           	opt callstack 20
  5488                           
  5489                           ;mcc_generated_files/eusart1.c: 174:     EUSART1_ErrorHandler = interruptHandler;
  5490                           
  5491                           ;incstack = 0
  5492  001B52  C060  F0D0         	movff	EUSART1_SetErrorHandler@interruptHandler,_EUSART1_ErrorHandler
  5493  001B56  C061  F0D1         	movff	EUSART1_SetErrorHandler@interruptHandler+1,_EUSART1_ErrorHandler+1
  5494  001B5A  0012               	return		;funcret
  5495  001B5C                     __end_of_EUSART1_SetErrorHandler:
  5496                           	opt callstack 0
  5497                           
  5498 ;; *************** function _CCP1_Initialize *****************
  5499 ;; Defined at:
  5500 ;;		line 65 in file "mcc_generated_files/ccp1.c"
  5501 ;; Parameters:    Size  Location     Type
  5502 ;;		None
  5503 ;; Auto vars:     Size  Location     Type
  5504 ;;		None
  5505 ;; Return value:  Size  Location     Type
  5506 ;;                  1    wreg      void 
  5507 ;; Registers used:
  5508 ;;		wreg, status,2, status,0, cstack
  5509 ;; Tracked objects:
  5510 ;;		On entry : 0/0
  5511 ;;		On exit  : 0/0
  5512 ;;		Unchanged: 0/0
  5513 ;; Data sizes:     COMRAM   BANK0   BANK1   BANK2   BANK3   BANK4   BANK5   BANK6   BANK7
  5514 ;;      Params:         0       0       0       0       0       0       0       0       0
  5515 ;;      Locals:         0       0       0       0       0       0       0       0       0
  5516 ;;      Temps:          0       0       0       0       0       0       0       0       0
  5517 ;;      Totals:         0       0       0       0       0       0       0       0       0
  5518 ;;Total ram usage:        0 bytes
  5519 ;; Hardware stack levels used:    1
  5520 ;; Hardware stack levels required when called:    9
  5521 ;; This function calls:
  5522 ;;		_CCP1_SetCallBack
  5523 ;; This function is called by:
  5524 ;;		_SYSTEM_Initialize
  5525 ;; This function uses a non-reentrant model
  5526 ;;
  5527                           
  5528                           	psect	text40
  5529  0018C0                     __ptext40:
  5530                           	opt callstack 0
  5531  0018C0                     _CCP1_Initialize:
  5532                           	opt callstack 20
  5533                           
  5534                           ;mcc_generated_files/ccp1.c: 70:  CCP1CON = 0x84;
  5535                           
  5536                           ;incstack = 0
  5537  0018C0  0E84               	movlw	132
  5538  0018C2  6EAB               	movwf	4011,c	;volatile
  5539                           
  5540                           ;mcc_generated_files/ccp1.c: 73:  CCP1CAP = 0x00;
  5541  0018C4  0E00               	movlw	0
  5542  0018C6  6EAC               	movwf	4012,c	;volatile
  5543                           
  5544                           ;mcc_generated_files/ccp1.c: 76:  CCPR1H = 0x00;
  5545  0018C8  0E00               	movlw	0
  5546  0018CA  6EAA               	movwf	4010,c	;volatile
  5547                           
  5548                           ;mcc_generated_files/ccp1.c: 79:  CCPR1L = 0x00;
  5549  0018CC  0E00               	movlw	0
  5550  0018CE  6EA9               	movwf	4009,c	;volatile
  5551                           
  5552                           ;mcc_generated_files/ccp1.c: 82:     CCP1_SetCallBack(CCP1_DefaultCallBack);
  5553  0018D0  0EA0               	movlw	low _CCP1_DefaultCallBack
  5554  0018D2  0100               	movlb	0	; () banked
  5555  0018D4  6F60               	movwf	CCP1_SetCallBack@customCallBack& (0+255),b
  5556  0018D6  0E1B               	movlw	high _CCP1_DefaultCallBack
  5557  0018D8  6F61               	movwf	(CCP1_SetCallBack@customCallBack+1)& (0+255),b
  5558  0018DA  ECAE  F00D         	call	_CCP1_SetCallBack	;wreg free
  5559                           
  5560                           ;mcc_generated_files/ccp1.c: 85:  CCPTMRSbits.C1TSEL = 0x1;
  5561  0018DE  50AD               	movf	4013,w,c	;volatile
  5562  0018E0  0BFC               	andlw	-4
  5563  0018E2  0901               	iorlw	1
  5564  0018E4  6EAD               	movwf	4013,c	;volatile
  5565                           
  5566                           ;mcc_generated_files/ccp1.c: 88:     PIR6bits.CCP1IF = 0;
  5567  0018E6  010E               	movlb	14	; () banked
  5568  0018E8  91CB               	bcf	203,0,b	;volatile
  5569                           
  5570                           ; BSR set to: 14
  5571                           ;mcc_generated_files/ccp1.c: 91:     PIE6bits.CCP1IE = 1;
  5572  0018EA  81C3               	bsf	195,0,b	;volatile
  5573                           
  5574                           ; BSR set to: 14
  5575  0018EC  0012               	return		;funcret
  5576  0018EE                     __end_of_CCP1_Initialize:
  5577                           	opt callstack 0
  5578                           
  5579 ;; *************** function _CCP1_SetCallBack *****************
  5580 ;; Defined at:
  5581 ;;		line 109 in file "mcc_generated_files/ccp1.c"
  5582 ;; Parameters:    Size  Location     Type
  5583 ;;  customCallBa    2    0[BANK0 ] PTR FTN(unsigned short ,
  5584 ;;		 -> ping_CCP1_triggered(1), CCP1_DefaultCallBack(1), 
  5585 ;; Auto vars:     Size  Location     Type
  5586 ;;		None
  5587 ;; Return value:  Size  Location     Type
  5588 ;;                  1    wreg      void 
  5589 ;; Registers used:
  5590 ;;		wreg, status,2, status,0
  5591 ;; Tracked objects:
  5592 ;;		On entry : 0/0
  5593 ;;		On exit  : 0/0
  5594 ;;		Unchanged: 0/0
  5595 ;; Data sizes:     COMRAM   BANK0   BANK1   BANK2   BANK3   BANK4   BANK5   BANK6   BANK7
  5596 ;;      Params:         0       2       0       0       0       0       0       0       0
  5597 ;;      Locals:         0       0       0       0       0       0       0       0       0
  5598 ;;      Temps:          0       0       0       0       0       0       0       0       0
  5599 ;;      Totals:         0       2       0       0       0       0       0       0       0
  5600 ;;Total ram usage:        2 bytes
  5601 ;; Hardware stack levels used:    1
  5602 ;; Hardware stack levels required when called:    8
  5603 ;; This function calls:
  5604 ;;		Nothing
  5605 ;; This function is called by:
  5606 ;;		_CCP1_Initialize
  5607 ;;		_ping_init
  5608 ;; This function uses a non-reentrant model
  5609 ;;
  5610                           
  5611                           	psect	text41
  5612  001B5C                     __ptext41:
  5613                           	opt callstack 0
  5614  001B5C                     _CCP1_SetCallBack:
  5615                           	opt callstack 21
  5616                           
  5617                           ;mcc_generated_files/ccp1.c: 110:     CCP1_CallBack = customCallBack;
  5618                           
  5619                           ; BSR set to: 14
  5620                           ;incstack = 0
  5621  001B5C  C060  F042         	movff	CCP1_SetCallBack@customCallBack,_CCP1_CallBack
  5622  001B60  C061  F043         	movff	CCP1_SetCallBack@customCallBack+1,_CCP1_CallBack+1
  5623  001B64  0012               	return		;funcret
  5624  001B66                     __end_of_CCP1_SetCallBack:
  5625                           	opt callstack 0
  5626                           
  5627 ;; *************** function _ADCC_Initialize *****************
  5628 ;; Defined at:
  5629 ;;		line 59 in file "mcc_generated_files/adcc.c"
  5630 ;; Parameters:    Size  Location     Type
  5631 ;;		None
  5632 ;; Auto vars:     Size  Location     Type
  5633 ;;		None
  5634 ;; Return value:  Size  Location     Type
  5635 ;;                  1    wreg      void 
  5636 ;; Registers used:
  5637 ;;		wreg, status,2, status,0
  5638 ;; Tracked objects:
  5639 ;;		On entry : 0/0
  5640 ;;		On exit  : 0/0
  5641 ;;		Unchanged: 0/0
  5642 ;; Data sizes:     COMRAM   BANK0   BANK1   BANK2   BANK3   BANK4   BANK5   BANK6   BANK7
  5643 ;;      Params:         0       0       0       0       0       0       0       0       0
  5644 ;;      Locals:         0       0       0       0       0       0       0       0       0
  5645 ;;      Temps:          0       0       0       0       0       0       0       0       0
  5646 ;;      Totals:         0       0       0       0       0       0       0       0       0
  5647 ;;Total ram usage:        0 bytes
  5648 ;; Hardware stack levels used:    1
  5649 ;; Hardware stack levels required when called:    8
  5650 ;; This function calls:
  5651 ;;		Nothing
  5652 ;; This function is called by:
  5653 ;;		_SYSTEM_Initialize
  5654 ;; This function uses a non-reentrant model
  5655 ;;
  5656                           
  5657                           	psect	text42
  5658  00150A                     __ptext42:
  5659                           	opt callstack 0
  5660  00150A                     _ADCC_Initialize:
  5661                           	opt callstack 21
  5662                           
  5663                           ;mcc_generated_files/adcc.c: 61:     ADCC_InterruptHandler = ((void*)0);
  5664                           
  5665                           ;incstack = 0
  5666  00150A  0E00               	movlw	0
  5667  00150C  6E50               	movwf	_ADCC_InterruptHandler,c
  5668  00150E  0E00               	movlw	0
  5669  001510  6E51               	movwf	_ADCC_InterruptHandler+1,c
  5670                           
  5671                           ;mcc_generated_files/adcc.c: 65:     ADCON1 = 0x00;
  5672  001512  0E00               	movlw	0
  5673  001514  010F               	movlb	15	; () banked
  5674  001516  6F54               	movwf	84,b	;volatile
  5675                           
  5676                           ; BSR set to: 15
  5677                           ;mcc_generated_files/adcc.c: 67:     ADCON2 = 0x00;
  5678  001518  0E00               	movlw	0
  5679  00151A  6F55               	movwf	85,b	;volatile
  5680                           
  5681                           ; BSR set to: 15
  5682                           ;mcc_generated_files/adcc.c: 69:     ADCON3 = 0x00;
  5683  00151C  0E00               	movlw	0
  5684  00151E  6F56               	movwf	86,b	;volatile
  5685                           
  5686                           ; BSR set to: 15
  5687                           ;mcc_generated_files/adcc.c: 71:     ADACT = 0x00;
  5688  001520  0E00               	movlw	0
  5689  001522  6F51               	movwf	81,b	;volatile
  5690                           
  5691                           ; BSR set to: 15
  5692                           ;mcc_generated_files/adcc.c: 73:     ADSTAT = 0x00;
  5693  001524  0E00               	movlw	0
  5694  001526  6E60               	movwf	3936,c	;volatile
  5695                           
  5696                           ; BSR set to: 15
  5697                           ;mcc_generated_files/adcc.c: 75:     ADCLK = 0x00;
  5698  001528  0E00               	movlw	0
  5699  00152A  6F52               	movwf	82,b	;volatile
  5700                           
  5701                           ; BSR set to: 15
  5702                           ;mcc_generated_files/adcc.c: 77:     ADREF = 0x00;
  5703  00152C  0E00               	movlw	0
  5704  00152E  6F53               	movwf	83,b	;volatile
  5705                           
  5706                           ; BSR set to: 15
  5707                           ;mcc_generated_files/adcc.c: 79:     ADCAP = 0x00;
  5708  001530  0E00               	movlw	0
  5709  001532  6F58               	movwf	88,b	;volatile
  5710                           
  5711                           ; BSR set to: 15
  5712                           ;mcc_generated_files/adcc.c: 81:     ADPRE = 0x00;
  5713  001534  0E00               	movlw	0
  5714  001536  6F59               	movwf	89,b	;volatile
  5715                           
  5716                           ; BSR set to: 15
  5717                           ;mcc_generated_files/adcc.c: 83:     ADACQ = 0x00;
  5718  001538  0E00               	movlw	0
  5719  00153A  6F57               	movwf	87,b	;volatile
  5720                           
  5721                           ; BSR set to: 15
  5722                           ;mcc_generated_files/adcc.c: 85:     ADPCH = 0x00;
  5723  00153C  0E00               	movlw	0
  5724  00153E  6F5A               	movwf	90,b	;volatile
  5725                           
  5726                           ; BSR set to: 15
  5727                           ;mcc_generated_files/adcc.c: 87:     ADRPT = 0x00;
  5728  001540  0E00               	movlw	0
  5729  001542  6E61               	movwf	3937,c	;volatile
  5730                           
  5731                           ; BSR set to: 15
  5732                           ;mcc_generated_files/adcc.c: 89:     ADLTHL = 0x00;
  5733  001544  0E00               	movlw	0
  5734  001546  6E65               	movwf	3941,c	;volatile
  5735                           
  5736                           ; BSR set to: 15
  5737                           ;mcc_generated_files/adcc.c: 91:     ADLTHH = 0x00;
  5738  001548  0E00               	movlw	0
  5739  00154A  6E66               	movwf	3942,c	;volatile
  5740                           
  5741                           ; BSR set to: 15
  5742                           ;mcc_generated_files/adcc.c: 93:     ADUTHL = 0x00;
  5743  00154C  0E00               	movlw	0
  5744  00154E  6E67               	movwf	3943,c	;volatile
  5745                           
  5746                           ; BSR set to: 15
  5747                           ;mcc_generated_files/adcc.c: 95:     ADUTHH = 0x00;
  5748  001550  0E00               	movlw	0
  5749  001552  6E68               	movwf	3944,c	;volatile
  5750                           
  5751                           ; BSR set to: 15
  5752                           ;mcc_generated_files/adcc.c: 97:     ADSTPTL = 0x00;
  5753  001554  0E00               	movlw	0
  5754  001556  6E63               	movwf	3939,c	;volatile
  5755                           
  5756                           ; BSR set to: 15
  5757                           ;mcc_generated_files/adcc.c: 99:     ADSTPTH = 0x00;
  5758  001558  0E00               	movlw	0
  5759  00155A  6E64               	movwf	3940,c	;volatile
  5760                           
  5761                           ; BSR set to: 15
  5762                           ;mcc_generated_files/adcc.c: 102:     ADCON0 = 0x90;
  5763  00155C  0E90               	movlw	144
  5764  00155E  6F5B               	movwf	91,b	;volatile
  5765                           
  5766                           ; BSR set to: 15
  5767                           ;mcc_generated_files/adcc.c: 105:     PIR1bits.ADIF = 0;
  5768  001560  010E               	movlb	14	; () banked
  5769  001562  91C6               	bcf	198,0,b	;volatile
  5770                           
  5771                           ; BSR set to: 14
  5772                           ;mcc_generated_files/adcc.c: 107:     PIE1bits.ADIE = 1;
  5773  001564  81BE               	bsf	190,0,b	;volatile
  5774                           
  5775                           ; BSR set to: 14
  5776  001566  0012               	return		;funcret
  5777  001568                     __end_of_ADCC_Initialize:
  5778                           	opt callstack 0
  5779                           
  5780 ;; *************** function _INTERRUPT_InterruptManagerLow *****************
  5781 ;; Defined at:
  5782 ;;		line 89 in file "mcc_generated_files/interrupt_manager.c"
  5783 ;; Parameters:    Size  Location     Type
  5784 ;;		None
  5785 ;; Auto vars:     Size  Location     Type
  5786 ;;		None
  5787 ;; Return value:  Size  Location     Type
  5788 ;;                  1    wreg      void 
  5789 ;; Registers used:
  5790 ;;		wreg, fsr2l, fsr2h, status,2, status,0, pclath, tosl, prodl, prodh, cstack
  5791 ;; Tracked objects:
  5792 ;;		On entry : 0/0
  5793 ;;		On exit  : 0/0
  5794 ;;		Unchanged: 0/0
  5795 ;; Data sizes:     COMRAM   BANK0   BANK1   BANK2   BANK3   BANK4   BANK5   BANK6   BANK7
  5796 ;;      Params:         0       0       0       0       0       0       0       0       0
  5797 ;;      Locals:         0       0       0       0       0       0       0       0       0
  5798 ;;      Temps:          9       0       0       0       0       0       0       0       0
  5799 ;;      Totals:         9       0       0       0       0       0       0       0       0
  5800 ;;Total ram usage:        9 bytes
  5801 ;; Hardware stack levels used:    1
  5802 ;; Hardware stack levels required when called:    7
  5803 ;; This function calls:
  5804 ;;		_ADCC_ISR
  5805 ;;		_CCP1_CaptureISR
  5806 ;;		_PIN_MANAGER_IOC
  5807 ;;		_TMR1_ISR
  5808 ;;		_TMR3_ISR
  5809 ;; This function is called by:
  5810 ;;		Interrupt level 1
  5811 ;; This function uses a non-reentrant model
  5812 ;;
  5813                           
  5814                           	psect	intcodelo
  5815  000018                     __pintcodelo:
  5816                           	opt callstack 0
  5817  000018                     _INTERRUPT_InterruptManagerLow:
  5818                           	opt callstack 20
  5819                           
  5820                           ; BSR set to: 14
  5821                           ;incstack = 0
  5822  000018  8057               	bsf	btemp,0,c	;set compiler interrupt flag (level 1)
  5823  00001A  CFD8 F031          	movff	status,??_INTERRUPT_InterruptManagerLow
  5824  00001E  CFE8 F032          	movff	wreg,??_INTERRUPT_InterruptManagerLow+1
  5825  000022  CFE0 F033          	movff	bsr,??_INTERRUPT_InterruptManagerLow+2
  5826  000026  CFFA F034          	movff	pclath,??_INTERRUPT_InterruptManagerLow+3
  5827  00002A  CFFB F035          	movff	pclatu,??_INTERRUPT_InterruptManagerLow+4
  5828  00002E  CFD9 F036          	movff	fsr2l,??_INTERRUPT_InterruptManagerLow+5
  5829  000032  CFDA F037          	movff	fsr2h,??_INTERRUPT_InterruptManagerLow+6
  5830  000036  CFF3 F038          	movff	prodl,??_INTERRUPT_InterruptManagerLow+7
  5831  00003A  CFF4 F039          	movff	prodh,??_INTERRUPT_InterruptManagerLow+8
  5832                           
  5833                           ;mcc_generated_files/interrupt_manager.c: 92:     if(PIE4bits.TMR1IE == 1 && PIR4bits.TM
      +                          R1IF == 1)
  5834  00003E  010E               	movlb	14	; () banked
  5835  000040  B1C1               	btfsc	193,0,b	;volatile
  5836                           
  5837                           ; BSR set to: 14
  5838  000042  A1C9               	btfss	201,0,b	;volatile
  5839  000044  D003               	goto	i1l259
  5840                           
  5841                           ; BSR set to: 14
  5842                           ;mcc_generated_files/interrupt_manager.c: 93:     {;mcc_generated_files/interrupt_manage
      +                          r.c: 94:         TMR1_ISR();
  5843  000046  EC31  F00C         	call	_TMR1_ISR	;wreg free
  5844                           
  5845                           ;mcc_generated_files/interrupt_manager.c: 95:     }
  5846  00004A  D017               	goto	i1l264
  5847  00004C                     i1l259:
  5848                           
  5849                           ; BSR set to: 14
  5850  00004C  B5C1               	btfsc	193,2,b	;volatile
  5851                           
  5852                           ; BSR set to: 14
  5853  00004E  A5C9               	btfss	201,2,b	;volatile
  5854  000050  D003               	goto	i1l261
  5855                           
  5856                           ; BSR set to: 14
  5857                           ;mcc_generated_files/interrupt_manager.c: 97:     {;mcc_generated_files/interrupt_manage
      +                          r.c: 98:         TMR3_ISR();
  5858  000052  EC19  F00C         	call	_TMR3_ISR	;wreg free
  5859                           
  5860                           ;mcc_generated_files/interrupt_manager.c: 99:     }
  5861  000056  D011               	goto	i1l264
  5862  000058                     i1l261:
  5863                           
  5864                           ; BSR set to: 14
  5865  000058  B1C3               	btfsc	195,0,b	;volatile
  5866                           
  5867                           ; BSR set to: 14
  5868  00005A  A1CB               	btfss	203,0,b	;volatile
  5869  00005C  D003               	goto	i1l263
  5870                           
  5871                           ; BSR set to: 14
  5872                           ;mcc_generated_files/interrupt_manager.c: 101:     {;mcc_generated_files/interrupt_manag
      +                          er.c: 102:         CCP1_CaptureISR();
  5873  00005E  EC77  F00C         	call	_CCP1_CaptureISR	;wreg free
  5874                           
  5875                           ;mcc_generated_files/interrupt_manager.c: 103:     }
  5876  000062  D00B               	goto	i1l264
  5877  000064                     i1l263:
  5878                           
  5879                           ; BSR set to: 14
  5880  000064  B9BD               	btfsc	189,4,b	;volatile
  5881                           
  5882                           ; BSR set to: 14
  5883  000066  A9C5               	btfss	197,4,b	;volatile
  5884  000068  D003               	goto	i1l265
  5885                           
  5886                           ; BSR set to: 14
  5887                           ;mcc_generated_files/interrupt_manager.c: 105:     {;mcc_generated_files/interrupt_manag
      +                          er.c: 106:         PIN_MANAGER_IOC();
  5888  00006A  EC80  F00D         	call	_PIN_MANAGER_IOC	;wreg free
  5889                           
  5890                           ;mcc_generated_files/interrupt_manager.c: 107:     }
  5891  00006E  D005               	goto	i1l264
  5892  000070                     i1l265:
  5893                           
  5894                           ; BSR set to: 14
  5895  000070  B1BE               	btfsc	190,0,b	;volatile
  5896                           
  5897                           ; BSR set to: 14
  5898  000072  A1C6               	btfss	198,0,b	;volatile
  5899  000074  D002               	goto	i1l264
  5900                           
  5901                           ; BSR set to: 14
  5902                           ;mcc_generated_files/interrupt_manager.c: 109:     {;mcc_generated_files/interrupt_manag
      +                          er.c: 110:         ADCC_ISR();
  5903  000076  ECDC  F00C         	call	_ADCC_ISR	;wreg free
  5904  00007A                     i1l264:
  5905                           
  5906                           ; BSR set to: 14
  5907  00007A  C039  FFF4         	movff	??_INTERRUPT_InterruptManagerLow+8,prodh
  5908  00007E  C038  FFF3         	movff	??_INTERRUPT_InterruptManagerLow+7,prodl
  5909  000082  C037  FFDA         	movff	??_INTERRUPT_InterruptManagerLow+6,fsr2h
  5910  000086  C036  FFD9         	movff	??_INTERRUPT_InterruptManagerLow+5,fsr2l
  5911  00008A  C035  FFFB         	movff	??_INTERRUPT_InterruptManagerLow+4,pclatu
  5912  00008E  C034  FFFA         	movff	??_INTERRUPT_InterruptManagerLow+3,pclath
  5913  000092  C033  FFE0         	movff	??_INTERRUPT_InterruptManagerLow+2,bsr
  5914  000096  C032  FFE8         	movff	??_INTERRUPT_InterruptManagerLow+1,wreg
  5915  00009A  C031  FFD8         	movff	??_INTERRUPT_InterruptManagerLow,status
  5916  00009E  9057               	bcf	btemp,0,c	;clear compiler interrupt flag (level 1)
  5917  0000A0  0010               	retfie	
  5918  0000A2                     __end_of_INTERRUPT_InterruptManagerLow:
  5919                           	opt callstack 0
  5920                           
  5921 ;; *************** function _TMR3_ISR *****************
  5922 ;; Defined at:
  5923 ;;		line 164 in file "mcc_generated_files/tmr3.c"
  5924 ;; Parameters:    Size  Location     Type
  5925 ;;		None
  5926 ;; Auto vars:     Size  Location     Type
  5927 ;;		None
  5928 ;; Return value:  Size  Location     Type
  5929 ;;                  1    wreg      void 
  5930 ;; Registers used:
  5931 ;;		wreg, fsr2l, fsr2h, status,2, status,0, pclath, tosl, cstack
  5932 ;; Tracked objects:
  5933 ;;		On entry : 0/0
  5934 ;;		On exit  : 0/0
  5935 ;;		Unchanged: 0/0
  5936 ;; Data sizes:     COMRAM   BANK0   BANK1   BANK2   BANK3   BANK4   BANK5   BANK6   BANK7
  5937 ;;      Params:         0       0       0       0       0       0       0       0       0
  5938 ;;      Locals:         0       0       0       0       0       0       0       0       0
  5939 ;;      Temps:          0       0       0       0       0       0       0       0       0
  5940 ;;      Totals:         0       0       0       0       0       0       0       0       0
  5941 ;;Total ram usage:        0 bytes
  5942 ;; Hardware stack levels used:    1
  5943 ;; Hardware stack levels required when called:    5
  5944 ;; This function calls:
  5945 ;;		Absolute function
  5946 ;;		_TMR3_DefaultInterruptHandler
  5947 ;;		_timer_ISR
  5948 ;;		i1_TMR3_WriteTimer
  5949 ;;		i1_cam_start
  5950 ;; This function is called by:
  5951 ;;		_INTERRUPT_InterruptManagerLow
  5952 ;; This function uses a non-reentrant model
  5953 ;;
  5954                           
  5955                           	psect	text44
  5956  001832                     __ptext44:
  5957                           	opt callstack 0
  5958  001832                     _TMR3_ISR:
  5959                           	opt callstack 21
  5960                           
  5961                           ;mcc_generated_files/tmr3.c: 168:     PIR4bits.TMR3IF = 0;
  5962                           
  5963                           ;incstack = 0
  5964  001832  010E               	movlb	14	; () banked
  5965  001834  95C9               	bcf	201,2,b	;volatile
  5966                           
  5967                           ; BSR set to: 14
  5968                           ;mcc_generated_files/tmr3.c: 169:     TMR3_WriteTimer(timer3ReloadVal);
  5969  001836  C03C  F006         	movff	_timer3ReloadVal,i1TMR3_WriteTimer@timerVal	;volatile
  5970  00183A  C03D  F007         	movff	_timer3ReloadVal+1,i1TMR3_WriteTimer@timerVal+1	;volatile
  5971  00183E  EC49  F00D         	call	i1_TMR3_WriteTimer	;wreg free
  5972                           
  5973                           ;mcc_generated_files/tmr3.c: 171:     if(TMR3_InterruptHandler)
  5974  001842  503A               	movf	_TMR3_InterruptHandler,w,c
  5975  001844  103B               	iorwf	_TMR3_InterruptHandler+1,w,c
  5976  001846  B4D8               	btfsc	status,2,c
  5977  001848  0012               	return	
  5978                           
  5979                           ;mcc_generated_files/tmr3.c: 172:     {;mcc_generated_files/tmr3.c: 173:         TMR3_In
      +                          terruptHandler();
  5980  00184A  D801               	call	i1u306_28
  5981  00184C  0012               	return	
  5982  00184E                     i1u306_28:
  5983  00184E  0005               	push	
  5984  001850  6EFA               	movwf	pclath,c
  5985  001852  503A               	movf	_TMR3_InterruptHandler,w,c
  5986  001854  6EFD               	movwf	tosl,c
  5987  001856  503B               	movf	_TMR3_InterruptHandler+1,w,c
  5988  001858  6EFE               	movwf	tosh,c
  5989  00185A  50F8               	movf	tblptru,w,c
  5990  00185C  6EFF               	movwf	tosu,c
  5991  00185E  50FA               	movf	pclath,w,c
  5992  001860  0012               	return		;indir
  5993  001862                     __end_of_TMR3_ISR:
  5994                           	opt callstack 0
  5995                           
  5996 ;; *************** function _timer_ISR *****************
  5997 ;; Defined at:
  5998 ;;		line 49 in file "cam.c"
  5999 ;; Parameters:    Size  Location     Type
  6000 ;;		None
  6001 ;; Auto vars:     Size  Location     Type
  6002 ;;		None
  6003 ;; Return value:  Size  Location     Type
  6004 ;;                  1    wreg      void 
  6005 ;; Registers used:
  6006 ;;		wreg, fsr2l, fsr2h, status,2, status,0, cstack
  6007 ;; Tracked objects:
  6008 ;;		On entry : 0/0
  6009 ;;		On exit  : 0/0
  6010 ;;		Unchanged: 0/0
  6011 ;; Data sizes:     COMRAM   BANK0   BANK1   BANK2   BANK3   BANK4   BANK5   BANK6   BANK7
  6012 ;;      Params:         0       0       0       0       0       0       0       0       0
  6013 ;;      Locals:         0       0       0       0       0       0       0       0       0
  6014 ;;      Temps:          1       0       0       0       0       0       0       0       0
  6015 ;;      Totals:         1       0       0       0       0       0       0       0       0
  6016 ;;Total ram usage:        1 bytes
  6017 ;; Hardware stack levels used:    1
  6018 ;; Hardware stack levels required when called:    4
  6019 ;; This function calls:
  6020 ;;		i1_TMR3_SetInterruptHandler
  6021 ;;		i1_TMR3_StartTimer
  6022 ;;		i1_TMR3_WriteTimer
  6023 ;; This function is called by:
  6024 ;;		_adc_ready_ISR
  6025 ;;		_cam_start
  6026 ;;		i1_cam_start
  6027 ;;		_TMR3_ISR
  6028 ;; This function uses a non-reentrant model
  6029 ;;
  6030                           
  6031                           	psect	text45
  6032  00136A                     __ptext45:
  6033                           	opt callstack 0
  6034  00136A                     _timer_ISR:
  6035                           	opt callstack 21
  6036                           
  6037                           ;cam.c: 50:     TMR3_SetInterruptHandler(TMR3_DefaultInterruptHandler);
  6038                           
  6039                           ;incstack = 0
  6040  00136A  0E9A               	movlw	low _TMR3_DefaultInterruptHandler
  6041  00136C  6E06               	movwf	i1TMR3_SetInterruptHandler@InterruptHandler,c
  6042  00136E  0E1B               	movlw	high _TMR3_DefaultInterruptHandler
  6043  001370  6E07               	movwf	i1TMR3_SetInterruptHandler@InterruptHandler+1,c
  6044  001372  ECBD  F00D         	call	i1_TMR3_SetInterruptHandler	;wreg free
  6045  001376  A284               	btfss	3972,1,c	;volatile
  6046  001378  D002               	goto	i1u216_20
  6047  00137A  0E01               	movlw	1
  6048  00137C  D001               	goto	i1u216_26
  6049  00137E                     i1u216_20:
  6050  00137E  0E00               	movlw	0
  6051  001380                     i1u216_26:
  6052  001380  0AFF               	xorlw	255
  6053  001382  6E08               	movwf	??_timer_ISR& (0+255),c
  6054  001384  4608               	rlncf	??_timer_ISR,f,c
  6055  001386  5084               	movf	3972,w,c	;volatile
  6056  001388  1808               	xorwf	??_timer_ISR,w,c
  6057  00138A  0BFD               	andlw	-3
  6058  00138C  1808               	xorwf	??_timer_ISR,w,c
  6059  00138E  6E84               	movwf	3972,c	;volatile
  6060                           
  6061                           ;cam.c: 53:     if (myCam.status == CAM_START) {
  6062  001390  EE22  F086         	lfsr	2,_myCam+257	;volatile
  6063  001394  50DF               	movf	indf2,w,c
  6064  001396  A4D8               	btfss	status,2,c
  6065  001398  D014               	goto	i1l3687
  6066                           
  6067                           ;cam.c: 54:         myCam.status = CAM_IN_PROGRESS;
  6068  00139A  0E01               	movlw	1
  6069  00139C  CFE8 F286          	movff	wreg,_myCam+257	;volatile
  6070                           
  6071                           ;cam.c: 55:         do { LATBbits.LATB2 = 0; } while(0);
  6072  0013A0  9483               	bcf	3971,2,c	;volatile
  6073                           
  6074                           ;cam.c: 56:         do { LATBbits.LATB1 = 0; } while(0);
  6075  0013A2  9283               	bcf	3971,1,c	;volatile
  6076                           
  6077                           ;cam.c: 57:         TMR3_WriteTimer(timing_val);
  6078  0013A4  C052  F006         	movff	_timing_val,i1TMR3_WriteTimer@timerVal
  6079  0013A8  C053  F007         	movff	_timing_val+1,i1TMR3_WriteTimer@timerVal+1
  6080  0013AC  EC49  F00D         	call	i1_TMR3_WriteTimer	;wreg free
  6081                           
  6082                           ;cam.c: 58:         TMR3_SetInterruptHandler(timer_ISR);
  6083  0013B0  0E6A               	movlw	low _timer_ISR
  6084  0013B2  6E06               	movwf	i1TMR3_SetInterruptHandler@InterruptHandler,c
  6085  0013B4  0E13               	movlw	high _timer_ISR
  6086  0013B6  6E07               	movwf	i1TMR3_SetInterruptHandler@InterruptHandler+1,c
  6087  0013B8  ECBD  F00D         	call	i1_TMR3_SetInterruptHandler	;wreg free
  6088                           
  6089                           ;cam.c: 59:         TMR3_StartTimer();
  6090  0013BC  ECCB  F00D         	call	i1_TMR3_StartTimer	;wreg free
  6091                           
  6092                           ;cam.c: 60:     } else if (myCam.status == CAM_IN_PROGRESS) {
  6093  0013C0  0012               	return	
  6094  0013C2                     i1l3687:
  6095  0013C2  C286  FFE8         	movff	_myCam+257,wreg	;volatile
  6096  0013C6  0A01               	xorlw	1
  6097  0013C8  A4D8               	btfss	status,2,c
  6098  0013CA  0012               	return	
  6099                           
  6100                           ;cam.c: 61:         do { LATBbits.LATB1 = 1; } while(0);
  6101  0013CC  8283               	bsf	3971,1,c	;volatile
  6102                           
  6103                           ;cam.c: 62:         PIE1bits.ADIE = 1;
  6104  0013CE  010E               	movlb	14	; () banked
  6105  0013D0  81BE               	bsf	190,0,b	;volatile
  6106                           
  6107                           ;cam.c: 63:         ADCON0bits.GO = 1;
  6108  0013D2  010F               	movlb	15	; () banked
  6109  0013D4  815B               	bsf	91,0,b	;volatile
  6110  0013D6  0012               	return		;funcret
  6111  0013D8                     __end_of_timer_ISR:
  6112                           	opt callstack 0
  6113                           
  6114 ;; *************** function _TMR3_DefaultInterruptHandler *****************
  6115 ;; Defined at:
  6116 ;;		line 182 in file "mcc_generated_files/tmr3.c"
  6117 ;; Parameters:    Size  Location     Type
  6118 ;;		None
  6119 ;; Auto vars:     Size  Location     Type
  6120 ;;		None
  6121 ;; Return value:  Size  Location     Type
  6122 ;;                  1    wreg      void 
  6123 ;; Registers used:
  6124 ;;		None
  6125 ;; Tracked objects:
  6126 ;;		On entry : 0/0
  6127 ;;		On exit  : 0/0
  6128 ;;		Unchanged: 0/0
  6129 ;; Data sizes:     COMRAM   BANK0   BANK1   BANK2   BANK3   BANK4   BANK5   BANK6   BANK7
  6130 ;;      Params:         0       0       0       0       0       0       0       0       0
  6131 ;;      Locals:         0       0       0       0       0       0       0       0       0
  6132 ;;      Temps:          0       0       0       0       0       0       0       0       0
  6133 ;;      Totals:         0       0       0       0       0       0       0       0       0
  6134 ;;Total ram usage:        0 bytes
  6135 ;; Hardware stack levels used:    1
  6136 ;; Hardware stack levels required when called:    3
  6137 ;; This function calls:
  6138 ;;		Nothing
  6139 ;; This function is called by:
  6140 ;;		_TMR3_Initialize
  6141 ;;		_timer_ISR
  6142 ;;		_TMR3_ISR
  6143 ;; This function uses a non-reentrant model
  6144 ;;
  6145                           
  6146                           	psect	text46
  6147  001B9A                     __ptext46:
  6148                           	opt callstack 0
  6149  001B9A                     _TMR3_DefaultInterruptHandler:
  6150                           	opt callstack 22
  6151                           
  6152                           ;incstack = 0
  6153  001B9A  0012               	return		;funcret
  6154  001B9C                     __end_of_TMR3_DefaultInterruptHandler:
  6155                           	opt callstack 0
  6156                           
  6157 ;; *************** function i1_cam_start *****************
  6158 ;; Defined at:
  6159 ;;		line 118 in file "cam.c"
  6160 ;; Parameters:    Size  Location     Type
  6161 ;;		None
  6162 ;; Auto vars:     Size  Location     Type
  6163 ;;		None
  6164 ;; Return value:  Size  Location     Type
  6165 ;;                  1    wreg      void 
  6166 ;; Registers used:
  6167 ;;		wreg, fsr2l, fsr2h, status,2, status,0, cstack
  6168 ;; Tracked objects:
  6169 ;;		On entry : 0/0
  6170 ;;		On exit  : 0/0
  6171 ;;		Unchanged: 0/0
  6172 ;; Data sizes:     COMRAM   BANK0   BANK1   BANK2   BANK3   BANK4   BANK5   BANK6   BANK7
  6173 ;;      Params:         0       0       0       0       0       0       0       0       0
  6174 ;;      Locals:         0       0       0       0       0       0       0       0       0
  6175 ;;      Temps:          1       0       0       0       0       0       0       0       0
  6176 ;;      Totals:         1       0       0       0       0       0       0       0       0
  6177 ;;Total ram usage:        1 bytes
  6178 ;; Hardware stack levels used:    1
  6179 ;; Hardware stack levels required when called:    4
  6180 ;; This function calls:
  6181 ;;		i1_TMR3_SetInterruptHandler
  6182 ;;		i1_TMR3_StartTimer
  6183 ;;		i1_TMR3_WriteTimer
  6184 ;; This function is called by:
  6185 ;;		_adc_ready_ISR
  6186 ;;		_TMR3_ISR
  6187 ;; This function uses a non-reentrant model
  6188 ;;
  6189                           
  6190                           	psect	text47
  6191  0014A8                     __ptext47:
  6192                           	opt callstack 0
  6193  0014A8                     i1_cam_start:
  6194                           	opt callstack 21
  6195                           
  6196                           ;cam.c: 120:     if (myCam.status == CAM_DONE){
  6197                           
  6198                           ;incstack = 0
  6199  0014A8  C286  FFE8         	movff	_myCam+257,wreg	;volatile
  6200  0014AC  0A02               	xorlw	2
  6201  0014AE  A4D8               	btfss	status,2,c
  6202  0014B0  0012               	return	
  6203                           
  6204                           ;cam.c: 121:         myCam.status = CAM_START;
  6205  0014B2  0E00               	movlw	0
  6206  0014B4  CFE8 F286          	movff	wreg,_myCam+257	;volatile
  6207                           
  6208                           ;cam.c: 122:         myCam.index = 0;
  6209  0014B8  0E00               	movlw	0
  6210  0014BA  CFE8 F287          	movff	wreg,_myCam+258	;volatile
  6211  0014BE  0E00               	movlw	0
  6212  0014C0  CFE8 F288          	movff	wreg,_myCam+259	;volatile
  6213                           
  6214                           ;cam.c: 123:         myCam.readFromFirst = !myCam.readFromFirst;
  6215  0014C4  EE21  F085         	lfsr	2,_myCam
  6216  0014C8  50DF               	movf	indf2,w,c
  6217  0014CA  A4D8               	btfss	status,2,c
  6218  0014CC  D003               	goto	i1u298_20
  6219  0014CE  6A08               	clrf	??i1_cam_start& (0+255),c
  6220  0014D0  2A08               	incf	??i1_cam_start& (0+255),f,c
  6221  0014D2  D001               	goto	i1u299_28
  6222  0014D4                     i1u298_20:
  6223  0014D4  6A08               	clrf	??i1_cam_start& (0+255),c
  6224  0014D6                     i1u299_28:
  6225  0014D6  C008  F185         	movff	??i1_cam_start,_myCam
  6226  0014DA  8483               	bsf	3971,2,c	;volatile
  6227                           
  6228                           ;cam.c: 125:         _delay((unsigned long)((3)*(64000000/4000000.0)));
  6229  0014DC  0E10               	movlw	16
  6230  0014DE                     i1u344_27:
  6231  0014DE  2EE8               	decfsz	wreg,f,c
  6232  0014E0  D7FE               	bra	i1u344_27
  6233  0014E2  8283               	bsf	3971,1,c	;volatile
  6234                           
  6235                           ;cam.c: 127:         TMR3_SetInterruptHandler(timer_ISR);
  6236  0014E4  0E6A               	movlw	low _timer_ISR
  6237  0014E6  6E06               	movwf	i1TMR3_SetInterruptHandler@InterruptHandler,c
  6238  0014E8  0E13               	movlw	high _timer_ISR
  6239  0014EA  6E07               	movwf	i1TMR3_SetInterruptHandler@InterruptHandler+1,c
  6240  0014EC  ECBD  F00D         	call	i1_TMR3_SetInterruptHandler	;wreg free
  6241                           
  6242                           ;cam.c: 128:         TMR3_WriteTimer(timing_val);
  6243  0014F0  C052  F006         	movff	_timing_val,i1TMR3_WriteTimer@timerVal
  6244  0014F4  C053  F007         	movff	_timing_val+1,i1TMR3_WriteTimer@timerVal+1
  6245  0014F8  EC49  F00D         	call	i1_TMR3_WriteTimer	;wreg free
  6246                           
  6247                           ;cam.c: 129:         TMR3_StartTimer();
  6248  0014FC  ECCB  F00D         	call	i1_TMR3_StartTimer	;wreg free
  6249                           
  6250                           ;cam.c: 130:         ADCON0bits.ADON = 1;
  6251  001500  010F               	movlb	15	; () banked
  6252  001502  8F5B               	bsf	91,7,b	;volatile
  6253                           
  6254                           ; BSR set to: 15
  6255                           ;cam.c: 131:         PIE1bits.ADIE = 0;
  6256  001504  010E               	movlb	14	; () banked
  6257  001506  91BE               	bcf	190,0,b	;volatile
  6258  001508  0012               	return		;funcret
  6259  00150A                     __end_ofi1_cam_start:
  6260                           	opt callstack 0
  6261                           
  6262 ;; *************** function _TMR1_ISR *****************
  6263 ;; Defined at:
  6264 ;;		line 164 in file "mcc_generated_files/tmr1.c"
  6265 ;; Parameters:    Size  Location     Type
  6266 ;;		None
  6267 ;; Auto vars:     Size  Location     Type
  6268 ;;		None
  6269 ;; Return value:  Size  Location     Type
  6270 ;;                  1    wreg      void 
  6271 ;; Registers used:
  6272 ;;		wreg, status,2, status,0, pclath, tosl, cstack
  6273 ;; Tracked objects:
  6274 ;;		On entry : 0/0
  6275 ;;		On exit  : 0/0
  6276 ;;		Unchanged: 0/0
  6277 ;; Data sizes:     COMRAM   BANK0   BANK1   BANK2   BANK3   BANK4   BANK5   BANK6   BANK7
  6278 ;;      Params:         0       0       0       0       0       0       0       0       0
  6279 ;;      Locals:         0       0       0       0       0       0       0       0       0
  6280 ;;      Temps:          0       0       0       0       0       0       0       0       0
  6281 ;;      Totals:         0       0       0       0       0       0       0       0       0
  6282 ;;Total ram usage:        0 bytes
  6283 ;; Hardware stack levels used:    1
  6284 ;; Hardware stack levels required when called:    5
  6285 ;; This function calls:
  6286 ;;		Absolute function
  6287 ;;		_TMR1_DefaultInterruptHandler
  6288 ;;		_ping_TMR1Overflow_isr
  6289 ;;		i1_TMR1_WriteTimer
  6290 ;; This function is called by:
  6291 ;;		_INTERRUPT_InterruptManagerLow
  6292 ;; This function uses a non-reentrant model
  6293 ;;
  6294                           
  6295                           	psect	text48
  6296  001862                     __ptext48:
  6297                           	opt callstack 0
  6298  001862                     _TMR1_ISR:
  6299                           	opt callstack 21
  6300                           
  6301                           ;mcc_generated_files/tmr1.c: 168:     PIR4bits.TMR1IF = 0;
  6302                           
  6303                           ;incstack = 0
  6304  001862  010E               	movlb	14	; () banked
  6305  001864  91C9               	bcf	201,0,b	;volatile
  6306                           
  6307                           ; BSR set to: 14
  6308                           ;mcc_generated_files/tmr1.c: 169:     TMR1_WriteTimer(timer1ReloadVal);
  6309  001866  C040  F006         	movff	_timer1ReloadVal,i1TMR1_WriteTimer@timerVal	;volatile
  6310  00186A  C041  F007         	movff	_timer1ReloadVal+1,i1TMR1_WriteTimer@timerVal+1	;volatile
  6311  00186E  EC3B  F00D         	call	i1_TMR1_WriteTimer	;wreg free
  6312                           
  6313                           ;mcc_generated_files/tmr1.c: 171:     if(TMR1_InterruptHandler)
  6314  001872  503E               	movf	_TMR1_InterruptHandler,w,c
  6315  001874  103F               	iorwf	_TMR1_InterruptHandler+1,w,c
  6316  001876  B4D8               	btfsc	status,2,c
  6317  001878  0012               	return	
  6318                           
  6319                           ;mcc_generated_files/tmr1.c: 172:     {;mcc_generated_files/tmr1.c: 173:         TMR1_In
      +                          terruptHandler();
  6320  00187A  D801               	call	i1u304_28
  6321  00187C  0012               	return	
  6322  00187E                     i1u304_28:
  6323  00187E  0005               	push	
  6324  001880  6EFA               	movwf	pclath,c
  6325  001882  503E               	movf	_TMR1_InterruptHandler,w,c
  6326  001884  6EFD               	movwf	tosl,c
  6327  001886  503F               	movf	_TMR1_InterruptHandler+1,w,c
  6328  001888  6EFE               	movwf	tosh,c
  6329  00188A  50F8               	movf	tblptru,w,c
  6330  00188C  6EFF               	movwf	tosu,c
  6331  00188E  50FA               	movf	pclath,w,c
  6332  001890  0012               	return		;indir
  6333  001892                     __end_of_TMR1_ISR:
  6334                           	opt callstack 0
  6335                           
  6336 ;; *************** function _TMR1_DefaultInterruptHandler *****************
  6337 ;; Defined at:
  6338 ;;		line 182 in file "mcc_generated_files/tmr1.c"
  6339 ;; Parameters:    Size  Location     Type
  6340 ;;		None
  6341 ;; Auto vars:     Size  Location     Type
  6342 ;;		None
  6343 ;; Return value:  Size  Location     Type
  6344 ;;                  1    wreg      void 
  6345 ;; Registers used:
  6346 ;;		None
  6347 ;; Tracked objects:
  6348 ;;		On entry : 0/0
  6349 ;;		On exit  : 0/0
  6350 ;;		Unchanged: 0/0
  6351 ;; Data sizes:     COMRAM   BANK0   BANK1   BANK2   BANK3   BANK4   BANK5   BANK6   BANK7
  6352 ;;      Params:         0       0       0       0       0       0       0       0       0
  6353 ;;      Locals:         0       0       0       0       0       0       0       0       0
  6354 ;;      Temps:          0       0       0       0       0       0       0       0       0
  6355 ;;      Totals:         0       0       0       0       0       0       0       0       0
  6356 ;;Total ram usage:        0 bytes
  6357 ;; Hardware stack levels used:    1
  6358 ;; Hardware stack levels required when called:    3
  6359 ;; This function calls:
  6360 ;;		Nothing
  6361 ;; This function is called by:
  6362 ;;		_TMR1_Initialize
  6363 ;;		_ping_TMR1Overflow_isr
  6364 ;;		_ping_RC2_went_HIGH
  6365 ;;		_ping_init
  6366 ;;		_TMR1_ISR
  6367 ;; This function uses a non-reentrant model
  6368 ;;
  6369                           
  6370                           	psect	text49
  6371  001B9C                     __ptext49:
  6372                           	opt callstack 0
  6373  001B9C                     _TMR1_DefaultInterruptHandler:
  6374                           	opt callstack 22
  6375                           
  6376                           ;incstack = 0
  6377  001B9C  0012               	return		;funcret
  6378  001B9E                     __end_of_TMR1_DefaultInterruptHandler:
  6379                           	opt callstack 0
  6380                           
  6381 ;; *************** function _ping_TMR1Overflow_isr *****************
  6382 ;; Defined at:
  6383 ;;		line 54 in file "ping.c"
  6384 ;; Parameters:    Size  Location     Type
  6385 ;;		None
  6386 ;; Auto vars:     Size  Location     Type
  6387 ;;		None
  6388 ;; Return value:  Size  Location     Type
  6389 ;;                  1    wreg      void 
  6390 ;; Registers used:
  6391 ;;		wreg, status,2, status,0, cstack
  6392 ;; Tracked objects:
  6393 ;;		On entry : 0/0
  6394 ;;		On exit  : 0/0
  6395 ;;		Unchanged: 0/0
  6396 ;; Data sizes:     COMRAM   BANK0   BANK1   BANK2   BANK3   BANK4   BANK5   BANK6   BANK7
  6397 ;;      Params:         0       0       0       0       0       0       0       0       0
  6398 ;;      Locals:         0       0       0       0       0       0       0       0       0
  6399 ;;      Temps:          0       0       0       0       0       0       0       0       0
  6400 ;;      Totals:         0       0       0       0       0       0       0       0       0
  6401 ;;Total ram usage:        0 bytes
  6402 ;; Hardware stack levels used:    1
  6403 ;; Hardware stack levels required when called:    4
  6404 ;; This function calls:
  6405 ;;		i1_IOCCF2_SetInterruptHandler
  6406 ;;		i1_TMR1_SetInterruptHandler
  6407 ;; This function is called by:
  6408 ;;		_ping_send
  6409 ;;		_TMR1_ISR
  6410 ;; This function uses a non-reentrant model
  6411 ;;
  6412                           
  6413                           	psect	text50
  6414  001A3C                     __ptext50:
  6415                           	opt callstack 0
  6416  001A3C                     _ping_TMR1Overflow_isr:
  6417                           	opt callstack 21
  6418                           
  6419                           ;ping.c: 55:     TMR1_SetInterruptHandler(TMR1_DefaultInterruptHandler);
  6420                           
  6421                           ;incstack = 0
  6422  001A3C  0E9C               	movlw	low _TMR1_DefaultInterruptHandler
  6423  001A3E  6E06               	movwf	i1TMR1_SetInterruptHandler@InterruptHandler,c
  6424  001A40  0E1B               	movlw	high _TMR1_DefaultInterruptHandler
  6425  001A42  6E07               	movwf	i1TMR1_SetInterruptHandler@InterruptHandler+1,c
  6426  001A44  ECB3  F00D         	call	i1_TMR1_SetInterruptHandler	;wreg free
  6427  001A48  9484               	bcf	3972,2,c	;volatile
  6428  001A4A  8489               	bsf	3977,2,c	;volatile
  6429                           
  6430                           ;ping.c: 60:     IOCCF2_SetInterruptHandler(ping_RC2_went_HIGH);
  6431  001A4C  0E6E               	movlw	low _ping_RC2_went_HIGH
  6432  001A4E  6E06               	movwf	i1IOCCF2_SetInterruptHandler@InterruptHandler,c
  6433  001A50  0E17               	movlw	high _ping_RC2_went_HIGH
  6434  001A52  6E07               	movwf	i1IOCCF2_SetInterruptHandler@InterruptHandler+1,c
  6435  001A54  ECB8  F00D         	call	i1_IOCCF2_SetInterruptHandler	;wreg free
  6436  001A58  0012               	return		;funcret
  6437  001A5A                     __end_of_ping_TMR1Overflow_isr:
  6438                           	opt callstack 0
  6439                           
  6440 ;; *************** function _PIN_MANAGER_IOC *****************
  6441 ;; Defined at:
  6442 ;;		line 126 in file "mcc_generated_files/pin_manager.c"
  6443 ;; Parameters:    Size  Location     Type
  6444 ;;		None
  6445 ;; Auto vars:     Size  Location     Type
  6446 ;;		None
  6447 ;; Return value:  Size  Location     Type
  6448 ;;                  1    wreg      void 
  6449 ;; Registers used:
  6450 ;;		wreg, status,2, status,0, pclath, tosl, cstack
  6451 ;; Tracked objects:
  6452 ;;		On entry : 0/0
  6453 ;;		On exit  : 0/0
  6454 ;;		Unchanged: 0/0
  6455 ;; Data sizes:     COMRAM   BANK0   BANK1   BANK2   BANK3   BANK4   BANK5   BANK6   BANK7
  6456 ;;      Params:         0       0       0       0       0       0       0       0       0
  6457 ;;      Locals:         0       0       0       0       0       0       0       0       0
  6458 ;;      Temps:          0       0       0       0       0       0       0       0       0
  6459 ;;      Totals:         0       0       0       0       0       0       0       0       0
  6460 ;;Total ram usage:        0 bytes
  6461 ;; Hardware stack levels used:    1
  6462 ;; Hardware stack levels required when called:    6
  6463 ;; This function calls:
  6464 ;;		_IOCCF2_ISR
  6465 ;; This function is called by:
  6466 ;;		_INTERRUPT_InterruptManagerLow
  6467 ;; This function uses a non-reentrant model
  6468 ;;
  6469                           
  6470                           	psect	text51
  6471  001B00                     __ptext51:
  6472                           	opt callstack 0
  6473  001B00                     _PIN_MANAGER_IOC:
  6474                           	opt callstack 20
  6475                           
  6476                           ;mcc_generated_files/pin_manager.c: 129:     if(IOCCFbits.IOCCF2 == 1)
  6477                           
  6478                           ;incstack = 0
  6479  001B00  010F               	movlb	15	; () banked
  6480  001B02  A515               	btfss	21,2,b	;volatile
  6481  001B04  0012               	return	
  6482                           
  6483                           ; BSR set to: 15
  6484                           ;mcc_generated_files/pin_manager.c: 130:     {;mcc_generated_files/pin_manager.c: 131:  
      +                                 IOCCF2_ISR();
  6485  001B06  ECB6  F00C         	call	_IOCCF2_ISR	;wreg free
  6486  001B0A  0012               	return		;funcret
  6487  001B0C                     __end_of_PIN_MANAGER_IOC:
  6488                           	opt callstack 0
  6489                           
  6490 ;; *************** function _IOCCF2_ISR *****************
  6491 ;; Defined at:
  6492 ;;		line 138 in file "mcc_generated_files/pin_manager.c"
  6493 ;; Parameters:    Size  Location     Type
  6494 ;;		None
  6495 ;; Auto vars:     Size  Location     Type
  6496 ;;		None
  6497 ;; Return value:  Size  Location     Type
  6498 ;;                  1    wreg      void 
  6499 ;; Registers used:
  6500 ;;		wreg, status,2, status,0, pclath, tosl, cstack
  6501 ;; Tracked objects:
  6502 ;;		On entry : 0/0
  6503 ;;		On exit  : 0/0
  6504 ;;		Unchanged: 0/0
  6505 ;; Data sizes:     COMRAM   BANK0   BANK1   BANK2   BANK3   BANK4   BANK5   BANK6   BANK7
  6506 ;;      Params:         0       0       0       0       0       0       0       0       0
  6507 ;;      Locals:         0       0       0       0       0       0       0       0       0
  6508 ;;      Temps:          0       0       0       0       0       0       0       0       0
  6509 ;;      Totals:         0       0       0       0       0       0       0       0       0
  6510 ;;Total ram usage:        0 bytes
  6511 ;; Hardware stack levels used:    1
  6512 ;; Hardware stack levels required when called:    5
  6513 ;; This function calls:
  6514 ;;		Absolute function
  6515 ;;		_IOCCF2_DefaultInterruptHandler
  6516 ;;		_ping_RC2_went_HIGH
  6517 ;; This function is called by:
  6518 ;;		_PIN_MANAGER_IOC
  6519 ;; This function uses a non-reentrant model
  6520 ;;
  6521                           
  6522                           	psect	text52
  6523  00196C                     __ptext52:
  6524                           	opt callstack 0
  6525  00196C                     _IOCCF2_ISR:
  6526                           	opt callstack 20
  6527                           
  6528                           ;mcc_generated_files/pin_manager.c: 143:     if(IOCCF2_InterruptHandler)
  6529                           
  6530                           ;incstack = 0
  6531  00196C  5044               	movf	_IOCCF2_InterruptHandler,w,c
  6532  00196E  1045               	iorwf	_IOCCF2_InterruptHandler+1,w,c
  6533  001970  B4D8               	btfsc	status,2,c
  6534  001972  D00C               	goto	i1u205_29
  6535                           
  6536                           ;mcc_generated_files/pin_manager.c: 144:     {;mcc_generated_files/pin_manager.c: 145:  
      +                                 IOCCF2_InterruptHandler();
  6537  001974  D801               	call	i1u205_28
  6538  001976  D00A               	goto	i1u205_29
  6539  001978                     i1u205_28:
  6540  001978  0005               	push	
  6541  00197A  6EFA               	movwf	pclath,c
  6542  00197C  5044               	movf	_IOCCF2_InterruptHandler,w,c
  6543  00197E  6EFD               	movwf	tosl,c
  6544  001980  5045               	movf	_IOCCF2_InterruptHandler+1,w,c
  6545  001982  6EFE               	movwf	tosh,c
  6546  001984  50F8               	movf	tblptru,w,c
  6547  001986  6EFF               	movwf	tosu,c
  6548  001988  50FA               	movf	pclath,w,c
  6549  00198A  0012               	return		;indir
  6550  00198C                     i1u205_29:
  6551                           
  6552                           ;mcc_generated_files/pin_manager.c: 147:     IOCCFbits.IOCCF2 = 0;
  6553  00198C  010F               	movlb	15	; () banked
  6554  00198E  9515               	bcf	21,2,b	;volatile
  6555                           
  6556                           ; BSR set to: 15
  6557  001990  0012               	return		;funcret
  6558  001992                     __end_of_IOCCF2_ISR:
  6559                           	opt callstack 0
  6560                           
  6561 ;; *************** function _IOCCF2_DefaultInterruptHandler *****************
  6562 ;; Defined at:
  6563 ;;		line 160 in file "mcc_generated_files/pin_manager.c"
  6564 ;; Parameters:    Size  Location     Type
  6565 ;;		None
  6566 ;; Auto vars:     Size  Location     Type
  6567 ;;		None
  6568 ;; Return value:  Size  Location     Type
  6569 ;;                  1    wreg      void 
  6570 ;; Registers used:
  6571 ;;		None
  6572 ;; Tracked objects:
  6573 ;;		On entry : 0/0
  6574 ;;		On exit  : 0/0
  6575 ;;		Unchanged: 0/0
  6576 ;; Data sizes:     COMRAM   BANK0   BANK1   BANK2   BANK3   BANK4   BANK5   BANK6   BANK7
  6577 ;;      Params:         0       0       0       0       0       0       0       0       0
  6578 ;;      Locals:         0       0       0       0       0       0       0       0       0
  6579 ;;      Temps:          0       0       0       0       0       0       0       0       0
  6580 ;;      Totals:         0       0       0       0       0       0       0       0       0
  6581 ;;Total ram usage:        0 bytes
  6582 ;; Hardware stack levels used:    1
  6583 ;; Hardware stack levels required when called:    3
  6584 ;; This function calls:
  6585 ;;		Nothing
  6586 ;; This function is called by:
  6587 ;;		_PIN_MANAGER_Initialize
  6588 ;;		_ping_RC2_went_HIGH
  6589 ;;		_ping_init
  6590 ;;		_IOCCF2_ISR
  6591 ;; This function uses a non-reentrant model
  6592 ;;
  6593                           
  6594                           	psect	text53
  6595  001B9E                     __ptext53:
  6596                           	opt callstack 0
  6597  001B9E                     _IOCCF2_DefaultInterruptHandler:
  6598                           	opt callstack 21
  6599                           
  6600                           ; BSR set to: 15
  6601                           ;incstack = 0
  6602  001B9E  0012               	return		;funcret
  6603  001BA0                     __end_of_IOCCF2_DefaultInterruptHandler:
  6604                           	opt callstack 0
  6605                           
  6606 ;; *************** function _ping_RC2_went_HIGH *****************
  6607 ;; Defined at:
  6608 ;;		line 66 in file "ping.c"
  6609 ;; Parameters:    Size  Location     Type
  6610 ;;		None
  6611 ;; Auto vars:     Size  Location     Type
  6612 ;;		None
  6613 ;; Return value:  Size  Location     Type
  6614 ;;                  1    wreg      void 
  6615 ;; Registers used:
  6616 ;;		wreg, status,2, status,0, cstack
  6617 ;; Tracked objects:
  6618 ;;		On entry : 0/0
  6619 ;;		On exit  : 0/0
  6620 ;;		Unchanged: 0/0
  6621 ;; Data sizes:     COMRAM   BANK0   BANK1   BANK2   BANK3   BANK4   BANK5   BANK6   BANK7
  6622 ;;      Params:         0       0       0       0       0       0       0       0       0
  6623 ;;      Locals:         0       0       0       0       0       0       0       0       0
  6624 ;;      Temps:          0       0       0       0       0       0       0       0       0
  6625 ;;      Totals:         0       0       0       0       0       0       0       0       0
  6626 ;;Total ram usage:        0 bytes
  6627 ;; Hardware stack levels used:    1
  6628 ;; Hardware stack levels required when called:    4
  6629 ;; This function calls:
  6630 ;;		i1_IOCCF2_SetInterruptHandler
  6631 ;;		i1_TMR1_SetInterruptHandler
  6632 ;;		i1_TMR1_StartTimer
  6633 ;;		i1_TMR1_WriteTimer
  6634 ;; This function is called by:
  6635 ;;		_ping_TMR1Overflow_isr
  6636 ;;		_IOCCF2_ISR
  6637 ;; This function uses a non-reentrant model
  6638 ;;
  6639                           
  6640                           	psect	text54
  6641  00176E                     __ptext54:
  6642                           	opt callstack 0
  6643  00176E                     _ping_RC2_went_HIGH:
  6644                           	opt callstack 20
  6645                           
  6646                           ;ping.c: 67:     IOCCF2_SetInterruptHandler(IOCCF2_DefaultInterruptHandler);
  6647                           
  6648                           ;incstack = 0
  6649  00176E  0E9E               	movlw	low _IOCCF2_DefaultInterruptHandler
  6650  001770  6E06               	movwf	i1IOCCF2_SetInterruptHandler@InterruptHandler,c
  6651  001772  0E1B               	movlw	high _IOCCF2_DefaultInterruptHandler
  6652  001774  6E07               	movwf	i1IOCCF2_SetInterruptHandler@InterruptHandler+1,c
  6653  001776  ECB8  F00D         	call	i1_IOCCF2_SetInterruptHandler	;wreg free
  6654                           
  6655                           ;ping.c: 68:     TMR1_SetInterruptHandler(TMR1_DefaultInterruptHandler);
  6656  00177A  0E9C               	movlw	low _TMR1_DefaultInterruptHandler
  6657  00177C  6E06               	movwf	i1TMR1_SetInterruptHandler@InterruptHandler,c
  6658  00177E  0E1B               	movlw	high _TMR1_DefaultInterruptHandler
  6659  001780  6E07               	movwf	i1TMR1_SetInterruptHandler@InterruptHandler+1,c
  6660  001782  ECB3  F00D         	call	i1_TMR1_SetInterruptHandler	;wreg free
  6661                           
  6662                           ;ping.c: 70:     TMR1_WriteTimer(0);
  6663  001786  0E00               	movlw	0
  6664  001788  6E07               	movwf	i1TMR1_WriteTimer@timerVal+1,c
  6665  00178A  0E00               	movlw	0
  6666  00178C  6E06               	movwf	i1TMR1_WriteTimer@timerVal,c
  6667  00178E  EC3B  F00D         	call	i1_TMR1_WriteTimer	;wreg free
  6668                           
  6669                           ;ping.c: 71:     TMR1_StartTimer();
  6670  001792  ECC9  F00D         	call	i1_TMR1_StartTimer	;wreg free
  6671  001796  8482               	bsf	3970,2,c	;volatile
  6672                           
  6673                           ;ping.c: 74:     PIR6 = 0;
  6674  001798  0E00               	movlw	0
  6675  00179A  010E               	movlb	14	; () banked
  6676  00179C  6FCB               	movwf	203,b	;volatile
  6677                           
  6678                           ; BSR set to: 14
  6679                           ;ping.c: 75:     PIE6bits.CCP1IE = 1;
  6680  00179E  81C3               	bsf	195,0,b	;volatile
  6681                           
  6682                           ; BSR set to: 14
  6683  0017A0  0012               	return		;funcret
  6684  0017A2                     __end_of_ping_RC2_went_HIGH:
  6685                           	opt callstack 0
  6686                           
  6687 ;; *************** function i1_TMR1_WriteTimer *****************
  6688 ;; Defined at:
  6689 ;;		line 127 in file "mcc_generated_files/tmr1.c"
  6690 ;; Parameters:    Size  Location     Type
  6691 ;;  timerVal        2    5[COMRAM] unsigned short 
  6692 ;; Auto vars:     Size  Location     Type
  6693 ;;		None
  6694 ;; Return value:  Size  Location     Type
  6695 ;;                  1    wreg      void 
  6696 ;; Registers used:
  6697 ;;		wreg, status,2
  6698 ;; Tracked objects:
  6699 ;;		On entry : 0/0
  6700 ;;		On exit  : 0/0
  6701 ;;		Unchanged: 0/0
  6702 ;; Data sizes:     COMRAM   BANK0   BANK1   BANK2   BANK3   BANK4   BANK5   BANK6   BANK7
  6703 ;;      Params:         2       0       0       0       0       0       0       0       0
  6704 ;;      Locals:         0       0       0       0       0       0       0       0       0
  6705 ;;      Temps:          0       0       0       0       0       0       0       0       0
  6706 ;;      Totals:         2       0       0       0       0       0       0       0       0
  6707 ;;Total ram usage:        2 bytes
  6708 ;; Hardware stack levels used:    1
  6709 ;; Hardware stack levels required when called:    3
  6710 ;; This function calls:
  6711 ;;		Nothing
  6712 ;; This function is called by:
  6713 ;;		_TMR1_ISR
  6714 ;;		_ping_RC2_went_HIGH
  6715 ;; This function uses a non-reentrant model
  6716 ;;
  6717                           
  6718                           	psect	text55
  6719  001A76                     __ptext55:
  6720                           	opt callstack 0
  6721  001A76                     i1_TMR1_WriteTimer:
  6722                           	opt callstack 22
  6723                           
  6724                           ;mcc_generated_files/tmr1.c: 127: void TMR1_WriteTimer(uint16_t timerVal);mcc_generated_
      +                          files/tmr1.c: 128: {;mcc_generated_files/tmr1.c: 129:     if (T1CONbits.nT1SYNC == 1)
  6725                           
  6726                           ; BSR set to: 14
  6727                           ;incstack = 0
  6728  001A76  A4CE               	btfss	4046,2,c	;volatile
  6729  001A78  D007               	goto	i1l3187
  6730                           
  6731                           ;mcc_generated_files/tmr1.c: 130:     {;mcc_generated_files/tmr1.c: 132:         T1CONbi
      +                          ts.TMR1ON = 0;
  6732  001A7A  90CE               	bcf	4046,0,c	;volatile
  6733                           
  6734                           ;mcc_generated_files/tmr1.c: 135:         TMR1H = (timerVal >> 8);
  6735  001A7C  5007               	movf	i1TMR1_WriteTimer@timerVal+1,w,c
  6736  001A7E  6ECD               	movwf	4045,c	;volatile
  6737                           
  6738                           ;mcc_generated_files/tmr1.c: 136:         TMR1L = timerVal;
  6739  001A80  C006  FFCC         	movff	i1TMR1_WriteTimer@timerVal,4044	;volatile
  6740                           
  6741                           ;mcc_generated_files/tmr1.c: 139:         T1CONbits.TMR1ON =1;
  6742  001A84  80CE               	bsf	4046,0,c	;volatile
  6743                           
  6744                           ;mcc_generated_files/tmr1.c: 140:     }
  6745  001A86  0012               	return	
  6746  001A88                     i1l3187:
  6747                           
  6748                           ;mcc_generated_files/tmr1.c: 142:     {;mcc_generated_files/tmr1.c: 144:         TMR1H =
      +                           (timerVal >> 8);
  6749  001A88  5007               	movf	i1TMR1_WriteTimer@timerVal+1,w,c
  6750  001A8A  6ECD               	movwf	4045,c	;volatile
  6751                           
  6752                           ;mcc_generated_files/tmr1.c: 145:         TMR1L = timerVal;
  6753  001A8C  C006  FFCC         	movff	i1TMR1_WriteTimer@timerVal,4044	;volatile
  6754  001A90  0012               	return		;funcret
  6755  001A92                     __end_ofi1_TMR1_WriteTimer:
  6756                           	opt callstack 0
  6757                           
  6758 ;; *************** function i1_TMR1_StartTimer *****************
  6759 ;; Defined at:
  6760 ;;		line 99 in file "mcc_generated_files/tmr1.c"
  6761 ;; Parameters:    Size  Location     Type
  6762 ;;		None
  6763 ;; Auto vars:     Size  Location     Type
  6764 ;;		None
  6765 ;; Return value:  Size  Location     Type
  6766 ;;                  1    wreg      void 
  6767 ;; Registers used:
  6768 ;;		None
  6769 ;; Tracked objects:
  6770 ;;		On entry : 0/0
  6771 ;;		On exit  : 0/0
  6772 ;;		Unchanged: 0/0
  6773 ;; Data sizes:     COMRAM   BANK0   BANK1   BANK2   BANK3   BANK4   BANK5   BANK6   BANK7
  6774 ;;      Params:         0       0       0       0       0       0       0       0       0
  6775 ;;      Locals:         0       0       0       0       0       0       0       0       0
  6776 ;;      Temps:          0       0       0       0       0       0       0       0       0
  6777 ;;      Totals:         0       0       0       0       0       0       0       0       0
  6778 ;;Total ram usage:        0 bytes
  6779 ;; Hardware stack levels used:    1
  6780 ;; Hardware stack levels required when called:    3
  6781 ;; This function calls:
  6782 ;;		Nothing
  6783 ;; This function is called by:
  6784 ;;		_ping_RC2_went_HIGH
  6785 ;; This function uses a non-reentrant model
  6786 ;;
  6787                           
  6788                           	psect	text56
  6789  001B92                     __ptext56:
  6790                           	opt callstack 0
  6791  001B92                     i1_TMR1_StartTimer:
  6792                           	opt callstack 20
  6793                           
  6794                           ;mcc_generated_files/tmr1.c: 102:     T1CONbits.TMR1ON = 1;
  6795                           
  6796                           ;incstack = 0
  6797  001B92  80CE               	bsf	4046,0,c	;volatile
  6798  001B94  0012               	return		;funcret
  6799  001B96                     __end_ofi1_TMR1_StartTimer:
  6800                           	opt callstack 0
  6801                           
  6802 ;; *************** function i1_TMR1_SetInterruptHandler *****************
  6803 ;; Defined at:
  6804 ;;		line 178 in file "mcc_generated_files/tmr1.c"
  6805 ;; Parameters:    Size  Location     Type
  6806 ;;  InterruptHan    2    5[COMRAM] PTR FTN()void 
  6807 ;;		 -> ping_TMR1Overflow_isr(1), TMR1_DefaultInterruptHandler(1), 
  6808 ;; Auto vars:     Size  Location     Type
  6809 ;;		None
  6810 ;; Return value:  Size  Location     Type
  6811 ;;                  1    wreg      void 
  6812 ;; Registers used:
  6813 ;;		wreg, status,2, status,0
  6814 ;; Tracked objects:
  6815 ;;		On entry : 0/0
  6816 ;;		On exit  : 0/0
  6817 ;;		Unchanged: 0/0
  6818 ;; Data sizes:     COMRAM   BANK0   BANK1   BANK2   BANK3   BANK4   BANK5   BANK6   BANK7
  6819 ;;      Params:         2       0       0       0       0       0       0       0       0
  6820 ;;      Locals:         0       0       0       0       0       0       0       0       0
  6821 ;;      Temps:          0       0       0       0       0       0       0       0       0
  6822 ;;      Totals:         2       0       0       0       0       0       0       0       0
  6823 ;;Total ram usage:        2 bytes
  6824 ;; Hardware stack levels used:    1
  6825 ;; Hardware stack levels required when called:    3
  6826 ;; This function calls:
  6827 ;;		Nothing
  6828 ;; This function is called by:
  6829 ;;		_ping_TMR1Overflow_isr
  6830 ;;		_ping_RC2_went_HIGH
  6831 ;; This function uses a non-reentrant model
  6832 ;;
  6833                           
  6834                           	psect	text57
  6835  001B66                     __ptext57:
  6836                           	opt callstack 0
  6837  001B66                     i1_TMR1_SetInterruptHandler:
  6838                           	opt callstack 21
  6839                           
  6840                           ;mcc_generated_files/tmr1.c: 179:     TMR1_InterruptHandler = InterruptHandler;
  6841                           
  6842                           ;incstack = 0
  6843  001B66  C006  F03E         	movff	i1TMR1_SetInterruptHandler@InterruptHandler,_TMR1_InterruptHandler
  6844  001B6A  C007  F03F         	movff	i1TMR1_SetInterruptHandler@InterruptHandler+1,_TMR1_InterruptHandler+1
  6845  001B6E  0012               	return		;funcret
  6846  001B70                     __end_ofi1_TMR1_SetInterruptHandler:
  6847                           	opt callstack 0
  6848                           
  6849 ;; *************** function i1_IOCCF2_SetInterruptHandler *****************
  6850 ;; Defined at:
  6851 ;;		line 153 in file "mcc_generated_files/pin_manager.c"
  6852 ;; Parameters:    Size  Location     Type
  6853 ;;  InterruptHan    2    5[COMRAM] PTR FTN()void 
  6854 ;;		 -> ping_RC2_went_HIGH(1), IOCCF2_DefaultInterruptHandler(1), 
  6855 ;; Auto vars:     Size  Location     Type
  6856 ;;		None
  6857 ;; Return value:  Size  Location     Type
  6858 ;;                  1    wreg      void 
  6859 ;; Registers used:
  6860 ;;		wreg, status,2, status,0
  6861 ;; Tracked objects:
  6862 ;;		On entry : 0/0
  6863 ;;		On exit  : 0/0
  6864 ;;		Unchanged: 0/0
  6865 ;; Data sizes:     COMRAM   BANK0   BANK1   BANK2   BANK3   BANK4   BANK5   BANK6   BANK7
  6866 ;;      Params:         2       0       0       0       0       0       0       0       0
  6867 ;;      Locals:         0       0       0       0       0       0       0       0       0
  6868 ;;      Temps:          0       0       0       0       0       0       0       0       0
  6869 ;;      Totals:         2       0       0       0       0       0       0       0       0
  6870 ;;Total ram usage:        2 bytes
  6871 ;; Hardware stack levels used:    1
  6872 ;; Hardware stack levels required when called:    3
  6873 ;; This function calls:
  6874 ;;		Nothing
  6875 ;; This function is called by:
  6876 ;;		_ping_TMR1Overflow_isr
  6877 ;;		_ping_RC2_went_HIGH
  6878 ;; This function uses a non-reentrant model
  6879 ;;
  6880                           
  6881                           	psect	text58
  6882  001B70                     __ptext58:
  6883                           	opt callstack 0
  6884  001B70                     i1_IOCCF2_SetInterruptHandler:
  6885                           	opt callstack 21
  6886                           
  6887                           ;mcc_generated_files/pin_manager.c: 154:     IOCCF2_InterruptHandler = InterruptHandler;
  6888                           
  6889                           ;incstack = 0
  6890  001B70  C006  F044         	movff	i1IOCCF2_SetInterruptHandler@InterruptHandler,_IOCCF2_InterruptHandler
  6891  001B74  C007  F045         	movff	i1IOCCF2_SetInterruptHandler@InterruptHandler+1,_IOCCF2_InterruptHandler+1
  6892  001B78  0012               	return		;funcret
  6893  001B7A                     __end_ofi1_IOCCF2_SetInterruptHandler:
  6894                           	opt callstack 0
  6895                           
  6896 ;; *************** function _CCP1_CaptureISR *****************
  6897 ;; Defined at:
  6898 ;;		line 94 in file "mcc_generated_files/ccp1.c"
  6899 ;; Parameters:    Size  Location     Type
  6900 ;;		None
  6901 ;; Auto vars:     Size  Location     Type
  6902 ;;  module          2   46[COMRAM] struct CCPR1Reg_tag
  6903 ;; Return value:  Size  Location     Type
  6904 ;;                  1    wreg      void 
  6905 ;; Registers used:
  6906 ;;		wreg, status,2, status,0, pclath, tosl, prodl, prodh, cstack
  6907 ;; Tracked objects:
  6908 ;;		On entry : 0/0
  6909 ;;		On exit  : 0/0
  6910 ;;		Unchanged: 0/0
  6911 ;; Data sizes:     COMRAM   BANK0   BANK1   BANK2   BANK3   BANK4   BANK5   BANK6   BANK7
  6912 ;;      Params:         0       0       0       0       0       0       0       0       0
  6913 ;;      Locals:         2       0       0       0       0       0       0       0       0
  6914 ;;      Temps:          0       0       0       0       0       0       0       0       0
  6915 ;;      Totals:         2       0       0       0       0       0       0       0       0
  6916 ;;Total ram usage:        2 bytes
  6917 ;; Hardware stack levels used:    1
  6918 ;; Hardware stack levels required when called:    5
  6919 ;; This function calls:
  6920 ;;		Absolute function
  6921 ;;		_CCP1_DefaultCallBack
  6922 ;;		_ping_CCP1_triggered
  6923 ;; This function is called by:
  6924 ;;		_INTERRUPT_InterruptManagerLow
  6925 ;; This function uses a non-reentrant model
  6926 ;;
  6927                           
  6928                           	psect	text59
  6929  0018EE                     __ptext59:
  6930                           	opt callstack 0
  6931  0018EE                     _CCP1_CaptureISR:
  6932                           	opt callstack 21
  6933                           
  6934                           ;mcc_generated_files/ccp1.c: 96:     CCP1_PERIOD_REG_T module;;mcc_generated_files/ccp1.
      +                          c: 99:     PIR6bits.CCP1IF = 0;
  6935                           
  6936                           ;incstack = 0
  6937  0018EE  010E               	movlb	14	; () banked
  6938  0018F0  91CB               	bcf	203,0,b	;volatile
  6939                           
  6940                           ;mcc_generated_files/ccp1.c: 102:     module.ccpr1l = CCPR1L;
  6941  0018F2  CFA9 F02F          	movff	4009,CCP1_CaptureISR@module	;volatile
  6942                           
  6943                           ;mcc_generated_files/ccp1.c: 103:     module.ccpr1h = CCPR1H;
  6944  0018F6  CFAA F030          	movff	4010,CCP1_CaptureISR@module+1	;volatile
  6945                           
  6946                           ; BSR set to: 14
  6947                           ;mcc_generated_files/ccp1.c: 106:     CCP1_CallBack(module.ccpr1_16Bit);
  6948  0018FA  C02F  F02D         	movff	CCP1_CaptureISR@module,ping_CCP1_triggered@timeOfFlight
  6949  0018FE  C030  F02E         	movff	CCP1_CaptureISR@module+1,ping_CCP1_triggered@timeOfFlight+1
  6950  001902  D801               	call	i1u307_28
  6951  001904  0012               	return	
  6952  001906                     i1u307_28:
  6953  001906  0005               	push	
  6954  001908  6EFA               	movwf	pclath,c
  6955  00190A  5042               	movf	_CCP1_CallBack,w,c
  6956  00190C  6EFD               	movwf	tosl,c
  6957  00190E  5043               	movf	_CCP1_CallBack+1,w,c
  6958  001910  6EFE               	movwf	tosh,c
  6959  001912  50F8               	movf	tblptru,w,c
  6960  001914  6EFF               	movwf	tosu,c
  6961  001916  50FA               	movf	pclath,w,c
  6962  001918  0012               	return		;indir
  6963  00191A                     __end_of_CCP1_CaptureISR:
  6964                           	opt callstack 0
  6965                           
  6966 ;; *************** function _CCP1_DefaultCallBack *****************
  6967 ;; Defined at:
  6968 ;;		line 60 in file "mcc_generated_files/ccp1.c"
  6969 ;; Parameters:    Size  Location     Type
  6970 ;;  capturedValu    2   44[COMRAM] unsigned short 
  6971 ;; Auto vars:     Size  Location     Type
  6972 ;;		None
  6973 ;; Return value:  Size  Location     Type
  6974 ;;                  1    wreg      void 
  6975 ;; Registers used:
  6976 ;;		None
  6977 ;; Tracked objects:
  6978 ;;		On entry : 0/0
  6979 ;;		On exit  : 0/0
  6980 ;;		Unchanged: 0/0
  6981 ;; Data sizes:     COMRAM   BANK0   BANK1   BANK2   BANK3   BANK4   BANK5   BANK6   BANK7
  6982 ;;      Params:         2       0       0       0       0       0       0       0       0
  6983 ;;      Locals:         0       0       0       0       0       0       0       0       0
  6984 ;;      Temps:          0       0       0       0       0       0       0       0       0
  6985 ;;      Totals:         2       0       0       0       0       0       0       0       0
  6986 ;;Total ram usage:        2 bytes
  6987 ;; Hardware stack levels used:    1
  6988 ;; Hardware stack levels required when called:    3
  6989 ;; This function calls:
  6990 ;;		Nothing
  6991 ;; This function is called by:
  6992 ;;		_CCP1_Initialize
  6993 ;;		_CCP1_CaptureISR
  6994 ;; This function uses a non-reentrant model
  6995 ;;
  6996                           
  6997                           	psect	text60
  6998  001BA0                     __ptext60:
  6999                           	opt callstack 0
  7000  001BA0                     _CCP1_DefaultCallBack:
  7001                           	opt callstack 22
  7002                           
  7003                           ;incstack = 0
  7004  001BA0  0012               	return		;funcret
  7005  001BA2                     __end_of_CCP1_DefaultCallBack:
  7006                           	opt callstack 0
  7007                           
  7008 ;; *************** function _ping_CCP1_triggered *****************
  7009 ;; Defined at:
  7010 ;;		line 83 in file "ping.c"
  7011 ;; Parameters:    Size  Location     Type
  7012 ;;  timeOfFlight    2   44[COMRAM] unsigned short 
  7013 ;; Auto vars:     Size  Location     Type
  7014 ;;		None
  7015 ;; Return value:  Size  Location     Type
  7016 ;;                  1    wreg      void 
  7017 ;; Registers used:
  7018 ;;		wreg, status,2, status,0, prodl, prodh, cstack
  7019 ;; Tracked objects:
  7020 ;;		On entry : 0/0
  7021 ;;		On exit  : 0/0
  7022 ;;		Unchanged: 0/0
  7023 ;; Data sizes:     COMRAM   BANK0   BANK1   BANK2   BANK3   BANK4   BANK5   BANK6   BANK7
  7024 ;;      Params:         2       0       0       0       0       0       0       0       0
  7025 ;;      Locals:         0       0       0       0       0       0       0       0       0
  7026 ;;      Temps:          0       0       0       0       0       0       0       0       0
  7027 ;;      Totals:         2       0       0       0       0       0       0       0       0
  7028 ;;Total ram usage:        2 bytes
  7029 ;; Hardware stack levels used:    1
  7030 ;; Hardware stack levels required when called:    4
  7031 ;; This function calls:
  7032 ;;		i1___flmul
  7033 ;;		i1___xxtofl
  7034 ;; This function is called by:
  7035 ;;		_ping_init
  7036 ;;		_CCP1_CaptureISR
  7037 ;; This function uses a non-reentrant model
  7038 ;;
  7039                           
  7040                           	psect	text61
  7041  001442                     __ptext61:
  7042                           	opt callstack 0
  7043  001442                     _ping_CCP1_triggered:
  7044                           	opt callstack 21
  7045                           
  7046                           ;ping.c: 84:     status.tof = timeOfFlight;
  7047                           
  7048                           ;incstack = 0
  7049  001442  C02D  F04C         	movff	ping_CCP1_triggered@timeOfFlight,_status+6	;volatile
  7050  001446  C02E  F04D         	movff	ping_CCP1_triggered@timeOfFlight+1,_status+7	;volatile
  7051                           
  7052                           ;ping.c: 85:     status.pingStarted = 0;
  7053  00144A  0E00               	movlw	0
  7054  00144C  6E4B               	movwf	_status+5,c	;volatile
  7055                           
  7056                           ;ping.c: 86:     status.readReady = 1;
  7057  00144E  0E01               	movlw	1
  7058  001450  6E46               	movwf	_status,c	;volatile
  7059                           
  7060                           ;ping.c: 87:     PIE6bits.CCP1IE = 0;
  7061  001452  010E               	movlb	14	; () banked
  7062  001454  91C3               	bcf	195,0,b	;volatile
  7063                           
  7064                           ; BSR set to: 14
  7065  001456  9482               	bcf	3970,2,c	;volatile
  7066                           
  7067                           ; BSR set to: 14
  7068                           ;ping.c: 89:     status.measurment = 0.009 * timeOfFlight;
  7069  001458  C02D  F006         	movff	ping_CCP1_triggered@timeOfFlight,i1___xxtofl@val
  7070  00145C  C02E  F007         	movff	ping_CCP1_triggered@timeOfFlight+1,i1___xxtofl@val+1
  7071  001460  6A08               	clrf	i1___xxtofl@val+2,c
  7072  001462  6A09               	clrf	i1___xxtofl@val+3,c
  7073  001464  0E00               	movlw	0
  7074  001466  EC82  F006         	call	i1___xxtofl
  7075  00146A  C006  F014         	movff	?i1___xxtofl,i1___flmul@b
  7076  00146E  C007  F015         	movff	?i1___xxtofl+1,i1___flmul@b+1
  7077  001472  C008  F016         	movff	?i1___xxtofl+2,i1___flmul@b+2
  7078  001476  C009  F017         	movff	?i1___xxtofl+3,i1___flmul@b+3
  7079  00147A  0EBC               	movlw	188
  7080  00147C  6E18               	movwf	i1___flmul@a,c
  7081  00147E  0E74               	movlw	116
  7082  001480  6E19               	movwf	i1___flmul@a+1,c
  7083  001482  0E13               	movlw	19
  7084  001484  6E1A               	movwf	i1___flmul@a+2,c
  7085  001486  0E3C               	movlw	60
  7086  001488  6E1B               	movwf	i1___flmul@a+3,c
  7087  00148A  ECFD  F001         	call	i1___flmul	;wreg free
  7088  00148E  C014  F047         	movff	?i1___flmul,_status+1	;volatile
  7089  001492  C015  F048         	movff	?i1___flmul+1,_status+2	;volatile
  7090  001496  C016  F049         	movff	?i1___flmul+2,_status+3	;volatile
  7091  00149A  C017  F04A         	movff	?i1___flmul+3,_status+4	;volatile
  7092                           
  7093                           ;ping.c: 90:     status.readReady = 1;
  7094  00149E  0E01               	movlw	1
  7095  0014A0  6E46               	movwf	_status,c	;volatile
  7096                           
  7097                           ;ping.c: 91:     status.pingStarted = 0;
  7098  0014A2  0E00               	movlw	0
  7099  0014A4  6E4B               	movwf	_status+5,c	;volatile
  7100  0014A6  0012               	return		;funcret
  7101  0014A8                     __end_of_ping_CCP1_triggered:
  7102                           	opt callstack 0
  7103                           
  7104 ;; *************** function i1___xxtofl *****************
  7105 ;; Defined at:
  7106 ;;		line 10 in file "/Applications/microchip/xc8/v2.05/pic/sources/c99/common/xxtofl.c"
  7107 ;; Parameters:    Size  Location     Type
  7108 ;;  sign            1    wreg     unsigned char 
  7109 ;;  val             4    5[COMRAM] long 
  7110 ;; Auto vars:     Size  Location     Type
  7111 ;;  sign            1   13[COMRAM] unsigned char 
  7112 ;;  __xxtofl        4   15[COMRAM] unsigned long 
  7113 ;;  __xxtofl        1   14[COMRAM] unsigned char 
  7114 ;; Return value:  Size  Location     Type
  7115 ;;                  4    5[COMRAM] unsigned char 
  7116 ;; Registers used:
  7117 ;;		wreg, status,2, status,0
  7118 ;; Tracked objects:
  7119 ;;		On entry : 0/0
  7120 ;;		On exit  : 0/0
  7121 ;;		Unchanged: 0/0
  7122 ;; Data sizes:     COMRAM   BANK0   BANK1   BANK2   BANK3   BANK4   BANK5   BANK6   BANK7
  7123 ;;      Params:         4       0       0       0       0       0       0       0       0
  7124 ;;      Locals:         6       0       0       0       0       0       0       0       0
  7125 ;;      Temps:          4       0       0       0       0       0       0       0       0
  7126 ;;      Totals:        14       0       0       0       0       0       0       0       0
  7127 ;;Total ram usage:       14 bytes
  7128 ;; Hardware stack levels used:    1
  7129 ;; Hardware stack levels required when called:    3
  7130 ;; This function calls:
  7131 ;;		Nothing
  7132 ;; This function is called by:
  7133 ;;		_ping_CCP1_triggered
  7134 ;; This function uses a non-reentrant model
  7135 ;;
  7136                           
  7137                           	psect	text62
  7138  000D04                     __ptext62:
  7139                           	opt callstack 0
  7140  000D04                     i1___xxtofl:
  7141                           	opt callstack 21
  7142                           
  7143                           ;incstack = 0
  7144                           ;i1___xxtofl@sign stored from wreg
  7145  000D04  6E0E               	movwf	i1___xxtofl@sign,c
  7146  000D06  500E               	movf	i1___xxtofl@sign,w,c
  7147  000D08  A4D8               	btfss	status,2,c
  7148  000D0A  AE09               	btfss	i1___xxtofl@val+3,7,c
  7149  000D0C  D01A               	goto	i1l1651
  7150  000D0E  C006  F00A         	movff	i1___xxtofl@val,??i1___xxtofl
  7151  000D12  C007  F00B         	movff	i1___xxtofl@val+1,??i1___xxtofl+1
  7152  000D16  C008  F00C         	movff	i1___xxtofl@val+2,??i1___xxtofl+2
  7153  000D1A  C009  F00D         	movff	i1___xxtofl@val+3,??i1___xxtofl+3
  7154  000D1E  1E0A               	comf	??i1___xxtofl,f,c
  7155  000D20  1E0B               	comf	??i1___xxtofl+1,f,c
  7156  000D22  1E0C               	comf	??i1___xxtofl+2,f,c
  7157  000D24  1E0D               	comf	??i1___xxtofl+3,f,c
  7158  000D26  2A0A               	incf	??i1___xxtofl,f,c
  7159  000D28  0E00               	movlw	0
  7160  000D2A  220B               	addwfc	??i1___xxtofl+1,f,c
  7161  000D2C  220C               	addwfc	??i1___xxtofl+2,f,c
  7162  000D2E  220D               	addwfc	??i1___xxtofl+3,f,c
  7163  000D30  C00A  F010         	movff	??i1___xxtofl,i1___xxtofl@arg
  7164  000D34  C00B  F011         	movff	??i1___xxtofl+1,i1___xxtofl@arg+1
  7165  000D38  C00C  F012         	movff	??i1___xxtofl+2,i1___xxtofl@arg+2
  7166  000D3C  C00D  F013         	movff	??i1___xxtofl+3,i1___xxtofl@arg+3
  7167  000D40  D008               	goto	i1l3373
  7168  000D42                     i1l1651:
  7169  000D42  C006  F010         	movff	i1___xxtofl@val,i1___xxtofl@arg
  7170  000D46  C007  F011         	movff	i1___xxtofl@val+1,i1___xxtofl@arg+1
  7171  000D4A  C008  F012         	movff	i1___xxtofl@val+2,i1___xxtofl@arg+2
  7172  000D4E  C009  F013         	movff	i1___xxtofl@val+3,i1___xxtofl@arg+3
  7173  000D52                     i1l3373:
  7174  000D52  5006               	movf	i1___xxtofl@val,w,c
  7175  000D54  1007               	iorwf	i1___xxtofl@val+1,w,c
  7176  000D56  1008               	iorwf	i1___xxtofl@val+2,w,c
  7177  000D58  1009               	iorwf	i1___xxtofl@val+3,w,c
  7178  000D5A  A4D8               	btfss	status,2,c
  7179  000D5C  D009               	goto	i1l3379
  7180  000D5E  0E00               	movlw	0
  7181  000D60  6E06               	movwf	?i1___xxtofl,c
  7182  000D62  0E00               	movlw	0
  7183  000D64  6E07               	movwf	?i1___xxtofl+1,c
  7184  000D66  0E00               	movlw	0
  7185  000D68  6E08               	movwf	?i1___xxtofl+2,c
  7186  000D6A  0E00               	movlw	0
  7187  000D6C  6E09               	movwf	?i1___xxtofl+3,c
  7188  000D6E  0012               	return	
  7189  000D70                     i1l3379:
  7190  000D70  0E96               	movlw	150
  7191  000D72  6E0F               	movwf	i1___xxtofl@exp,c
  7192  000D74  D006               	goto	i1l3383
  7193  000D76                     i1l3381:
  7194  000D76  2A0F               	incf	i1___xxtofl@exp,f,c
  7195  000D78  90D8               	bcf	status,0,c
  7196  000D7A  3213               	rrcf	i1___xxtofl@arg+3,f,c
  7197  000D7C  3212               	rrcf	i1___xxtofl@arg+2,f,c
  7198  000D7E  3211               	rrcf	i1___xxtofl@arg+1,f,c
  7199  000D80  3210               	rrcf	i1___xxtofl@arg,f,c
  7200  000D82                     i1l3383:
  7201  000D82  0E00               	movlw	0
  7202  000D84  1410               	andwf	i1___xxtofl@arg,w,c
  7203  000D86  6E0A               	movwf	??i1___xxtofl& (0+255),c
  7204  000D88  0E00               	movlw	0
  7205  000D8A  1411               	andwf	i1___xxtofl@arg+1,w,c
  7206  000D8C  6E0B               	movwf	(??i1___xxtofl+1)& (0+255),c
  7207  000D8E  0E00               	movlw	0
  7208  000D90  1412               	andwf	i1___xxtofl@arg+2,w,c
  7209  000D92  6E0C               	movwf	(??i1___xxtofl+2)& (0+255),c
  7210  000D94  0EFE               	movlw	254
  7211  000D96  1413               	andwf	i1___xxtofl@arg+3,w,c
  7212  000D98  6E0D               	movwf	(??i1___xxtofl+3)& (0+255),c
  7213  000D9A  500A               	movf	??i1___xxtofl,w,c
  7214  000D9C  100B               	iorwf	??i1___xxtofl+1,w,c
  7215  000D9E  100C               	iorwf	??i1___xxtofl+2,w,c
  7216  000DA0  100D               	iorwf	??i1___xxtofl+3,w,c
  7217  000DA2  B4D8               	btfsc	status,2,c
  7218  000DA4  D00D               	goto	i1l1658
  7219  000DA6  D7E7               	goto	i1l3381
  7220  000DA8                     i1l3385:
  7221  000DA8  2A0F               	incf	i1___xxtofl@exp,f,c
  7222  000DAA  0E01               	movlw	1
  7223  000DAC  2610               	addwf	i1___xxtofl@arg,f,c
  7224  000DAE  0E00               	movlw	0
  7225  000DB0  2211               	addwfc	i1___xxtofl@arg+1,f,c
  7226  000DB2  2212               	addwfc	i1___xxtofl@arg+2,f,c
  7227  000DB4  2213               	addwfc	i1___xxtofl@arg+3,f,c
  7228  000DB6  90D8               	bcf	status,0,c
  7229  000DB8  3213               	rrcf	i1___xxtofl@arg+3,f,c
  7230  000DBA  3212               	rrcf	i1___xxtofl@arg+2,f,c
  7231  000DBC  3211               	rrcf	i1___xxtofl@arg+1,f,c
  7232  000DBE  3210               	rrcf	i1___xxtofl@arg,f,c
  7233  000DC0                     i1l1658:
  7234  000DC0  0E00               	movlw	0
  7235  000DC2  1410               	andwf	i1___xxtofl@arg,w,c
  7236  000DC4  6E0A               	movwf	??i1___xxtofl& (0+255),c
  7237  000DC6  0E00               	movlw	0
  7238  000DC8  1411               	andwf	i1___xxtofl@arg+1,w,c
  7239  000DCA  6E0B               	movwf	(??i1___xxtofl+1)& (0+255),c
  7240  000DCC  0E00               	movlw	0
  7241  000DCE  1412               	andwf	i1___xxtofl@arg+2,w,c
  7242  000DD0  6E0C               	movwf	(??i1___xxtofl+2)& (0+255),c
  7243  000DD2  0EFF               	movlw	255
  7244  000DD4  1413               	andwf	i1___xxtofl@arg+3,w,c
  7245  000DD6  6E0D               	movwf	(??i1___xxtofl+3)& (0+255),c
  7246  000DD8  500A               	movf	??i1___xxtofl,w,c
  7247  000DDA  100B               	iorwf	??i1___xxtofl+1,w,c
  7248  000DDC  100C               	iorwf	??i1___xxtofl+2,w,c
  7249  000DDE  100D               	iorwf	??i1___xxtofl+3,w,c
  7250  000DE0  B4D8               	btfsc	status,2,c
  7251  000DE2  D007               	goto	i1l3393
  7252  000DE4  D7E1               	goto	i1l3385
  7253  000DE6                     i1l3391:
  7254  000DE6  060F               	decf	i1___xxtofl@exp,f,c
  7255  000DE8  90D8               	bcf	status,0,c
  7256  000DEA  3610               	rlcf	i1___xxtofl@arg,f,c
  7257  000DEC  3611               	rlcf	i1___xxtofl@arg+1,f,c
  7258  000DEE  3612               	rlcf	i1___xxtofl@arg+2,f,c
  7259  000DF0  3613               	rlcf	i1___xxtofl@arg+3,f,c
  7260  000DF2                     i1l3393:
  7261  000DF2  BE12               	btfsc	i1___xxtofl@arg+2,7,c
  7262  000DF4  D003               	goto	i1u200_20
  7263  000DF6  0E02               	movlw	2
  7264  000DF8  600F               	cpfslt	i1___xxtofl@exp,c
  7265  000DFA  D7F5               	goto	i1l3391
  7266  000DFC                     i1u200_20:
  7267  000DFC  A00F               	btfss	i1___xxtofl@exp,0,c
  7268  000DFE  9E12               	bcf	i1___xxtofl@arg+2,7,c
  7269  000E00  90D8               	bcf	status,0,c
  7270  000E02  320F               	rrcf	i1___xxtofl@exp,f,c
  7271  000E04  C00F  F00A         	movff	i1___xxtofl@exp,??i1___xxtofl
  7272  000E08  6A0B               	clrf	(??i1___xxtofl+1)& (0+255),c
  7273  000E0A  6A0C               	clrf	(??i1___xxtofl+2)& (0+255),c
  7274  000E0C  6A0D               	clrf	(??i1___xxtofl+3)& (0+255),c
  7275  000E0E  C00A  F00D         	movff	??i1___xxtofl,??i1___xxtofl+3
  7276  000E12  6A0C               	clrf	??i1___xxtofl+2,c
  7277  000E14  6A0B               	clrf	??i1___xxtofl+1,c
  7278  000E16  6A0A               	clrf	??i1___xxtofl,c
  7279  000E18  500A               	movf	??i1___xxtofl,w,c
  7280  000E1A  1210               	iorwf	i1___xxtofl@arg,f,c
  7281  000E1C  500B               	movf	??i1___xxtofl+1,w,c
  7282  000E1E  1211               	iorwf	i1___xxtofl@arg+1,f,c
  7283  000E20  500C               	movf	??i1___xxtofl+2,w,c
  7284  000E22  1212               	iorwf	i1___xxtofl@arg+2,f,c
  7285  000E24  500D               	movf	??i1___xxtofl+3,w,c
  7286  000E26  1213               	iorwf	i1___xxtofl@arg+3,f,c
  7287  000E28  500E               	movf	i1___xxtofl@sign,w,c
  7288  000E2A  A4D8               	btfss	status,2,c
  7289  000E2C  AE09               	btfss	i1___xxtofl@val+3,7,c
  7290  000E2E  D001               	goto	i1l3409
  7291  000E30  8E13               	bsf	i1___xxtofl@arg+3,7,c
  7292  000E32                     i1l3409:
  7293  000E32  C010  F006         	movff	i1___xxtofl@arg,?i1___xxtofl
  7294  000E36  C011  F007         	movff	i1___xxtofl@arg+1,?i1___xxtofl+1
  7295  000E3A  C012  F008         	movff	i1___xxtofl@arg+2,?i1___xxtofl+2
  7296  000E3E  C013  F009         	movff	i1___xxtofl@arg+3,?i1___xxtofl+3
  7297  000E42  0012               	return		;funcret
  7298  000E44                     __end_ofi1___xxtofl:
  7299                           	opt callstack 0
  7300                           
  7301 ;; *************** function i1___flmul *****************
  7302 ;; Defined at:
  7303 ;;		line 8 in file "/Applications/microchip/xc8/v2.05/pic/sources/c99/common/sprcmul.c"
  7304 ;; Parameters:    Size  Location     Type
  7305 ;;  b               4   19[COMRAM] unsigned char 
  7306 ;;  a               4   23[COMRAM] unsigned char 
  7307 ;; Auto vars:     Size  Location     Type
  7308 ;;  __flmul         4   38[COMRAM] struct .
  7309 ;;  __flmul         4   32[COMRAM] unsigned long 
  7310 ;;  __flmul         2   42[COMRAM] struct .
  7311 ;;  __flmul         1   37[COMRAM] unsigned char 
  7312 ;;  __flmul         1   36[COMRAM] unsigned char 
  7313 ;;  __flmul         1   31[COMRAM] unsigned char 
  7314 ;; Return value:  Size  Location     Type
  7315 ;;                  4   19[COMRAM] unsigned char 
  7316 ;; Registers used:
  7317 ;;		wreg, status,2, status,0, prodl, prodh
  7318 ;; Tracked objects:
  7319 ;;		On entry : 0/0
  7320 ;;		On exit  : 0/0
  7321 ;;		Unchanged: 0/0
  7322 ;; Data sizes:     COMRAM   BANK0   BANK1   BANK2   BANK3   BANK4   BANK5   BANK6   BANK7
  7323 ;;      Params:         8       0       0       0       0       0       0       0       0
  7324 ;;      Locals:        13       0       0       0       0       0       0       0       0
  7325 ;;      Temps:          4       0       0       0       0       0       0       0       0
  7326 ;;      Totals:        25       0       0       0       0       0       0       0       0
  7327 ;;Total ram usage:       25 bytes
  7328 ;; Hardware stack levels used:    1
  7329 ;; Hardware stack levels required when called:    3
  7330 ;; This function calls:
  7331 ;;		Nothing
  7332 ;; This function is called by:
  7333 ;;		_ping_CCP1_triggered
  7334 ;; This function uses a non-reentrant model
  7335 ;;
  7336                           
  7337                           	psect	text63
  7338  0003FA                     __ptext63:
  7339                           	opt callstack 0
  7340  0003FA                     i1___flmul:
  7341                           	opt callstack 21
  7342                           
  7343                           ;incstack = 0
  7344  0003FA  5017               	movf	i1___flmul@b+3,w,c
  7345  0003FC  0B80               	andlw	128
  7346  0003FE  6E20               	movwf	i1___flmul@sign,c
  7347  000400  5017               	movf	i1___flmul@b+3,w,c
  7348  000402  2417               	addwf	i1___flmul@b+3,w,c
  7349  000404  6E26               	movwf	i1___flmul@bexp,c
  7350  000406  BE16               	btfsc	i1___flmul@b+2,7,c
  7351  000408  8026               	bsf	i1___flmul@bexp,0,c
  7352  00040A  5026               	movf	i1___flmul@bexp,w,c
  7353  00040C  B4D8               	btfsc	status,2,c
  7354  00040E  D00D               	goto	i1l3251
  7355  000410  2826               	incf	i1___flmul@bexp,w,c
  7356  000412  A4D8               	btfss	status,2,c
  7357  000414  D008               	goto	i1l3249
  7358  000416  0E00               	movlw	0
  7359  000418  6E14               	movwf	i1___flmul@b,c
  7360  00041A  0E00               	movlw	0
  7361  00041C  6E15               	movwf	i1___flmul@b+1,c
  7362  00041E  0E00               	movlw	0
  7363  000420  6E16               	movwf	i1___flmul@b+2,c
  7364  000422  0E00               	movlw	0
  7365  000424  6E17               	movwf	i1___flmul@b+3,c
  7366  000426                     i1l3249:
  7367  000426  8E16               	bsf	i1___flmul@b+2,7,c
  7368  000428  D008               	goto	i1l3253
  7369  00042A                     i1l3251:
  7370  00042A  0E00               	movlw	0
  7371  00042C  6E14               	movwf	i1___flmul@b,c
  7372  00042E  0E00               	movlw	0
  7373  000430  6E15               	movwf	i1___flmul@b+1,c
  7374  000432  0E00               	movlw	0
  7375  000434  6E16               	movwf	i1___flmul@b+2,c
  7376  000436  0E00               	movlw	0
  7377  000438  6E17               	movwf	i1___flmul@b+3,c
  7378  00043A                     i1l3253:
  7379  00043A  501B               	movf	i1___flmul@a+3,w,c
  7380  00043C  0B80               	andlw	128
  7381  00043E  1A20               	xorwf	i1___flmul@sign,f,c
  7382  000440  501B               	movf	i1___flmul@a+3,w,c
  7383  000442  241B               	addwf	i1___flmul@a+3,w,c
  7384  000444  6E25               	movwf	i1___flmul@aexp,c
  7385  000446  BE1A               	btfsc	i1___flmul@a+2,7,c
  7386  000448  8025               	bsf	i1___flmul@aexp,0,c
  7387  00044A  5025               	movf	i1___flmul@aexp,w,c
  7388  00044C  B4D8               	btfsc	status,2,c
  7389  00044E  D00D               	goto	i1l3269
  7390  000450  2825               	incf	i1___flmul@aexp,w,c
  7391  000452  A4D8               	btfss	status,2,c
  7392  000454  D008               	goto	i1l3267
  7393  000456  0E00               	movlw	0
  7394  000458  6E18               	movwf	i1___flmul@a,c
  7395  00045A  0E00               	movlw	0
  7396  00045C  6E19               	movwf	i1___flmul@a+1,c
  7397  00045E  0E00               	movlw	0
  7398  000460  6E1A               	movwf	i1___flmul@a+2,c
  7399  000462  0E00               	movlw	0
  7400  000464  6E1B               	movwf	i1___flmul@a+3,c
  7401  000466                     i1l3267:
  7402  000466  8E1A               	bsf	i1___flmul@a+2,7,c
  7403  000468  D008               	goto	i1l1610
  7404  00046A                     i1l3269:
  7405  00046A  0E00               	movlw	0
  7406  00046C  6E18               	movwf	i1___flmul@a,c
  7407  00046E  0E00               	movlw	0
  7408  000470  6E19               	movwf	i1___flmul@a+1,c
  7409  000472  0E00               	movlw	0
  7410  000474  6E1A               	movwf	i1___flmul@a+2,c
  7411  000476  0E00               	movlw	0
  7412  000478  6E1B               	movwf	i1___flmul@a+3,c
  7413  00047A                     i1l1610:
  7414  00047A  5025               	movf	i1___flmul@aexp,w,c
  7415  00047C  B4D8               	btfsc	status,2,c
  7416  00047E  D003               	goto	i1u182_20
  7417  000480  5026               	movf	i1___flmul@bexp,w,c
  7418  000482  A4D8               	btfss	status,2,c
  7419  000484  D009               	goto	i1l3277
  7420  000486                     i1u182_20:
  7421  000486  0E00               	movlw	0
  7422  000488  6E14               	movwf	?i1___flmul,c
  7423  00048A  0E00               	movlw	0
  7424  00048C  6E15               	movwf	?i1___flmul+1,c
  7425  00048E  0E00               	movlw	0
  7426  000490  6E16               	movwf	?i1___flmul+2,c
  7427  000492  0E00               	movlw	0
  7428  000494  6E17               	movwf	?i1___flmul+3,c
  7429  000496  0012               	return	
  7430  000498                     i1l3277:
  7431  000498  501A               	movf	i1___flmul@a+2,w,c
  7432  00049A  0214               	mulwf	i1___flmul@b,c
  7433  00049C  CFF3 F02B          	movff	prodl,i1___flmul@temp
  7434  0004A0  CFF4 F02C          	movff	prodh,i1___flmul@temp+1
  7435  0004A4  502B               	movf	i1___flmul@temp,w,c
  7436  0004A6  6E21               	movwf	i1___flmul@grs,c
  7437  0004A8  6A22               	clrf	i1___flmul@grs+1,c
  7438  0004AA  6A23               	clrf	i1___flmul@grs+2,c
  7439  0004AC  6A24               	clrf	i1___flmul@grs+3,c
  7440  0004AE  502C               	movf	i1___flmul@temp+1,w,c
  7441  0004B0  6E27               	movwf	i1___flmul@prod,c
  7442  0004B2  6A28               	clrf	i1___flmul@prod+1,c
  7443  0004B4  6A29               	clrf	i1___flmul@prod+2,c
  7444  0004B6  6A2A               	clrf	i1___flmul@prod+3,c
  7445  0004B8  5019               	movf	i1___flmul@a+1,w,c
  7446  0004BA  0215               	mulwf	i1___flmul@b+1,c
  7447  0004BC  CFF3 F02B          	movff	prodl,i1___flmul@temp
  7448  0004C0  CFF4 F02C          	movff	prodh,i1___flmul@temp+1
  7449  0004C4  502B               	movf	i1___flmul@temp,w,c
  7450  0004C6  2621               	addwf	i1___flmul@grs,f,c
  7451  0004C8  0E00               	movlw	0
  7452  0004CA  2222               	addwfc	i1___flmul@grs+1,f,c
  7453  0004CC  2223               	addwfc	i1___flmul@grs+2,f,c
  7454  0004CE  2224               	addwfc	i1___flmul@grs+3,f,c
  7455  0004D0  502C               	movf	i1___flmul@temp+1,w,c
  7456  0004D2  2627               	addwf	i1___flmul@prod,f,c
  7457  0004D4  0E00               	movlw	0
  7458  0004D6  2228               	addwfc	i1___flmul@prod+1,f,c
  7459  0004D8  2229               	addwfc	i1___flmul@prod+2,f,c
  7460  0004DA  222A               	addwfc	i1___flmul@prod+3,f,c
  7461  0004DC  5018               	movf	i1___flmul@a,w,c
  7462  0004DE  0216               	mulwf	i1___flmul@b+2,c
  7463  0004E0  CFF3 F02B          	movff	prodl,i1___flmul@temp
  7464  0004E4  CFF4 F02C          	movff	prodh,i1___flmul@temp+1
  7465  0004E8  502B               	movf	i1___flmul@temp,w,c
  7466  0004EA  2621               	addwf	i1___flmul@grs,f,c
  7467  0004EC  0E00               	movlw	0
  7468  0004EE  2222               	addwfc	i1___flmul@grs+1,f,c
  7469  0004F0  2223               	addwfc	i1___flmul@grs+2,f,c
  7470  0004F2  2224               	addwfc	i1___flmul@grs+3,f,c
  7471  0004F4  502C               	movf	i1___flmul@temp+1,w,c
  7472  0004F6  2627               	addwf	i1___flmul@prod,f,c
  7473  0004F8  0E00               	movlw	0
  7474  0004FA  2228               	addwfc	i1___flmul@prod+1,f,c
  7475  0004FC  2229               	addwfc	i1___flmul@prod+2,f,c
  7476  0004FE  222A               	addwfc	i1___flmul@prod+3,f,c
  7477  000500  C023  F024         	movff	i1___flmul@grs+2,i1___flmul@grs+3
  7478  000504  C022  F023         	movff	i1___flmul@grs+1,i1___flmul@grs+2
  7479  000508  C021  F022         	movff	i1___flmul@grs,i1___flmul@grs+1
  7480  00050C  6A21               	clrf	i1___flmul@grs,c
  7481  00050E  5018               	movf	i1___flmul@a,w,c
  7482  000510  0215               	mulwf	i1___flmul@b+1,c
  7483  000512  CFF3 F02B          	movff	prodl,i1___flmul@temp
  7484  000516  CFF4 F02C          	movff	prodh,i1___flmul@temp+1
  7485  00051A  502B               	movf	i1___flmul@temp,w,c
  7486  00051C  2621               	addwf	i1___flmul@grs,f,c
  7487  00051E  502C               	movf	i1___flmul@temp+1,w,c
  7488  000520  2222               	addwfc	i1___flmul@grs+1,f,c
  7489  000522  0E00               	movlw	0
  7490  000524  2223               	addwfc	i1___flmul@grs+2,f,c
  7491  000526  0E00               	movlw	0
  7492  000528  2224               	addwfc	i1___flmul@grs+3,f,c
  7493  00052A  5019               	movf	i1___flmul@a+1,w,c
  7494  00052C  0214               	mulwf	i1___flmul@b,c
  7495  00052E  CFF3 F02B          	movff	prodl,i1___flmul@temp
  7496  000532  CFF4 F02C          	movff	prodh,i1___flmul@temp+1
  7497  000536  502B               	movf	i1___flmul@temp,w,c
  7498  000538  2621               	addwf	i1___flmul@grs,f,c
  7499  00053A  502C               	movf	i1___flmul@temp+1,w,c
  7500  00053C  2222               	addwfc	i1___flmul@grs+1,f,c
  7501  00053E  0E00               	movlw	0
  7502  000540  2223               	addwfc	i1___flmul@grs+2,f,c
  7503  000542  0E00               	movlw	0
  7504  000544  2224               	addwfc	i1___flmul@grs+3,f,c
  7505  000546  C023  F024         	movff	i1___flmul@grs+2,i1___flmul@grs+3
  7506  00054A  C022  F023         	movff	i1___flmul@grs+1,i1___flmul@grs+2
  7507  00054E  C021  F022         	movff	i1___flmul@grs,i1___flmul@grs+1
  7508  000552  6A21               	clrf	i1___flmul@grs,c
  7509  000554  5018               	movf	i1___flmul@a,w,c
  7510  000556  0214               	mulwf	i1___flmul@b,c
  7511  000558  CFF3 F02B          	movff	prodl,i1___flmul@temp
  7512  00055C  CFF4 F02C          	movff	prodh,i1___flmul@temp+1
  7513  000560  502B               	movf	i1___flmul@temp,w,c
  7514  000562  2621               	addwf	i1___flmul@grs,f,c
  7515  000564  502C               	movf	i1___flmul@temp+1,w,c
  7516  000566  2222               	addwfc	i1___flmul@grs+1,f,c
  7517  000568  0E00               	movlw	0
  7518  00056A  2223               	addwfc	i1___flmul@grs+2,f,c
  7519  00056C  0E00               	movlw	0
  7520  00056E  2224               	addwfc	i1___flmul@grs+3,f,c
  7521  000570  501A               	movf	i1___flmul@a+2,w,c
  7522  000572  0215               	mulwf	i1___flmul@b+1,c
  7523  000574  CFF3 F02B          	movff	prodl,i1___flmul@temp
  7524  000578  CFF4 F02C          	movff	prodh,i1___flmul@temp+1
  7525  00057C  502B               	movf	i1___flmul@temp,w,c
  7526  00057E  2627               	addwf	i1___flmul@prod,f,c
  7527  000580  502C               	movf	i1___flmul@temp+1,w,c
  7528  000582  2228               	addwfc	i1___flmul@prod+1,f,c
  7529  000584  0E00               	movlw	0
  7530  000586  2229               	addwfc	i1___flmul@prod+2,f,c
  7531  000588  0E00               	movlw	0
  7532  00058A  222A               	addwfc	i1___flmul@prod+3,f,c
  7533  00058C  5019               	movf	i1___flmul@a+1,w,c
  7534  00058E  0216               	mulwf	i1___flmul@b+2,c
  7535  000590  CFF3 F02B          	movff	prodl,i1___flmul@temp
  7536  000594  CFF4 F02C          	movff	prodh,i1___flmul@temp+1
  7537  000598  502B               	movf	i1___flmul@temp,w,c
  7538  00059A  2627               	addwf	i1___flmul@prod,f,c
  7539  00059C  502C               	movf	i1___flmul@temp+1,w,c
  7540  00059E  2228               	addwfc	i1___flmul@prod+1,f,c
  7541  0005A0  0E00               	movlw	0
  7542  0005A2  2229               	addwfc	i1___flmul@prod+2,f,c
  7543  0005A4  0E00               	movlw	0
  7544  0005A6  222A               	addwfc	i1___flmul@prod+3,f,c
  7545  0005A8  501A               	movf	i1___flmul@a+2,w,c
  7546  0005AA  0216               	mulwf	i1___flmul@b+2,c
  7547  0005AC  CFF3 F02B          	movff	prodl,i1___flmul@temp
  7548  0005B0  CFF4 F02C          	movff	prodh,i1___flmul@temp+1
  7549  0005B4  502B               	movf	i1___flmul@temp,w,c
  7550  0005B6  6E1C               	movwf	??i1___flmul& (0+255),c
  7551  0005B8  502C               	movf	i1___flmul@temp+1,w,c
  7552  0005BA  6E1D               	movwf	(??i1___flmul+1)& (0+255),c
  7553  0005BC  6A1E               	clrf	(??i1___flmul+2)& (0+255),c
  7554  0005BE  6A1F               	clrf	(??i1___flmul+3)& (0+255),c
  7555  0005C0  C01E  F01F         	movff	??i1___flmul+2,??i1___flmul+3
  7556  0005C4  C01D  F01E         	movff	??i1___flmul+1,??i1___flmul+2
  7557  0005C8  C01C  F01D         	movff	??i1___flmul,??i1___flmul+1
  7558  0005CC  6A1C               	clrf	??i1___flmul,c
  7559  0005CE  501C               	movf	??i1___flmul,w,c
  7560  0005D0  2627               	addwf	i1___flmul@prod,f,c
  7561  0005D2  501D               	movf	??i1___flmul+1,w,c
  7562  0005D4  2228               	addwfc	i1___flmul@prod+1,f,c
  7563  0005D6  501E               	movf	??i1___flmul+2,w,c
  7564  0005D8  2229               	addwfc	i1___flmul@prod+2,f,c
  7565  0005DA  501F               	movf	??i1___flmul+3,w,c
  7566  0005DC  222A               	addwfc	i1___flmul@prod+3,f,c
  7567  0005DE  C021  F01C         	movff	i1___flmul@grs,??i1___flmul
  7568  0005E2  C022  F01D         	movff	i1___flmul@grs+1,??i1___flmul+1
  7569  0005E6  C023  F01E         	movff	i1___flmul@grs+2,??i1___flmul+2
  7570  0005EA  C024  F01F         	movff	i1___flmul@grs+3,??i1___flmul+3
  7571  0005EE  0E19               	movlw	25
  7572  0005F0  D005               	goto	i1u183_20
  7573  0005F2                     i1u183_25:
  7574  0005F2  90D8               	bcf	status,0,c
  7575  0005F4  321F               	rrcf	??i1___flmul+3,f,c
  7576  0005F6  321E               	rrcf	??i1___flmul+2,f,c
  7577  0005F8  321D               	rrcf	??i1___flmul+1,f,c
  7578  0005FA  321C               	rrcf	??i1___flmul,f,c
  7579  0005FC                     i1u183_20:
  7580  0005FC  2EE8               	decfsz	wreg,f,c
  7581  0005FE  D7F9               	goto	i1u183_25
  7582  000600  501C               	movf	??i1___flmul,w,c
  7583  000602  2627               	addwf	i1___flmul@prod,f,c
  7584  000604  501D               	movf	??i1___flmul+1,w,c
  7585  000606  2228               	addwfc	i1___flmul@prod+1,f,c
  7586  000608  501E               	movf	??i1___flmul+2,w,c
  7587  00060A  2229               	addwfc	i1___flmul@prod+2,f,c
  7588  00060C  501F               	movf	??i1___flmul+3,w,c
  7589  00060E  222A               	addwfc	i1___flmul@prod+3,f,c
  7590  000610  C023  F024         	movff	i1___flmul@grs+2,i1___flmul@grs+3
  7591  000614  C022  F023         	movff	i1___flmul@grs+1,i1___flmul@grs+2
  7592  000618  C021  F022         	movff	i1___flmul@grs,i1___flmul@grs+1
  7593  00061C  6A21               	clrf	i1___flmul@grs,c
  7594  00061E  5025               	movf	i1___flmul@aexp,w,c
  7595  000620  C026  F01C         	movff	i1___flmul@bexp,??i1___flmul
  7596  000624  6A1D               	clrf	(??i1___flmul+1)& (0+255),c
  7597  000626  261C               	addwf	??i1___flmul,f,c
  7598  000628  0E00               	movlw	0
  7599  00062A  221D               	addwfc	??i1___flmul+1,f,c
  7600  00062C  0E82               	movlw	130
  7601  00062E  241C               	addwf	??i1___flmul,w,c
  7602  000630  6E2B               	movwf	i1___flmul@temp,c
  7603  000632  0EFF               	movlw	255
  7604  000634  201D               	addwfc	??i1___flmul+1,w,c
  7605  000636  6E2C               	movwf	i1___flmul@temp+1,c
  7606  000638  D00F               	goto	i1l3325
  7607  00063A                     i1l3319:
  7608  00063A  90D8               	bcf	status,0,c
  7609  00063C  3627               	rlcf	i1___flmul@prod,f,c
  7610  00063E  3628               	rlcf	i1___flmul@prod+1,f,c
  7611  000640  3629               	rlcf	i1___flmul@prod+2,f,c
  7612  000642  362A               	rlcf	i1___flmul@prod+3,f,c
  7613  000644  BE24               	btfsc	i1___flmul@grs+3,7,c
  7614  000646  8027               	bsf	i1___flmul@prod,0,c
  7615  000648  90D8               	bcf	status,0,c
  7616  00064A  3621               	rlcf	i1___flmul@grs,f,c
  7617  00064C  3622               	rlcf	i1___flmul@grs+1,f,c
  7618  00064E  3623               	rlcf	i1___flmul@grs+2,f,c
  7619  000650  3624               	rlcf	i1___flmul@grs+3,f,c
  7620  000652  062B               	decf	i1___flmul@temp,f,c
  7621  000654  A0D8               	btfss	status,0,c
  7622  000656  062C               	decf	i1___flmul@temp+1,f,c
  7623  000658                     i1l3325:
  7624  000658  AE29               	btfss	i1___flmul@prod+2,7,c
  7625  00065A  D7EF               	goto	i1l3319
  7626  00065C  0E00               	movlw	0
  7627  00065E  6E25               	movwf	i1___flmul@aexp,c
  7628  000660  AE24               	btfss	i1___flmul@grs+3,7,c
  7629  000662  D017               	goto	i1l1619
  7630  000664  0EFF               	movlw	255
  7631  000666  1421               	andwf	i1___flmul@grs,w,c
  7632  000668  6E1C               	movwf	??i1___flmul& (0+255),c
  7633  00066A  0EFF               	movlw	255
  7634  00066C  1422               	andwf	i1___flmul@grs+1,w,c
  7635  00066E  6E1D               	movwf	(??i1___flmul+1)& (0+255),c
  7636  000670  0EFF               	movlw	255
  7637  000672  1423               	andwf	i1___flmul@grs+2,w,c
  7638  000674  6E1E               	movwf	(??i1___flmul+2)& (0+255),c
  7639  000676  0E7F               	movlw	127
  7640  000678  1424               	andwf	i1___flmul@grs+3,w,c
  7641  00067A  6E1F               	movwf	(??i1___flmul+3)& (0+255),c
  7642  00067C  501C               	movf	??i1___flmul,w,c
  7643  00067E  101D               	iorwf	??i1___flmul+1,w,c
  7644  000680  101E               	iorwf	??i1___flmul+2,w,c
  7645  000682  101F               	iorwf	??i1___flmul+3,w,c
  7646  000684  B4D8               	btfsc	status,2,c
  7647  000686  D003               	goto	i1l1620
  7648  000688                     i1u187_20:
  7649  000688  0E01               	movlw	1
  7650  00068A  6E25               	movwf	i1___flmul@aexp,c
  7651  00068C  D002               	goto	i1l1619
  7652  00068E                     i1l1620:
  7653  00068E  B027               	btfsc	i1___flmul@prod,0,c
  7654  000690  D7FB               	goto	i1u187_20
  7655  000692                     i1l1619:
  7656  000692  5025               	movf	i1___flmul@aexp,w,c
  7657  000694  B4D8               	btfsc	status,2,c
  7658  000696  D01F               	goto	i1l3345
  7659  000698  0E01               	movlw	1
  7660  00069A  2627               	addwf	i1___flmul@prod,f,c
  7661  00069C  0E00               	movlw	0
  7662  00069E  2228               	addwfc	i1___flmul@prod+1,f,c
  7663  0006A0  2229               	addwfc	i1___flmul@prod+2,f,c
  7664  0006A2  222A               	addwfc	i1___flmul@prod+3,f,c
  7665  0006A4  A02A               	btfss	i1___flmul@prod+3,0,c
  7666  0006A6  D017               	goto	i1l3345
  7667  0006A8  C027  F01C         	movff	i1___flmul@prod,??i1___flmul
  7668  0006AC  C028  F01D         	movff	i1___flmul@prod+1,??i1___flmul+1
  7669  0006B0  C029  F01E         	movff	i1___flmul@prod+2,??i1___flmul+2
  7670  0006B4  C02A  F01F         	movff	i1___flmul@prod+3,??i1___flmul+3
  7671  0006B8  341F               	rlcf	??i1___flmul+3,w,c
  7672  0006BA  321F               	rrcf	??i1___flmul+3,f,c
  7673  0006BC  321E               	rrcf	??i1___flmul+2,f,c
  7674  0006BE  321D               	rrcf	??i1___flmul+1,f,c
  7675  0006C0  321C               	rrcf	??i1___flmul,f,c
  7676  0006C2  C01C  F027         	movff	??i1___flmul,i1___flmul@prod
  7677  0006C6  C01D  F028         	movff	??i1___flmul+1,i1___flmul@prod+1
  7678  0006CA  C01E  F029         	movff	??i1___flmul+2,i1___flmul@prod+2
  7679  0006CE  C01F  F02A         	movff	??i1___flmul+3,i1___flmul@prod+3
  7680  0006D2  4A2B               	infsnz	i1___flmul@temp,f,c
  7681  0006D4  2A2C               	incf	i1___flmul@temp+1,f,c
  7682  0006D6                     i1l3345:
  7683  0006D6  BE2C               	btfsc	i1___flmul@temp+1,7,c
  7684  0006D8  D00D               	goto	i1l3349
  7685  0006DA  502C               	movf	i1___flmul@temp+1,w,c
  7686  0006DC  E103               	bnz	i1u191_20
  7687  0006DE  282B               	incf	i1___flmul@temp,w,c
  7688  0006E0  A0D8               	btfss	status,0,c
  7689  0006E2  D008               	goto	i1l3349
  7690  0006E4                     i1u191_20:
  7691  0006E4  0E00               	movlw	0
  7692  0006E6  6E27               	movwf	i1___flmul@prod,c
  7693  0006E8  0E00               	movlw	0
  7694  0006EA  6E28               	movwf	i1___flmul@prod+1,c
  7695  0006EC  0E80               	movlw	128
  7696  0006EE  6E29               	movwf	i1___flmul@prod+2,c
  7697  0006F0  0E7F               	movlw	127
  7698  0006F2  D020               	goto	L5
  7699  0006F4                     i1l3349:
  7700  0006F4  BE2C               	btfsc	i1___flmul@temp+1,7,c
  7701  0006F6  D005               	goto	i1u192_20
  7702  0006F8  502C               	movf	i1___flmul@temp+1,w,c
  7703  0006FA  E10E               	bnz	i1l1627
  7704  0006FC  042B               	decf	i1___flmul@temp,w,c
  7705  0006FE  B0D8               	btfsc	status,0,c
  7706  000700  D00B               	goto	i1l1627
  7707  000702                     i1u192_20:
  7708  000702  0E00               	movlw	0
  7709  000704  6E27               	movwf	i1___flmul@prod,c
  7710  000706  0E00               	movlw	0
  7711  000708  6E28               	movwf	i1___flmul@prod+1,c
  7712  00070A  0E00               	movlw	0
  7713  00070C  6E29               	movwf	i1___flmul@prod+2,c
  7714  00070E  0E00               	movlw	0
  7715  000710  6E2A               	movwf	i1___flmul@prod+3,c
  7716  000712  0E00               	movlw	0
  7717  000714  6E20               	movwf	i1___flmul@sign,c
  7718  000716  D00F               	goto	i1l3361
  7719  000718                     i1l1627:
  7720  000718  C02B  F026         	movff	i1___flmul@temp,i1___flmul@bexp
  7721  00071C  0EFF               	movlw	255
  7722  00071E  1627               	andwf	i1___flmul@prod,f,c
  7723  000720  0EFF               	movlw	255
  7724  000722  1628               	andwf	i1___flmul@prod+1,f,c
  7725  000724  0E7F               	movlw	127
  7726  000726  1629               	andwf	i1___flmul@prod+2,f,c
  7727  000728  0E00               	movlw	0
  7728  00072A  162A               	andwf	i1___flmul@prod+3,f,c
  7729  00072C  B026               	btfsc	i1___flmul@bexp,0,c
  7730  00072E  8E29               	bsf	i1___flmul@prod+2,7,c
  7731  000730  90D8               	bcf	status,0,c
  7732  000732  3026               	rrcf	i1___flmul@bexp,w,c
  7733  000734                     L5:
  7734  000734  6E2A               	movwf	i1___flmul@prod+3,c
  7735  000736                     i1l3361:
  7736  000736  5020               	movf	i1___flmul@sign,w,c
  7737  000738  122A               	iorwf	i1___flmul@prod+3,f,c
  7738  00073A  C027  F014         	movff	i1___flmul@prod,?i1___flmul
  7739  00073E  C028  F015         	movff	i1___flmul@prod+1,?i1___flmul+1
  7740  000742  C029  F016         	movff	i1___flmul@prod+2,?i1___flmul+2
  7741  000746  C02A  F017         	movff	i1___flmul@prod+3,?i1___flmul+3
  7742  00074A  0012               	return		;funcret
  7743  00074C                     __end_ofi1___flmul:
  7744                           	opt callstack 0
  7745                           
  7746 ;; *************** function _ADCC_ISR *****************
  7747 ;; Defined at:
  7748 ;;		line 309 in file "mcc_generated_files/adcc.c"
  7749 ;; Parameters:    Size  Location     Type
  7750 ;;		None
  7751 ;; Auto vars:     Size  Location     Type
  7752 ;;		None
  7753 ;; Return value:  Size  Location     Type
  7754 ;;                  1    wreg      void 
  7755 ;; Registers used:
  7756 ;;		wreg, fsr2l, fsr2h, status,2, status,0, pclath, tosl, cstack
  7757 ;; Tracked objects:
  7758 ;;		On entry : 0/0
  7759 ;;		On exit  : 0/0
  7760 ;;		Unchanged: 0/0
  7761 ;; Data sizes:     COMRAM   BANK0   BANK1   BANK2   BANK3   BANK4   BANK5   BANK6   BANK7
  7762 ;;      Params:         0       0       0       0       0       0       0       0       0
  7763 ;;      Locals:         0       0       0       0       0       0       0       0       0
  7764 ;;      Temps:          0       0       0       0       0       0       0       0       0
  7765 ;;      Totals:         0       0       0       0       0       0       0       0       0
  7766 ;;Total ram usage:        0 bytes
  7767 ;; Hardware stack levels used:    1
  7768 ;; Hardware stack levels required when called:    5
  7769 ;; This function calls:
  7770 ;;		Absolute function
  7771 ;;		_adc_ready_ISR
  7772 ;; This function is called by:
  7773 ;;		_INTERRUPT_InterruptManagerLow
  7774 ;; This function uses a non-reentrant model
  7775 ;;
  7776                           
  7777                           	psect	text64
  7778  0019B8                     __ptext64:
  7779                           	opt callstack 0
  7780  0019B8                     _ADCC_ISR:
  7781                           	opt callstack 21
  7782                           
  7783                           ;mcc_generated_files/adcc.c: 312:     PIR1bits.ADIF = 0;
  7784                           
  7785                           ;incstack = 0
  7786  0019B8  010E               	movlb	14	; () banked
  7787  0019BA  91C6               	bcf	198,0,b	;volatile
  7788                           
  7789                           ; BSR set to: 14
  7790                           ;mcc_generated_files/adcc.c: 314:     if(ADCC_InterruptHandler)
  7791  0019BC  5050               	movf	_ADCC_InterruptHandler,w,c
  7792  0019BE  1051               	iorwf	_ADCC_InterruptHandler+1,w,c
  7793  0019C0  B4D8               	btfsc	status,2,c
  7794  0019C2  0012               	return	
  7795                           
  7796                           ; BSR set to: 14
  7797                           ;mcc_generated_files/adcc.c: 315:     {;mcc_generated_files/adcc.c: 316:         ADCC_In
      +                          terruptHandler();
  7798  0019C4  D801               	call	i1u309_28
  7799  0019C6  0012               	return	
  7800  0019C8                     i1u309_28:
  7801  0019C8  0005               	push	
  7802  0019CA  6EFA               	movwf	pclath,c
  7803  0019CC  5050               	movf	_ADCC_InterruptHandler,w,c
  7804  0019CE  6EFD               	movwf	tosl,c
  7805  0019D0  5051               	movf	_ADCC_InterruptHandler+1,w,c
  7806  0019D2  6EFE               	movwf	tosh,c
  7807  0019D4  50F8               	movf	tblptru,w,c
  7808  0019D6  6EFF               	movwf	tosu,c
  7809  0019D8  50FA               	movf	pclath,w,c
  7810  0019DA  0012               	return		;indir
  7811  0019DC                     __end_of_ADCC_ISR:
  7812                           	opt callstack 0
  7813                           
  7814 ;; *************** function _adc_ready_ISR *****************
  7815 ;; Defined at:
  7816 ;;		line 70 in file "cam.c"
  7817 ;; Parameters:    Size  Location     Type
  7818 ;;		None
  7819 ;; Auto vars:     Size  Location     Type
  7820 ;;		None
  7821 ;; Return value:  Size  Location     Type
  7822 ;;                  1    wreg      void 
  7823 ;; Registers used:
  7824 ;;		wreg, fsr2l, fsr2h, status,2, status,0, cstack
  7825 ;; Tracked objects:
  7826 ;;		On entry : 0/0
  7827 ;;		On exit  : 0/0
  7828 ;;		Unchanged: 0/0
  7829 ;; Data sizes:     COMRAM   BANK0   BANK1   BANK2   BANK3   BANK4   BANK5   BANK6   BANK7
  7830 ;;      Params:         0       0       0       0       0       0       0       0       0
  7831 ;;      Locals:         0       0       0       0       0       0       0       0       0
  7832 ;;      Temps:          2       0       0       0       0       0       0       0       0
  7833 ;;      Totals:         2       0       0       0       0       0       0       0       0
  7834 ;;Total ram usage:        2 bytes
  7835 ;; Hardware stack levels used:    1
  7836 ;; Hardware stack levels required when called:    4
  7837 ;; This function calls:
  7838 ;;		i1_TMR3_SetInterruptHandler
  7839 ;;		i1_TMR3_StartTimer
  7840 ;;		i1_TMR3_WriteTimer
  7841 ;; This function is called by:
  7842 ;;		_cam_init
  7843 ;;		_ADCC_ISR
  7844 ;; This function uses a non-reentrant model
  7845 ;;
  7846                           
  7847                           	psect	text65
  7848  0010FC                     __ptext65:
  7849                           	opt callstack 0
  7850  0010FC                     _adc_ready_ISR:
  7851                           	opt callstack 21
  7852                           
  7853                           ;cam.c: 71:     PIE1bits.ADIE = 0;
  7854                           
  7855                           ;incstack = 0
  7856  0010FC  010E               	movlb	14	; () banked
  7857  0010FE  91BE               	bcf	190,0,b	;volatile
  7858                           
  7859                           ; BSR set to: 14
  7860  001100  A284               	btfss	3972,1,c	;volatile
  7861  001102  D002               	goto	i1u219_20
  7862  001104  0E01               	movlw	1
  7863  001106  D001               	goto	i1u219_26
  7864  001108                     i1u219_20:
  7865  001108  0E00               	movlw	0
  7866  00110A                     i1u219_26:
  7867  00110A  0AFF               	xorlw	255
  7868  00110C  6E08               	movwf	??_adc_ready_ISR& (0+255),c
  7869  00110E  4608               	rlncf	??_adc_ready_ISR,f,c
  7870  001110  5084               	movf	3972,w,c	;volatile
  7871  001112  1808               	xorwf	??_adc_ready_ISR,w,c
  7872  001114  0BFD               	andlw	-3
  7873  001116  1808               	xorwf	??_adc_ready_ISR,w,c
  7874  001118  6E84               	movwf	3972,c	;volatile
  7875                           
  7876                           ; BSR set to: 14
  7877                           ;cam.c: 73:     if (myCam.readFromFirst) {
  7878  00111A  EE21  F085         	lfsr	2,_myCam
  7879  00111E  50DF               	movf	indf2,w,c
  7880  001120  B4D8               	btfsc	status,2,c
  7881  001122  D00B               	goto	i1l3697
  7882                           
  7883                           ; BSR set to: 14
  7884                           ;cam.c: 75:         myCam.cam_pixels_2[myCam.index] = ADRESH;
  7885  001124  EE22  F087         	lfsr	2,_myCam+258	;volatile
  7886  001128  CFDE F008          	movff	postinc2,??_adc_ready_ISR
  7887  00112C  CFDD F009          	movff	postdec2,??_adc_ready_ISR+1
  7888  001130  0E06               	movlw	low (_myCam+129)
  7889  001132  2408               	addwf	??_adc_ready_ISR,w,c
  7890  001134  6ED9               	movwf	fsr2l,c
  7891  001136  0E02               	movlw	high (_myCam+129)
  7892  001138  D00A               	goto	L6
  7893  00113A                     i1l3697:
  7894                           
  7895                           ; BSR set to: 14
  7896                           ;cam.c: 77:         myCam.cam_pixels_1[myCam.index] = ADRESH;
  7897  00113A  EE22  F087         	lfsr	2,_myCam+258	;volatile
  7898  00113E  CFDE F008          	movff	postinc2,??_adc_ready_ISR
  7899  001142  CFDD F009          	movff	postdec2,??_adc_ready_ISR+1
  7900  001146  0E86               	movlw	low (_myCam+1)
  7901  001148  2408               	addwf	??_adc_ready_ISR,w,c
  7902  00114A  6ED9               	movwf	fsr2l,c
  7903  00114C  0E01               	movlw	high (_myCam+1)
  7904  00114E                     L6:
  7905  00114E  2009               	addwfc	??_adc_ready_ISR+1,w,c
  7906  001150  6EDA               	movwf	fsr2h,c
  7907  001152  CF5F FFDF          	movff	3935,indf2	;volatile
  7908                           
  7909                           ; BSR set to: 14
  7910                           ;cam.c: 79:     myCam.index++;
  7911                           
  7912                           ;cam.c: 78:     }
  7913  001156  EE22  F087         	lfsr	2,_myCam+258	;volatile
  7914  00115A  2ADE               	incf	postinc2,f,c
  7915  00115C  0E00               	movlw	0
  7916  00115E  22DD               	addwfc	postdec2,f,c
  7917                           
  7918                           ;cam.c: 81:     if (myCam.index >= 128) {
  7919  001160  EE22  F087         	lfsr	2,_myCam+258	;volatile
  7920  001164  0E01               	movlw	1
  7921  001166  BEDB               	btfsc	plusw2,7,c
  7922  001168  D01B               	goto	i1l943
  7923  00116A  0E01               	movlw	1
  7924  00116C  50DB               	movf	plusw2,w,c
  7925  00116E  E104               	bnz	i1u221_20
  7926  001170  0E80               	movlw	128
  7927  001172  5CDE               	subwf	postinc2,w,c
  7928  001174  A0D8               	btfss	status,0,c
  7929  001176  D014               	goto	i1l943
  7930  001178                     i1u221_20:
  7931                           
  7932                           ; BSR set to: 14
  7933                           ;cam.c: 85:         myCam.status = CAM_DONE;
  7934  001178  0E02               	movlw	2
  7935  00117A  CFE8 F286          	movff	wreg,_myCam+257	;volatile
  7936                           
  7937                           ; BSR set to: 14
  7938                           
  7939                           ;cam.c: 86:         do { LATBbits.LATB1 = 0; } while(0);
  7940  00117E  9283               	bcf	3971,1,c	;volatile
  7941                           
  7942                           ; BSR set to: 14
  7943                           
  7944                           ;cam.c: 87:         do { LATBbits.LATB2 = 0; } while(0);
  7945  001180  9483               	bcf	3971,2,c	;volatile
  7946                           
  7947                           ; BSR set to: 14
  7948                           ;cam.c: 88:         TMR3_SetInterruptHandler(cam_start);
  7949  001182  0EA8               	movlw	low i1_cam_start
  7950  001184  6E06               	movwf	i1TMR3_SetInterruptHandler@InterruptHandler,c
  7951  001186  0E14               	movlw	high i1_cam_start
  7952  001188  6E07               	movwf	i1TMR3_SetInterruptHandler@InterruptHandler+1,c
  7953  00118A  ECBD  F00D         	call	i1_TMR3_SetInterruptHandler	;wreg free
  7954                           
  7955                           ;cam.c: 89:         TMR3_WriteTimer(delay_between_ack);
  7956  00118E  C04E  F006         	movff	_delay_between_ack,i1TMR3_WriteTimer@timerVal
  7957  001192  C04F  F007         	movff	_delay_between_ack+1,i1TMR3_WriteTimer@timerVal+1
  7958  001196  EC49  F00D         	call	i1_TMR3_WriteTimer	;wreg free
  7959  00119A                     i1l3705:
  7960                           
  7961                           ;cam.c: 90:         TMR3_StartTimer();
  7962  00119A  ECCB  F00D         	call	i1_TMR3_StartTimer	;wreg free
  7963                           
  7964                           ;cam.c: 92:     } else {
  7965  00119E  0012               	return	
  7966  0011A0                     i1l943:
  7967                           
  7968                           ; BSR set to: 14
  7969  0011A0  9283               	bcf	3971,1,c	;volatile
  7970                           
  7971                           ; BSR set to: 14
  7972                           ;cam.c: 94:         TMR3_SetInterruptHandler(timer_ISR);
  7973  0011A2  0E6A               	movlw	low _timer_ISR
  7974  0011A4  6E06               	movwf	i1TMR3_SetInterruptHandler@InterruptHandler,c
  7975  0011A6  0E13               	movlw	high _timer_ISR
  7976  0011A8  6E07               	movwf	i1TMR3_SetInterruptHandler@InterruptHandler+1,c
  7977  0011AA  ECBD  F00D         	call	i1_TMR3_SetInterruptHandler	;wreg free
  7978                           
  7979                           ;cam.c: 95:         TMR3_WriteTimer(timing_val);
  7980  0011AE  C052  F006         	movff	_timing_val,i1TMR3_WriteTimer@timerVal
  7981  0011B2  C053  F007         	movff	_timing_val+1,i1TMR3_WriteTimer@timerVal+1
  7982  0011B6  EC49  F00D         	call	i1_TMR3_WriteTimer	;wreg free
  7983  0011BA  D7EF               	goto	i1l3705
  7984  0011BC                     __end_of_adc_ready_ISR:
  7985                           	opt callstack 0
  7986                           
  7987 ;; *************** function i1_TMR3_WriteTimer *****************
  7988 ;; Defined at:
  7989 ;;		line 127 in file "mcc_generated_files/tmr3.c"
  7990 ;; Parameters:    Size  Location     Type
  7991 ;;  timerVal        2    5[COMRAM] unsigned short 
  7992 ;; Auto vars:     Size  Location     Type
  7993 ;;		None
  7994 ;; Return value:  Size  Location     Type
  7995 ;;                  1    wreg      void 
  7996 ;; Registers used:
  7997 ;;		wreg, status,2
  7998 ;; Tracked objects:
  7999 ;;		On entry : 0/0
  8000 ;;		On exit  : 0/0
  8001 ;;		Unchanged: 0/0
  8002 ;; Data sizes:     COMRAM   BANK0   BANK1   BANK2   BANK3   BANK4   BANK5   BANK6   BANK7
  8003 ;;      Params:         2       0       0       0       0       0       0       0       0
  8004 ;;      Locals:         0       0       0       0       0       0       0       0       0
  8005 ;;      Temps:          0       0       0       0       0       0       0       0       0
  8006 ;;      Totals:         2       0       0       0       0       0       0       0       0
  8007 ;;Total ram usage:        2 bytes
  8008 ;; Hardware stack levels used:    1
  8009 ;; Hardware stack levels required when called:    3
  8010 ;; This function calls:
  8011 ;;		Nothing
  8012 ;; This function is called by:
  8013 ;;		_TMR3_ISR
  8014 ;;		_timer_ISR
  8015 ;;		_adc_ready_ISR
  8016 ;;		i1_cam_start
  8017 ;; This function uses a non-reentrant model
  8018 ;;
  8019                           
  8020                           	psect	text66
  8021  001A92                     __ptext66:
  8022                           	opt callstack 0
  8023  001A92                     i1_TMR3_WriteTimer:
  8024                           	opt callstack 21
  8025                           
  8026                           ;mcc_generated_files/tmr3.c: 127: void TMR3_WriteTimer(uint16_t timerVal);mcc_generated_
      +                          files/tmr3.c: 128: {;mcc_generated_files/tmr3.c: 129:     if (T3CONbits.nT3SYNC == 1)
  8027                           
  8028                           ;incstack = 0
  8029  001A92  A4C8               	btfss	4040,2,c	;volatile
  8030  001A94  D007               	goto	i1l3231
  8031                           
  8032                           ;mcc_generated_files/tmr3.c: 130:     {;mcc_generated_files/tmr3.c: 132:         T3CONbi
      +                          ts.TMR3ON = 0;
  8033  001A96  90C8               	bcf	4040,0,c	;volatile
  8034                           
  8035                           ;mcc_generated_files/tmr3.c: 135:         TMR3H = (timerVal >> 8);
  8036  001A98  5007               	movf	i1TMR3_WriteTimer@timerVal+1,w,c
  8037  001A9A  6EC7               	movwf	4039,c	;volatile
  8038                           
  8039                           ;mcc_generated_files/tmr3.c: 136:         TMR3L = timerVal;
  8040  001A9C  C006  FFC6         	movff	i1TMR3_WriteTimer@timerVal,4038	;volatile
  8041                           
  8042                           ;mcc_generated_files/tmr3.c: 139:         T3CONbits.TMR3ON =1;
  8043  001AA0  80C8               	bsf	4040,0,c	;volatile
  8044                           
  8045                           ;mcc_generated_files/tmr3.c: 140:     }
  8046  001AA2  0012               	return	
  8047  001AA4                     i1l3231:
  8048                           
  8049                           ;mcc_generated_files/tmr3.c: 142:     {;mcc_generated_files/tmr3.c: 144:         TMR3H =
      +                           (timerVal >> 8);
  8050  001AA4  5007               	movf	i1TMR3_WriteTimer@timerVal+1,w,c
  8051  001AA6  6EC7               	movwf	4039,c	;volatile
  8052                           
  8053                           ;mcc_generated_files/tmr3.c: 145:         TMR3L = timerVal;
  8054  001AA8  C006  FFC6         	movff	i1TMR3_WriteTimer@timerVal,4038	;volatile
  8055  001AAC  0012               	return		;funcret
  8056  001AAE                     __end_ofi1_TMR3_WriteTimer:
  8057                           	opt callstack 0
  8058                           
  8059 ;; *************** function i1_TMR3_StartTimer *****************
  8060 ;; Defined at:
  8061 ;;		line 99 in file "mcc_generated_files/tmr3.c"
  8062 ;; Parameters:    Size  Location     Type
  8063 ;;		None
  8064 ;; Auto vars:     Size  Location     Type
  8065 ;;		None
  8066 ;; Return value:  Size  Location     Type
  8067 ;;                  1    wreg      void 
  8068 ;; Registers used:
  8069 ;;		None
  8070 ;; Tracked objects:
  8071 ;;		On entry : 0/0
  8072 ;;		On exit  : 0/0
  8073 ;;		Unchanged: 0/0
  8074 ;; Data sizes:     COMRAM   BANK0   BANK1   BANK2   BANK3   BANK4   BANK5   BANK6   BANK7
  8075 ;;      Params:         0       0       0       0       0       0       0       0       0
  8076 ;;      Locals:         0       0       0       0       0       0       0       0       0
  8077 ;;      Temps:          0       0       0       0       0       0       0       0       0
  8078 ;;      Totals:         0       0       0       0       0       0       0       0       0
  8079 ;;Total ram usage:        0 bytes
  8080 ;; Hardware stack levels used:    1
  8081 ;; Hardware stack levels required when called:    3
  8082 ;; This function calls:
  8083 ;;		Nothing
  8084 ;; This function is called by:
  8085 ;;		_timer_ISR
  8086 ;;		_adc_ready_ISR
  8087 ;;		i1_cam_start
  8088 ;; This function uses a non-reentrant model
  8089 ;;
  8090                           
  8091                           	psect	text67
  8092  001B96                     __ptext67:
  8093                           	opt callstack 0
  8094  001B96                     i1_TMR3_StartTimer:
  8095                           	opt callstack 21
  8096                           
  8097                           ;mcc_generated_files/tmr3.c: 102:     T3CONbits.TMR3ON = 1;
  8098                           
  8099                           ;incstack = 0
  8100  001B96  80C8               	bsf	4040,0,c	;volatile
  8101  001B98  0012               	return		;funcret
  8102  001B9A                     __end_ofi1_TMR3_StartTimer:
  8103                           	opt callstack 0
  8104                           
  8105 ;; *************** function i1_TMR3_SetInterruptHandler *****************
  8106 ;; Defined at:
  8107 ;;		line 178 in file "mcc_generated_files/tmr3.c"
  8108 ;; Parameters:    Size  Location     Type
  8109 ;;  InterruptHan    2    5[COMRAM] PTR FTN()void 
  8110 ;;		 -> i1_cam_start(1), timer_ISR(1), cam_start(1), TMR3_DefaultInterruptHandler(1), 
  8111 ;; Auto vars:     Size  Location     Type
  8112 ;;		None
  8113 ;; Return value:  Size  Location     Type
  8114 ;;                  1    wreg      void 
  8115 ;; Registers used:
  8116 ;;		wreg, status,2, status,0
  8117 ;; Tracked objects:
  8118 ;;		On entry : 0/0
  8119 ;;		On exit  : 0/0
  8120 ;;		Unchanged: 0/0
  8121 ;; Data sizes:     COMRAM   BANK0   BANK1   BANK2   BANK3   BANK4   BANK5   BANK6   BANK7
  8122 ;;      Params:         2       0       0       0       0       0       0       0       0
  8123 ;;      Locals:         0       0       0       0       0       0       0       0       0
  8124 ;;      Temps:          0       0       0       0       0       0       0       0       0
  8125 ;;      Totals:         2       0       0       0       0       0       0       0       0
  8126 ;;Total ram usage:        2 bytes
  8127 ;; Hardware stack levels used:    1
  8128 ;; Hardware stack levels required when called:    3
  8129 ;; This function calls:
  8130 ;;		Nothing
  8131 ;; This function is called by:
  8132 ;;		_timer_ISR
  8133 ;;		_adc_ready_ISR
  8134 ;;		i1_cam_start
  8135 ;; This function uses a non-reentrant model
  8136 ;;
  8137                           
  8138                           	psect	text68
  8139  001B7A                     __ptext68:
  8140                           	opt callstack 0
  8141  001B7A                     i1_TMR3_SetInterruptHandler:
  8142                           	opt callstack 21
  8143                           
  8144                           ;mcc_generated_files/tmr3.c: 179:     TMR3_InterruptHandler = InterruptHandler;
  8145                           
  8146                           ;incstack = 0
  8147  001B7A  C006  F03A         	movff	i1TMR3_SetInterruptHandler@InterruptHandler,_TMR3_InterruptHandler
  8148  001B7E  C007  F03B         	movff	i1TMR3_SetInterruptHandler@InterruptHandler+1,_TMR3_InterruptHandler+1
  8149  001B82  0012               	return		;funcret
  8150  001B84                     __end_ofi1_TMR3_SetInterruptHandler:
  8151                           	opt callstack 0
  8152                           
  8153 ;; *************** function _INTERRUPT_InterruptManagerHigh *****************
  8154 ;; Defined at:
  8155 ;;		line 80 in file "mcc_generated_files/interrupt_manager.c"
  8156 ;; Parameters:    Size  Location     Type
  8157 ;;		None
  8158 ;; Auto vars:     Size  Location     Type
  8159 ;;		None
  8160 ;; Return value:  Size  Location     Type
  8161 ;;                  1    wreg      void 
  8162 ;; Registers used:
  8163 ;;		wreg, status,2, status,0, pclath, tosl, cstack
  8164 ;; Tracked objects:
  8165 ;;		On entry : 0/0
  8166 ;;		On exit  : 0/0
  8167 ;;		Unchanged: 0/0
  8168 ;; Data sizes:     COMRAM   BANK0   BANK1   BANK2   BANK3   BANK4   BANK5   BANK6   BANK7
  8169 ;;      Params:         0       0       0       0       0       0       0       0       0
  8170 ;;      Locals:         0       0       0       0       0       0       0       0       0
  8171 ;;      Temps:          2       0       0       0       0       0       0       0       0
  8172 ;;      Totals:         2       0       0       0       0       0       0       0       0
  8173 ;;Total ram usage:        2 bytes
  8174 ;; Hardware stack levels used:    1
  8175 ;; Hardware stack levels required when called:    2
  8176 ;; This function calls:
  8177 ;;		_TMR2_ISR
  8178 ;; This function is called by:
  8179 ;;		Interrupt level 2
  8180 ;; This function uses a non-reentrant model
  8181 ;;
  8182                           
  8183                           	psect	intcode
  8184  000008                     __pintcode:
  8185                           	opt callstack 0
  8186  000008                     _INTERRUPT_InterruptManagerHigh:
  8187                           	opt callstack 20
  8188                           
  8189                           ;incstack = 0
  8190  000008  8257               	bsf	btemp,1,c	;set compiler interrupt flag (level 2)
  8191  00000A  EF0E  F00D         	goto	int_func
  8192                           
  8193                           	psect	intcode_body
  8194  001A1C                     __pintcode_body:
  8195                           	opt callstack 20
  8196  001A1C                     int_func:
  8197                           	opt callstack 20
  8198  001A1C  CFFA F004          	movff	pclath,??_INTERRUPT_InterruptManagerHigh
  8199  001A20  CFFB F005          	movff	pclatu,??_INTERRUPT_InterruptManagerHigh+1
  8200                           
  8201                           ;mcc_generated_files/interrupt_manager.c: 83:     if(PIE4bits.TMR2IE == 1 && PIR4bits.TM
      +                          R2IF == 1)
  8202  001A24  010E               	movlb	14	; () banked
  8203  001A26  B3C1               	btfsc	193,1,b	;volatile
  8204                           
  8205                           ; BSR set to: 14
  8206  001A28  A3C9               	btfss	201,1,b	;volatile
  8207  001A2A  D002               	goto	i2l254
  8208                           
  8209                           ; BSR set to: 14
  8210                           ;mcc_generated_files/interrupt_manager.c: 84:     {;mcc_generated_files/interrupt_manage
      +                          r.c: 85:         TMR2_ISR();
  8211  001A2C  ECC9  F00C         	call	_TMR2_ISR	;wreg free
  8212  001A30                     i2l254:
  8213  001A30  C005  FFFB         	movff	??_INTERRUPT_InterruptManagerHigh+1,pclatu
  8214  001A34  C004  FFFA         	movff	??_INTERRUPT_InterruptManagerHigh,pclath
  8215  001A38  9257               	bcf	btemp,1,c	;clear compiler interrupt flag (level 2)
  8216  001A3A  0011               	retfie		f
  8217  001A3C                     __end_of_INTERRUPT_InterruptManagerHigh:
  8218                           	opt callstack 0
  8219                           
  8220 ;; *************** function _TMR2_ISR *****************
  8221 ;; Defined at:
  8222 ;;		line 165 in file "mcc_generated_files/tmr2.c"
  8223 ;; Parameters:    Size  Location     Type
  8224 ;;		None
  8225 ;; Auto vars:     Size  Location     Type
  8226 ;;		None
  8227 ;; Return value:  Size  Location     Type
  8228 ;;                  1    wreg      void 
  8229 ;; Registers used:
  8230 ;;		wreg, status,2, status,0, pclath, tosl, cstack
  8231 ;; Tracked objects:
  8232 ;;		On entry : 0/0
  8233 ;;		On exit  : 0/0
  8234 ;;		Unchanged: 0/0
  8235 ;; Data sizes:     COMRAM   BANK0   BANK1   BANK2   BANK3   BANK4   BANK5   BANK6   BANK7
  8236 ;;      Params:         0       0       0       0       0       0       0       0       0
  8237 ;;      Locals:         0       0       0       0       0       0       0       0       0
  8238 ;;      Temps:          0       0       0       0       0       0       0       0       0
  8239 ;;      Totals:         0       0       0       0       0       0       0       0       0
  8240 ;;Total ram usage:        0 bytes
  8241 ;; Hardware stack levels used:    1
  8242 ;; Hardware stack levels required when called:    1
  8243 ;; This function calls:
  8244 ;;		Absolute function
  8245 ;;		_TMR2_DefaultInterruptHandler
  8246 ;;		_carcontrol_ISR
  8247 ;; This function is called by:
  8248 ;;		_INTERRUPT_InterruptManagerHigh
  8249 ;; This function uses a non-reentrant model
  8250 ;;
  8251                           
  8252                           	psect	text70
  8253  001992                     __ptext70:
  8254                           	opt callstack 0
  8255  001992                     _TMR2_ISR:
  8256                           	opt callstack 20
  8257                           
  8258                           ;mcc_generated_files/tmr2.c: 169:     PIR4bits.TMR2IF = 0;
  8259                           
  8260                           ;incstack = 0
  8261  001992  010E               	movlb	14	; () banked
  8262  001994  93C9               	bcf	201,1,b	;volatile
  8263                           
  8264                           ; BSR set to: 14
  8265                           ;mcc_generated_files/tmr2.c: 171:     if(TMR2_InterruptHandler)
  8266  001996  0100               	movlb	0	; () banked
  8267  001998  51D6               	movf	_TMR2_InterruptHandler& (0+255),w,b
  8268  00199A  11D7               	iorwf	(_TMR2_InterruptHandler+1)& (0+255),w,b
  8269  00199C  B4D8               	btfsc	status,2,c
  8270  00199E  0012               	return	
  8271                           
  8272                           ; BSR set to: 0
  8273                           ;mcc_generated_files/tmr2.c: 172:     {;mcc_generated_files/tmr2.c: 173:         TMR2_In
      +                          terruptHandler();
  8274  0019A0  D801               	call	i2u302_48
  8275  0019A2  0012               	return	
  8276  0019A4                     i2u302_48:
  8277  0019A4  0005               	push	
  8278  0019A6  6EFA               	movwf	pclath,c
  8279  0019A8  51D6               	movf	_TMR2_InterruptHandler& (0+255),w,b
  8280  0019AA  6EFD               	movwf	tosl,c
  8281  0019AC  51D7               	movf	(_TMR2_InterruptHandler+1)& (0+255),w,b
  8282  0019AE  6EFE               	movwf	tosh,c
  8283  0019B0  50F8               	movf	tblptru,w,c
  8284  0019B2  6EFF               	movwf	tosu,c
  8285  0019B4  50FA               	movf	pclath,w,c
  8286  0019B6  0012               	return		;indir
  8287  0019B8                     __end_of_TMR2_ISR:
  8288                           	opt callstack 0
  8289                           
  8290 ;; *************** function _TMR2_DefaultInterruptHandler *****************
  8291 ;; Defined at:
  8292 ;;		line 182 in file "mcc_generated_files/tmr2.c"
  8293 ;; Parameters:    Size  Location     Type
  8294 ;;		None
  8295 ;; Auto vars:     Size  Location     Type
  8296 ;;		None
  8297 ;; Return value:  Size  Location     Type
  8298 ;;                  1    wreg      void 
  8299 ;; Registers used:
  8300 ;;		None
  8301 ;; Tracked objects:
  8302 ;;		On entry : 0/0
  8303 ;;		On exit  : 0/0
  8304 ;;		Unchanged: 0/0
  8305 ;; Data sizes:     COMRAM   BANK0   BANK1   BANK2   BANK3   BANK4   BANK5   BANK6   BANK7
  8306 ;;      Params:         0       0       0       0       0       0       0       0       0
  8307 ;;      Locals:         0       0       0       0       0       0       0       0       0
  8308 ;;      Temps:          0       0       0       0       0       0       0       0       0
  8309 ;;      Totals:         0       0       0       0       0       0       0       0       0
  8310 ;;Total ram usage:        0 bytes
  8311 ;; Hardware stack levels used:    1
  8312 ;; This function calls:
  8313 ;;		Nothing
  8314 ;; This function is called by:
  8315 ;;		_TMR2_Initialize
  8316 ;;		_TMR2_ISR
  8317 ;; This function uses a non-reentrant model
  8318 ;;
  8319                           
  8320                           	psect	text71
  8321  001BA2                     __ptext71:
  8322                           	opt callstack 0
  8323  001BA2                     _TMR2_DefaultInterruptHandler:
  8324                           	opt callstack 20
  8325                           
  8326                           ;incstack = 0
  8327  001BA2  0012               	return		;funcret
  8328  001BA4                     __end_of_TMR2_DefaultInterruptHandler:
  8329                           	opt callstack 0
  8330                           
  8331 ;; *************** function _carcontrol_ISR *****************
  8332 ;; Defined at:
  8333 ;;		line 41 in file "car_ctrl.c"
  8334 ;; Parameters:    Size  Location     Type
  8335 ;;		None
  8336 ;; Auto vars:     Size  Location     Type
  8337 ;;		None
  8338 ;; Return value:  Size  Location     Type
  8339 ;;                  1    wreg      void 
  8340 ;; Registers used:
  8341 ;;		wreg, status,2, status,0
  8342 ;; Tracked objects:
  8343 ;;		On entry : 0/0
  8344 ;;		On exit  : 0/0
  8345 ;;		Unchanged: 0/0
  8346 ;; Data sizes:     COMRAM   BANK0   BANK1   BANK2   BANK3   BANK4   BANK5   BANK6   BANK7
  8347 ;;      Params:         0       0       0       0       0       0       0       0       0
  8348 ;;      Locals:         0       0       0       0       0       0       0       0       0
  8349 ;;      Temps:          3       0       0       0       0       0       0       0       0
  8350 ;;      Totals:         3       0       0       0       0       0       0       0       0
  8351 ;;Total ram usage:        3 bytes
  8352 ;; Hardware stack levels used:    1
  8353 ;; This function calls:
  8354 ;;		Nothing
  8355 ;; This function is called by:
  8356 ;;		_carcontrol_init
  8357 ;;		_TMR2_ISR
  8358 ;; This function uses a non-reentrant model
  8359 ;;
  8360                           
  8361                           	psect	text72
  8362  000F44                     __ptext72:
  8363                           	opt callstack 0
  8364  000F44                     _carcontrol_ISR:
  8365                           	opt callstack 20
  8366                           
  8367                           ;car_ctrl.c: 43:     switch (carctl.state) {
  8368                           
  8369                           ;incstack = 0
  8370  000F44  D05C               	goto	i2l3647
  8371  000F46                     i2l3605:
  8372                           
  8373                           ; BSR set to: 0
  8374                           ;car_ctrl.c: 46:             carctl.state = state_high;
  8375  000F46  0E01               	movlw	1
  8376  000F48  6FBE               	movwf	(_carctl+1)& (0+255),b	;volatile
  8377                           
  8378                           ; BSR set to: 0
  8379  000F4A  8082               	bsf	3970,0,c	;volatile
  8380                           
  8381                           ; BSR set to: 0
  8382  000F4C  8282               	bsf	3970,1,c	;volatile
  8383                           
  8384                           ; BSR set to: 0
  8385                           ;car_ctrl.c: 49:             stateTime = 0;
  8386  000F4E  0E00               	movlw	0
  8387  000F50  6FCC               	movwf	(_stateTime+1)& (0+255),b
  8388  000F52  0E00               	movlw	0
  8389  000F54  6FCB               	movwf	_stateTime& (0+255),b
  8390                           
  8391                           ;car_ctrl.c: 50:         break;
  8392  000F56  0012               	return	
  8393  000F58                     i2l3611:
  8394                           
  8395                           ; BSR set to: 0
  8396                           ;car_ctrl.c: 52:             stateTime++;
  8397  000F58  4BCB               	infsnz	_stateTime& (0+255),f,b
  8398  000F5A  2BCC               	incf	(_stateTime+1)& (0+255),f,b
  8399                           
  8400                           ; BSR set to: 0
  8401  000F5C  8082               	bsf	3970,0,c	;volatile
  8402                           
  8403                           ; BSR set to: 0
  8404  000F5E  8282               	bsf	3970,1,c	;volatile
  8405                           
  8406                           ; BSR set to: 0
  8407                           ;car_ctrl.c: 55:             if (stateTime >= 100) {
  8408  000F60  BFCC               	btfsc	(_stateTime+1)& (0+255),7,b
  8409  000F62  0012               	return	
  8410  000F64  51CC               	movf	(_stateTime+1)& (0+255),w,b
  8411  000F66  E104               	bnz	i2u211_40
  8412  000F68  0E64               	movlw	100
  8413  000F6A  5DCB               	subwf	_stateTime& (0+255),w,b
  8414  000F6C  A0D8               	btfss	status,0,c
  8415  000F6E  0012               	return	
  8416  000F70                     i2u211_40:
  8417                           
  8418                           ; BSR set to: 0
  8419                           ;car_ctrl.c: 57:                 carctl.state = state_vary;
  8420  000F70  0E02               	movlw	2
  8421  000F72  6FBE               	movwf	(_carctl+1)& (0+255),b	;volatile
  8422                           
  8423                           ;car_ctrl.c: 58:                 stateTime = 0;
  8424  000F74  0E00               	movlw	0
  8425  000F76  6FCC               	movwf	(_stateTime+1)& (0+255),b
  8426  000F78  0E00               	movlw	0
  8427  000F7A  6FCB               	movwf	_stateTime& (0+255),b
  8428  000F7C  0012               	return	
  8429  000F7E                     i2l3621:
  8430                           
  8431                           ; BSR set to: 0
  8432                           ;car_ctrl.c: 62:             stateTime++;
  8433  000F7E  4BCB               	infsnz	_stateTime& (0+255),f,b
  8434  000F80  2BCC               	incf	(_stateTime+1)& (0+255),f,b
  8435                           
  8436                           ; BSR set to: 0
  8437                           ;car_ctrl.c: 63:             if (stateTime > carctl.throttleHighTime) {
  8438  000F82  51C1               	movf	(_carctl+4)& (0+255),w,b	;volatile
  8439  000F84  6E01               	movwf	??_carcontrol_ISR& (0+255),c
  8440  000F86  6A02               	clrf	(??_carcontrol_ISR+1)& (0+255),c
  8441  000F88  51CB               	movf	_stateTime& (0+255),w,b
  8442  000F8A  5C01               	subwf	??_carcontrol_ISR,w,c
  8443  000F8C  5002               	movf	??_carcontrol_ISR+1,w,c
  8444  000F8E  0A80               	xorlw	128
  8445  000F90  6E03               	movwf	(??_carcontrol_ISR+2)& (0+255),c
  8446  000F92  51CC               	movf	(_stateTime+1)& (0+255),w,b
  8447  000F94  0A80               	xorlw	128
  8448  000F96  5803               	subwfb	(??_carcontrol_ISR+2)& (0+255),w,c
  8449  000F98  A0D8               	btfss	status,0,c
  8450                           
  8451                           ; BSR set to: 0
  8452                           
  8453                           ;car_ctrl.c: 64:                 do { LATAbits.LATA0 = 0; } while(0);
  8454  000F9A  9082               	bcf	3970,0,c	;volatile
  8455                           
  8456                           ; BSR set to: 0
  8457                           ;car_ctrl.c: 66:             if (stateTime > carctl.servoHighTime) {
  8458  000F9C  51C2               	movf	(_carctl+5)& (0+255),w,b	;volatile
  8459  000F9E  6E01               	movwf	??_carcontrol_ISR& (0+255),c
  8460  000FA0  6A02               	clrf	(??_carcontrol_ISR+1)& (0+255),c
  8461  000FA2  51CB               	movf	_stateTime& (0+255),w,b
  8462  000FA4  5C01               	subwf	??_carcontrol_ISR,w,c
  8463  000FA6  5002               	movf	??_carcontrol_ISR+1,w,c
  8464  000FA8  0A80               	xorlw	128
  8465  000FAA  6E03               	movwf	(??_carcontrol_ISR+2)& (0+255),c
  8466  000FAC  51CC               	movf	(_stateTime+1)& (0+255),w,b
  8467  000FAE  0A80               	xorlw	128
  8468  000FB0  5803               	subwfb	(??_carcontrol_ISR+2)& (0+255),w,c
  8469  000FB2  A0D8               	btfss	status,0,c
  8470                           
  8471                           ; BSR set to: 0
  8472                           
  8473                           ;car_ctrl.c: 67:                 do { LATAbits.LATA1 = 0; } while(0);
  8474  000FB4  9282               	bcf	3970,1,c	;volatile
  8475                           
  8476                           ; BSR set to: 0
  8477                           ;car_ctrl.c: 69:             if (stateTime >= 100) {
  8478  000FB6  BFCC               	btfsc	(_stateTime+1)& (0+255),7,b
  8479  000FB8  0012               	return	
  8480  000FBA  51CC               	movf	(_stateTime+1)& (0+255),w,b
  8481  000FBC  E104               	bnz	i2u214_40
  8482  000FBE  0E64               	movlw	100
  8483  000FC0  5DCB               	subwf	_stateTime& (0+255),w,b
  8484  000FC2  A0D8               	btfss	status,0,c
  8485  000FC4  0012               	return	
  8486  000FC6                     i2u214_40:
  8487                           
  8488                           ; BSR set to: 0
  8489                           ;car_ctrl.c: 70:                 carctl.state = state_low;
  8490  000FC6  0E03               	movlw	3
  8491  000FC8  6FBE               	movwf	(_carctl+1)& (0+255),b	;volatile
  8492                           
  8493                           ;car_ctrl.c: 71:                 stateTime = 0;
  8494  000FCA  0E00               	movlw	0
  8495  000FCC  6FCC               	movwf	(_stateTime+1)& (0+255),b
  8496  000FCE  0E00               	movlw	0
  8497  000FD0  6FCB               	movwf	_stateTime& (0+255),b
  8498  000FD2  0012               	return	
  8499  000FD4                     i2l3631:
  8500                           
  8501                           ; BSR set to: 0
  8502                           ;car_ctrl.c: 75:             stateTime++;
  8503  000FD4  4BCB               	infsnz	_stateTime& (0+255),f,b
  8504  000FD6  2BCC               	incf	(_stateTime+1)& (0+255),f,b
  8505                           
  8506                           ; BSR set to: 0
  8507  000FD8  9082               	bcf	3970,0,c	;volatile
  8508                           
  8509                           ; BSR set to: 0
  8510  000FDA  9282               	bcf	3970,1,c	;volatile
  8511                           
  8512                           ; BSR set to: 0
  8513                           ;car_ctrl.c: 78:             if (stateTime >= 1800) {
  8514  000FDC  BFCC               	btfsc	(_stateTime+1)& (0+255),7,b
  8515  000FDE  0012               	return	
  8516  000FE0  0E08               	movlw	8
  8517  000FE2  5DCB               	subwf	_stateTime& (0+255),w,b
  8518  000FE4  0E07               	movlw	7
  8519  000FE6  59CC               	subwfb	(_stateTime+1)& (0+255),w,b
  8520  000FE8  A0D8               	btfss	status,0,c
  8521  000FEA  0012               	return	
  8522                           
  8523                           ; BSR set to: 0
  8524                           ;car_ctrl.c: 79:                 carctl.state = state_high;
  8525  000FEC  0E01               	movlw	1
  8526  000FEE  6FBE               	movwf	(_carctl+1)& (0+255),b	;volatile
  8527                           
  8528                           ;car_ctrl.c: 80:                 stateTime = 0;
  8529  000FF0  0E00               	movlw	0
  8530  000FF2  6FCC               	movwf	(_stateTime+1)& (0+255),b
  8531  000FF4  0E00               	movlw	0
  8532  000FF6  6FCB               	movwf	_stateTime& (0+255),b
  8533                           
  8534                           ; BSR set to: 0
  8535  000FF8  8082               	bsf	3970,0,c	;volatile
  8536                           
  8537                           ; BSR set to: 0
  8538  000FFA  9282               	bcf	3970,1,c	;volatile
  8539  000FFC  0012               	return	
  8540  000FFE                     i2l3647:
  8541  000FFE  0100               	movlb	0	; () banked
  8542  001000  51BE               	movf	(_carctl+1)& (0+255),w,b	;volatile
  8543  001002  6E01               	movwf	??_carcontrol_ISR& (0+255),c
  8544  001004  6A02               	clrf	(??_carcontrol_ISR+1)& (0+255),c
  8545                           
  8546                           ; Switch on 2 bytes has been partitioned into a top level switch of size 1, and 1 sub-sw
      +                          itches
  8547                           ; Switch size 1, requested type "simple"
  8548                           ; Number of cases is 1, Range of values is 0 to 0
  8549                           ; switch strategies available:
  8550                           ; Name         Instructions Cycles
  8551                           ; simple_byte            4     3 (average)
  8552                           ;	Chosen strategy is simple_byte
  8553  001006  5002               	movf	??_carcontrol_ISR+1,w,c
  8554  001008  0A00               	xorlw	0	; case 0
  8555  00100A  A4D8               	btfss	status,2,c
  8556  00100C  0012               	return	
  8557                           
  8558                           ; BSR set to: 0
  8559                           ; Switch size 1, requested type "simple"
  8560                           ; Number of cases is 4, Range of values is 0 to 3
  8561                           ; switch strategies available:
  8562                           ; Name         Instructions Cycles
  8563                           ; simple_byte           13     7 (average)
  8564                           ;	Chosen strategy is simple_byte
  8565  00100E  5001               	movf	??_carcontrol_ISR,w,c
  8566  001010  0A00               	xorlw	0	; case 0
  8567  001012  B4D8               	btfsc	status,2,c
  8568  001014  D798               	goto	i2l3605
  8569  001016  0A01               	xorlw	1	; case 1
  8570  001018  B4D8               	btfsc	status,2,c
  8571  00101A  D79E               	goto	i2l3611
  8572  00101C  0A03               	xorlw	3	; case 2
  8573  00101E  B4D8               	btfsc	status,2,c
  8574  001020  D7AE               	goto	i2l3621
  8575  001022  0A01               	xorlw	1	; case 3
  8576  001024  A4D8               	btfss	status,2,c
  8577  001026  0012               	return	
  8578  001028  D7D5               	goto	i2l3631
  8579  00102A                     __end_of_carcontrol_ISR:
  8580                           	opt callstack 0
  8581  0000                     
  8582                           	psect	text73
  8583  000000                     __ptext73:
  8584                           	opt callstack 0
  8585                           
  8586                           	psect	rparam
  8587  0000                     
  8588                           	psect	temp
  8589  000057                     btemp:
  8590                           	opt callstack 0
  8591  000057                     	ds	1
  8592  0000                     int$flags	set	btemp
  8593  0000                     wtemp8	set	btemp+1
  8594  0000                     ttemp5	set	btemp+1
  8595  0000                     ttemp6	set	btemp+4
  8596  0000                     ttemp7	set	btemp+8
  8597                           tosu	equ	0xFFF
  8598                           tosh	equ	0xFFE
  8599                           tosl	equ	0xFFD
  8600                           stkptr	equ	0xFFC
  8601                           pclatu	equ	0xFFB
  8602                           pclath	equ	0xFFA
  8603                           pcl	equ	0xFF9
  8604                           tblptru	equ	0xFF8
  8605                           tblptrh	equ	0xFF7
  8606                           tblptrl	equ	0xFF6
  8607                           tablat	equ	0xFF5
  8608                           prodh	equ	0xFF4
  8609                           prodl	equ	0xFF3
  8610                           indf0	equ	0xFEF
  8611                           postinc0	equ	0xFEE
  8612                           postdec0	equ	0xFED
  8613                           preinc0	equ	0xFEC
  8614                           plusw0	equ	0xFEB
  8615                           fsr0h	equ	0xFEA
  8616                           fsr0l	equ	0xFE9
  8617                           wreg	equ	0xFE8
  8618                           indf1	equ	0xFE7
  8619                           postinc1	equ	0xFE6
  8620                           postdec1	equ	0xFE5
  8621                           preinc1	equ	0xFE4
  8622                           plusw1	equ	0xFE3
  8623                           fsr1h	equ	0xFE2
  8624                           fsr1l	equ	0xFE1
  8625                           bsr	equ	0xFE0
  8626                           indf2	equ	0xFDF
  8627                           postinc2	equ	0xFDE
  8628                           postdec2	equ	0xFDD
  8629                           preinc2	equ	0xFDC
  8630                           plusw2	equ	0xFDB
  8631                           fsr2h	equ	0xFDA
  8632                           fsr2l	equ	0xFD9
  8633                           status	equ	0xFD8


Data Sizes:
    Strings     0
    Constant    0
    Data        5
    BSS         291
    Persistent  20
    Stack       0

Auto Spaces:
    Space          Size  Autos    Used
    COMRAM           94     57      86
    BANK0           160     93     120
    BANK1           256    133     133
    BANK2           256      0       0
    BANK3           256      0       0
    BANK4           256      0       0
    BANK5           256      0       0
    BANK6           256      0       0
    BANK7           256      0       0

Pointer List with Targets:

    pid_getResponse@pixels	PTR unsigned char  size(2) Largest target is 128
		 -> main@cam_pixels(BANK1[128]), 

    cam_get@pixels	PTR unsigned char  size(2) Largest target is 128
		 -> main@cam_pixels(BANK1[128]), 

    TMR3_SetInterruptHandler@InterruptHandler	PTR FTN()void  size(2) Largest target is 1
		 -> timer_ISR(), cam_start(), TMR3_DefaultInterruptHandler(), 

    TMR3_InterruptHandler	PTR FTN()void  size(2) Largest target is 1
		 -> i1_cam_start(), timer_ISR(), cam_start(), TMR3_DefaultInterruptHandler(), 
		 -> Absolute function(), 

    ADCC_SetInterruptHandler@InterruptHandler	PTR FTN()void  size(2) Largest target is 1
		 -> adc_ready_ISR(), 

    ADCC_InterruptHandler	PTR FTN()void  size(2) Largest target is 1
		 -> adc_ready_ISR(), NULL(NULL[0]), Absolute function(), 

    EUSART1_SetErrorHandler@interruptHandler	PTR FTN()void  size(2) Largest target is 1
		 -> EUSART1_DefaultErrorHandler(), 

    EUSART1_ErrorHandler	PTR FTN()void  size(2) Largest target is 1
		 -> EUSART1_DefaultErrorHandler(), Absolute function(), 

    EUSART1_SetOverrunErrorHandler@interruptHandler	PTR FTN()void  size(2) Largest target is 1
		 -> EUSART1_DefaultOverrunErrorHandler(), 

    EUSART1_OverrunErrorHandler	PTR FTN()void  size(2) Largest target is 1
		 -> EUSART1_DefaultOverrunErrorHandler(), Absolute function(), 

    EUSART1_SetFramingErrorHandler@interruptHandler	PTR FTN()void  size(2) Largest target is 1
		 -> EUSART1_DefaultFramingErrorHandler(), 

    EUSART1_FramingErrorHandler	PTR FTN()void  size(2) Largest target is 1
		 -> EUSART1_DefaultFramingErrorHandler(), Absolute function(), 

    TMR1_SetInterruptHandler@InterruptHandler	PTR FTN()void  size(2) Largest target is 1
		 -> ping_TMR1Overflow_isr(), TMR1_DefaultInterruptHandler(), 

    TMR1_InterruptHandler	PTR FTN()void  size(2) Largest target is 1
		 -> ping_TMR1Overflow_isr(), TMR1_DefaultInterruptHandler(), Absolute function(), 

    CCP1_SetCallBack@customCallBack	PTR FTN(unsigned short ,)void  size(2) Largest target is 1
		 -> ping_CCP1_triggered(), CCP1_DefaultCallBack(), 

    CCP1_CallBack	PTR FTN(unsigned short ,)void  size(2) Largest target is 1
		 -> ping_CCP1_triggered(), CCP1_DefaultCallBack(), Absolute function(), 

    TMR2_SetInterruptHandler@InterruptHandler	PTR FTN()void  size(2) Largest target is 1
		 -> carcontrol_ISR(), TMR2_DefaultInterruptHandler(), 

    TMR2_InterruptHandler	PTR FTN()void  size(2) Largest target is 1
		 -> carcontrol_ISR(), TMR2_DefaultInterruptHandler(), Absolute function(), 

    IOCCF2_SetInterruptHandler@InterruptHandler	PTR FTN()void  size(2) Largest target is 1
		 -> ping_RC2_went_HIGH(), IOCCF2_DefaultInterruptHandler(), 

    IOCCF2_InterruptHandler	PTR FTN()void  size(2) Largest target is 1
		 -> ping_RC2_went_HIGH(), Absolute function(), IOCCF2_DefaultInterruptHandler(), 


Critical Paths under _main in COMRAM

    None.

Critical Paths under _INTERRUPT_InterruptManagerLow in COMRAM

    _INTERRUPT_InterruptManagerLow->_CCP1_CaptureISR
    _TMR3_ISR->_timer_ISR
    _TMR3_ISR->i1_cam_start
    i1_cam_start->i1_TMR3_SetInterruptHandler
    i1_cam_start->i1_TMR3_WriteTimer
    _timer_ISR->i1_TMR3_SetInterruptHandler
    _timer_ISR->i1_TMR3_WriteTimer
    _TMR1_ISR->i1_TMR1_WriteTimer
    _ping_TMR1Overflow_isr->i1_IOCCF2_SetInterruptHandler
    _ping_TMR1Overflow_isr->i1_TMR1_SetInterruptHandler
    _ping_RC2_went_HIGH->i1_IOCCF2_SetInterruptHandler
    _ping_RC2_went_HIGH->i1_TMR1_SetInterruptHandler
    _ping_RC2_went_HIGH->i1_TMR1_WriteTimer
    _CCP1_CaptureISR->_CCP1_DefaultCallBack
    _CCP1_CaptureISR->_ping_CCP1_triggered
    _ping_CCP1_triggered->i1___flmul
    i1___flmul->i1___xxtofl
    _ADCC_ISR->_adc_ready_ISR
    _adc_ready_ISR->i1_TMR3_SetInterruptHandler
    _adc_ready_ISR->i1_TMR3_WriteTimer

Critical Paths under _INTERRUPT_InterruptManagerHigh in COMRAM

    _TMR2_ISR->_carcontrol_ISR

Critical Paths under _main in BANK0

    _main->_pid_getResponse
    _ping_send->_TMR1_SetInterruptHandler
    _ping_send->_TMR1_WriteTimer
    _ping_init->_CCP1_SetCallBack
    _ping_init->_IOCCF2_SetInterruptHandler
    _ping_init->_TMR1_SetInterruptHandler
    _pid_getResponse->___fladd
    ___xxtofl->___wmul
    ___wmul->___fltol
    ___flmul->___xxtofl
    ___fladd->___flmul
    _carcontrol_init->_TMR2_SetInterruptHandler
    _cam_start->_TMR3_SetInterruptHandler
    _cam_start->_TMR3_WriteTimer
    _cam_init->_ADCC_SelectChannel
    _cam_init->_ADCC_SetInterruptHandler
    _SYSTEM_Initialize->_TMR1_Initialize
    _SYSTEM_Initialize->_TMR3_Initialize
    _TMR3_Initialize->_TMR3_SetInterruptHandler
    _TMR2_Initialize->_TMR2_SetInterruptHandler
    _TMR1_Initialize->_TMR1_SetInterruptHandler
    _PIN_MANAGER_Initialize->_IOCCF2_SetInterruptHandler
    _EUSART1_Initialize->_EUSART1_SetErrorHandler
    _EUSART1_Initialize->_EUSART1_SetFramingErrorHandler
    _EUSART1_Initialize->_EUSART1_SetOverrunErrorHandler
    _CCP1_Initialize->_CCP1_SetCallBack

Critical Paths under _INTERRUPT_InterruptManagerLow in BANK0

    None.

Critical Paths under _INTERRUPT_InterruptManagerHigh in BANK0

    None.

Critical Paths under _main in BANK1

    None.

Critical Paths under _INTERRUPT_InterruptManagerLow in BANK1

    None.

Critical Paths under _INTERRUPT_InterruptManagerHigh in BANK1

    None.

Critical Paths under _main in BANK2

    None.

Critical Paths under _INTERRUPT_InterruptManagerLow in BANK2

    None.

Critical Paths under _INTERRUPT_InterruptManagerHigh in BANK2

    None.

Critical Paths under _main in BANK3

    None.

Critical Paths under _INTERRUPT_InterruptManagerLow in BANK3

    None.

Critical Paths under _INTERRUPT_InterruptManagerHigh in BANK3

    None.

Critical Paths under _main in BANK4

    None.

Critical Paths under _INTERRUPT_InterruptManagerLow in BANK4

    None.

Critical Paths under _INTERRUPT_InterruptManagerHigh in BANK4

    None.

Critical Paths under _main in BANK5

    None.

Critical Paths under _INTERRUPT_InterruptManagerLow in BANK5

    None.

Critical Paths under _INTERRUPT_InterruptManagerHigh in BANK5

    None.

Critical Paths under _main in BANK6

    None.

Critical Paths under _INTERRUPT_InterruptManagerLow in BANK6

    None.

Critical Paths under _INTERRUPT_InterruptManagerHigh in BANK6

    None.

Critical Paths under _main in BANK7

    None.

Critical Paths under _INTERRUPT_InterruptManagerLow in BANK7

    None.

Critical Paths under _INTERRUPT_InterruptManagerHigh in BANK7

    None.

Call Graph Tables:

 ---------------------------------------------------------------------------------
 (Depth) Function   	        Calls       Base Space   Used Autos Params    Refs
 ---------------------------------------------------------------------------------
 (0) _main                                               135   135      0   11441
                                             91 BANK0      2     2      0
                                              0 BANK1    133   133      0
                  _SYSTEM_Initialize
                             ___flge
                            _cam_get
                           _cam_init
                          _cam_start
                    _carcontrol_init
                _carcontrol_steering
                _carcontrol_throttle
                    _pid_getResponse
                           _pid_init
                           _ping_get
                          _ping_init
                          _ping_send
 ---------------------------------------------------------------------------------
 (1) _ping_send                                            0     0      0     690
           _TMR1_SetInterruptHandler
                    _TMR1_StartTimer
                    _TMR1_WriteTimer
 ---------------------------------------------------------------------------------
 (2) _TMR1_WriteTimer                                      2     0      2     340
                                              0 BANK0      2     0      2
 ---------------------------------------------------------------------------------
 (2) _TMR1_StartTimer                                      0     0      0       0
 ---------------------------------------------------------------------------------
 (1) _ping_init                                            0     0      0     798
                   _CCP1_SetCallBack
         _IOCCF2_SetInterruptHandler
           _TMR1_SetInterruptHandler
 ---------------------------------------------------------------------------------
 (1) _ping_get                                             4     0      4       0
                                              0 BANK0      4     0      4
 ---------------------------------------------------------------------------------
 (1) _pid_init                                             9     1      8     218
                                              0 BANK0      9     1      8
 ---------------------------------------------------------------------------------
 (1) _pid_getResponse                                     20    18      2    5887
                                             71 BANK0     20    18      2
                            ___fladd
                            ___flmul
                            ___fltol
                             ___wmul
                           ___xxtofl
 ---------------------------------------------------------------------------------
 (2) ___xxtofl                                            14    10      4     524
                                             16 BANK0     14    10      4
                            ___fltol (ARG)
                             ___wmul (ARG)
 ---------------------------------------------------------------------------------
 (2) ___wmul                                               6     2      4     311
                                             10 BANK0      6     2      4
                            ___fltol (ARG)
 ---------------------------------------------------------------------------------
 (2) ___fltol                                             10     6      4     381
                                              0 BANK0     10     6      4
 ---------------------------------------------------------------------------------
 (2) ___flmul                                             25    17      8    1844
                                             30 BANK0     25    17      8
                            ___fltol (ARG)
                           ___xxtofl (ARG)
 ---------------------------------------------------------------------------------
 (2) ___fladd                                             16     8      8    2388
                                             55 BANK0     16     8      8
                            ___flmul (ARG)
                            ___fltol (ARG)
                             ___wmul (ARG)
                           ___xxtofl (ARG)
 ---------------------------------------------------------------------------------
 (1) _carcontrol_init                                      0     0      0     310
           _TMR2_SetInterruptHandler
                _carcontrol_steering
                _carcontrol_throttle
 ---------------------------------------------------------------------------------
 (1) _carcontrol_throttle                                  1     1      0      45
                                              0 BANK0      1     1      0
 ---------------------------------------------------------------------------------
 (1) _carcontrol_steering                                  1     1      0      91
                                              0 BANK0      1     1      0
 ---------------------------------------------------------------------------------
 (1) _cam_start                                            1     1      0     814
                                              2 BANK0      1     1      0
           _TMR3_SetInterruptHandler
                    _TMR3_StartTimer
                    _TMR3_WriteTimer
 ---------------------------------------------------------------------------------
 (2) _TMR3_WriteTimer                                      2     0      2     440
                                              0 BANK0      2     0      2
 ---------------------------------------------------------------------------------
 (2) _TMR3_StartTimer                                      0     0      0       0
 ---------------------------------------------------------------------------------
 (1) _cam_init                                             0     0      0     218
                 _ADCC_SelectChannel
           _ADCC_SetInterruptHandler
 ---------------------------------------------------------------------------------
 (2) _ADCC_SetInterruptHandler                             2     0      2      98
                                              0 BANK0      2     0      2
 ---------------------------------------------------------------------------------
 (2) _ADCC_SelectChannel                                   2     1      1     120
                                              0 BANK0      2     1      1
 ---------------------------------------------------------------------------------
 (1) _cam_get                                              6     4      2     300
                                              0 BANK0      6     4      2
 ---------------------------------------------------------------------------------
 (1) ___flge                                              12     4      8     334
                                              0 BANK0     12     4      8
 ---------------------------------------------------------------------------------
 (1) _SYSTEM_Initialize                                    0     0      0    1640
                    _ADCC_Initialize
                    _CCP1_Initialize
                 _EUSART1_Initialize
               _INTERRUPT_Initialize
              _OSCILLATOR_Initialize
             _PIN_MANAGER_Initialize
                     _PMD_Initialize
                    _TMR1_Initialize
                    _TMR2_Initialize
                    _TMR3_Initialize
 ---------------------------------------------------------------------------------
 (2) _TMR3_Initialize                                      2     2      0     374
                                              2 BANK0      2     2      0
           _TMR3_SetInterruptHandler
 ---------------------------------------------------------------------------------
 (2) _TMR3_SetInterruptHandler                             2     0      2     374
                                              0 BANK0      2     0      2
 ---------------------------------------------------------------------------------
 (2) _TMR2_Initialize                                      0     0      0     174
           _TMR2_SetInterruptHandler
 ---------------------------------------------------------------------------------
 (2) _TMR2_SetInterruptHandler                             2     0      2     174
                                              0 BANK0      2     0      2
 ---------------------------------------------------------------------------------
 (2) _TMR1_Initialize                                      2     2      0     350
                                              2 BANK0      2     2      0
           _TMR1_SetInterruptHandler
 ---------------------------------------------------------------------------------
 (2) _TMR1_SetInterruptHandler                             2     0      2     350
                                              0 BANK0      2     0      2
 ---------------------------------------------------------------------------------
 (2) _PMD_Initialize                                       0     0      0       0
 ---------------------------------------------------------------------------------
 (2) _PIN_MANAGER_Initialize                               0     0      0     274
         _IOCCF2_SetInterruptHandler
 ---------------------------------------------------------------------------------
 (2) _IOCCF2_SetInterruptHandler                           2     0      2     274
                                              0 BANK0      2     0      2
 ---------------------------------------------------------------------------------
 (2) _OSCILLATOR_Initialize                                0     0      0       0
 ---------------------------------------------------------------------------------
 (2) _INTERRUPT_Initialize                                 0     0      0       0
 ---------------------------------------------------------------------------------
 (2) _EUSART1_Initialize                                   0     0      0     294
            _EUSART1_SetErrorHandler
     _EUSART1_SetFramingErrorHandler
     _EUSART1_SetOverrunErrorHandler
 ---------------------------------------------------------------------------------
 (3) _EUSART1_SetOverrunErrorHandler                       2     0      2      98
                                              0 BANK0      2     0      2
 ---------------------------------------------------------------------------------
 (3) _EUSART1_SetFramingErrorHandler                       2     0      2      98
                                              0 BANK0      2     0      2
 ---------------------------------------------------------------------------------
 (3) _EUSART1_SetErrorHandler                              2     0      2      98
                                              0 BANK0      2     0      2
 ---------------------------------------------------------------------------------
 (2) _CCP1_Initialize                                      0     0      0     174
                   _CCP1_SetCallBack
 ---------------------------------------------------------------------------------
 (2) _CCP1_SetCallBack                                     2     0      2     174
                                              0 BANK0      2     0      2
 ---------------------------------------------------------------------------------
 (2) _ADCC_Initialize                                      0     0      0       0
 ---------------------------------------------------------------------------------
 Estimated maximum stack depth 3
 ---------------------------------------------------------------------------------
 (Depth) Function   	        Calls       Base Space   Used Autos Params    Refs
 ---------------------------------------------------------------------------------
 (4) _INTERRUPT_InterruptManagerLow                        9     9      0    3914
                                             48 COMRAM     9     9      0
                           _ADCC_ISR
                    _CCP1_CaptureISR
                    _PIN_MANAGER_IOC
                           _TMR1_ISR
                           _TMR3_ISR
 ---------------------------------------------------------------------------------
 (5) _TMR3_ISR                                             0     0      0     958
                   Absolute function *
       _TMR3_DefaultInterruptHandler *
                          _timer_ISR *
                  i1_TMR3_WriteTimer
                        i1_cam_start *
 ---------------------------------------------------------------------------------
 (6) i1_cam_start                                          1     1      0     370
                                              7 COMRAM     1     1      0
         i1_TMR3_SetInterruptHandler
                  i1_TMR3_StartTimer
                  i1_TMR3_WriteTimer
 ---------------------------------------------------------------------------------
 (6) _timer_ISR                                            1     1      0     370
                                              7 COMRAM     1     1      0
         i1_TMR3_SetInterruptHandler
                  i1_TMR3_StartTimer
                  i1_TMR3_WriteTimer
 ---------------------------------------------------------------------------------
 (6) _TMR3_DefaultInterruptHandler                         0     0      0       0
 ---------------------------------------------------------------------------------
 (5) _TMR1_ISR                                             0     0      0     288
                   Absolute function *
       _TMR1_DefaultInterruptHandler *
              _ping_TMR1Overflow_isr *
                  i1_TMR1_WriteTimer
 ---------------------------------------------------------------------------------
 (6) _ping_TMR1Overflow_isr                                0     0      0     148
       i1_IOCCF2_SetInterruptHandler
         i1_TMR1_SetInterruptHandler
 ---------------------------------------------------------------------------------
 (6) _TMR1_DefaultInterruptHandler                         0     0      0       0
 ---------------------------------------------------------------------------------
 (5) _PIN_MANAGER_IOC                                      0     0      0     288
                         _IOCCF2_ISR
 ---------------------------------------------------------------------------------
 (6) _IOCCF2_ISR                                           0     0      0     288
                   Absolute function *
     _IOCCF2_DefaultInterruptHandler *
                 _ping_RC2_went_HIGH *
 ---------------------------------------------------------------------------------
 (7) _ping_RC2_went_HIGH                                   0     0      0     288
       i1_IOCCF2_SetInterruptHandler
         i1_TMR1_SetInterruptHandler
                  i1_TMR1_StartTimer
                  i1_TMR1_WriteTimer
 ---------------------------------------------------------------------------------
 (6) i1_TMR1_WriteTimer                                    2     0      2     140
                                              5 COMRAM     2     0      2
 ---------------------------------------------------------------------------------
 (8) i1_TMR1_StartTimer                                    0     0      0       0
 ---------------------------------------------------------------------------------
 (7) i1_TMR1_SetInterruptHandler                           2     0      2      74
                                              5 COMRAM     2     0      2
 ---------------------------------------------------------------------------------
 (7) i1_IOCCF2_SetInterruptHandler                         2     0      2      74
                                              5 COMRAM     2     0      2
 ---------------------------------------------------------------------------------
 (7) _IOCCF2_DefaultInterruptHandler                       0     0      0       0
 ---------------------------------------------------------------------------------
 (5) _CCP1_CaptureISR                                      2     2      0    2010
                                             46 COMRAM     2     2      0
                   Absolute function *
               _CCP1_DefaultCallBack *
                _ping_CCP1_triggered *
 ---------------------------------------------------------------------------------
 (6) _ping_CCP1_triggered                                  2     0      2    1963
                                             44 COMRAM     2     0      2
                          i1___flmul
                         i1___xxtofl
 ---------------------------------------------------------------------------------
 (7) i1___xxtofl                                          14    10      4     348
                                              5 COMRAM    14    10      4
 ---------------------------------------------------------------------------------
 (7) i1___flmul                                           25    17      8    1518
                                             19 COMRAM    25    17      8
                         i1___xxtofl (ARG)
 ---------------------------------------------------------------------------------
 (6) _CCP1_DefaultCallBack                                 2     0      2       0
                                             44 COMRAM     2     0      2
 ---------------------------------------------------------------------------------
 (5) _ADCC_ISR                                             0     0      0     370
                   Absolute function *
                      _adc_ready_ISR *
 ---------------------------------------------------------------------------------
 (6) _adc_ready_ISR                                        2     2      0     370
                                              7 COMRAM     2     2      0
         i1_TMR3_SetInterruptHandler
                  i1_TMR3_StartTimer
                  i1_TMR3_WriteTimer
 ---------------------------------------------------------------------------------
 (7) i1_TMR3_WriteTimer                                    2     0      2     218
                                              5 COMRAM     2     0      2
 ---------------------------------------------------------------------------------
 (7) i1_TMR3_StartTimer                                    0     0      0       0
 ---------------------------------------------------------------------------------
 (7) i1_TMR3_SetInterruptHandler                           2     0      2     152
                                              5 COMRAM     2     0      2
 ---------------------------------------------------------------------------------
 (11) Absolute function(Fake)                              0     0      0       0
 ---------------------------------------------------------------------------------
 Estimated maximum stack depth 11
 ---------------------------------------------------------------------------------
 (Depth) Function   	        Calls       Base Space   Used Autos Params    Refs
 ---------------------------------------------------------------------------------
 (9) _INTERRUPT_InterruptManagerHigh                       2     2      0       0
                                              3 COMRAM     2     2      0
                           _TMR2_ISR
 ---------------------------------------------------------------------------------
 (10) _TMR2_ISR                                            0     0      0       0
                   Absolute function *
       _TMR2_DefaultInterruptHandler *
                     _carcontrol_ISR *
 ---------------------------------------------------------------------------------
 (11) _carcontrol_ISR                                      3     3      0       0
                                              0 COMRAM     3     3      0
 ---------------------------------------------------------------------------------
 (11) _TMR2_DefaultInterruptHandler                        0     0      0       0
 ---------------------------------------------------------------------------------
 (11) Absolute function(Fake)                              0     0      0       0
 ---------------------------------------------------------------------------------
 Estimated maximum stack depth 11
 ---------------------------------------------------------------------------------

 Call Graph Graphs:

 _main (ROOT)
   _SYSTEM_Initialize
     _ADCC_Initialize
     _CCP1_Initialize
       _CCP1_SetCallBack
     _EUSART1_Initialize
       _EUSART1_SetErrorHandler
       _EUSART1_SetFramingErrorHandler
       _EUSART1_SetOverrunErrorHandler
     _INTERRUPT_Initialize
     _OSCILLATOR_Initialize
     _PIN_MANAGER_Initialize
       _IOCCF2_SetInterruptHandler
     _PMD_Initialize
     _TMR1_Initialize
       _TMR1_SetInterruptHandler
     _TMR2_Initialize
       _TMR2_SetInterruptHandler
     _TMR3_Initialize
       _TMR3_SetInterruptHandler
   ___flge
   _cam_get
   _cam_init
     _ADCC_SelectChannel
     _ADCC_SetInterruptHandler
   _cam_start
     _TMR3_SetInterruptHandler
     _TMR3_StartTimer
     _TMR3_WriteTimer
   _carcontrol_init
     _TMR2_SetInterruptHandler
     _carcontrol_steering
     _carcontrol_throttle
   _carcontrol_steering
   _carcontrol_throttle
   _pid_getResponse
     ___fladd
       ___flmul (ARG)
         ___fltol (ARG)
         ___xxtofl (ARG)
           ___fltol (ARG)
           ___wmul (ARG)
             ___fltol (ARG)
       ___fltol (ARG)
       ___wmul (ARG)
         ___fltol (ARG)
       ___xxtofl (ARG)
         ___fltol (ARG)
         ___wmul (ARG)
           ___fltol (ARG)
     ___flmul
       ___fltol (ARG)
       ___xxtofl (ARG)
         ___fltol (ARG)
         ___wmul (ARG)
           ___fltol (ARG)
     ___fltol
     ___wmul
       ___fltol (ARG)
     ___xxtofl
       ___fltol (ARG)
       ___wmul (ARG)
         ___fltol (ARG)
   _pid_init
   _ping_get
   _ping_init
     _CCP1_SetCallBack
     _IOCCF2_SetInterruptHandler
     _TMR1_SetInterruptHandler
   _ping_send
     _TMR1_SetInterruptHandler
     _TMR1_StartTimer
     _TMR1_WriteTimer

 _INTERRUPT_InterruptManagerLow (ROOT)
   _ADCC_ISR
     Absolute function(Fake) *
     _adc_ready_ISR *
       i1_TMR3_SetInterruptHandler
       i1_TMR3_StartTimer
       i1_TMR3_WriteTimer
   _CCP1_CaptureISR
     Absolute function(Fake) *
     _CCP1_DefaultCallBack *
     _ping_CCP1_triggered *
       i1___flmul
         i1___xxtofl (ARG)
       i1___xxtofl
   _PIN_MANAGER_IOC
     _IOCCF2_ISR
       Absolute function(Fake) *
       _IOCCF2_DefaultInterruptHandler *
       _ping_RC2_went_HIGH *
         i1_IOCCF2_SetInterruptHandler
         i1_TMR1_SetInterruptHandler
         i1_TMR1_StartTimer
         i1_TMR1_WriteTimer
   _TMR1_ISR
     Absolute function(Fake) *
     _TMR1_DefaultInterruptHandler *
     _ping_TMR1Overflow_isr *
       i1_IOCCF2_SetInterruptHandler
       i1_TMR1_SetInterruptHandler
     i1_TMR1_WriteTimer *
   _TMR3_ISR
     Absolute function(Fake) *
     _TMR3_DefaultInterruptHandler *
     _timer_ISR *
       i1_TMR3_SetInterruptHandler
       i1_TMR3_StartTimer
       i1_TMR3_WriteTimer
     i1_TMR3_WriteTimer *
     i1_cam_start *
       i1_TMR3_SetInterruptHandler
       i1_TMR3_StartTimer
       i1_TMR3_WriteTimer

 _INTERRUPT_InterruptManagerHigh (ROOT)
   _TMR2_ISR
     Absolute function(Fake) *
     _TMR2_DefaultInterruptHandler *
     _carcontrol_ISR *

 Address spaces:
Name               Size   Autos  Total    Cost      Usage
BIGRAM             7FF      0     104      21       12.7%
EEDATA             100      0       0       0        0.0%
BITBANK7           100      0       0      19        0.0%
BANK7              100      0       0      20        0.0%
BITBANK6           100      0       0      16        0.0%
BANK6              100      0       0      17        0.0%
BITBANK5           100      0       0      14        0.0%
BANK5              100      0       0      15        0.0%
BITBANK4           100      0       0      12        0.0%
BANK4              100      0       0      13        0.0%
BITBANK3           100      0       0      10        0.0%
BANK3              100      0       0      11        0.0%
BITBANK2           100      0       0       8        0.0%
BANK2              100      0       0       9        0.0%
BITBANK1           100      0       0       6        0.0%
BANK1              100     85      85       7       52.0%
BITBANK0            A0      0       0       4        0.0%
BANK0               A0     5D      78       5       75.0%
BITCOMRAM           5E      0       0       0        0.0%
COMRAM              5E     39      56       1       91.5%
BITSFR_2             0      0       0     200        0.0%
SFR_2                0      0       0     200        0.0%
BITSFR_1             0      0       0     200        0.0%
SFR_1                0      0       0     200        0.0%
BITSFR               0      0       0     200        0.0%
SFR                  0      0       0     200        0.0%
STACK                0      0       0       2        0.0%
NULL                 0      0       0       0        0.0%
ABS                  0      0     153      18        0.0%
DATA                 0      0     257       3        0.0%
CODE                 0      0       0       0        0.0%


Microchip Technology PIC18 Macro Assembler V2.05 build -831301201 
Symbol Table                                                                                   Mon May  6 19:58:30 2019

                                 cam_get@pixels 0060                __end_of_TMR2_SetInterruptHandler 1B2A  
                             ??_carcontrol_init 0062                                     __CFG_CP$OFF 000000  
                                            _dg 00C3                                     i1___flmul@a 0018  
                                   i1___flmul@b 0014                                              _pg 00C7  
                                            _sp 00CE                                              bsr 000FE0  
                           ___wmul@multiplicand 006C                             _carcontrol_throttle 1AC6  
                           _carcontrol_steering 1802                         __end_of_CCP1_Initialize 18EE  
                                   __CFG_LVP$ON 000000                                      i1___xxtofl 0D04  
                                           l976 12FA                                             _PR2 000FBB  
                                  __CFG_CPD$OFF 000000                                 _timer1ReloadVal 0040  
                       __size_of_PMD_Initialize 001C                                 _TMR2_Initialize 1892  
                                           tosl 000FFD                                             wreg 000FE8  
              ??_IOCCF2_DefaultInterruptHandler 0006                 ?_IOCCF2_DefaultInterruptHandler 0001  
                                  ___flmul@aexp 008F                                    ___flmul@bexp 0090  
                                  ___flmul@sign 008A                                    ___flmul@temp 0095  
                                  ___flmul@prod 0091                     carcontrol_steering@steering 0060  
                                   i1_cam_start 14A8                                    __CFG_ZCD$OFF 000000  
                                  ___fltol@exp1 0069                                            l1261 10C0  
                                          l1610 0128                                            l4003 02E8  
                               _timer3ReloadVal 003C                                            l1620 033C  
                                          l1541 0962                                            l1525 0890  
                                          l4101 0C12                                            l1550 09C8  
                                          l1526 086E                                            l1551 09C4  
                                          l4111 0C42                                            l4033 03A2  
                                          l4009 0306                                            l4121 0CB2  
                                          l4113 0C68                                            l1627 03C6  
                                          l1619 0340                                            l4107 0C30  
                                          l1651 0C02                                            l4045 03E4  
                                          l4029 0384                                            l4109 0C36  
                                          l4119 0CA6                                            l4313 128C  
                                          l3601 182A                                            l4073 1226  
                                          l4057 11DC                                            l4137 0CF2  
                                          l1658 0C80                                            l4091 1266  
                                          l4083 123E                                            l4325 12C8  
                                          l4085 124A                                            l4077 1236  
                                          l4319 12BE                                            l4343 0AC8  
                                          l4337 0A70                                            l3811 0880  
                                          l3731 077A                                            l4383 10AA  
                                          l4375 1060                                            l3583 1A10  
                                          l3591 1AD6                                            l3911 0A3E  
                                          l3735 077E                                            l4367 17BE  
                                          l3559 19F0                                            l3905 0A34  
                                          l3833 08D6                                            l3825 08B4  
                                          l3809 087C                                            l4465 0F3C  
                                          l4449 0EAA                                            l4379 1094  
                                          l3835 08DA                                            l3843 08EC  
                                          l3755 07C2                                            l4389 10F8  
                                          l3597 181C                                            l3909 0A3C  
                                          l3861 0986                                            l3853 0952  
                                          l3933 00D4                                            l3871 099C  
                                          l3767 07E6                                            l3759 07C6  
                                          l3951 0114                                            l3935 00D8  
                                          l3961 0146                                            l3953 0118  
                                          l3937 00E8                                            l3877 09A6  
                                          l3797 0822                                            l3897 0A0E  
                                          _LATA 000F82                                            u2310 0844  
                                          _LATB 000F83                                            _LATC 000F84  
                                          u2320 0854                                            u3200 0ADC  
                                          u3130 1330                                            u2330 0856  
                                          u2510 09BE                                            u2360 0898  
                                          _T2PR 000FBB                                            u3180 12FA  
                                          u3148 1334                                            u3407 0E9E  
                                          u2800 11CA                                            u3417 0EE0  
                                          u2570 0A1A                                            u2490 09AA  
                                          u2730 0336                                            u2810 11FA  
                                          u3427 16D0                                            u3437 133C  
                                          u2815 11F0                                            u2680 0134  
                                          u2770 0392                                            u2690 02AA  
                                          u2850 1250                                            u2930 0CBC  
                                          u2780 03B0                                            _PMD0 000EDC  
                                          _PMD1 000EDD                                            _PMD2 000EDE  
                                          u2695 02A0                                            _PMD3 000EDF  
                                          _PMD4 000EE0                                            _PMD5 000EE1  
                                          _PIR6 000ECB                                            _TMR2 000FBA  
                                          _WPUA 000F0B                                            _WPUB 000F13  
                                          _WPUC 000F1B                                            _WPUE 000F28  
                              __end_of_ADCC_ISR 19DC                            ?_carcontrol_throttle 0001  
                          ?_carcontrol_steering 0001                                   __CFG_FCMEN$ON 000000  
                      _ADCC_SetInterruptHandler 1B0C                                            _main 0E44  
                                 i1___flmul@grs 0021                                            fsr1h 000FE2  
                                          fsr2h 000FDA                                            indf1 000FE7  
                                          indf2 000FDF                                            fsr1l 000FE1  
                                          fsr2l 000FD9                                            btemp 0057  
                            _ADCC_SelectChannel 1ADC                                   pid_init@dgain 0064  
                                          prodh 000FF4                                            prodl 000FF3  
                                          start 00A2                                   pid_init@pgain 0060  
                               _TMR3_Initialize 164E                        __end_of_CCP1_SetCallBack 1B66  
                    ??_TMR1_SetInterruptHandler 0062                                   __CFG_CSWEN$ON 000000  
                                  ___param_bank 000000                                ?_CCP1_CaptureISR 0001  
                           ?_ADCC_SelectChannel 0060                                   __CFG_SCANE$ON 000000  
                __size_of_OSCILLATOR_Initialize 0018                   __end_of_OSCILLATOR_Initialize 1AC6  
                           __size_of_IOCCF2_ISR 0026                                   ___fltol@sign1 0068  
                                         _ADACQ 000F57                                           _ADACT 000F51  
                                         _ADCAP 000F58                                 __end_of___fladd 0A5A  
                                         ?_main 0001                                           _ADCLK 000F52  
                                         _ADCNT 000F62                                           _ADPCH 000F5A  
                                         _ADREF 000F53                                           _ADPRE 000F59  
                                 __CFG_WDTE$OFF 000000                                           _ADRPT 000F61  
                               __end_of___flmul 03FA                                 __end_of___fltol 1278  
                               _TMR1_StartTimer 1B8A                       ADCC_SelectChannel@channel 0061  
                                         _T1CLK 000FD1                                           _T1CON 000FCE  
                                         _T3CLK 000FCB                                           _T2CON 000FBC  
                                         _T3CON 000FC8                                           _T2HLT 000FBD  
                                __CFG_DEBUG$OFF 000000                                           _T2TMR 000FBA  
                                         _T2RST 000FBF                                           i1l261 0058  
                                         i1l263 0064                                           i1l264 007A  
                                         i1l265 0070                                           i1l259 004C  
                                         i2l254 1A30                                           i1l943 11A0  
                                         _OSCEN 000ED7                                 __end_of_cam_get 12FC  
                                         _TMR1H 000FCD                                           _TMR1L 000FCC  
                                         _TMR3H 000FC7                                           _TMR3L 000FC6  
                                         _TRISA 000F87                                           _TRISB 000F88  
                                         _TRISC 000F89                        __size_of_pid_getResponse 0166  
                                 __CFG_WRT0$OFF 000000                                   __CFG_WRT1$OFF 000000  
                                 __CFG_WRT2$OFF 000000               __size_of_TMR3_SetInterruptHandler 000A  
                                 __CFG_WRT3$OFF 000000                       ?_TMR3_SetInterruptHandler 0060  
                                __CFG_EBTR0$OFF 000000                                  __CFG_EBTR1$OFF 000000  
                                __CFG_EBTR2$OFF 000000                                  __CFG_EBTR3$OFF 000000  
                              __end_of_TMR1_ISR 1892                                __end_of_TMR2_ISR 19B8  
                                 __CFG_WRTB$OFF 000000                                __end_of_TMR3_ISR 1862  
                                 __CFG_WRTC$OFF 000000                                   __CFG_WRTD$OFF 000000  
                                __CFG_EBTRB$OFF 000000                            ??_ADCC_SelectChannel 0061  
                ??_TMR3_DefaultInterruptHandler 0006                         __end_of_PIN_MANAGER_IOC 1B0C  
                                         _myCam 0185                          __size_of_adc_ready_ISR 00C0  
                                i1___flmul@aexp 0025                                  i1___flmul@bexp 0026  
                            __CFG_MCLRE$EXTMCLR 000000                                  i1___flmul@sign 0020  
                                i1___flmul@temp 002B                                  i1___flmul@prod 0027  
                                  main@response 0184                         __end_of_TMR1_Initialize 1608  
                         ??_carcontrol_throttle 0060                           ??_carcontrol_steering 0060  
                                         pclath 000FFA                                           tablat 000FF5  
                                         plusw2 000FDB                  ??i1_IOCCF2_SetInterruptHandler 0008  
                              pid_getResponse@i 00B9                                           ttemp5 0058  
                                         ttemp6 005B                                           ttemp7 005F  
                                         status 000FD8                                           wtemp8 0058  
                                _carcontrol_ISR 0F44                              __size_ofi1___flmul 0352  
            _EUSART1_DefaultFramingErrorHandler 000000                                 _TMR1_WriteTimer 19DC  
                ?_INTERRUPT_InterruptManagerLow 0001                                 __initialization 1568  
                   ?i1_TMR1_SetInterruptHandler 0006                      __end_of_EUSART1_Initialize 164E  
                                  __end_of_main 0F44                         __end_of_TMR2_Initialize 18C0  
                      _TMR2_SetInterruptHandler 1B20                                          ??_main 00BB  
                             _delay_between_ack 004E                                     ?i1___xxtofl 0006  
                              ?_CCP1_Initialize 0001                                 _TMR3_StartTimer 1B8E  
                                 __activetblptr 000002                           _TMR3_InterruptHandler 003A  
                       _IOCCF2_InterruptHandler 0044                                          _ADACCH 000F6C  
                                        _ADACCL 000F6B                                          _ADCON0 000F5B  
                                        _ADCON1 000F54                                          _ADCON2 000F55  
                                        _ADCON3 000F56                                          _ADERRH 000F6A  
                                        _ADERRL 000F69                                          _ADLTHH 000F66  
                                        _ADLTHL 000F65                                          _ADRESH 000F5F  
                                        _ADRESL 000F5E                                          _CCPR1H 000FAA  
                                        _CCPR1L 000FA9                                          _ADSTAT 000F60  
                                        _ADUTHH 000F68                                          _ADUTHL 000F67  
                                        _ANSELA 000F0C                                          _ANSELB 000F14  
                                        _ANSELC 000F1C                                          _T1GATE 000FD0  
                                        _T1GCON 000FCF                                          _T3GATE 000FCA  
                                        _T3GCON 000FC9                                          _RC1REG 000F98  
                 __size_of_CCP1_DefaultCallBack 0002                                          _RC1STA 000F9C  
                       TMR1_WriteTimer@timerVal 0060                                          _ODCONA 000F0A  
                                        i1l1610 047A                                          _ODCONB 000F12  
                                        _ODCONC 000F1A                                          _RC6PPS 000EF8  
                                        i1l1620 068E                                          i1l3231 1AA4  
                        __end_of_carcontrol_ISR 102A                                          i1l1627 0718  
                                        i1l1619 0692                                          i1l3251 042A  
                                        i1l1651 0D42                                          i1l3325 0658  
                                        i1l3253 043A                                          i1l3319 063A  
                                        i1l3361 0736                                          i1l3345 06D6  
                                        i1l3249 0426                                          i1l3409 0E32  
                                        i1l1658 0DC0                                          i1l3267 0466  
                                        i1l3187 1A88                         __end_of_TMR3_Initialize 1692  
                                        i1l3349 06F4                                          i1l3277 0498  
                                        i1l3269 046A                                          i1l3381 0D76  
                                        i1l3373 0D52                                          i1l3391 0DE6  
                                        i1l3383 0D82                                          i1l3705 119A  
                                        i1l3393 0DF2                                          i1l3385 0DA8  
                                        i1l3379 0D70                                  __CFG_WDTCCS$SC 000000  
                                        i1l3687 13C2                                          i1l3697 113A  
                                        i2l3611 0F58                                          i2l3621 0F7E  
                                        i2l3605 0F46                                          i2l3631 0FD4  
                                        i2l3647 0FFE                                          _OSCFRQ 000ED9  
                                        _TX1REG 000F99                                __end_of_cam_init 173A  
                                        _TX1STA 000F9D                                __end_of___xxtofl 0D04  
                               _TMR3_WriteTimer 19FC                                   _CCP1_CallBack 0042  
                                __CFG_PWRTE$OFF 000000                                  __CFG_XINST$OFF 000000  
          __end_of_TMR1_DefaultInterruptHandler 1B9E           __size_of_TMR1_DefaultInterruptHandler 0002  
                  _TMR1_DefaultInterruptHandler 1B9C                                          ___flge 102A  
                     i1TMR1_WriteTimer@timerVal 0006                         __end_of_TMR1_StartTimer 1B8E  
                                 _adc_ready_ISR 10FC                                       ??___fladd 009F  
                                        ___wmul 1944                                  __CFG_STVREN$ON 000000  
                                     ??___flmul 0086                                          _carctl 00BD  
                                     ??___fltol 0064                        ?_EUSART1_SetErrorHandler 0060  
                                     ??_cam_get 0062                                          clear_0 1590  
                                        clear_1 15A2                                          clear_2 15AE  
                              __end_of_pid_init 1802                ??_EUSART1_SetOverrunErrorHandler 0062  
               ?_EUSART1_SetOverrunErrorHandler 0060                                          _status 0046  
                                     ?_ADCC_ISR 0001                                __end_of_ping_get 17D2  
                   __end_of_ping_CCP1_triggered 14A8                                 _ADCC_Initialize 150A  
                             __end_ofi1___flmul 074C                                  _PMD_Initialize 1A5A  
                                  __pdataCOMRAM 0052                                          tblptrh 000FF7  
                                        tblptrl 000FF6                                          tblptru 000FF8  
                       ??_ping_TMR1Overflow_isr 0008      i1TMR3_SetInterruptHandler@InterruptHandler 0006  
    i1TMR1_SetInterruptHandler@InterruptHandler 0006    i1IOCCF2_SetInterruptHandler@InterruptHandler 0006  
      TMR3_SetInterruptHandler@InterruptHandler 0060        ADCC_SetInterruptHandler@InterruptHandler 0060  
      TMR1_SetInterruptHandler@InterruptHandler 0060        TMR2_SetInterruptHandler@InterruptHandler 0060  
    IOCCF2_SetInterruptHandler@InterruptHandler 0060                                ?_PIN_MANAGER_IOC 0001  
                       __end_of_TMR1_WriteTimer 19FC                   __size_of_INTERRUPT_Initialize 0012  
                                  ??_IOCCF2_ISR 0008                               ??_pid_getResponse 00A9  
                   __size_of_ping_RC2_went_HIGH 0034                                      ___flge@ff1 0060  
                                    ___flge@ff2 0064                                ?_TMR1_Initialize 0001  
                               ?_carcontrol_ISR 0001                                    ___xxtofl@arg 007A  
                                  ___xxtofl@exp 0079                ??_INTERRUPT_InterruptManagerHigh 0004  
               ?_INTERRUPT_InterruptManagerHigh 0001                               _SYSTEM_Initialize 191A  
                                  ___xxtofl@val 0070                                 _carcontrol_init 173A  
                                    __accesstop 0060                         __end_of__initialization 15B4  
                            ?_SYSTEM_Initialize 0001                             __size_ofi1___xxtofl 0140  
                                 ___rparam_used 000001                                      ___fltol@f1 0060  
                      pid_getResponse@der_error 00B1                                  ?_adc_ready_ISR 0001  
                                __pcstackCOMRAM 0001                                  main@cam_pixels 0100  
                            __size_of_cam_start 006E                             ??_SYSTEM_Initialize 0064  
                       __end_of_TMR3_StartTimer 1B92                                       ?_TMR1_ISR 0001  
                                     ?_TMR2_ISR 0001                   ?_TMR1_DefaultInterruptHandler 0001  
                                     ?_TMR3_ISR 0001                                ?_TMR2_Initialize 0001  
                        __end_of_PMD_Initialize 1A76                                      ??_ADCC_ISR 000A  
                            __end_of_IOCCF2_ISR 1992                      ??_ADCC_SetInterruptHandler 0062  
                                  ?i1_cam_start 0001                       __end_of_SYSTEM_Initialize 1944  
                       __end_of_TMR3_WriteTimer 1A1C                                      __pbssBANK0 00BD  
                              ?_TMR3_Initialize 0001                                      __pnvCOMRAM 003A  
                                i1___xxtofl@arg 0010                                  i1___xxtofl@exp 000F  
                                i1___xxtofl@val 0006          __end_of_IOCCF2_DefaultInterruptHandler 1BA0  
       __size_of_IOCCF2_DefaultInterruptHandler 0002                  _IOCCF2_DefaultInterruptHandler 1B9E  
               __end_of_EUSART1_SetErrorHandler 1B5C                               ?_CCP1_SetCallBack 0060  
                                       ?___flge 0060                __end_of_TMR3_SetInterruptHandler 1B20  
                                       ?___wmul 006A                                ?_TMR1_StartTimer 0001  
                                    ??_TMR1_ISR 0008                                 __CFG_PPS1WAY$ON 000000  
                                    ??_TMR2_ISR 0004                    ??i1_TMR3_SetInterruptHandler 0008  
                                    ??_TMR3_ISR 0009                              ??_CCP1_SetCallBack 0062  
                       __end_of_ADCC_Initialize 1568                              __size_of_ping_init 003C  
                            __size_of_ping_send 0036                                         _CCP1CAP 000FAC  
                                       _CCP1CON 000FAB                                         _ADFLTRH 000F6E  
                                       _ADFLTRL 000F6D                                         _CCP1PPS 000EAA  
                                       _ADPREVH 000F5D                                         _ADPREVL 000F5C  
                                       _ADSTPTH 000F64                                         _ADSTPTL 000F63  
                               ?_PMD_Initialize 0001          __end_of_EUSART1_SetFramingErrorHandler 1B52  
       __size_of_EUSART1_SetFramingErrorHandler 000A                  _EUSART1_SetFramingErrorHandler 1B48  
                            __size_of_timer_ISR 006E                                       ?_cam_init 0001  
                                     ?___xxtofl 0070                                         _SP1BRGH 000F9B  
                                       _SP1BRGL 000F9A                                         _OSCCON1 000ED3  
                                       _OSCCON3 000ED5                         __end_of_carcontrol_init 176E  
                                       _OSCTUNE 000ED8                                         _SLRCONA 000F09  
                                       _SLRCONB 000F11                                         _SLRCONC 000F19  
                             __end_of_cam_start 136A                                ?_TMR1_WriteTimer 0060  
             CCP1_DefaultCallBack@capturedValue 002D             __size_ofi1_TMR3_SetInterruptHandler 000A  
                                     ?_pid_init 0060                                 ??_adc_ready_ISR 0008  
                                     ?_ping_get 0060                                         __Hparam 0000  
                                       __Lparam 0000                      ??_TMR2_SetInterruptHandler 0062  
                    __CFG_RSTOSC$HFINTOSC_64MHZ 000000                                      _last_error 00CD  
                               __size_of___flge 00D2                                         ___fladd 074C  
                                       ___flmul 00A6                                ?_TMR3_StartTimer 0001  
                                       ___fltol 11BC                                 __size_of___wmul 0028  
                                       _cam_get 1278                                         __pcinit 1568  
                                       __ramtop 0800                                    ??i1___xxtofl 000A  
                                       __ptext0 0E44                                         __ptext1 16CE  
                                       __ptext2 19DC                                         __ptext3 1B8A  
                                       __ptext4 1692                                         __ptext5 17A2  
                                       __ptext6 17D2                                         __ptext7 0A5A  
                                       __ptext8 0BC0                                         __ptext9 1944  
                      __size_of_CCP1_CaptureISR 002C                  ??_TMR1_DefaultInterruptHandler 0006  
                                     _T1CONbits 000FCE                                      ??_cam_init 0062  
                         _OSCILLATOR_Initialize 1AAE                                       _T2CONbits 000FBC  
                                    ??___xxtofl 0074                                       _T3CONbits 000FC8  
             __size_of_TMR1_SetInterruptHandler 000A                              _EUSART1_Initialize 1608  
                   __end_of_carcontrol_throttle 1ADC                        ??_PIN_MANAGER_Initialize 0062  
                     ?_TMR1_SetInterruptHandler 0060                     __end_of_carcontrol_steering 1832  
                                     _T2HLTbits 000FBD                                       _IOCCFbits 000F15  
                                     _IOCCNbits 000F16                                       _IOCCPbits 000F17  
                   __size_of_ADCC_SelectChannel 0012                                         main@dis 0180  
                    __size_of_SYSTEM_Initialize 002A                                  __pintcode_body 1A1C  
                          end_of_initialization 15B4                                ?_TMR3_WriteTimer 0060  
                             __end_of_ping_init 16CE                                       _T2RSTbits 000FBF  
                             __end_of_ping_send 1704                             ?_EUSART1_Initialize 0001  
                                 __Lmediumconst 0000                     _EUSART1_OverrunErrorHandler 00D2  
                                       int_func 1A1C                                      ??_pid_init 0068  
                             __end_of_timer_ISR 13D8                                      ??_ping_get 0064  
                            __end_ofi1___xxtofl 0E44                                         postdec1 000FE5  
                                       postdec2 000FDD                                         postinc0 000FEE  
                                       postinc2 000FDE                              pid_getResponse@der 00B6  
                  __end_of_CCP1_DefaultCallBack 1BA2                                ?_ADCC_Initialize 0001  
                         _ADCC_InterruptHandler 0050                            ??_EUSART1_Initialize 0062  
                         __CFG_WDTCPS$WDTCPS_31 000000                        _TMR3_SetInterruptHandler 1B16  
                                    _timing_val 0052                                      _servo_trim 0056  
                               _pid_getResponse 0A5A                                     ___fladd@grs 00A6  
                              pid_init@setpoint 0068                               __size_of_ADCC_ISR 0024  
                                 ___xxtofl@sign 0078                                       _TRISBbits 000F88  
                                     _TRISCbits 000F89                                ??_carcontrol_ISR 0001  
                              ?_carcontrol_init 0001                                       i1___flmul 03FA  
              __size_of_EUSART1_SetErrorHandler 000A                        __size_of_CCP1_Initialize 002E  
                  ??_IOCCF2_SetInterruptHandler 0062                                __CFG_FEXTOSC$OFF 000000  
                __size_of_ping_TMR1Overflow_isr 001E                   __end_of_ping_TMR1Overflow_isr 1A5A  
                          __size_ofi1_cam_start 0062                                     ___flmul@grs 008B  
            __end_ofi1_TMR3_SetInterruptHandler 1B84                      i1_TMR3_SetInterruptHandler 1B7A  
                  __end_of_INTERRUPT_Initialize 1B00            __end_of_TMR2_DefaultInterruptHandler 1BA4  
         __size_of_TMR2_DefaultInterruptHandler 0002                    _TMR2_DefaultInterruptHandler 1BA2  
                                __end_of___flge 10FC                                  __end_of___wmul 196C  
                                 __pidataCOMRAM 1B84                               __size_of_TMR1_ISR 0030  
                             __size_of_TMR2_ISR 0026                               __size_of_TMR3_ISR 0030  
                           _cam_start$intlevel0 1302                          ?_OSCILLATOR_Initialize 0001  
           __size_of_IOCCF2_SetInterruptHandler 000A                             start_initialization 1568  
                        pid_getResponse@der_min 00B3                 __size_of_PIN_MANAGER_Initialize 006A  
                                    ?i1___flmul 0014                      __end_of_ping_RC2_went_HIGH 17A2  
                             ??_CCP1_CaptureISR 002F                    __size_of_ping_CCP1_triggered 0066  
                      __size_of_PIN_MANAGER_IOC 000C                                __CFG_LPBOREN$OFF 000000  
                      __size_of_TMR1_Initialize 0046                                        ??___flge 0068  
                              ??_PMD_Initialize 0060                                        ??___wmul 006E  
                       __end_of_pid_getResponse 0BC0                                     _CCPTMRSbits 000FAD  
                 ?_TMR2_DefaultInterruptHandler 0001                           CCP1_CaptureISR@module 002F  
                                     ___fladd@a 009B                                       ___fladd@b 0097  
                                   __pbssBIGRAM 0185                                       ___flmul@a 0082  
                                     ___flmul@b 007E                                     __pbssCOMRAM 0046  
                     __size_of_CCP1_SetCallBack 000A                                   __pcstackBANK0 0060  
                                 __pcstackBANK1 0100                        __size_of_TMR2_Initialize 002E  
                             __size_of_cam_init 0036                               __size_of___xxtofl 0144  
                          _pid_getResponse$3446 00AD                                 i1___xxtofl@sign 000E  
                          _CCP1_DefaultCallBack 1BA0                ??_EUSART1_SetFramingErrorHandler 0062  
               ?_EUSART1_SetFramingErrorHandler 0060                                       _cam_start 12FC  
                             ??_CCP1_Initialize 0062                                       __pnvBANK0 00D0  
             __size_of_ADCC_SetInterruptHandler 000A                       ?_ADCC_SetInterruptHandler 0060  
                        _PIN_MANAGER_Initialize 13D8                               __size_of_pid_init 0030  
                      __size_of_TMR3_Initialize 0044                                       __pintcode 0008  
                             __size_of_ping_get 0030                __end_of_TMR1_SetInterruptHandler 1B34  
                                      ?___fladd 0097                    ??i1_TMR1_SetInterruptHandler 0008  
                                      ?___flmul 007E                                        ?___fltol 0060  
                                      ?_cam_get 0060                               i1_TMR1_StartTimer 1B92  
                                   __pintcodelo 0018                              ?i1_TMR1_StartTimer 0001  
                                      _ADCC_ISR 19B8                                        _BAUD1CON 000F9E  
                      __size_of_TMR1_StartTimer 0004              _EUSART1_DefaultOverrunErrorHandler 000000  
                          _EUSART1_ErrorHandler 00D0                         _EUSART1_SetErrorHandler 1B52  
            __end_of_IOCCF2_SetInterruptHandler 1B3E                      _IOCCF2_SetInterruptHandler 1B34  
                                   ??i1___flmul 001C                             ??i1_TMR1_StartTimer 0006  
                                      _T2CLKCON 000FBE                           ?_CCP1_DefaultCallBack 002D  
                          _INTERRUPT_Initialize 1AEE                               i1_TMR1_WriteTimer 1A76  
                                    ?_cam_start 0001                                  ___wmul@product 006E  
           __size_ofi1_TMR1_SetInterruptHandler 000A                                        _LATAbits 000F82  
       EUSART1_SetErrorHandler@interruptHandler 0060                                        _LATBbits 000F83  
                                      _LATCbits 000F84                              ?i1_TMR1_WriteTimer 0006  
                                     _ping_init 1692                                        _IPR0bits 000EB5  
                                      _IPR1bits 000EB6                                        _PIE0bits 000EBD  
                                     _ping_send 16CE                                        _PIE1bits 000EBE  
                                      _IPR4bits 000EB9                                        _PIE4bits 000EC1  
                                      _IPR6bits 000EBB                                        _PIE6bits 000EC3  
                                      i1u200_20 0DFC                                        i1u221_20 1178  
                                      i1u205_28 1978                                        i1u205_29 198C  
                                      i1u216_20 137E                                        i1u216_26 1380  
                                      i1u304_28 187E                                        i1u219_20 1108  
                                      i1u306_28 184E                                        i1u219_26 110A  
                                      i1u307_28 1906                                        i1u309_28 19C8  
                                      i1u182_20 0486                                        i1u191_20 06E4  
                                      i1u183_20 05FC                        __size_of_TMR1_WriteTimer 0020  
                                      i1u183_25 05F2                                        i1u192_20 0702  
                                      i1u344_27 14DE                                        i1u187_20 0688  
                                      i2u211_40 0F70                                        i2u214_40 0FC6  
                                      i2u302_48 19A4                                        i1u298_20 14D4  
                                      i1u299_28 14D6                                        _PIR0bits 000EC5  
                                      _PIR1bits 000EC6                                        _PIR3bits 000EC8  
                                      _PIR4bits 000EC9                      ??_TMR3_SetInterruptHandler 0062  
                                      _PIR6bits 000ECB                           __end_of_adc_ready_ISR 11BC  
                     __end_ofi1_TMR1_StartTimer 1B96                                       _timer_ISR 136A  
                           ??i1_TMR1_WriteTimer 0008                                        _TMR1_ISR 1862  
                                      _TMR2_ISR 1992                                        _TMR3_ISR 1832  
                              ?_pid_getResponse 00A7                                       _servo_max 0054  
                                     _servo_min 0055                               ??_PIN_MANAGER_IOC 0008  
                             i1_TMR3_StartTimer 1B96                               ??_TMR1_Initialize 0062  
                                     _stateTime 00CB                                      _ADCON0bits 000F5B  
                                    _ADCON1bits 000F54                                      _ADCON2bits 000F55  
                                    _ADCON3bits 000F56                               ___wmul@multiplier 006A  
                            ?i1_TMR3_StartTimer 0001                        __size_of_TMR3_StartTimer 0004  
                    __end_of_ADCC_SelectChannel 1AEE                  ??_TMR2_DefaultInterruptHandler 0001  
             __size_of_TMR2_SetInterruptHandler 000A                       ?_TMR2_SetInterruptHandler 0060  
                           ??i1_TMR3_StartTimer 0006                       __end_ofi1_TMR1_WriteTimer 1A92  
                                     copy_data0 157C                           ?_INTERRUPT_Initialize 0001  
                  __size_of_carcontrol_throttle 0016                    __size_of_carcontrol_steering 0030  
                             i1_TMR3_WriteTimer 1A92                               ??_TMR2_Initialize 0062  
                                    ?_ping_init 0001                                      ?_ping_send 0001  
                            ?i1_TMR3_WriteTimer 0006                           pid_getResponse@pixels 00A7  
                                    _ADSTATbits 000F60                                        __Hrparam 0000  
                      __size_of_TMR3_WriteTimer 0020                                        __Lrparam 0000  
                            __CFG_BOREN$SBORDIS 000000                     ?i1_TMR3_SetInterruptHandler 0006  
                                    ?_timer_ISR 0001                       __end_ofi1_TMR3_StartTimer 1B9A  
                           ??i1_TMR3_WriteTimer 0008                         ??_OSCILLATOR_Initialize 0060  
                           _ping_CCP1_triggered 1442                                __size_of___fladd 030E  
                              __size_of___flmul 0354                                __size_of___fltol 00BC  
                   __size_of_EUSART1_Initialize 0046                                 _CCP1_CaptureISR 18EE  
                              __size_of_cam_get 0084                               ??_TMR3_Initialize 0062  
                      _TMR1_SetInterruptHandler 1B2A                           _TMR1_InterruptHandler 003E  
                     ??_EUSART1_SetErrorHandler 0062                                        _cam_init 1704  
                   _EUSART1_DefaultErrorHandler 000000                                        ___xxtofl 0BC0  
                              _CCP1_SetCallBack 1B5C                        __size_of_ADCC_Initialize 005E  
               ??_INTERRUPT_InterruptManagerLow 0031                  CCP1_SetCallBack@customCallBack 0060  
                                 ??i1_cam_start 0008              ADCC_SelectChannel@acquisitionDelay 0060  
                                      __ptext10 11BC                                        __ptext11 00A6  
                                      __ptext20 1B0C                                        __ptext12 074C  
                                      __ptext21 1ADC                                        __ptext13 173A  
                                    _T1GCONbits 000FCF                                        __ptext30 1B2A  
                                      __ptext22 1278                                        __ptext14 1AC6  
                                      __ptext31 1A5A                                        __ptext23 102A  
                                      __ptext15 1802                                        __ptext40 18C0  
                                      __ptext32 13D8                                        __ptext24 191A  
                                      __ptext16 12FC                                        __ptext41 1B5C  
                                      __ptext33 1B34                                        __ptext25 164E  
                                      __ptext17 19FC                                        __ptext50 1A3C  
                                      __ptext42 150A                                        __ptext34 1AAE  
                                      __ptext26 1B16                                        __ptext18 1B8E  
                                      __ptext51 1B00                                        __ptext35 1AEE  
                                      __ptext27 1892                                        __ptext19 1704  
                                      __ptext60 1BA0                                        __ptext52 196C  
                                      __ptext44 1832                                        __ptext36 1608  
                                      __ptext28 1B20                                        __ptext61 1442  
                                      __ptext53 1B9E                                        __ptext45 136A  
                                      __ptext37 1B3E                                        __ptext29 15C2  
                                      __ptext70 1992                                        __ptext62 0D04  
                                      __ptext54 176E                                        __ptext46 1B9A  
                                      __ptext38 1B48                                        __ptext71 1BA2  
                                      __ptext63 03FA                                        __ptext55 1A76  
                                      __ptext47 14A8                                        __ptext39 1B52  
                                      __ptext72 0F44                                        __ptext64 19B8  
                                      __ptext56 1B92                                        __ptext48 1862  
                                      __ptext73 0000                                        __ptext65 10FC  
                                      __ptext57 1B66                                        __ptext49 1B9C  
                                      __ptext66 1A92                                        __ptext58 1B70  
                                      __ptext67 1B96                                        __ptext59 18EE  
                                      __ptext68 1B7A                          ??_CCP1_DefaultCallBack 002F  
                          ?_ping_CCP1_triggered 002D                      pid_getResponse@der_min_loc 00B5  
                     __end_ofi1_TMR3_WriteTimer 1AAE                                        cam_get@i 0062  
                             ??_TMR1_StartTimer 0060                                      _T3GCONbits 000FC9  
                                    _IOCCF2_ISR 196C                         TMR3_WriteTimer@timerVal 0060  
                                   ??_cam_start 0062                                   __size_of_main 0100  
                         _ping_TMR1Overflow_isr 1A3C                        __size_of_carcontrol_init 0034  
                                      _pid_init 17D2                            __CFG_WDTCWS$WDTCWS_7 000000  
                                      _ping_get 17A2                              __CFG_BORV$VBOR_190 000000  
                            _ping_RC2_went_HIGH 176E                                      _RC1STAbits 000F9C  
            __end_ofi1_TMR1_SetInterruptHandler 1B70                      i1_TMR1_SetInterruptHandler 1B66  
EUSART1_SetOverrunErrorHandler@interruptHandler 0060                      __size_ofi1_TMR1_StartTimer 0004  
                     i1TMR3_WriteTimer@timerVal 0006                 ping_CCP1_triggered@timeOfFlight 002D  
                                      int$flags 0057                             ?_ping_RC2_went_HIGH 0001  
                             ??_TMR1_WriteTimer 0062            __end_of_TMR3_DefaultInterruptHandler 1B9C  
         __size_of_TMR3_DefaultInterruptHandler 0002                    _TMR3_DefaultInterruptHandler 1B9A  
                   _EUSART1_FramingErrorHandler 00D4                            pid_getResponse@error 00B8  
                                    _INTCONbits 000FF2            __end_ofi1_IOCCF2_SetInterruptHandler 1B7A  
         __size_ofi1_IOCCF2_SetInterruptHandler 000A                    i1_IOCCF2_SetInterruptHandler 1B70  
                               _CCP1_Initialize 18C0                __end_of_ADCC_SetInterruptHandler 1B16  
                        ??_INTERRUPT_Initialize 0060                           ??_ping_CCP1_triggered 002F  
                    __size_ofi1_TMR1_WriteTimer 001C                            ??_ping_RC2_went_HIGH 0008  
                             ??_TMR3_StartTimer 0060                                        intlevel1 0000  
                                      intlevel2 0000                             __end_ofi1_cam_start 150A  
                       ?_PIN_MANAGER_Initialize 0001                               __CFG_CLKOUTEN$OFF 000000  
                                   ??_ping_init 0062          __end_of_EUSART1_SetOverrunErrorHandler 1B48  
       __size_of_EUSART1_SetOverrunErrorHandler 000A                  _EUSART1_SetOverrunErrorHandler 1B3E  
                       __size_of_carcontrol_ISR 00E6                                     ??_ping_send 0062  
                       __end_of_CCP1_CaptureISR 191A                                     ??_timer_ISR 0008  
                    __size_ofi1_TMR3_StartTimer 0004  EUSART1_SetFramingErrorHandler@interruptHandler 0060  
                             ??_TMR3_WriteTimer 0062                              _eusart1RxLastError 00CF  
                   carcontrol_throttle@throttle 0060          __end_of_INTERRUPT_InterruptManagerHigh 1A3C  
       __size_of_INTERRUPT_InterruptManagerHigh 1A34                  _INTERRUPT_InterruptManagerHigh 0008  
                 ?_TMR3_DefaultInterruptHandler 0001                   ?i1_IOCCF2_SetInterruptHandler 0006  
                   ?_IOCCF2_SetInterruptHandler 0060                                      _TX1STAbits 000F9D  
                                 ___fladd@signs 00A3                      __size_ofi1_TMR3_WriteTimer 001C  
         __end_of_INTERRUPT_InterruptManagerLow 00A2          __size_of_INTERRUPT_InterruptManagerLow 008A  
                 _INTERRUPT_InterruptManagerLow 0018                                     ?_IOCCF2_ISR 0001  
                __end_of_PIN_MANAGER_Initialize 1442                               ??_ADCC_Initialize 0060  
                                 cam_get@i_2617 0064                          ?_ping_TMR1Overflow_isr 0001  
                                  ___fladd@aexp 00A4                                    ___fladd@bexp 00A5  
                               _PIN_MANAGER_IOC 1B00                           _TMR2_InterruptHandler 00D6  
                               _TMR1_Initialize 15C2  
