

Microchip MPLAB XC8 Assembler V2.05 build -831301201 
                                                                                               Thu Apr  4 23:50:33 2019

Microchip MPLAB XC8 C Compiler v2.05 (Free license) build 20181220022703 Og1 
     1                           	processor	18F25Q10
     2                           	fnconf	rparam,??,?,0
     3                           	opt	pw 120
     4                           	opt	flic
     5                           	psect	idataCOMRAM,global,class=CODE,delta=1,noexec
     6                           	psect	nvCOMRAM,global,class=COMRAM,space=1,delta=1,noexec
     7                           	psect	nvBANK0,global,class=BANK0,space=1,delta=1,lowdata,noexec
     8                           	psect	cinit,global,reloc=2,class=CODE,delta=1
     9                           	psect	bssCOMRAM,global,class=COMRAM,space=1,delta=1,noexec
    10                           	psect	dataCOMRAM,global,class=COMRAM,space=1,delta=1,noexec
    11                           	psect	cstackBANK0,global,class=BANK0,space=1,delta=1,noexec
    12                           	psect	cstackCOMRAM,global,class=COMRAM,space=1,delta=1,noexec
    13                           	psect	text0,global,reloc=2,class=CODE,delta=1
    14                           	psect	text1,global,reloc=2,class=CODE,delta=1
    15                           	psect	text2,global,reloc=2,class=CODE,delta=1
    16                           	psect	text3,global,reloc=2,class=CODE,delta=1,group=1
    17                           	psect	text4,global,reloc=2,class=CODE,delta=1,group=1
    18                           	psect	text5,global,reloc=2,class=CODE,delta=1
    19                           	psect	text6,global,reloc=2,class=CODE,delta=1
    20                           	psect	text7,global,reloc=2,class=CODE,delta=1
    21                           	psect	text8,global,reloc=2,class=CODE,delta=1,group=1
    22                           	psect	text9,global,reloc=2,class=CODE,delta=1,group=1
    23                           	psect	text10,global,reloc=2,class=CODE,delta=1,group=1
    24                           	psect	text11,global,reloc=2,class=CODE,delta=1
    25                           	psect	text12,global,reloc=2,class=CODE,delta=1
    26                           	psect	text13,global,reloc=2,class=CODE,delta=1
    27                           	psect	text14,global,reloc=2,class=CODE,delta=1
    28                           	psect	text15,global,reloc=2,class=CODE,delta=1
    29                           	psect	text16,global,reloc=2,class=CODE,delta=1
    30                           	psect	text17,global,reloc=2,class=CODE,delta=1
    31                           	psect	text18,global,reloc=2,class=CODE,delta=1
    32                           	psect	text19,global,reloc=2,class=CODE,delta=1
    33                           	psect	intcode,global,reloc=2,class=CODE,delta=1
    34                           	psect	text21,global,reloc=2,class=CODE,delta=1
    35                           	psect	text22,global,reloc=2,class=CODE,delta=1
    36                           	psect	text23,global,reloc=2,class=CODE,delta=1
    37                           	psect	text24,global,reloc=2,class=CODE,delta=1
    38                           	psect	text25,global,reloc=2,class=CODE,delta=1
    39                           	psect	text26,global,reloc=2,class=CODE,delta=1
    40                           	psect	text27,global,reloc=2,class=CODE,delta=1
    41                           	psect	text28,global,reloc=2,class=CODE,delta=1
    42                           	psect	text29,global,reloc=2,class=CODE,delta=1
    43                           	psect	text30,global,reloc=2,class=CODE,delta=1
    44                           	psect	text31,global,reloc=2,class=CODE,delta=1
    45                           	psect	intsave_regs,global,class=BIGRAM,space=1,delta=1,noexec
    46                           	psect	text32,global,reloc=2,class=CODE,delta=1
    47                           	psect	rparam,global,class=COMRAM,space=1,delta=1,noexec
    48                           	psect	temp,global,ovrld,common,class=COMRAM,space=1,delta=1
    49  0000                     
    50                           ; Version 2.05
    51                           ; Generated 20/12/2018 GMT
    52                           ; 
    53                           ; Copyright © 2018, Microchip Technology Inc. and its subsidiaries ("Microchip")
    54                           ; All rights reserved.
    55                           ; 
    56                           ; This software is developed by Microchip Technology Inc. and its subsidiaries ("Microch
      +                          ip").
    57                           ; 
    58                           ; Redistribution and use in source and binary forms, with or without modification, are
    59                           ; permitted provided that the following conditions are met:
    60                           ; 
    61                           ;     1. Redistributions of source code must retain the above copyright notice, this lis
      +                          t of
    62                           ;        conditions and the following disclaimer.
    63                           ; 
    64                           ;     2. Redistributions in binary form must reproduce the above copyright notice, this 
      +                          list
    65                           ;        of conditions and the following disclaimer in the documentation and/or other
    66                           ;        materials provided with the distribution.
    67                           ; 
    68                           ;     3. Microchip's name may not be used to endorse or promote products derived from th
      +                          is
    69                           ;        software without specific prior written permission.
    70                           ; 
    71                           ; THIS SOFTWARE IS PROVIDED BY MICROCHIP "AS IS" AND ANY EXPRESS OR IMPLIED WARRANTIES,
    72                           ; INCLUDING, BUT NOT LIMITED TO, THE IMPLIED WARRANTIES OF MERCHANTABILITY AND FITNESS F
      +                          OR
    73                           ; PURPOSE ARE DISCLAIMED.  IN NO EVENT SHALL MICROCHIP BE LIABLE FOR ANY DIRECT, INDIREC
      +                          T,
    74                           ; INCIDENTAL, SPECIAL, EXEMPLARY, OR CONSEQUENTIAL DAMAGES (INCLUDING BUT NOT LIMITED TO
    75                           ; PROCUREMENT OF SUBSTITUTE GOODS OR SERVICES; LOSS OF USE, DATA OR PROFITS; OR BUSINESS
    76                           ; INTERRUPTION) HOWSOEVER CAUSED AND ON ANY THEORY OF LIABILITY, WHETHER IN CONTRACT, ST
      +                          RICT
    77                           ; LIABILITY, OR TORT (INCLUDING NEGLIGENCE OR OTHERWISE) ARISING IN ANY WAY OUT OF THE U
      +                          SE OF
    78                           ; THIS SOFTWARE, EVEN IF ADVISED OF THE POSSIBILITY OF SUCH DAMAGE.
    79                           ; 
    80                           ; 
    81                           ; Code-generator required, PIC18F25Q10 Definitions
    82                           ; 
    83                           ; SFR Addresses
    84  0000                     
    85                           	psect	idataCOMRAM
    86  00102C                     __pidataCOMRAM:
    87                           	opt callstack 0
    88                           
    89                           ;initializer for _servo_max
    90  00102C  1C                 	db	28
    91                           
    92                           ;initializer for _servo_min
    93  00102D  E2                 	db	226
    94                           
    95                           ;initializer for _servo_trim
    96  00102E  EF                 	db	239
    97                           
    98                           	psect	nvCOMRAM
    99  00004E                     __pnvCOMRAM:
   100                           	opt callstack 0
   101  00004E                     _TMR2_InterruptHandler:
   102                           	opt callstack 0
   103  00004E                     	ds	2
   104  000050                     _IOCAF2_InterruptHandler:
   105                           	opt callstack 0
   106  000050                     	ds	2
   107                           
   108                           	psect	nvBANK0
   109  000074                     __pnvBANK0:
   110                           	opt callstack 0
   111  000074                     _timer3ReloadVal:
   112                           	opt callstack 0
   113  000074                     	ds	2
   114  0000                     _PIR0bits	set	3781
   115  0000                     _PIE4bits	set	3777
   116  0000                     _PIR4bits	set	3785
   117  0000                     _PIE0bits	set	3773
   118  0000                     _PMD5	set	3809
   119  0000                     _PMD4	set	3808
   120  0000                     _PMD3	set	3807
   121  0000                     _PMD2	set	3806
   122  0000                     _PMD1	set	3805
   123  0000                     _PMD0	set	3804
   124  0000                     _OSCTUNE	set	3800
   125  0000                     _OSCFRQ	set	3801
   126  0000                     _OSCEN	set	3799
   127  0000                     _OSCCON3	set	3797
   128  0000                     _OSCCON1	set	3795
   129  0000                     _IOCAPbits	set	3847
   130  0000                     _IOCANbits	set	3846
   131  0000                     _IOCAFbits	set	3845
   132  0000                     _SLRCONC	set	3865
   133  0000                     _SLRCONB	set	3857
   134  0000                     _SLRCONA	set	3849
   135  0000                     _ODCONC	set	3866
   136  0000                     _ODCONB	set	3858
   137  0000                     _ODCONA	set	3850
   138  0000                     _WPUC	set	3867
   139  0000                     _WPUA	set	3851
   140  0000                     _WPUB	set	3859
   141  0000                     _WPUE	set	3880
   142  0000                     _ANSELA	set	3852
   143  0000                     _ANSELB	set	3860
   144  0000                     _ANSELC	set	3868
   145  0000                     _T3GCONbits	set	4041
   146  0000                     _T3CONbits	set	4040
   147  0000                     _T3CON	set	4040
   148  0000                     _TMR3L	set	4038
   149  0000                     _TMR3H	set	4039
   150  0000                     _T3CLK	set	4043
   151  0000                     _T3GATE	set	4042
   152  0000                     _T3GCON	set	4041
   153  0000                     _TRISAbits	set	3975
   154  0000                     _PORTAbits	set	3980
   155  0000                     _LATAbits	set	3970
   156  0000                     _INTCONbits	set	4082
   157  0000                     _PR2	set	4027
   158  0000                     _TMR2	set	4026
   159  0000                     _T2CONbits	set	4028
   160  0000                     _T2RSTbits	set	4031
   161  0000                     _T2HLTbits	set	4029
   162  0000                     _T2CON	set	4028
   163  0000                     _T2TMR	set	4026
   164  0000                     _T2PR	set	4027
   165  0000                     _T2RST	set	4031
   166  0000                     _T2HLT	set	4029
   167  0000                     _T2CLKCON	set	4030
   168  0000                     _TRISC	set	3977
   169  0000                     _TRISB	set	3976
   170  0000                     _TRISA	set	3975
   171  0000                     _LATC	set	3972
   172  0000                     _LATB	set	3971
   173  0000                     _LATA	set	3970
   174                           
   175                           ; #config settings
   176  0000                     
   177                           	psect	cinit
   178  000DDC                     __pcinit:
   179                           	opt callstack 0
   180  000DDC                     start_initialization:
   181                           	opt callstack 0
   182  000DDC                     __initialization:
   183                           	opt callstack 0
   184                           
   185                           ; Initialize objects allocated to COMRAM (3 bytes)
   186                           ; load TBLPTR registers with __pidataCOMRAM
   187  000DDC  0E2C               	movlw	low __pidataCOMRAM
   188  000DDE  6EF6               	movwf	tblptrl,c
   189  000DE0  0E10               	movlw	high __pidataCOMRAM
   190  000DE2  6EF7               	movwf	tblptrh,c
   191  000DE4  0E00               	movlw	low (__pidataCOMRAM shr (0+16))
   192  000DE6  6EF8               	movwf	tblptru,c
   193  000DE8  0009               	tblrd		*+	;fetch initializer
   194  000DEA  CFF5 F052          	movff	tablat,__pdataCOMRAM
   195  000DEE  0009               	tblrd		*+	;fetch initializer
   196  000DF0  CFF5 F053          	movff	tablat,__pdataCOMRAM+1
   197  000DF4  0009               	tblrd		*+	;fetch initializer
   198  000DF6  CFF5 F054          	movff	tablat,__pdataCOMRAM+2
   199                           
   200                           ; Clear objects allocated to COMRAM (10 bytes)
   201  000DFA  EE00  F044         	lfsr	0,__pbssCOMRAM
   202  000DFE  0E0A               	movlw	10
   203  000E00                     clear_0:
   204  000E00  6AEE               	clrf	postinc0,c
   205  000E02  06E8               	decf	wreg,f,c
   206  000E04  E1FD               	bnz	clear_0
   207  000E06                     end_of_initialization:
   208                           	opt callstack 0
   209  000E06                     __end_of__initialization:
   210                           	opt callstack 0
   211  000E06  9055               	bcf	int$flags,0,c	;clear compiler interrupt flag (level 1)
   212  000E08  9255               	bcf	int$flags,1,c	;clear compiler interrupt flag (level 2)
   213  000E0A  0E00               	movlw	low (__Lmediumconst shr (0+16))
   214  000E0C  6EF8               	movwf	tblptru,c
   215  000E0E  0100               	movlb	0
   216  000E10  EF31  F005         	goto	_main	;jump to C main() function
   217                           
   218                           	psect	bssCOMRAM
   219  000044                     __pbssCOMRAM:
   220                           	opt callstack 0
   221  000044                     _carctl:
   222                           	opt callstack 0
   223  000044                     	ds	5
   224  000049                     _stateTime:
   225                           	opt callstack 0
   226  000049                     	ds	2
   227  00004B                     _read_ready:
   228                           	opt callstack 0
   229  00004B                     	ds	1
   230  00004C                     _time_val:
   231                           	opt callstack 0
   232  00004C                     	ds	2
   233                           
   234                           	psect	dataCOMRAM
   235  000052                     __pdataCOMRAM:
   236                           	opt callstack 0
   237  000052                     _servo_max:
   238                           	opt callstack 0
   239  000052                     	ds	1
   240  000053                     _servo_min:
   241                           	opt callstack 0
   242  000053                     	ds	1
   243  000054                     _servo_trim:
   244                           	opt callstack 0
   245  000054                     	ds	1
   246                           
   247                           	psect	cstackBANK0
   248  000060                     __pcstackBANK0:
   249                           	opt callstack 0
   250  000060                     ?___fltol:
   251                           	opt callstack 0
   252  000060                     ___fltol@f1:
   253                           	opt callstack 0
   254                           
   255                           ; 4 bytes @ 0x0
   256  000060                     	ds	4
   257  000064                     ??___fltol:
   258                           
   259                           ; 1 bytes @ 0x4
   260  000064                     	ds	4
   261  000068                     ??_main:
   262                           
   263                           ; 1 bytes @ 0x8
   264  000068                     	ds	2
   265  00006A                     main@cm_to_targ:
   266                           	opt callstack 0
   267                           
   268                           ; 4 bytes @ 0xA
   269  00006A                     	ds	4
   270  00006E                     main@dist:
   271                           	opt callstack 0
   272                           
   273                           ; 4 bytes @ 0xE
   274  00006E                     	ds	4
   275  000072                     main@angle:
   276                           	opt callstack 0
   277                           
   278                           ; 2 bytes @ 0x12
   279  000072                     	ds	2
   280                           
   281                           	psect	cstackCOMRAM
   282  000001                     __pcstackCOMRAM:
   283                           	opt callstack 0
   284  000001                     ??_carcontrol_ISR:
   285  000001                     ?_TMR3_ReadTimer:
   286                           	opt callstack 0
   287  000001                     TMR3_WriteTimer@timerVal:
   288                           	opt callstack 0
   289                           
   290                           ; 2 bytes @ 0x0
   291  000001                     	ds	2
   292  000003                     ??_TMR3_ReadTimer:
   293                           
   294                           ; 1 bytes @ 0x2
   295  000003                     	ds	1
   296  000004                     
   297                           ; 1 bytes @ 0x3
   298  000004                     	ds	1
   299  000005                     TMR3_ReadTimer@readVal:
   300                           	opt callstack 0
   301                           
   302                           ; 2 bytes @ 0x4
   303  000005                     	ds	2
   304  000007                     TMR3_ReadTimer@readValHigh:
   305                           	opt callstack 0
   306                           
   307                           ; 1 bytes @ 0x6
   308  000007                     	ds	1
   309  000008                     TMR3_ReadTimer@readValLow:
   310                           	opt callstack 0
   311                           
   312                           ; 1 bytes @ 0x7
   313  000008                     	ds	1
   314  000009                     ??_INTERRUPT_InterruptManager:
   315  000009                     
   316                           ; 1 bytes @ 0x8
   317  000009                     	ds	2
   318  00000B                     ??_TMR3_Initialize:
   319  00000B                     ?___fldiv:
   320                           	opt callstack 0
   321  00000B                     ?___xxtofl:
   322                           	opt callstack 0
   323  00000B                     carcontrol_steering@steering:
   324                           	opt callstack 0
   325  00000B                     carcontrol_throttle@throttle:
   326                           	opt callstack 0
   327  00000B                     IOCAF2_SetInterruptHandler@InterruptHandler:
   328                           	opt callstack 0
   329  00000B                     TMR2_SetInterruptHandler@InterruptHandler:
   330                           	opt callstack 0
   331  00000B                     ___fldiv@b:
   332                           	opt callstack 0
   333  00000B                     ___xxtofl@val:
   334                           	opt callstack 0
   335                           
   336                           ; 4 bytes @ 0xA
   337  00000B                     	ds	2
   338  00000D                     
   339                           ; 1 bytes @ 0xC
   340  00000D                     	ds	2
   341  00000F                     ??___xxtofl:
   342  00000F                     ___fldiv@a:
   343                           	opt callstack 0
   344                           
   345                           ; 4 bytes @ 0xE
   346  00000F                     	ds	4
   347  000013                     ??___fldiv:
   348  000013                     ___xxtofl@sign:
   349                           	opt callstack 0
   350                           
   351                           ; 1 bytes @ 0x12
   352  000013                     	ds	1
   353  000014                     ___xxtofl@exp:
   354                           	opt callstack 0
   355                           
   356                           ; 1 bytes @ 0x13
   357  000014                     	ds	1
   358  000015                     ___xxtofl@arg:
   359                           	opt callstack 0
   360                           
   361                           ; 4 bytes @ 0x14
   362  000015                     	ds	2
   363  000017                     ___fldiv@rem:
   364                           	opt callstack 0
   365                           
   366                           ; 4 bytes @ 0x16
   367  000017                     	ds	2
   368  000019                     ?___flmul:
   369                           	opt callstack 0
   370  000019                     ___flmul@b:
   371                           	opt callstack 0
   372                           
   373                           ; 4 bytes @ 0x18
   374  000019                     	ds	2
   375  00001B                     ___fldiv@sign:
   376                           	opt callstack 0
   377                           
   378                           ; 1 bytes @ 0x1A
   379  00001B                     	ds	1
   380  00001C                     ___fldiv@new_exp:
   381                           	opt callstack 0
   382                           
   383                           ; 2 bytes @ 0x1B
   384  00001C                     	ds	1
   385  00001D                     ___flmul@a:
   386                           	opt callstack 0
   387                           
   388                           ; 4 bytes @ 0x1C
   389  00001D                     	ds	1
   390  00001E                     ___fldiv@grs:
   391                           	opt callstack 0
   392                           
   393                           ; 4 bytes @ 0x1D
   394  00001E                     	ds	3
   395  000021                     ??___flmul:
   396                           
   397                           ; 1 bytes @ 0x20
   398  000021                     	ds	1
   399  000022                     ___fldiv@bexp:
   400                           	opt callstack 0
   401                           
   402                           ; 1 bytes @ 0x21
   403  000022                     	ds	1
   404  000023                     ___fldiv@aexp:
   405                           	opt callstack 0
   406                           
   407                           ; 1 bytes @ 0x22
   408  000023                     	ds	2
   409  000025                     ___flmul@sign:
   410                           	opt callstack 0
   411                           
   412                           ; 1 bytes @ 0x24
   413  000025                     	ds	1
   414  000026                     ___flmul@grs:
   415                           	opt callstack 0
   416                           
   417                           ; 4 bytes @ 0x25
   418  000026                     	ds	4
   419  00002A                     ___flmul@aexp:
   420                           	opt callstack 0
   421                           
   422                           ; 1 bytes @ 0x29
   423  00002A                     	ds	1
   424  00002B                     ___flmul@bexp:
   425                           	opt callstack 0
   426                           
   427                           ; 1 bytes @ 0x2A
   428  00002B                     	ds	1
   429  00002C                     ___flmul@prod:
   430                           	opt callstack 0
   431                           
   432                           ; 4 bytes @ 0x2B
   433  00002C                     	ds	4
   434  000030                     ___flmul@temp:
   435                           	opt callstack 0
   436                           
   437                           ; 2 bytes @ 0x2F
   438  000030                     	ds	2
   439  000032                     ?_ping:
   440                           	opt callstack 0
   441  000032                     ?___fladd:
   442                           	opt callstack 0
   443  000032                     ___fladd@b:
   444                           	opt callstack 0
   445                           
   446                           ; 4 bytes @ 0x31
   447  000032                     	ds	4
   448  000036                     ping@distance:
   449                           	opt callstack 0
   450  000036                     ___fladd@a:
   451                           	opt callstack 0
   452                           
   453                           ; 4 bytes @ 0x35
   454  000036                     	ds	4
   455  00003A                     ??___fladd:
   456                           
   457                           ; 1 bytes @ 0x39
   458  00003A                     	ds	4
   459  00003E                     ___fladd@signs:
   460                           	opt callstack 0
   461                           
   462                           ; 1 bytes @ 0x3D
   463  00003E                     	ds	1
   464  00003F                     ___fladd@aexp:
   465                           	opt callstack 0
   466                           
   467                           ; 1 bytes @ 0x3E
   468  00003F                     	ds	1
   469  000040                     ___fladd@bexp:
   470                           	opt callstack 0
   471                           
   472                           ; 1 bytes @ 0x3F
   473  000040                     	ds	1
   474  000041                     ___fladd@grs:
   475                           	opt callstack 0
   476                           
   477                           ; 1 bytes @ 0x40
   478  000041                     	ds	1
   479  000042                     ___fltol@sign1:
   480                           	opt callstack 0
   481                           
   482                           ; 1 bytes @ 0x41
   483  000042                     	ds	1
   484  000043                     ___fltol@exp1:
   485                           	opt callstack 0
   486                           
   487                           ; 1 bytes @ 0x42
   488  000043                     	ds	1
   489                           
   490 ;;
   491 ;;Main: autosize = 0, tempsize = 2, incstack = 0, save=0
   492 ;;
   493 ;; *************** function _main *****************
   494 ;; Defined at:
   495 ;;		line 51 in file "main.c"
   496 ;; Parameters:    Size  Location     Type
   497 ;;		None
   498 ;; Auto vars:     Size  Location     Type
   499 ;;  dist            4   14[BANK0 ] float 
   500 ;;  cm_to_targ      4   10[BANK0 ] float 
   501 ;;  angle           2   18[BANK0 ] int 
   502 ;; Return value:  Size  Location     Type
   503 ;;                  1    wreg      void 
   504 ;; Registers used:
   505 ;;		wreg, status,2, status,0, prodl, prodh, cstack
   506 ;; Tracked objects:
   507 ;;		On entry : 0/0
   508 ;;		On exit  : 0/0
   509 ;;		Unchanged: 0/0
   510 ;; Data sizes:     COMRAM   BANK0   BANK1   BANK2   BANK3   BANK4   BANK5   BANK6   BANK7
   511 ;;      Params:         0       0       0       0       0       0       0       0       0
   512 ;;      Locals:         0      10       0       0       0       0       0       0       0
   513 ;;      Temps:          0       2       0       0       0       0       0       0       0
   514 ;;      Totals:         0      12       0       0       0       0       0       0       0
   515 ;;Total ram usage:       12 bytes
   516 ;; Hardware stack levels required when called:    8
   517 ;; This function calls:
   518 ;;		_SYSTEM_Initialize
   519 ;;		___fladd
   520 ;;		___fldiv
   521 ;;		___flmul
   522 ;;		___fltol
   523 ;;		_carcontrol_init
   524 ;;		_carcontrol_steering
   525 ;;		_ping
   526 ;;		_ping_init
   527 ;; This function is called by:
   528 ;;		Startup code after reset
   529 ;; This function uses a non-reentrant model
   530 ;;
   531                           
   532                           	psect	text0
   533  000A62                     __ptext0:
   534                           	opt callstack 0
   535  000A62                     _main:
   536                           	opt callstack 23
   537                           
   538                           ;main.c: 54:     SYSTEM_Initialize();
   539                           
   540                           ;incstack = 0
   541  000A62  ECDE  F007         	call	_SYSTEM_Initialize	;wreg free
   542                           
   543                           ;main.c: 61:     (INTCONbits.GIE = 1);
   544  000A66  8EF2               	bsf	4082,7,c	;volatile
   545                           
   546                           ;main.c: 67:     (INTCONbits.PEIE = 1);
   547  000A68  8CF2               	bsf	4082,6,c	;volatile
   548                           
   549                           ;main.c: 72:     carcontrol_init();
   550  000A6A  EC25  F007         	call	_carcontrol_init	;wreg free
   551                           
   552                           ;main.c: 73:     ping_init();
   553  000A6E  ECB3  F007         	call	_ping_init	;wreg free
   554                           
   555                           ;main.c: 74:     _delay((unsigned long)((1000)*(64000000/4000.0)));
   556  000A72  0E52               	movlw	82
   557  000A74  0100               	movlb	0	; () banked
   558  000A76  6F69               	movwf	(??_main+1)& (0+255),b
   559  000A78  0E2B               	movlw	43
   560  000A7A  6F68               	movwf	??_main& (0+255),b
   561  000A7C  0E00               	movlw	0
   562  000A7E                     u2397:
   563  000A7E  2EE8               	decfsz	wreg,f,c
   564  000A80  D7FE               	bra	u2397
   565  000A82  2F68               	decfsz	??_main& (0+255),f,b
   566  000A84  D7FC               	bra	u2397
   567  000A86  2F69               	decfsz	(??_main+1)& (0+255),f,b
   568  000A88  D7FA               	bra	u2397
   569  000A8A  F000               	nop	
   570                           
   571                           ;main.c: 76:     carcontrol_steering(0);
   572  000A8C  0E00               	movlw	0
   573  000A8E  EC3C  F007         	call	_carcontrol_steering
   574                           
   575                           ;main.c: 78:     _delay((unsigned long)((10)*(64000000/4000000.0)));
   576  000A92  0E35               	movlw	53
   577  000A94                     u2407:
   578  000A94  2EE8               	decfsz	wreg,f,c
   579  000A96  D7FE               	bra	u2407
   580  000A98  F000               	nop	
   581                           
   582                           ;main.c: 81:     {;main.c: 82:         float cm_to_targ = ping();
   583  000A9A  EC84  F006         	call	_ping	;wreg free
   584  000A9E  C032  F06A         	movff	?_ping,main@cm_to_targ
   585  000AA2  C033  F06B         	movff	?_ping+1,main@cm_to_targ+1
   586  000AA6  C034  F06C         	movff	?_ping+2,main@cm_to_targ+2
   587  000AAA  C035  F06D         	movff	?_ping+3,main@cm_to_targ+3
   588                           
   589                           ;main.c: 83:         float dist = cm_to_targ/150;
   590  000AAE  C06A  F00B         	movff	main@cm_to_targ,___fldiv@b
   591  000AB2  C06B  F00C         	movff	main@cm_to_targ+1,___fldiv@b+1
   592  000AB6  C06C  F00D         	movff	main@cm_to_targ+2,___fldiv@b+2
   593  000ABA  C06D  F00E         	movff	main@cm_to_targ+3,___fldiv@b+3
   594  000ABE  0E00               	movlw	0
   595  000AC0  6E0F               	movwf	___fldiv@a,c
   596  000AC2  0E00               	movlw	0
   597  000AC4  6E10               	movwf	___fldiv@a+1,c
   598  000AC6  0E16               	movlw	22
   599  000AC8  6E11               	movwf	___fldiv@a+2,c
   600  000ACA  0E43               	movlw	67
   601  000ACC  6E12               	movwf	___fldiv@a+3,c
   602  000ACE  EC4D  F003         	call	___fldiv	;wreg free
   603  000AD2  C00B  F06E         	movff	?___fldiv,main@dist
   604  000AD6  C00C  F06F         	movff	?___fldiv+1,main@dist+1
   605  000ADA  C00D  F070         	movff	?___fldiv+2,main@dist+2
   606  000ADE  C00E  F071         	movff	?___fldiv+3,main@dist+3
   607                           
   608                           ;main.c: 85:         int angle = (dist*60)-30;
   609  000AE2  0E00               	movlw	0
   610  000AE4  6E36               	movwf	___fladd@a,c
   611  000AE6  0E00               	movlw	0
   612  000AE8  6E37               	movwf	___fladd@a+1,c
   613  000AEA  0EF0               	movlw	240
   614  000AEC  6E38               	movwf	___fladd@a+2,c
   615  000AEE  0EC1               	movlw	193
   616  000AF0  6E39               	movwf	___fladd@a+3,c
   617  000AF2  0E00               	movlw	0
   618  000AF4  6E1D               	movwf	___flmul@a,c
   619  000AF6  0E00               	movlw	0
   620  000AF8  6E1E               	movwf	___flmul@a+1,c
   621  000AFA  0E70               	movlw	112
   622  000AFC  6E1F               	movwf	___flmul@a+2,c
   623  000AFE  0E42               	movlw	66
   624  000B00  6E20               	movwf	___flmul@a+3,c
   625  000B02  C06E  F019         	movff	main@dist,___flmul@b
   626  000B06  C06F  F01A         	movff	main@dist+1,___flmul@b+1
   627  000B0A  C070  F01B         	movff	main@dist+2,___flmul@b+2
   628  000B0E  C071  F01C         	movff	main@dist+3,___flmul@b+3
   629  000B12  EC1E  F000         	call	___flmul	;wreg free
   630  000B16  C019  F032         	movff	?___flmul,___fladd@b
   631  000B1A  C01A  F033         	movff	?___flmul+1,___fladd@b+1
   632  000B1E  C01B  F034         	movff	?___flmul+2,___fladd@b+2
   633  000B22  C01C  F035         	movff	?___flmul+3,___fladd@b+3
   634  000B26  ECC7  F001         	call	___fladd	;wreg free
   635  000B2A  C032  F060         	movff	?___fladd,___fltol@f1
   636  000B2E  C033  F061         	movff	?___fladd+1,___fltol@f1+1
   637  000B32  C034  F062         	movff	?___fladd+2,___fltol@f1+2
   638  000B36  C035  F063         	movff	?___fladd+3,___fltol@f1+3
   639  000B3A  EC26  F006         	call	___fltol	;wreg free
   640  000B3E  C060  F072         	movff	?___fltol,main@angle
   641  000B42  C061  F073         	movff	?___fltol+1,main@angle+1
   642                           
   643                           ;main.c: 86:         carcontrol_steering(angle);
   644  000B46  0100               	movlb	0	; () banked
   645  000B48  5172               	movf	main@angle& (0+255),w,b
   646  000B4A  EC3C  F007         	call	_carcontrol_steering
   647                           
   648                           ;main.c: 88:         _delay((unsigned long)((100)*(64000000/4000.0)));
   649  000B4E  0E09               	movlw	9
   650  000B50  0100               	movlb	0	; () banked
   651  000B52  6F69               	movwf	(??_main+1)& (0+255),b
   652  000B54  0E1E               	movlw	30
   653  000B56  6F68               	movwf	??_main& (0+255),b
   654  000B58  0EE4               	movlw	228
   655  000B5A                     u2417:
   656  000B5A  2EE8               	decfsz	wreg,f,c
   657  000B5C  D7FE               	bra	u2417
   658  000B5E  2F68               	decfsz	??_main& (0+255),f,b
   659  000B60  D7FC               	bra	u2417
   660  000B62  2F69               	decfsz	(??_main+1)& (0+255),f,b
   661  000B64  D7FA               	bra	u2417
   662  000B66  D798               	goto	L1
   663  000B68                     __end_of_main:
   664                           	opt callstack 0
   665                           
   666 ;; *************** function _ping_init *****************
   667 ;; Defined at:
   668 ;;		line 24 in file "ping.c"
   669 ;; Parameters:    Size  Location     Type
   670 ;;		None
   671 ;; Auto vars:     Size  Location     Type
   672 ;;		None
   673 ;; Return value:  Size  Location     Type
   674 ;;                  1    wreg      void 
   675 ;; Registers used:
   676 ;;		wreg, status,2, status,0, cstack
   677 ;; Tracked objects:
   678 ;;		On entry : 0/0
   679 ;;		On exit  : 0/0
   680 ;;		Unchanged: 0/0
   681 ;; Data sizes:     COMRAM   BANK0   BANK1   BANK2   BANK3   BANK4   BANK5   BANK6   BANK7
   682 ;;      Params:         0       0       0       0       0       0       0       0       0
   683 ;;      Locals:         0       0       0       0       0       0       0       0       0
   684 ;;      Temps:          0       0       0       0       0       0       0       0       0
   685 ;;      Totals:         0       0       0       0       0       0       0       0       0
   686 ;;Total ram usage:        0 bytes
   687 ;; Hardware stack levels used:    1
   688 ;; Hardware stack levels required when called:    6
   689 ;; This function calls:
   690 ;;		_IOCAF2_SetInterruptHandler
   691 ;;		_TMR3_Initialize
   692 ;; This function is called by:
   693 ;;		_main
   694 ;; This function uses a non-reentrant model
   695 ;;
   696                           
   697                           	psect	text1
   698  000F66                     __ptext1:
   699                           	opt callstack 0
   700  000F66                     _ping_init:
   701                           	opt callstack 24
   702                           
   703                           ;ping.c: 25:     IOCAF2_SetInterruptHandler(ping_isr);
   704                           
   705                           ;incstack = 0
   706  000F66  0ED0               	movlw	low _ping_isr
   707  000F68  6E0B               	movwf	IOCAF2_SetInterruptHandler@InterruptHandler,c
   708  000F6A  0E0E               	movlw	high _ping_isr
   709  000F6C  6E0C               	movwf	IOCAF2_SetInterruptHandler@InterruptHandler+1,c
   710  000F6E  EC0B  F008         	call	_IOCAF2_SetInterruptHandler	;wreg free
   711                           
   712                           ;ping.c: 26:     TMR3_Initialize();
   713  000F72  EC0A  F007         	call	_TMR3_Initialize	;wreg free
   714                           
   715                           ;ping.c: 28:     read_ready = 0;
   716  000F76  0E00               	movlw	0
   717  000F78  6E4B               	movwf	_read_ready,c	;volatile
   718                           
   719                           ;ping.c: 29:     time_val = 0;
   720  000F7A  0E00               	movlw	0
   721  000F7C  6E4D               	movwf	_time_val+1,c	;volatile
   722  000F7E  0E00               	movlw	0
   723  000F80  6E4C               	movwf	_time_val,c	;volatile
   724  000F82  0012               	return		;funcret
   725  000F84                     __end_of_ping_init:
   726                           	opt callstack 0
   727                           
   728 ;; *************** function _ping *****************
   729 ;; Defined at:
   730 ;;		line 37 in file "ping.c"
   731 ;; Parameters:    Size  Location     Type
   732 ;;		None
   733 ;; Auto vars:     Size  Location     Type
   734 ;;  distance        4   53[COMRAM] float 
   735 ;; Return value:  Size  Location     Type
   736 ;;                  4   49[COMRAM] float 
   737 ;; Registers used:
   738 ;;		wreg, status,2, status,0, prodl, prodh, cstack
   739 ;; Tracked objects:
   740 ;;		On entry : 0/0
   741 ;;		On exit  : 0/0
   742 ;;		Unchanged: 0/0
   743 ;; Data sizes:     COMRAM   BANK0   BANK1   BANK2   BANK3   BANK4   BANK5   BANK6   BANK7
   744 ;;      Params:         4       0       0       0       0       0       0       0       0
   745 ;;      Locals:         4       0       0       0       0       0       0       0       0
   746 ;;      Temps:          0       0       0       0       0       0       0       0       0
   747 ;;      Totals:         8       0       0       0       0       0       0       0       0
   748 ;;Total ram usage:        8 bytes
   749 ;; Hardware stack levels used:    1
   750 ;; Hardware stack levels required when called:    6
   751 ;; This function calls:
   752 ;;		___flmul
   753 ;;		___xxtofl
   754 ;; This function is called by:
   755 ;;		_main
   756 ;; This function uses a non-reentrant model
   757 ;;
   758                           
   759                           	psect	text2
   760  000D08                     __ptext2:
   761                           	opt callstack 0
   762  000D08                     _ping:
   763                           	opt callstack 24
   764                           
   765                           ;incstack = 0
   766                           ;ping.c: 39:     do { LATAbits.LATA2 = 0; } while(0);
   767  000D08  9482               	bcf	3970,2,c	;volatile
   768                           
   769                           ;ping.c: 40:     do { TRISAbits.TRISA2 = 0; } while(0);
   770  000D0A  9487               	bcf	3975,2,c	;volatile
   771                           
   772                           ;ping.c: 41:     _delay((unsigned long)((2)*(64000000/4000000.0)));
   773  000D0C  0E0A               	movlw	10
   774  000D0E                     u2427:
   775  000D0E  2EE8               	decfsz	wreg,f,c
   776  000D10  D7FE               	bra	u2427
   777  000D12  D000               	nop2	
   778  000D14  8482               	bsf	3970,2,c	;volatile
   779                           
   780                           ;ping.c: 43:     _delay((unsigned long)((10)*(64000000/4000000.0)));
   781  000D16  0E35               	movlw	53
   782  000D18                     u2437:
   783  000D18  2EE8               	decfsz	wreg,f,c
   784  000D1A  D7FE               	bra	u2437
   785  000D1C  F000               	nop	
   786  000D1E  9482               	bcf	3970,2,c	;volatile
   787  000D20  8487               	bsf	3975,2,c	;volatile
   788  000D22                     l2284:
   789                           
   790                           ;ping.c: 48:     while (! read_ready) {
   791  000D22  504B               	movf	_read_ready,w,c	;volatile
   792  000D24  B4D8               	btfsc	status,2,c
   793  000D26  D7FD               	goto	l2284
   794                           
   795                           ;ping.c: 54:     read_ready = 0;
   796  000D28  0E00               	movlw	0
   797  000D2A  6E4B               	movwf	_read_ready,c	;volatile
   798                           
   799                           ;ping.c: 56:     float distance = 0.0000214375 * (float) time_val;
   800  000D2C  C04C  F00B         	movff	_time_val,___xxtofl@val	;volatile
   801  000D30  C04D  F00C         	movff	_time_val+1,___xxtofl@val+1	;volatile
   802  000D34  6A0D               	clrf	___xxtofl@val+2,c
   803  000D36  6A0E               	clrf	___xxtofl@val+3,c
   804  000D38  0E00               	movlw	0
   805  000D3A  EC91  F004         	call	___xxtofl
   806  000D3E  C00B  F019         	movff	?___xxtofl,___flmul@b
   807  000D42  C00C  F01A         	movff	?___xxtofl+1,___flmul@b+1
   808  000D46  C00D  F01B         	movff	?___xxtofl+2,___flmul@b+2
   809  000D4A  C00E  F01C         	movff	?___xxtofl+3,___flmul@b+3
   810  000D4E  0EAE               	movlw	174
   811  000D50  6E1D               	movwf	___flmul@a,c
   812  000D52  0ED4               	movlw	212
   813  000D54  6E1E               	movwf	___flmul@a+1,c
   814  000D56  0EB3               	movlw	179
   815  000D58  6E1F               	movwf	___flmul@a+2,c
   816  000D5A  0E37               	movlw	55
   817  000D5C  6E20               	movwf	___flmul@a+3,c
   818  000D5E  EC1E  F000         	call	___flmul	;wreg free
   819  000D62  C019  F036         	movff	?___flmul,ping@distance
   820  000D66  C01A  F037         	movff	?___flmul+1,ping@distance+1
   821  000D6A  C01B  F038         	movff	?___flmul+2,ping@distance+2
   822  000D6E  C01C  F039         	movff	?___flmul+3,ping@distance+3
   823                           
   824                           ;ping.c: 58:     return distance;
   825  000D72  C036  F032         	movff	ping@distance,?_ping
   826  000D76  C037  F033         	movff	ping@distance+1,?_ping+1
   827  000D7A  C038  F034         	movff	ping@distance+2,?_ping+2
   828  000D7E  C039  F035         	movff	ping@distance+3,?_ping+3
   829  000D82  0012               	return		;funcret
   830  000D84                     __end_of_ping:
   831                           	opt callstack 0
   832                           
   833 ;; *************** function ___xxtofl *****************
   834 ;; Defined at:
   835 ;;		line 10 in file "/Applications/microchip/xc8/v2.05/pic/sources/c99/common/xxtofl.c"
   836 ;; Parameters:    Size  Location     Type
   837 ;;  sign            1    wreg     unsigned char 
   838 ;;  val             4   10[COMRAM] long 
   839 ;; Auto vars:     Size  Location     Type
   840 ;;  sign            1   18[COMRAM] unsigned char 
   841 ;;  arg             4   20[COMRAM] unsigned long 
   842 ;;  exp             1   19[COMRAM] unsigned char 
   843 ;; Return value:  Size  Location     Type
   844 ;;                  4   10[COMRAM] unsigned char 
   845 ;; Registers used:
   846 ;;		wreg, status,2, status,0
   847 ;; Tracked objects:
   848 ;;		On entry : 0/0
   849 ;;		On exit  : 0/0
   850 ;;		Unchanged: 0/0
   851 ;; Data sizes:     COMRAM   BANK0   BANK1   BANK2   BANK3   BANK4   BANK5   BANK6   BANK7
   852 ;;      Params:         4       0       0       0       0       0       0       0       0
   853 ;;      Locals:         6       0       0       0       0       0       0       0       0
   854 ;;      Temps:          4       0       0       0       0       0       0       0       0
   855 ;;      Totals:        14       0       0       0       0       0       0       0       0
   856 ;;Total ram usage:       14 bytes
   857 ;; Hardware stack levels used:    1
   858 ;; Hardware stack levels required when called:    5
   859 ;; This function calls:
   860 ;;		Nothing
   861 ;; This function is called by:
   862 ;;		_ping
   863 ;; This function uses a non-reentrant model
   864 ;;
   865                           
   866                           	psect	text3
   867  000922                     __ptext3:
   868                           	opt callstack 0
   869  000922                     ___xxtofl:
   870                           	opt callstack 24
   871                           
   872                           ;incstack = 0
   873                           ;___xxtofl@sign stored from wreg
   874  000922  6E13               	movwf	___xxtofl@sign,c
   875  000924  5013               	movf	___xxtofl@sign,w,c
   876  000926  A4D8               	btfss	status,2,c
   877  000928  AE0E               	btfss	___xxtofl@val+3,7,c
   878  00092A  D01A               	goto	l1068
   879  00092C  C00B  F00F         	movff	___xxtofl@val,??___xxtofl
   880  000930  C00C  F010         	movff	___xxtofl@val+1,??___xxtofl+1
   881  000934  C00D  F011         	movff	___xxtofl@val+2,??___xxtofl+2
   882  000938  C00E  F012         	movff	___xxtofl@val+3,??___xxtofl+3
   883  00093C  1E0F               	comf	??___xxtofl,f,c
   884  00093E  1E10               	comf	??___xxtofl+1,f,c
   885  000940  1E11               	comf	??___xxtofl+2,f,c
   886  000942  1E12               	comf	??___xxtofl+3,f,c
   887  000944  2A0F               	incf	??___xxtofl,f,c
   888  000946  0E00               	movlw	0
   889  000948  2210               	addwfc	??___xxtofl+1,f,c
   890  00094A  2211               	addwfc	??___xxtofl+2,f,c
   891  00094C  2212               	addwfc	??___xxtofl+3,f,c
   892  00094E  C00F  F015         	movff	??___xxtofl,___xxtofl@arg
   893  000952  C010  F016         	movff	??___xxtofl+1,___xxtofl@arg+1
   894  000956  C011  F017         	movff	??___xxtofl+2,___xxtofl@arg+2
   895  00095A  C012  F018         	movff	??___xxtofl+3,___xxtofl@arg+3
   896  00095E  D008               	goto	l2204
   897  000960                     l1068:
   898  000960  C00B  F015         	movff	___xxtofl@val,___xxtofl@arg
   899  000964  C00C  F016         	movff	___xxtofl@val+1,___xxtofl@arg+1
   900  000968  C00D  F017         	movff	___xxtofl@val+2,___xxtofl@arg+2
   901  00096C  C00E  F018         	movff	___xxtofl@val+3,___xxtofl@arg+3
   902  000970                     l2204:
   903  000970  500B               	movf	___xxtofl@val,w,c
   904  000972  100C               	iorwf	___xxtofl@val+1,w,c
   905  000974  100D               	iorwf	___xxtofl@val+2,w,c
   906  000976  100E               	iorwf	___xxtofl@val+3,w,c
   907  000978  A4D8               	btfss	status,2,c
   908  00097A  D009               	goto	l2210
   909  00097C  0E00               	movlw	0
   910  00097E  6E0B               	movwf	?___xxtofl,c
   911  000980  0E00               	movlw	0
   912  000982  6E0C               	movwf	?___xxtofl+1,c
   913  000984  0E00               	movlw	0
   914  000986  6E0D               	movwf	?___xxtofl+2,c
   915  000988  0E00               	movlw	0
   916  00098A  6E0E               	movwf	?___xxtofl+3,c
   917  00098C  0012               	return	
   918  00098E                     l2210:
   919  00098E  0E96               	movlw	150
   920  000990  6E14               	movwf	___xxtofl@exp,c
   921  000992  D006               	goto	l2214
   922  000994                     l2212:
   923  000994  2A14               	incf	___xxtofl@exp,f,c
   924  000996  90D8               	bcf	status,0,c
   925  000998  3218               	rrcf	___xxtofl@arg+3,f,c
   926  00099A  3217               	rrcf	___xxtofl@arg+2,f,c
   927  00099C  3216               	rrcf	___xxtofl@arg+1,f,c
   928  00099E  3215               	rrcf	___xxtofl@arg,f,c
   929  0009A0                     l2214:
   930  0009A0  0E00               	movlw	0
   931  0009A2  1415               	andwf	___xxtofl@arg,w,c
   932  0009A4  6E0F               	movwf	??___xxtofl& (0+255),c
   933  0009A6  0E00               	movlw	0
   934  0009A8  1416               	andwf	___xxtofl@arg+1,w,c
   935  0009AA  6E10               	movwf	(??___xxtofl+1)& (0+255),c
   936  0009AC  0E00               	movlw	0
   937  0009AE  1417               	andwf	___xxtofl@arg+2,w,c
   938  0009B0  6E11               	movwf	(??___xxtofl+2)& (0+255),c
   939  0009B2  0EFE               	movlw	254
   940  0009B4  1418               	andwf	___xxtofl@arg+3,w,c
   941  0009B6  6E12               	movwf	(??___xxtofl+3)& (0+255),c
   942  0009B8  500F               	movf	??___xxtofl,w,c
   943  0009BA  1010               	iorwf	??___xxtofl+1,w,c
   944  0009BC  1011               	iorwf	??___xxtofl+2,w,c
   945  0009BE  1012               	iorwf	??___xxtofl+3,w,c
   946  0009C0  B4D8               	btfsc	status,2,c
   947  0009C2  D00D               	goto	l1075
   948  0009C4  D7E7               	goto	l2212
   949  0009C6                     l2216:
   950  0009C6  2A14               	incf	___xxtofl@exp,f,c
   951  0009C8  0E01               	movlw	1
   952  0009CA  2615               	addwf	___xxtofl@arg,f,c
   953  0009CC  0E00               	movlw	0
   954  0009CE  2216               	addwfc	___xxtofl@arg+1,f,c
   955  0009D0  2217               	addwfc	___xxtofl@arg+2,f,c
   956  0009D2  2218               	addwfc	___xxtofl@arg+3,f,c
   957  0009D4  90D8               	bcf	status,0,c
   958  0009D6  3218               	rrcf	___xxtofl@arg+3,f,c
   959  0009D8  3217               	rrcf	___xxtofl@arg+2,f,c
   960  0009DA  3216               	rrcf	___xxtofl@arg+1,f,c
   961  0009DC  3215               	rrcf	___xxtofl@arg,f,c
   962  0009DE                     l1075:
   963  0009DE  0E00               	movlw	0
   964  0009E0  1415               	andwf	___xxtofl@arg,w,c
   965  0009E2  6E0F               	movwf	??___xxtofl& (0+255),c
   966  0009E4  0E00               	movlw	0
   967  0009E6  1416               	andwf	___xxtofl@arg+1,w,c
   968  0009E8  6E10               	movwf	(??___xxtofl+1)& (0+255),c
   969  0009EA  0E00               	movlw	0
   970  0009EC  1417               	andwf	___xxtofl@arg+2,w,c
   971  0009EE  6E11               	movwf	(??___xxtofl+2)& (0+255),c
   972  0009F0  0EFF               	movlw	255
   973  0009F2  1418               	andwf	___xxtofl@arg+3,w,c
   974  0009F4  6E12               	movwf	(??___xxtofl+3)& (0+255),c
   975  0009F6  500F               	movf	??___xxtofl,w,c
   976  0009F8  1010               	iorwf	??___xxtofl+1,w,c
   977  0009FA  1011               	iorwf	??___xxtofl+2,w,c
   978  0009FC  1012               	iorwf	??___xxtofl+3,w,c
   979  0009FE  B4D8               	btfsc	status,2,c
   980  000A00  D007               	goto	l2224
   981  000A02  D7E1               	goto	l2216
   982  000A04                     l2222:
   983  000A04  0614               	decf	___xxtofl@exp,f,c
   984  000A06  90D8               	bcf	status,0,c
   985  000A08  3615               	rlcf	___xxtofl@arg,f,c
   986  000A0A  3616               	rlcf	___xxtofl@arg+1,f,c
   987  000A0C  3617               	rlcf	___xxtofl@arg+2,f,c
   988  000A0E  3618               	rlcf	___xxtofl@arg+3,f,c
   989  000A10                     l2224:
   990  000A10  BE17               	btfsc	___xxtofl@arg+2,7,c
   991  000A12  D003               	goto	u1520
   992  000A14  0E02               	movlw	2
   993  000A16  6014               	cpfslt	___xxtofl@exp,c
   994  000A18  D7F5               	goto	l2222
   995  000A1A                     u1520:
   996  000A1A  A014               	btfss	___xxtofl@exp,0,c
   997  000A1C  9E17               	bcf	___xxtofl@arg+2,7,c
   998  000A1E  90D8               	bcf	status,0,c
   999  000A20  3214               	rrcf	___xxtofl@exp,f,c
  1000  000A22  C014  F00F         	movff	___xxtofl@exp,??___xxtofl
  1001  000A26  6A10               	clrf	(??___xxtofl+1)& (0+255),c
  1002  000A28  6A11               	clrf	(??___xxtofl+2)& (0+255),c
  1003  000A2A  6A12               	clrf	(??___xxtofl+3)& (0+255),c
  1004  000A2C  C00F  F012         	movff	??___xxtofl,??___xxtofl+3
  1005  000A30  6A11               	clrf	??___xxtofl+2,c
  1006  000A32  6A10               	clrf	??___xxtofl+1,c
  1007  000A34  6A0F               	clrf	??___xxtofl,c
  1008  000A36  500F               	movf	??___xxtofl,w,c
  1009  000A38  1215               	iorwf	___xxtofl@arg,f,c
  1010  000A3A  5010               	movf	??___xxtofl+1,w,c
  1011  000A3C  1216               	iorwf	___xxtofl@arg+1,f,c
  1012  000A3E  5011               	movf	??___xxtofl+2,w,c
  1013  000A40  1217               	iorwf	___xxtofl@arg+2,f,c
  1014  000A42  5012               	movf	??___xxtofl+3,w,c
  1015  000A44  1218               	iorwf	___xxtofl@arg+3,f,c
  1016  000A46  5013               	movf	___xxtofl@sign,w,c
  1017  000A48  A4D8               	btfss	status,2,c
  1018  000A4A  AE0E               	btfss	___xxtofl@val+3,7,c
  1019  000A4C  D001               	goto	l2240
  1020  000A4E  8E18               	bsf	___xxtofl@arg+3,7,c
  1021  000A50                     l2240:
  1022  000A50  C015  F00B         	movff	___xxtofl@arg,?___xxtofl
  1023  000A54  C016  F00C         	movff	___xxtofl@arg+1,?___xxtofl+1
  1024  000A58  C017  F00D         	movff	___xxtofl@arg+2,?___xxtofl+2
  1025  000A5C  C018  F00E         	movff	___xxtofl@arg+3,?___xxtofl+3
  1026  000A60  0012               	return		;funcret
  1027  000A62                     __end_of___xxtofl:
  1028                           	opt callstack 0
  1029                           
  1030 ;; *************** function ___flmul *****************
  1031 ;; Defined at:
  1032 ;;		line 8 in file "/Applications/microchip/xc8/v2.05/pic/sources/c99/common/sprcmul.c"
  1033 ;; Parameters:    Size  Location     Type
  1034 ;;  b               4   24[COMRAM] unsigned char 
  1035 ;;  a               4   28[COMRAM] unsigned char 
  1036 ;; Auto vars:     Size  Location     Type
  1037 ;;  prod            4   43[COMRAM] struct .
  1038 ;;  grs             4   37[COMRAM] unsigned long 
  1039 ;;  temp            2   47[COMRAM] struct .
  1040 ;;  bexp            1   42[COMRAM] unsigned char 
  1041 ;;  aexp            1   41[COMRAM] unsigned char 
  1042 ;;  sign            1   36[COMRAM] unsigned char 
  1043 ;; Return value:  Size  Location     Type
  1044 ;;                  4   24[COMRAM] unsigned char 
  1045 ;; Registers used:
  1046 ;;		wreg, status,2, status,0, prodl, prodh
  1047 ;; Tracked objects:
  1048 ;;		On entry : 0/0
  1049 ;;		On exit  : 0/0
  1050 ;;		Unchanged: 0/0
  1051 ;; Data sizes:     COMRAM   BANK0   BANK1   BANK2   BANK3   BANK4   BANK5   BANK6   BANK7
  1052 ;;      Params:         8       0       0       0       0       0       0       0       0
  1053 ;;      Locals:        13       0       0       0       0       0       0       0       0
  1054 ;;      Temps:          4       0       0       0       0       0       0       0       0
  1055 ;;      Totals:        25       0       0       0       0       0       0       0       0
  1056 ;;Total ram usage:       25 bytes
  1057 ;; Hardware stack levels used:    1
  1058 ;; Hardware stack levels required when called:    5
  1059 ;; This function calls:
  1060 ;;		Nothing
  1061 ;; This function is called by:
  1062 ;;		_main
  1063 ;;		_ping
  1064 ;; This function uses a non-reentrant model
  1065 ;;
  1066                           
  1067                           	psect	text4
  1068  00003C                     __ptext4:
  1069                           	opt callstack 0
  1070  00003C                     ___flmul:
  1071                           	opt callstack 24
  1072                           
  1073                           ;incstack = 0
  1074  00003C  501C               	movf	___flmul@b+3,w,c
  1075  00003E  0B80               	andlw	128
  1076  000040  6E25               	movwf	___flmul@sign,c
  1077  000042  501C               	movf	___flmul@b+3,w,c
  1078  000044  241C               	addwf	___flmul@b+3,w,c
  1079  000046  6E2B               	movwf	___flmul@bexp,c
  1080  000048  BE1B               	btfsc	___flmul@b+2,7,c
  1081  00004A  802B               	bsf	___flmul@bexp,0,c
  1082  00004C  502B               	movf	___flmul@bexp,w,c
  1083  00004E  B4D8               	btfsc	status,2,c
  1084  000050  D00D               	goto	l2082
  1085  000052  282B               	incf	___flmul@bexp,w,c
  1086  000054  A4D8               	btfss	status,2,c
  1087  000056  D008               	goto	l2080
  1088  000058  0E00               	movlw	0
  1089  00005A  6E19               	movwf	___flmul@b,c
  1090  00005C  0E00               	movlw	0
  1091  00005E  6E1A               	movwf	___flmul@b+1,c
  1092  000060  0E00               	movlw	0
  1093  000062  6E1B               	movwf	___flmul@b+2,c
  1094  000064  0E00               	movlw	0
  1095  000066  6E1C               	movwf	___flmul@b+3,c
  1096  000068                     l2080:
  1097  000068  8E1B               	bsf	___flmul@b+2,7,c
  1098  00006A  D008               	goto	l2084
  1099  00006C                     l2082:
  1100  00006C  0E00               	movlw	0
  1101  00006E  6E19               	movwf	___flmul@b,c
  1102  000070  0E00               	movlw	0
  1103  000072  6E1A               	movwf	___flmul@b+1,c
  1104  000074  0E00               	movlw	0
  1105  000076  6E1B               	movwf	___flmul@b+2,c
  1106  000078  0E00               	movlw	0
  1107  00007A  6E1C               	movwf	___flmul@b+3,c
  1108  00007C                     l2084:
  1109  00007C  5020               	movf	___flmul@a+3,w,c
  1110  00007E  0B80               	andlw	128
  1111  000080  1A25               	xorwf	___flmul@sign,f,c
  1112  000082  5020               	movf	___flmul@a+3,w,c
  1113  000084  2420               	addwf	___flmul@a+3,w,c
  1114  000086  6E2A               	movwf	___flmul@aexp,c
  1115  000088  BE1F               	btfsc	___flmul@a+2,7,c
  1116  00008A  802A               	bsf	___flmul@aexp,0,c
  1117  00008C  502A               	movf	___flmul@aexp,w,c
  1118  00008E  B4D8               	btfsc	status,2,c
  1119  000090  D00D               	goto	l2100
  1120  000092  282A               	incf	___flmul@aexp,w,c
  1121  000094  A4D8               	btfss	status,2,c
  1122  000096  D008               	goto	l2098
  1123  000098  0E00               	movlw	0
  1124  00009A  6E1D               	movwf	___flmul@a,c
  1125  00009C  0E00               	movlw	0
  1126  00009E  6E1E               	movwf	___flmul@a+1,c
  1127  0000A0  0E00               	movlw	0
  1128  0000A2  6E1F               	movwf	___flmul@a+2,c
  1129  0000A4  0E00               	movlw	0
  1130  0000A6  6E20               	movwf	___flmul@a+3,c
  1131  0000A8                     l2098:
  1132  0000A8  8E1F               	bsf	___flmul@a+2,7,c
  1133  0000AA  D008               	goto	l1027
  1134  0000AC                     l2100:
  1135  0000AC  0E00               	movlw	0
  1136  0000AE  6E1D               	movwf	___flmul@a,c
  1137  0000B0  0E00               	movlw	0
  1138  0000B2  6E1E               	movwf	___flmul@a+1,c
  1139  0000B4  0E00               	movlw	0
  1140  0000B6  6E1F               	movwf	___flmul@a+2,c
  1141  0000B8  0E00               	movlw	0
  1142  0000BA  6E20               	movwf	___flmul@a+3,c
  1143  0000BC                     l1027:
  1144  0000BC  502A               	movf	___flmul@aexp,w,c
  1145  0000BE  B4D8               	btfsc	status,2,c
  1146  0000C0  D003               	goto	u1340
  1147  0000C2  502B               	movf	___flmul@bexp,w,c
  1148  0000C4  A4D8               	btfss	status,2,c
  1149  0000C6  D009               	goto	l2108
  1150  0000C8                     u1340:
  1151  0000C8  0E00               	movlw	0
  1152  0000CA  6E19               	movwf	?___flmul,c
  1153  0000CC  0E00               	movlw	0
  1154  0000CE  6E1A               	movwf	?___flmul+1,c
  1155  0000D0  0E00               	movlw	0
  1156  0000D2  6E1B               	movwf	?___flmul+2,c
  1157  0000D4  0E00               	movlw	0
  1158  0000D6  6E1C               	movwf	?___flmul+3,c
  1159  0000D8  0012               	return	
  1160  0000DA                     l2108:
  1161  0000DA  501F               	movf	___flmul@a+2,w,c
  1162  0000DC  0219               	mulwf	___flmul@b,c
  1163  0000DE  CFF3 F030          	movff	prodl,___flmul@temp
  1164  0000E2  CFF4 F031          	movff	prodh,___flmul@temp+1
  1165  0000E6  5030               	movf	___flmul@temp,w,c
  1166  0000E8  6E26               	movwf	___flmul@grs,c
  1167  0000EA  6A27               	clrf	___flmul@grs+1,c
  1168  0000EC  6A28               	clrf	___flmul@grs+2,c
  1169  0000EE  6A29               	clrf	___flmul@grs+3,c
  1170  0000F0  5031               	movf	___flmul@temp+1,w,c
  1171  0000F2  6E2C               	movwf	___flmul@prod,c
  1172  0000F4  6A2D               	clrf	___flmul@prod+1,c
  1173  0000F6  6A2E               	clrf	___flmul@prod+2,c
  1174  0000F8  6A2F               	clrf	___flmul@prod+3,c
  1175  0000FA  501E               	movf	___flmul@a+1,w,c
  1176  0000FC  021A               	mulwf	___flmul@b+1,c
  1177  0000FE  CFF3 F030          	movff	prodl,___flmul@temp
  1178  000102  CFF4 F031          	movff	prodh,___flmul@temp+1
  1179  000106  5030               	movf	___flmul@temp,w,c
  1180  000108  2626               	addwf	___flmul@grs,f,c
  1181  00010A  0E00               	movlw	0
  1182  00010C  2227               	addwfc	___flmul@grs+1,f,c
  1183  00010E  2228               	addwfc	___flmul@grs+2,f,c
  1184  000110  2229               	addwfc	___flmul@grs+3,f,c
  1185  000112  5031               	movf	___flmul@temp+1,w,c
  1186  000114  262C               	addwf	___flmul@prod,f,c
  1187  000116  0E00               	movlw	0
  1188  000118  222D               	addwfc	___flmul@prod+1,f,c
  1189  00011A  222E               	addwfc	___flmul@prod+2,f,c
  1190  00011C  222F               	addwfc	___flmul@prod+3,f,c
  1191  00011E  501D               	movf	___flmul@a,w,c
  1192  000120  021B               	mulwf	___flmul@b+2,c
  1193  000122  CFF3 F030          	movff	prodl,___flmul@temp
  1194  000126  CFF4 F031          	movff	prodh,___flmul@temp+1
  1195  00012A  5030               	movf	___flmul@temp,w,c
  1196  00012C  2626               	addwf	___flmul@grs,f,c
  1197  00012E  0E00               	movlw	0
  1198  000130  2227               	addwfc	___flmul@grs+1,f,c
  1199  000132  2228               	addwfc	___flmul@grs+2,f,c
  1200  000134  2229               	addwfc	___flmul@grs+3,f,c
  1201  000136  5031               	movf	___flmul@temp+1,w,c
  1202  000138  262C               	addwf	___flmul@prod,f,c
  1203  00013A  0E00               	movlw	0
  1204  00013C  222D               	addwfc	___flmul@prod+1,f,c
  1205  00013E  222E               	addwfc	___flmul@prod+2,f,c
  1206  000140  222F               	addwfc	___flmul@prod+3,f,c
  1207  000142  C028  F029         	movff	___flmul@grs+2,___flmul@grs+3
  1208  000146  C027  F028         	movff	___flmul@grs+1,___flmul@grs+2
  1209  00014A  C026  F027         	movff	___flmul@grs,___flmul@grs+1
  1210  00014E  6A26               	clrf	___flmul@grs,c
  1211  000150  501D               	movf	___flmul@a,w,c
  1212  000152  021A               	mulwf	___flmul@b+1,c
  1213  000154  CFF3 F030          	movff	prodl,___flmul@temp
  1214  000158  CFF4 F031          	movff	prodh,___flmul@temp+1
  1215  00015C  5030               	movf	___flmul@temp,w,c
  1216  00015E  2626               	addwf	___flmul@grs,f,c
  1217  000160  5031               	movf	___flmul@temp+1,w,c
  1218  000162  2227               	addwfc	___flmul@grs+1,f,c
  1219  000164  0E00               	movlw	0
  1220  000166  2228               	addwfc	___flmul@grs+2,f,c
  1221  000168  0E00               	movlw	0
  1222  00016A  2229               	addwfc	___flmul@grs+3,f,c
  1223  00016C  501E               	movf	___flmul@a+1,w,c
  1224  00016E  0219               	mulwf	___flmul@b,c
  1225  000170  CFF3 F030          	movff	prodl,___flmul@temp
  1226  000174  CFF4 F031          	movff	prodh,___flmul@temp+1
  1227  000178  5030               	movf	___flmul@temp,w,c
  1228  00017A  2626               	addwf	___flmul@grs,f,c
  1229  00017C  5031               	movf	___flmul@temp+1,w,c
  1230  00017E  2227               	addwfc	___flmul@grs+1,f,c
  1231  000180  0E00               	movlw	0
  1232  000182  2228               	addwfc	___flmul@grs+2,f,c
  1233  000184  0E00               	movlw	0
  1234  000186  2229               	addwfc	___flmul@grs+3,f,c
  1235  000188  C028  F029         	movff	___flmul@grs+2,___flmul@grs+3
  1236  00018C  C027  F028         	movff	___flmul@grs+1,___flmul@grs+2
  1237  000190  C026  F027         	movff	___flmul@grs,___flmul@grs+1
  1238  000194  6A26               	clrf	___flmul@grs,c
  1239  000196  501D               	movf	___flmul@a,w,c
  1240  000198  0219               	mulwf	___flmul@b,c
  1241  00019A  CFF3 F030          	movff	prodl,___flmul@temp
  1242  00019E  CFF4 F031          	movff	prodh,___flmul@temp+1
  1243  0001A2  5030               	movf	___flmul@temp,w,c
  1244  0001A4  2626               	addwf	___flmul@grs,f,c
  1245  0001A6  5031               	movf	___flmul@temp+1,w,c
  1246  0001A8  2227               	addwfc	___flmul@grs+1,f,c
  1247  0001AA  0E00               	movlw	0
  1248  0001AC  2228               	addwfc	___flmul@grs+2,f,c
  1249  0001AE  0E00               	movlw	0
  1250  0001B0  2229               	addwfc	___flmul@grs+3,f,c
  1251  0001B2  501F               	movf	___flmul@a+2,w,c
  1252  0001B4  021A               	mulwf	___flmul@b+1,c
  1253  0001B6  CFF3 F030          	movff	prodl,___flmul@temp
  1254  0001BA  CFF4 F031          	movff	prodh,___flmul@temp+1
  1255  0001BE  5030               	movf	___flmul@temp,w,c
  1256  0001C0  262C               	addwf	___flmul@prod,f,c
  1257  0001C2  5031               	movf	___flmul@temp+1,w,c
  1258  0001C4  222D               	addwfc	___flmul@prod+1,f,c
  1259  0001C6  0E00               	movlw	0
  1260  0001C8  222E               	addwfc	___flmul@prod+2,f,c
  1261  0001CA  0E00               	movlw	0
  1262  0001CC  222F               	addwfc	___flmul@prod+3,f,c
  1263  0001CE  501E               	movf	___flmul@a+1,w,c
  1264  0001D0  021B               	mulwf	___flmul@b+2,c
  1265  0001D2  CFF3 F030          	movff	prodl,___flmul@temp
  1266  0001D6  CFF4 F031          	movff	prodh,___flmul@temp+1
  1267  0001DA  5030               	movf	___flmul@temp,w,c
  1268  0001DC  262C               	addwf	___flmul@prod,f,c
  1269  0001DE  5031               	movf	___flmul@temp+1,w,c
  1270  0001E0  222D               	addwfc	___flmul@prod+1,f,c
  1271  0001E2  0E00               	movlw	0
  1272  0001E4  222E               	addwfc	___flmul@prod+2,f,c
  1273  0001E6  0E00               	movlw	0
  1274  0001E8  222F               	addwfc	___flmul@prod+3,f,c
  1275  0001EA  501F               	movf	___flmul@a+2,w,c
  1276  0001EC  021B               	mulwf	___flmul@b+2,c
  1277  0001EE  CFF3 F030          	movff	prodl,___flmul@temp
  1278  0001F2  CFF4 F031          	movff	prodh,___flmul@temp+1
  1279  0001F6  5030               	movf	___flmul@temp,w,c
  1280  0001F8  6E21               	movwf	??___flmul& (0+255),c
  1281  0001FA  5031               	movf	___flmul@temp+1,w,c
  1282  0001FC  6E22               	movwf	(??___flmul+1)& (0+255),c
  1283  0001FE  6A23               	clrf	(??___flmul+2)& (0+255),c
  1284  000200  6A24               	clrf	(??___flmul+3)& (0+255),c
  1285  000202  C023  F024         	movff	??___flmul+2,??___flmul+3
  1286  000206  C022  F023         	movff	??___flmul+1,??___flmul+2
  1287  00020A  C021  F022         	movff	??___flmul,??___flmul+1
  1288  00020E  6A21               	clrf	??___flmul,c
  1289  000210  5021               	movf	??___flmul,w,c
  1290  000212  262C               	addwf	___flmul@prod,f,c
  1291  000214  5022               	movf	??___flmul+1,w,c
  1292  000216  222D               	addwfc	___flmul@prod+1,f,c
  1293  000218  5023               	movf	??___flmul+2,w,c
  1294  00021A  222E               	addwfc	___flmul@prod+2,f,c
  1295  00021C  5024               	movf	??___flmul+3,w,c
  1296  00021E  222F               	addwfc	___flmul@prod+3,f,c
  1297  000220  C026  F021         	movff	___flmul@grs,??___flmul
  1298  000224  C027  F022         	movff	___flmul@grs+1,??___flmul+1
  1299  000228  C028  F023         	movff	___flmul@grs+2,??___flmul+2
  1300  00022C  C029  F024         	movff	___flmul@grs+3,??___flmul+3
  1301  000230  0E19               	movlw	25
  1302  000232  D005               	goto	u1350
  1303  000234                     u1355:
  1304  000234  90D8               	bcf	status,0,c
  1305  000236  3224               	rrcf	??___flmul+3,f,c
  1306  000238  3223               	rrcf	??___flmul+2,f,c
  1307  00023A  3222               	rrcf	??___flmul+1,f,c
  1308  00023C  3221               	rrcf	??___flmul,f,c
  1309  00023E                     u1350:
  1310  00023E  2EE8               	decfsz	wreg,f,c
  1311  000240  D7F9               	goto	u1355
  1312  000242  5021               	movf	??___flmul,w,c
  1313  000244  262C               	addwf	___flmul@prod,f,c
  1314  000246  5022               	movf	??___flmul+1,w,c
  1315  000248  222D               	addwfc	___flmul@prod+1,f,c
  1316  00024A  5023               	movf	??___flmul+2,w,c
  1317  00024C  222E               	addwfc	___flmul@prod+2,f,c
  1318  00024E  5024               	movf	??___flmul+3,w,c
  1319  000250  222F               	addwfc	___flmul@prod+3,f,c
  1320  000252  C028  F029         	movff	___flmul@grs+2,___flmul@grs+3
  1321  000256  C027  F028         	movff	___flmul@grs+1,___flmul@grs+2
  1322  00025A  C026  F027         	movff	___flmul@grs,___flmul@grs+1
  1323  00025E  6A26               	clrf	___flmul@grs,c
  1324  000260  502A               	movf	___flmul@aexp,w,c
  1325  000262  C02B  F021         	movff	___flmul@bexp,??___flmul
  1326  000266  6A22               	clrf	(??___flmul+1)& (0+255),c
  1327  000268  2621               	addwf	??___flmul,f,c
  1328  00026A  0E00               	movlw	0
  1329  00026C  2222               	addwfc	??___flmul+1,f,c
  1330  00026E  0E82               	movlw	130
  1331  000270  2421               	addwf	??___flmul,w,c
  1332  000272  6E30               	movwf	___flmul@temp,c
  1333  000274  0EFF               	movlw	255
  1334  000276  2022               	addwfc	??___flmul+1,w,c
  1335  000278  6E31               	movwf	___flmul@temp+1,c
  1336  00027A  D00F               	goto	l2156
  1337  00027C                     l2150:
  1338  00027C  90D8               	bcf	status,0,c
  1339  00027E  362C               	rlcf	___flmul@prod,f,c
  1340  000280  362D               	rlcf	___flmul@prod+1,f,c
  1341  000282  362E               	rlcf	___flmul@prod+2,f,c
  1342  000284  362F               	rlcf	___flmul@prod+3,f,c
  1343  000286  BE29               	btfsc	___flmul@grs+3,7,c
  1344  000288  802C               	bsf	___flmul@prod,0,c
  1345  00028A  90D8               	bcf	status,0,c
  1346  00028C  3626               	rlcf	___flmul@grs,f,c
  1347  00028E  3627               	rlcf	___flmul@grs+1,f,c
  1348  000290  3628               	rlcf	___flmul@grs+2,f,c
  1349  000292  3629               	rlcf	___flmul@grs+3,f,c
  1350  000294  0630               	decf	___flmul@temp,f,c
  1351  000296  A0D8               	btfss	status,0,c
  1352  000298  0631               	decf	___flmul@temp+1,f,c
  1353  00029A                     l2156:
  1354  00029A  AE2E               	btfss	___flmul@prod+2,7,c
  1355  00029C  D7EF               	goto	l2150
  1356  00029E  0E00               	movlw	0
  1357  0002A0  6E2A               	movwf	___flmul@aexp,c
  1358  0002A2  AE29               	btfss	___flmul@grs+3,7,c
  1359  0002A4  D017               	goto	l1036
  1360  0002A6  0EFF               	movlw	255
  1361  0002A8  1426               	andwf	___flmul@grs,w,c
  1362  0002AA  6E21               	movwf	??___flmul& (0+255),c
  1363  0002AC  0EFF               	movlw	255
  1364  0002AE  1427               	andwf	___flmul@grs+1,w,c
  1365  0002B0  6E22               	movwf	(??___flmul+1)& (0+255),c
  1366  0002B2  0EFF               	movlw	255
  1367  0002B4  1428               	andwf	___flmul@grs+2,w,c
  1368  0002B6  6E23               	movwf	(??___flmul+2)& (0+255),c
  1369  0002B8  0E7F               	movlw	127
  1370  0002BA  1429               	andwf	___flmul@grs+3,w,c
  1371  0002BC  6E24               	movwf	(??___flmul+3)& (0+255),c
  1372  0002BE  5021               	movf	??___flmul,w,c
  1373  0002C0  1022               	iorwf	??___flmul+1,w,c
  1374  0002C2  1023               	iorwf	??___flmul+2,w,c
  1375  0002C4  1024               	iorwf	??___flmul+3,w,c
  1376  0002C6  B4D8               	btfsc	status,2,c
  1377  0002C8  D003               	goto	l1037
  1378  0002CA                     u1390:
  1379  0002CA  0E01               	movlw	1
  1380  0002CC  6E2A               	movwf	___flmul@aexp,c
  1381  0002CE  D002               	goto	l1036
  1382  0002D0                     l1037:
  1383  0002D0  B02C               	btfsc	___flmul@prod,0,c
  1384  0002D2  D7FB               	goto	u1390
  1385  0002D4                     l1036:
  1386  0002D4  502A               	movf	___flmul@aexp,w,c
  1387  0002D6  B4D8               	btfsc	status,2,c
  1388  0002D8  D01F               	goto	l2176
  1389  0002DA  0E01               	movlw	1
  1390  0002DC  262C               	addwf	___flmul@prod,f,c
  1391  0002DE  0E00               	movlw	0
  1392  0002E0  222D               	addwfc	___flmul@prod+1,f,c
  1393  0002E2  222E               	addwfc	___flmul@prod+2,f,c
  1394  0002E4  222F               	addwfc	___flmul@prod+3,f,c
  1395  0002E6  A02F               	btfss	___flmul@prod+3,0,c
  1396  0002E8  D017               	goto	l2176
  1397  0002EA  C02C  F021         	movff	___flmul@prod,??___flmul
  1398  0002EE  C02D  F022         	movff	___flmul@prod+1,??___flmul+1
  1399  0002F2  C02E  F023         	movff	___flmul@prod+2,??___flmul+2
  1400  0002F6  C02F  F024         	movff	___flmul@prod+3,??___flmul+3
  1401  0002FA  3424               	rlcf	??___flmul+3,w,c
  1402  0002FC  3224               	rrcf	??___flmul+3,f,c
  1403  0002FE  3223               	rrcf	??___flmul+2,f,c
  1404  000300  3222               	rrcf	??___flmul+1,f,c
  1405  000302  3221               	rrcf	??___flmul,f,c
  1406  000304  C021  F02C         	movff	??___flmul,___flmul@prod
  1407  000308  C022  F02D         	movff	??___flmul+1,___flmul@prod+1
  1408  00030C  C023  F02E         	movff	??___flmul+2,___flmul@prod+2
  1409  000310  C024  F02F         	movff	??___flmul+3,___flmul@prod+3
  1410  000314  4A30               	infsnz	___flmul@temp,f,c
  1411  000316  2A31               	incf	___flmul@temp+1,f,c
  1412  000318                     l2176:
  1413  000318  BE31               	btfsc	___flmul@temp+1,7,c
  1414  00031A  D00D               	goto	l2180
  1415  00031C  5031               	movf	___flmul@temp+1,w,c
  1416  00031E  E103               	bnz	u1430
  1417  000320  2830               	incf	___flmul@temp,w,c
  1418  000322  A0D8               	btfss	status,0,c
  1419  000324  D008               	goto	l2180
  1420  000326                     u1430:
  1421  000326  0E00               	movlw	0
  1422  000328  6E2C               	movwf	___flmul@prod,c
  1423  00032A  0E00               	movlw	0
  1424  00032C  6E2D               	movwf	___flmul@prod+1,c
  1425  00032E  0E80               	movlw	128
  1426  000330  6E2E               	movwf	___flmul@prod+2,c
  1427  000332  0E7F               	movlw	127
  1428  000334  D020               	goto	L2
  1429  000336                     l2180:
  1430  000336  BE31               	btfsc	___flmul@temp+1,7,c
  1431  000338  D005               	goto	u1440
  1432  00033A  5031               	movf	___flmul@temp+1,w,c
  1433  00033C  E10E               	bnz	l1044
  1434  00033E  0430               	decf	___flmul@temp,w,c
  1435  000340  B0D8               	btfsc	status,0,c
  1436  000342  D00B               	goto	l1044
  1437  000344                     u1440:
  1438  000344  0E00               	movlw	0
  1439  000346  6E2C               	movwf	___flmul@prod,c
  1440  000348  0E00               	movlw	0
  1441  00034A  6E2D               	movwf	___flmul@prod+1,c
  1442  00034C  0E00               	movlw	0
  1443  00034E  6E2E               	movwf	___flmul@prod+2,c
  1444  000350  0E00               	movlw	0
  1445  000352  6E2F               	movwf	___flmul@prod+3,c
  1446  000354  0E00               	movlw	0
  1447  000356  6E25               	movwf	___flmul@sign,c
  1448  000358  D00F               	goto	l2192
  1449  00035A                     l1044:
  1450  00035A  C030  F02B         	movff	___flmul@temp,___flmul@bexp
  1451  00035E  0EFF               	movlw	255
  1452  000360  162C               	andwf	___flmul@prod,f,c
  1453  000362  0EFF               	movlw	255
  1454  000364  162D               	andwf	___flmul@prod+1,f,c
  1455  000366  0E7F               	movlw	127
  1456  000368  162E               	andwf	___flmul@prod+2,f,c
  1457  00036A  0E00               	movlw	0
  1458  00036C  162F               	andwf	___flmul@prod+3,f,c
  1459  00036E  B02B               	btfsc	___flmul@bexp,0,c
  1460  000370  8E2E               	bsf	___flmul@prod+2,7,c
  1461  000372  90D8               	bcf	status,0,c
  1462  000374  302B               	rrcf	___flmul@bexp,w,c
  1463  000376                     L2:
  1464  000376  6E2F               	movwf	___flmul@prod+3,c
  1465  000378                     l2192:
  1466  000378  5025               	movf	___flmul@sign,w,c
  1467  00037A  122F               	iorwf	___flmul@prod+3,f,c
  1468  00037C  C02C  F019         	movff	___flmul@prod,?___flmul
  1469  000380  C02D  F01A         	movff	___flmul@prod+1,?___flmul+1
  1470  000384  C02E  F01B         	movff	___flmul@prod+2,?___flmul+2
  1471  000388  C02F  F01C         	movff	___flmul@prod+3,?___flmul+3
  1472  00038C  0012               	return		;funcret
  1473  00038E                     __end_of___flmul:
  1474                           	opt callstack 0
  1475                           
  1476 ;; *************** function _carcontrol_init *****************
  1477 ;; Defined at:
  1478 ;;		line 27 in file "car_ctrl.c"
  1479 ;; Parameters:    Size  Location     Type
  1480 ;;		None
  1481 ;; Auto vars:     Size  Location     Type
  1482 ;;		None
  1483 ;; Return value:  Size  Location     Type
  1484 ;;                  1    wreg      void 
  1485 ;; Registers used:
  1486 ;;		wreg, status,2, status,0, cstack
  1487 ;; Tracked objects:
  1488 ;;		On entry : 0/0
  1489 ;;		On exit  : 0/0
  1490 ;;		Unchanged: 0/0
  1491 ;; Data sizes:     COMRAM   BANK0   BANK1   BANK2   BANK3   BANK4   BANK5   BANK6   BANK7
  1492 ;;      Params:         0       0       0       0       0       0       0       0       0
  1493 ;;      Locals:         0       0       0       0       0       0       0       0       0
  1494 ;;      Temps:          0       0       0       0       0       0       0       0       0
  1495 ;;      Totals:         0       0       0       0       0       0       0       0       0
  1496 ;;Total ram usage:        0 bytes
  1497 ;; Hardware stack levels used:    1
  1498 ;; Hardware stack levels required when called:    6
  1499 ;; This function calls:
  1500 ;;		_TMR2_SetInterruptHandler
  1501 ;;		_carcontrol_steering
  1502 ;;		_carcontrol_throttle
  1503 ;; This function is called by:
  1504 ;;		_main
  1505 ;; This function uses a non-reentrant model
  1506 ;;
  1507                           
  1508                           	psect	text5
  1509  000E4A                     __ptext5:
  1510                           	opt callstack 0
  1511  000E4A                     _carcontrol_init:
  1512                           	opt callstack 24
  1513                           
  1514                           ;car_ctrl.c: 28:     carctl.initialized = 1;
  1515                           
  1516                           ;incstack = 0
  1517  000E4A  0E01               	movlw	1
  1518  000E4C  6E44               	movwf	_carctl,c	;volatile
  1519                           
  1520                           ;car_ctrl.c: 29:     carctl.state = state_unset;
  1521  000E4E  0E00               	movlw	0
  1522  000E50  6E45               	movwf	_carctl+1,c	;volatile
  1523                           
  1524                           ;car_ctrl.c: 30:     carcontrol_throttle(0);
  1525  000E52  0E00               	movlw	0
  1526  000E54  ECF7  F007         	call	_carcontrol_throttle
  1527                           
  1528                           ;car_ctrl.c: 31:     carcontrol_steering(0);
  1529  000E58  0E00               	movlw	0
  1530  000E5A  EC3C  F007         	call	_carcontrol_steering
  1531                           
  1532                           ;car_ctrl.c: 32:     carctl.servoHighTime = 50;
  1533  000E5E  0E32               	movlw	50
  1534  000E60  6E48               	movwf	_carctl+4,c	;volatile
  1535                           
  1536                           ;car_ctrl.c: 34:     TMR2_SetInterruptHandler(carcontrol_ISR);
  1537  000E62  0E68               	movlw	low _carcontrol_ISR
  1538  000E64  6E0B               	movwf	TMR2_SetInterruptHandler@InterruptHandler,c
  1539  000E66  0E0B               	movlw	high _carcontrol_ISR
  1540  000E68  6E0C               	movwf	TMR2_SetInterruptHandler@InterruptHandler+1,c
  1541  000E6A  EC06  F008         	call	_TMR2_SetInterruptHandler	;wreg free
  1542                           
  1543                           ;car_ctrl.c: 35:     stateTime = 0;
  1544  000E6E  0E00               	movlw	0
  1545  000E70  6E4A               	movwf	_stateTime+1,c
  1546  000E72  0E00               	movlw	0
  1547  000E74  6E49               	movwf	_stateTime,c
  1548  000E76  0012               	return		;funcret
  1549  000E78                     __end_of_carcontrol_init:
  1550                           	opt callstack 0
  1551                           
  1552 ;; *************** function _carcontrol_throttle *****************
  1553 ;; Defined at:
  1554 ;;		line 118 in file "car_ctrl.c"
  1555 ;; Parameters:    Size  Location     Type
  1556 ;;  throttle        1    wreg     unsigned char 
  1557 ;; Auto vars:     Size  Location     Type
  1558 ;;  throttle        1   10[COMRAM] unsigned char 
  1559 ;; Return value:  Size  Location     Type
  1560 ;;                  1    wreg      void 
  1561 ;; Registers used:
  1562 ;;		wreg, status,2, status,0
  1563 ;; Tracked objects:
  1564 ;;		On entry : 0/0
  1565 ;;		On exit  : 0/0
  1566 ;;		Unchanged: 0/0
  1567 ;; Data sizes:     COMRAM   BANK0   BANK1   BANK2   BANK3   BANK4   BANK5   BANK6   BANK7
  1568 ;;      Params:         0       0       0       0       0       0       0       0       0
  1569 ;;      Locals:         1       0       0       0       0       0       0       0       0
  1570 ;;      Temps:          0       0       0       0       0       0       0       0       0
  1571 ;;      Totals:         1       0       0       0       0       0       0       0       0
  1572 ;;Total ram usage:        1 bytes
  1573 ;; Hardware stack levels used:    1
  1574 ;; Hardware stack levels required when called:    5
  1575 ;; This function calls:
  1576 ;;		Nothing
  1577 ;; This function is called by:
  1578 ;;		_carcontrol_init
  1579 ;; This function uses a non-reentrant model
  1580 ;;
  1581                           
  1582                           	psect	text6
  1583  000FEE                     __ptext6:
  1584                           	opt callstack 0
  1585  000FEE                     _carcontrol_throttle:
  1586                           	opt callstack 24
  1587                           
  1588                           ;incstack = 0
  1589                           ;carcontrol_throttle@throttle stored from wreg
  1590  000FEE  6E0B               	movwf	carcontrol_throttle@throttle,c
  1591                           
  1592                           ;car_ctrl.c: 120:     if (throttle > 100) throttle = 100;
  1593  000FF0  0E64               	movlw	100
  1594  000FF2  640B               	cpfsgt	carcontrol_throttle@throttle,c
  1595  000FF4  D002               	goto	l2066
  1596  000FF6  0E64               	movlw	100
  1597  000FF8  6E0B               	movwf	carcontrol_throttle@throttle,c
  1598  000FFA                     l2066:
  1599                           
  1600                           ;car_ctrl.c: 121:     carctl.throttleHighTime = throttle;
  1601  000FFA  C00B  F047         	movff	carcontrol_throttle@throttle,_carctl+3	;volatile
  1602  000FFE  0012               	return		;funcret
  1603  001000                     __end_of_carcontrol_throttle:
  1604                           	opt callstack 0
  1605                           
  1606 ;; *************** function _carcontrol_steering *****************
  1607 ;; Defined at:
  1608 ;;		line 93 in file "car_ctrl.c"
  1609 ;; Parameters:    Size  Location     Type
  1610 ;;  steering        1    wreg     char 
  1611 ;; Auto vars:     Size  Location     Type
  1612 ;;  steering        1   10[COMRAM] char 
  1613 ;; Return value:  Size  Location     Type
  1614 ;;                  1    wreg      void 
  1615 ;; Registers used:
  1616 ;;		wreg, status,2, status,0
  1617 ;; Tracked objects:
  1618 ;;		On entry : 0/0
  1619 ;;		On exit  : 0/0
  1620 ;;		Unchanged: 0/0
  1621 ;; Data sizes:     COMRAM   BANK0   BANK1   BANK2   BANK3   BANK4   BANK5   BANK6   BANK7
  1622 ;;      Params:         0       0       0       0       0       0       0       0       0
  1623 ;;      Locals:         1       0       0       0       0       0       0       0       0
  1624 ;;      Temps:          0       0       0       0       0       0       0       0       0
  1625 ;;      Totals:         1       0       0       0       0       0       0       0       0
  1626 ;;Total ram usage:        1 bytes
  1627 ;; Hardware stack levels used:    1
  1628 ;; Hardware stack levels required when called:    5
  1629 ;; This function calls:
  1630 ;;		Nothing
  1631 ;; This function is called by:
  1632 ;;		_main
  1633 ;;		_carcontrol_init
  1634 ;; This function uses a non-reentrant model
  1635 ;;
  1636                           
  1637                           	psect	text7
  1638  000E78                     __ptext7:
  1639                           	opt callstack 0
  1640  000E78                     _carcontrol_steering:
  1641                           	opt callstack 25
  1642                           
  1643                           ;incstack = 0
  1644                           ;carcontrol_steering@steering stored from wreg
  1645  000E78  6E0B               	movwf	carcontrol_steering@steering,c
  1646                           
  1647                           ;car_ctrl.c: 106:     if (steering < servo_min) steering = servo_min;
  1648  000E7A  500B               	movf	carcontrol_steering@steering,w,c
  1649  000E7C  0A80               	xorlw	128
  1650  000E7E  0F9E               	addlw	158
  1651  000E80  B0D8               	btfsc	status,0,c
  1652  000E82  D002               	goto	l2054
  1653  000E84  0EE2               	movlw	226
  1654  000E86  6E0B               	movwf	carcontrol_steering@steering,c
  1655  000E88                     l2054:
  1656                           
  1657                           ;car_ctrl.c: 107:     if (steering > servo_max) steering = servo_max;
  1658  000E88  500B               	movf	carcontrol_steering@steering,w,c
  1659  000E8A  0A80               	xorlw	128
  1660  000E8C  0F63               	addlw	-157
  1661  000E8E  A0D8               	btfss	status,0,c
  1662  000E90  D002               	goto	l2058
  1663  000E92  0E1C               	movlw	28
  1664  000E94  6E0B               	movwf	carcontrol_steering@steering,c
  1665  000E96                     l2058:
  1666                           
  1667                           ;car_ctrl.c: 109:     steering = steering + servo_trim;
  1668  000E96  500B               	movf	carcontrol_steering@steering,w,c
  1669  000E98  0FEF               	addlw	239
  1670  000E9A  6E0B               	movwf	carcontrol_steering@steering,c
  1671                           
  1672                           ;car_ctrl.c: 111:     carctl.servoHighTime = steering + 50;
  1673  000E9C  500B               	movf	carcontrol_steering@steering,w,c
  1674  000E9E  0F32               	addlw	50
  1675  000EA0  6E48               	movwf	_carctl+4,c	;volatile
  1676  000EA2  0012               	return		;funcret
  1677  000EA4                     __end_of_carcontrol_steering:
  1678                           	opt callstack 0
  1679                           
  1680 ;; *************** function ___fltol *****************
  1681 ;; Defined at:
  1682 ;;		line 43 in file "/Applications/microchip/xc8/v2.05/pic/sources/c99/common/fltol.c"
  1683 ;; Parameters:    Size  Location     Type
  1684 ;;  f1              4    0[BANK0 ] void 
  1685 ;; Auto vars:     Size  Location     Type
  1686 ;;  exp1            1   66[COMRAM] unsigned char 
  1687 ;;  sign1           1   65[COMRAM] unsigned char 
  1688 ;; Return value:  Size  Location     Type
  1689 ;;                  4    0[BANK0 ] long 
  1690 ;; Registers used:
  1691 ;;		wreg, status,2, status,0
  1692 ;; Tracked objects:
  1693 ;;		On entry : 0/0
  1694 ;;		On exit  : 0/0
  1695 ;;		Unchanged: 0/0
  1696 ;; Data sizes:     COMRAM   BANK0   BANK1   BANK2   BANK3   BANK4   BANK5   BANK6   BANK7
  1697 ;;      Params:         0       4       0       0       0       0       0       0       0
  1698 ;;      Locals:         2       0       0       0       0       0       0       0       0
  1699 ;;      Temps:          0       4       0       0       0       0       0       0       0
  1700 ;;      Totals:         2       8       0       0       0       0       0       0       0
  1701 ;;Total ram usage:       10 bytes
  1702 ;; Hardware stack levels used:    1
  1703 ;; Hardware stack levels required when called:    5
  1704 ;; This function calls:
  1705 ;;		Nothing
  1706 ;; This function is called by:
  1707 ;;		_main
  1708 ;; This function uses a non-reentrant model
  1709 ;;
  1710                           
  1711                           	psect	text8
  1712  000C4C                     __ptext8:
  1713                           	opt callstack 0
  1714  000C4C                     ___fltol:
  1715                           	opt callstack 25
  1716                           
  1717                           ;incstack = 0
  1718  000C4C  0100               	movlb	0	; () banked
  1719  000C4E  3562               	rlcf	(___fltol@f1+2)& (0+255),w,b
  1720  000C50  3563               	rlcf	(___fltol@f1+3)& (0+255),w,b
  1721  000C52  6E43               	movwf	___fltol@exp1,c
  1722  000C54  5043               	movf	___fltol@exp1,w,c
  1723  000C56  A4D8               	btfss	status,2,c
  1724  000C58  D009               	goto	l2736
  1725  000C5A                     u2320:
  1726                           
  1727                           ; BSR set to: 0
  1728  000C5A  0E00               	movlw	0
  1729  000C5C  6F60               	movwf	?___fltol& (0+255),b
  1730  000C5E  0E00               	movlw	0
  1731  000C60  6F61               	movwf	(?___fltol+1)& (0+255),b
  1732  000C62  0E00               	movlw	0
  1733  000C64  6F62               	movwf	(?___fltol+2)& (0+255),b
  1734  000C66  0E00               	movlw	0
  1735  000C68  6F63               	movwf	(?___fltol+3)& (0+255),b
  1736  000C6A  0012               	return	
  1737  000C6C                     l2736:
  1738                           
  1739                           ; BSR set to: 0
  1740  000C6C  C060  F064         	movff	___fltol@f1,??___fltol
  1741  000C70  C061  F065         	movff	___fltol@f1+1,??___fltol+1
  1742  000C74  C062  F066         	movff	___fltol@f1+2,??___fltol+2
  1743  000C78  C063  F067         	movff	___fltol@f1+3,??___fltol+3
  1744  000C7C  0E20               	movlw	32
  1745  000C7E  D005               	goto	u2330
  1746  000C80                     u2335:
  1747  000C80  90D8               	bcf	status,0,c
  1748  000C82  3367               	rrcf	(??___fltol+3)& (0+255),f,b
  1749  000C84  3366               	rrcf	(??___fltol+2)& (0+255),f,b
  1750  000C86  3365               	rrcf	(??___fltol+1)& (0+255),f,b
  1751  000C88  3364               	rrcf	??___fltol& (0+255),f,b
  1752  000C8A                     u2330:
  1753  000C8A  2EE8               	decfsz	wreg,f,c
  1754  000C8C  D7F9               	goto	u2335
  1755  000C8E  5164               	movf	??___fltol& (0+255),w,b
  1756  000C90  6E42               	movwf	___fltol@sign1,c
  1757                           
  1758                           ; BSR set to: 0
  1759  000C92  8F62               	bsf	(___fltol@f1+2)& (0+255),7,b
  1760                           
  1761                           ; BSR set to: 0
  1762  000C94  0EFF               	movlw	255
  1763  000C96  1760               	andwf	___fltol@f1& (0+255),f,b
  1764  000C98  0EFF               	movlw	255
  1765  000C9A  1761               	andwf	(___fltol@f1+1)& (0+255),f,b
  1766  000C9C  0EFF               	movlw	255
  1767  000C9E  1762               	andwf	(___fltol@f1+2)& (0+255),f,b
  1768  000CA0  0E00               	movlw	0
  1769  000CA2  1763               	andwf	(___fltol@f1+3)& (0+255),f,b
  1770                           
  1771                           ; BSR set to: 0
  1772  000CA4  0E96               	movlw	150
  1773  000CA6  5E43               	subwf	___fltol@exp1,f,c
  1774                           
  1775                           ; BSR set to: 0
  1776  000CA8  AE43               	btfss	___fltol@exp1,7,c
  1777  000CAA  D00D               	goto	l2756
  1778                           
  1779                           ; BSR set to: 0
  1780  000CAC  5043               	movf	___fltol@exp1,w,c
  1781  000CAE  0A80               	xorlw	128
  1782  000CB0  0F97               	addlw	151
  1783  000CB2  A0D8               	btfss	status,0,c
  1784  000CB4  D7D2               	goto	u2320
  1785  000CB6                     l2752:
  1786                           
  1787                           ; BSR set to: 0
  1788  000CB6  90D8               	bcf	status,0,c
  1789  000CB8  3363               	rrcf	(___fltol@f1+3)& (0+255),f,b
  1790  000CBA  3362               	rrcf	(___fltol@f1+2)& (0+255),f,b
  1791  000CBC  3361               	rrcf	(___fltol@f1+1)& (0+255),f,b
  1792  000CBE  3360               	rrcf	___fltol@f1& (0+255),f,b
  1793                           
  1794                           ; BSR set to: 0
  1795  000CC0  3E43               	incfsz	___fltol@exp1,f,c
  1796  000CC2  D7F9               	goto	l2752
  1797  000CC4  D00D               	goto	u2370
  1798  000CC6                     l2756:
  1799                           
  1800                           ; BSR set to: 0
  1801  000CC6  0E1F               	movlw	31
  1802  000CC8  6443               	cpfsgt	___fltol@exp1,c
  1803  000CCA  D007               	goto	l2764
  1804  000CCC  D7C6               	goto	u2320
  1805  000CCE                     l2762:
  1806                           
  1807                           ; BSR set to: 0
  1808  000CCE  90D8               	bcf	status,0,c
  1809  000CD0  3760               	rlcf	___fltol@f1& (0+255),f,b
  1810  000CD2  3761               	rlcf	(___fltol@f1+1)& (0+255),f,b
  1811  000CD4  3762               	rlcf	(___fltol@f1+2)& (0+255),f,b
  1812  000CD6  3763               	rlcf	(___fltol@f1+3)& (0+255),f,b
  1813  000CD8  0643               	decf	___fltol@exp1,f,c
  1814  000CDA                     l2764:
  1815                           
  1816                           ; BSR set to: 0
  1817  000CDA  5043               	movf	___fltol@exp1,w,c
  1818  000CDC  A4D8               	btfss	status,2,c
  1819  000CDE  D7F7               	goto	l2762
  1820  000CE0                     u2370:
  1821                           
  1822                           ; BSR set to: 0
  1823  000CE0  5042               	movf	___fltol@sign1,w,c
  1824  000CE2  B4D8               	btfsc	status,2,c
  1825  000CE4  D008               	goto	l2770
  1826                           
  1827                           ; BSR set to: 0
  1828  000CE6  1F63               	comf	(___fltol@f1+3)& (0+255),f,b
  1829  000CE8  1F62               	comf	(___fltol@f1+2)& (0+255),f,b
  1830  000CEA  1F61               	comf	(___fltol@f1+1)& (0+255),f,b
  1831  000CEC  6D60               	negf	___fltol@f1& (0+255),b
  1832  000CEE  0E00               	movlw	0
  1833  000CF0  2361               	addwfc	(___fltol@f1+1)& (0+255),f,b
  1834  000CF2  2362               	addwfc	(___fltol@f1+2)& (0+255),f,b
  1835  000CF4  2363               	addwfc	(___fltol@f1+3)& (0+255),f,b
  1836  000CF6                     l2770:
  1837                           
  1838                           ; BSR set to: 0
  1839  000CF6  C060  F060         	movff	___fltol@f1,?___fltol
  1840  000CFA  C061  F061         	movff	___fltol@f1+1,?___fltol+1
  1841  000CFE  C062  F062         	movff	___fltol@f1+2,?___fltol+2
  1842  000D02  C063  F063         	movff	___fltol@f1+3,?___fltol+3
  1843                           
  1844                           ; BSR set to: 0
  1845  000D06  0012               	return		;funcret
  1846  000D08                     __end_of___fltol:
  1847                           	opt callstack 0
  1848                           
  1849 ;; *************** function ___fldiv *****************
  1850 ;; Defined at:
  1851 ;;		line 11 in file "/Applications/microchip/xc8/v2.05/pic/sources/c99/common/sprcdiv.c"
  1852 ;; Parameters:    Size  Location     Type
  1853 ;;  b               4   10[COMRAM] long 
  1854 ;;  a               4   14[COMRAM] long 
  1855 ;; Auto vars:     Size  Location     Type
  1856 ;;  grs             4   29[COMRAM] unsigned long 
  1857 ;;  rem             4   22[COMRAM] unsigned long 
  1858 ;;  new_exp         2   27[COMRAM] short 
  1859 ;;  aexp            1   34[COMRAM] unsigned char 
  1860 ;;  bexp            1   33[COMRAM] unsigned char 
  1861 ;;  sign            1   26[COMRAM] unsigned char 
  1862 ;; Return value:  Size  Location     Type
  1863 ;;                  4   10[COMRAM] unsigned char 
  1864 ;; Registers used:
  1865 ;;		wreg, status,2, status,0
  1866 ;; Tracked objects:
  1867 ;;		On entry : 0/0
  1868 ;;		On exit  : 0/0
  1869 ;;		Unchanged: 0/0
  1870 ;; Data sizes:     COMRAM   BANK0   BANK1   BANK2   BANK3   BANK4   BANK5   BANK6   BANK7
  1871 ;;      Params:         8       0       0       0       0       0       0       0       0
  1872 ;;      Locals:        13       0       0       0       0       0       0       0       0
  1873 ;;      Temps:          4       0       0       0       0       0       0       0       0
  1874 ;;      Totals:        25       0       0       0       0       0       0       0       0
  1875 ;;Total ram usage:       25 bytes
  1876 ;; Hardware stack levels used:    1
  1877 ;; Hardware stack levels required when called:    5
  1878 ;; This function calls:
  1879 ;;		Nothing
  1880 ;; This function is called by:
  1881 ;;		_main
  1882 ;; This function uses a non-reentrant model
  1883 ;;
  1884                           
  1885                           	psect	text9
  1886  00069A                     __ptext9:
  1887                           	opt callstack 0
  1888  00069A                     ___fldiv:
  1889                           	opt callstack 25
  1890                           
  1891                           ; BSR set to: 0
  1892                           ;incstack = 0
  1893  00069A  500E               	movf	___fldiv@b+3,w,c
  1894  00069C  0B80               	andlw	128
  1895  00069E  6E1B               	movwf	___fldiv@sign,c
  1896  0006A0  500E               	movf	___fldiv@b+3,w,c
  1897  0006A2  240E               	addwf	___fldiv@b+3,w,c
  1898  0006A4  6E22               	movwf	___fldiv@bexp,c
  1899  0006A6  BE0D               	btfsc	___fldiv@b+2,7,c
  1900  0006A8  8022               	bsf	___fldiv@bexp,0,c
  1901  0006AA  5022               	movf	___fldiv@bexp,w,c
  1902  0006AC  B4D8               	btfsc	status,2,c
  1903  0006AE  D00D               	goto	l2512
  1904  0006B0  2822               	incf	___fldiv@bexp,w,c
  1905  0006B2  A4D8               	btfss	status,2,c
  1906  0006B4  D008               	goto	l2508
  1907  0006B6  0E00               	movlw	0
  1908  0006B8  6E0B               	movwf	___fldiv@b,c
  1909  0006BA  0E00               	movlw	0
  1910  0006BC  6E0C               	movwf	___fldiv@b+1,c
  1911  0006BE  0E00               	movlw	0
  1912  0006C0  6E0D               	movwf	___fldiv@b+2,c
  1913  0006C2  0E00               	movlw	0
  1914  0006C4  6E0E               	movwf	___fldiv@b+3,c
  1915  0006C6                     l2508:
  1916  0006C6  8E0D               	bsf	___fldiv@b+2,7,c
  1917  0006C8  D006               	goto	L3
  1918  0006CA                     l2512:
  1919  0006CA  0E00               	movlw	0
  1920  0006CC  6E0B               	movwf	___fldiv@b,c
  1921  0006CE  0E00               	movlw	0
  1922  0006D0  6E0C               	movwf	___fldiv@b+1,c
  1923  0006D2  0E00               	movlw	0
  1924  0006D4  6E0D               	movwf	___fldiv@b+2,c
  1925  0006D6                     L3:
  1926  0006D6  0E00               	movlw	0
  1927  0006D8  6E0E               	movwf	___fldiv@b+3,c
  1928  0006DA  5012               	movf	___fldiv@a+3,w,c
  1929  0006DC  0B80               	andlw	128
  1930  0006DE  1A1B               	xorwf	___fldiv@sign,f,c
  1931  0006E0  5012               	movf	___fldiv@a+3,w,c
  1932  0006E2  2412               	addwf	___fldiv@a+3,w,c
  1933  0006E4  6E23               	movwf	___fldiv@aexp,c
  1934  0006E6  BE11               	btfsc	___fldiv@a+2,7,c
  1935  0006E8  8023               	bsf	___fldiv@aexp,0,c
  1936  0006EA  5023               	movf	___fldiv@aexp,w,c
  1937  0006EC  B4D8               	btfsc	status,2,c
  1938  0006EE  D00D               	goto	l2532
  1939  0006F0  2823               	incf	___fldiv@aexp,w,c
  1940  0006F2  A4D8               	btfss	status,2,c
  1941  0006F4  D008               	goto	l2528
  1942  0006F6  0E00               	movlw	0
  1943  0006F8  6E0F               	movwf	___fldiv@a,c
  1944  0006FA  0E00               	movlw	0
  1945  0006FC  6E10               	movwf	___fldiv@a+1,c
  1946  0006FE  0E00               	movlw	0
  1947  000700  6E11               	movwf	___fldiv@a+2,c
  1948  000702  0E00               	movlw	0
  1949  000704  6E12               	movwf	___fldiv@a+3,c
  1950  000706                     l2528:
  1951  000706  8E11               	bsf	___fldiv@a+2,7,c
  1952  000708  D006               	goto	L4
  1953  00070A                     l2532:
  1954  00070A  0E00               	movlw	0
  1955  00070C  6E0F               	movwf	___fldiv@a,c
  1956  00070E  0E00               	movlw	0
  1957  000710  6E10               	movwf	___fldiv@a+1,c
  1958  000712  0E00               	movlw	0
  1959  000714  6E11               	movwf	___fldiv@a+2,c
  1960  000716                     L4:
  1961  000716  0E00               	movlw	0
  1962  000718  6E12               	movwf	___fldiv@a+3,c
  1963  00071A  500F               	movf	___fldiv@a,w,c
  1964  00071C  1010               	iorwf	___fldiv@a+1,w,c
  1965  00071E  1011               	iorwf	___fldiv@a+2,w,c
  1966  000720  1012               	iorwf	___fldiv@a+3,w,c
  1967  000722  A4D8               	btfss	status,2,c
  1968  000724  D017               	goto	l2546
  1969  000726  0E00               	movlw	0
  1970  000728  6E0B               	movwf	___fldiv@b,c
  1971  00072A  0E00               	movlw	0
  1972  00072C  6E0C               	movwf	___fldiv@b+1,c
  1973  00072E  0E00               	movlw	0
  1974  000730  6E0D               	movwf	___fldiv@b+2,c
  1975  000732  0E00               	movlw	0
  1976  000734  6E0E               	movwf	___fldiv@b+3,c
  1977  000736  0E80               	movlw	128
  1978  000738  120D               	iorwf	___fldiv@b+2,f,c
  1979  00073A  0E7F               	movlw	127
  1980  00073C  120E               	iorwf	___fldiv@b+3,f,c
  1981  00073E                     l2540:
  1982  00073E  501B               	movf	___fldiv@sign,w,c
  1983  000740  120E               	iorwf	___fldiv@b+3,f,c
  1984  000742  C00B  F00B         	movff	___fldiv@b,?___fldiv
  1985  000746  C00C  F00C         	movff	___fldiv@b+1,?___fldiv+1
  1986  00074A  C00D  F00D         	movff	___fldiv@b+2,?___fldiv+2
  1987  00074E  C00E  F00E         	movff	___fldiv@b+3,?___fldiv+3
  1988  000752  0012               	return	
  1989  000754                     l2546:
  1990  000754  5022               	movf	___fldiv@bexp,w,c
  1991  000756  A4D8               	btfss	status,2,c
  1992  000758  D009               	goto	l2554
  1993  00075A  0E00               	movlw	0
  1994  00075C  6E0B               	movwf	?___fldiv,c
  1995  00075E  0E00               	movlw	0
  1996  000760  6E0C               	movwf	?___fldiv+1,c
  1997  000762  0E00               	movlw	0
  1998  000764  6E0D               	movwf	?___fldiv+2,c
  1999  000766  0E00               	movlw	0
  2000  000768  6E0E               	movwf	?___fldiv+3,c
  2001  00076A  0012               	return	
  2002  00076C                     l2554:
  2003  00076C  5023               	movf	___fldiv@aexp,w,c
  2004  00076E  C022  F013         	movff	___fldiv@bexp,??___fldiv
  2005  000772  6A14               	clrf	(??___fldiv+1)& (0+255),c
  2006  000774  5E13               	subwf	??___fldiv,f,c
  2007  000776  0E00               	movlw	0
  2008  000778  5A14               	subwfb	??___fldiv+1,f,c
  2009  00077A  0E7F               	movlw	127
  2010  00077C  2413               	addwf	??___fldiv,w,c
  2011  00077E  6E1C               	movwf	___fldiv@new_exp,c
  2012  000780  0E00               	movlw	0
  2013  000782  2014               	addwfc	??___fldiv+1,w,c
  2014  000784  6E1D               	movwf	___fldiv@new_exp+1,c
  2015  000786  C00B  F017         	movff	___fldiv@b,___fldiv@rem
  2016  00078A  C00C  F018         	movff	___fldiv@b+1,___fldiv@rem+1
  2017  00078E  C00D  F019         	movff	___fldiv@b+2,___fldiv@rem+2
  2018  000792  C00E  F01A         	movff	___fldiv@b+3,___fldiv@rem+3
  2019  000796  0E00               	movlw	0
  2020  000798  6E0B               	movwf	___fldiv@b,c
  2021  00079A  0E00               	movlw	0
  2022  00079C  6E0C               	movwf	___fldiv@b+1,c
  2023  00079E  0E00               	movlw	0
  2024  0007A0  6E0D               	movwf	___fldiv@b+2,c
  2025  0007A2  0E00               	movlw	0
  2026  0007A4  6E0E               	movwf	___fldiv@b+3,c
  2027  0007A6  0E00               	movlw	0
  2028  0007A8  6E1E               	movwf	___fldiv@grs,c
  2029  0007AA  0E00               	movlw	0
  2030  0007AC  6E1F               	movwf	___fldiv@grs+1,c
  2031  0007AE  0E00               	movlw	0
  2032  0007B0  6E20               	movwf	___fldiv@grs+2,c
  2033  0007B2  0E00               	movlw	0
  2034  0007B4  6E21               	movwf	___fldiv@grs+3,c
  2035  0007B6  0E00               	movlw	0
  2036  0007B8  6E23               	movwf	___fldiv@aexp,c
  2037  0007BA  D028               	goto	l997
  2038  0007BC                     l2564:
  2039  0007BC  5023               	movf	___fldiv@aexp,w,c
  2040  0007BE  B4D8               	btfsc	status,2,c
  2041  0007C0  D011               	goto	l2572
  2042  0007C2  90D8               	bcf	status,0,c
  2043  0007C4  3617               	rlcf	___fldiv@rem,f,c
  2044  0007C6  3618               	rlcf	___fldiv@rem+1,f,c
  2045  0007C8  3619               	rlcf	___fldiv@rem+2,f,c
  2046  0007CA  361A               	rlcf	___fldiv@rem+3,f,c
  2047  0007CC  90D8               	bcf	status,0,c
  2048  0007CE  360B               	rlcf	___fldiv@b,f,c
  2049  0007D0  360C               	rlcf	___fldiv@b+1,f,c
  2050  0007D2  360D               	rlcf	___fldiv@b+2,f,c
  2051  0007D4  360E               	rlcf	___fldiv@b+3,f,c
  2052  0007D6  BE21               	btfsc	___fldiv@grs+3,7,c
  2053  0007D8  800B               	bsf	___fldiv@b,0,c
  2054  0007DA  90D8               	bcf	status,0,c
  2055  0007DC  361E               	rlcf	___fldiv@grs,f,c
  2056  0007DE  361F               	rlcf	___fldiv@grs+1,f,c
  2057  0007E0  3620               	rlcf	___fldiv@grs+2,f,c
  2058  0007E2  3621               	rlcf	___fldiv@grs+3,f,c
  2059  0007E4                     l2572:
  2060  0007E4  500F               	movf	___fldiv@a,w,c
  2061  0007E6  5C17               	subwf	___fldiv@rem,w,c
  2062  0007E8  5010               	movf	___fldiv@a+1,w,c
  2063  0007EA  5818               	subwfb	___fldiv@rem+1,w,c
  2064  0007EC  5011               	movf	___fldiv@a+2,w,c
  2065  0007EE  5819               	subwfb	___fldiv@rem+2,w,c
  2066  0007F0  5012               	movf	___fldiv@a+3,w,c
  2067  0007F2  581A               	subwfb	___fldiv@rem+3,w,c
  2068  0007F4  A0D8               	btfss	status,0,c
  2069  0007F6  D009               	goto	l2578
  2070  0007F8  8C21               	bsf	___fldiv@grs+3,6,c
  2071  0007FA  500F               	movf	___fldiv@a,w,c
  2072  0007FC  5E17               	subwf	___fldiv@rem,f,c
  2073  0007FE  5010               	movf	___fldiv@a+1,w,c
  2074  000800  5A18               	subwfb	___fldiv@rem+1,f,c
  2075  000802  5011               	movf	___fldiv@a+2,w,c
  2076  000804  5A19               	subwfb	___fldiv@rem+2,f,c
  2077  000806  5012               	movf	___fldiv@a+3,w,c
  2078  000808  5A1A               	subwfb	___fldiv@rem+3,f,c
  2079  00080A                     l2578:
  2080  00080A  2A23               	incf	___fldiv@aexp,f,c
  2081  00080C                     l997:
  2082  00080C  0E19               	movlw	25
  2083  00080E  6423               	cpfsgt	___fldiv@aexp,c
  2084  000810  D7D5               	goto	l2564
  2085  000812  5017               	movf	___fldiv@rem,w,c
  2086  000814  1018               	iorwf	___fldiv@rem+1,w,c
  2087  000816  1019               	iorwf	___fldiv@rem+2,w,c
  2088  000818  101A               	iorwf	___fldiv@rem+3,w,c
  2089  00081A  B4D8               	btfsc	status,2,c
  2090  00081C  D011               	goto	l2590
  2091  00081E  801E               	bsf	___fldiv@grs,0,c
  2092  000820  D00F               	goto	l2590
  2093  000822                     l2584:
  2094  000822  90D8               	bcf	status,0,c
  2095  000824  360B               	rlcf	___fldiv@b,f,c
  2096  000826  360C               	rlcf	___fldiv@b+1,f,c
  2097  000828  360D               	rlcf	___fldiv@b+2,f,c
  2098  00082A  360E               	rlcf	___fldiv@b+3,f,c
  2099  00082C  BE21               	btfsc	___fldiv@grs+3,7,c
  2100  00082E  800B               	bsf	___fldiv@b,0,c
  2101  000830  90D8               	bcf	status,0,c
  2102  000832  361E               	rlcf	___fldiv@grs,f,c
  2103  000834  361F               	rlcf	___fldiv@grs+1,f,c
  2104  000836  3620               	rlcf	___fldiv@grs+2,f,c
  2105  000838  3621               	rlcf	___fldiv@grs+3,f,c
  2106  00083A  061C               	decf	___fldiv@new_exp,f,c
  2107  00083C  A0D8               	btfss	status,0,c
  2108  00083E  061D               	decf	___fldiv@new_exp+1,f,c
  2109  000840                     l2590:
  2110  000840  AE0D               	btfss	___fldiv@b+2,7,c
  2111  000842  D7EF               	goto	l2584
  2112  000844  0E00               	movlw	0
  2113  000846  6E23               	movwf	___fldiv@aexp,c
  2114  000848  AE21               	btfss	___fldiv@grs+3,7,c
  2115  00084A  D017               	goto	l1008
  2116  00084C  0EFF               	movlw	255
  2117  00084E  141E               	andwf	___fldiv@grs,w,c
  2118  000850  6E13               	movwf	??___fldiv& (0+255),c
  2119  000852  0EFF               	movlw	255
  2120  000854  141F               	andwf	___fldiv@grs+1,w,c
  2121  000856  6E14               	movwf	(??___fldiv+1)& (0+255),c
  2122  000858  0EFF               	movlw	255
  2123  00085A  1420               	andwf	___fldiv@grs+2,w,c
  2124  00085C  6E15               	movwf	(??___fldiv+2)& (0+255),c
  2125  00085E  0E7F               	movlw	127
  2126  000860  1421               	andwf	___fldiv@grs+3,w,c
  2127  000862  6E16               	movwf	(??___fldiv+3)& (0+255),c
  2128  000864  5013               	movf	??___fldiv,w,c
  2129  000866  1014               	iorwf	??___fldiv+1,w,c
  2130  000868  1015               	iorwf	??___fldiv+2,w,c
  2131  00086A  1016               	iorwf	??___fldiv+3,w,c
  2132  00086C  B4D8               	btfsc	status,2,c
  2133  00086E  D003               	goto	l1009
  2134  000870                     u2130:
  2135  000870  0E01               	movlw	1
  2136  000872  6E23               	movwf	___fldiv@aexp,c
  2137  000874  D002               	goto	l1008
  2138  000876                     l1009:
  2139  000876  B00B               	btfsc	___fldiv@b,0,c
  2140  000878  D7FB               	goto	u2130
  2141  00087A                     l1008:
  2142  00087A  5023               	movf	___fldiv@aexp,w,c
  2143  00087C  B4D8               	btfsc	status,2,c
  2144  00087E  D01F               	goto	l2610
  2145  000880  0E01               	movlw	1
  2146  000882  260B               	addwf	___fldiv@b,f,c
  2147  000884  0E00               	movlw	0
  2148  000886  220C               	addwfc	___fldiv@b+1,f,c
  2149  000888  220D               	addwfc	___fldiv@b+2,f,c
  2150  00088A  220E               	addwfc	___fldiv@b+3,f,c
  2151  00088C  A00E               	btfss	___fldiv@b+3,0,c
  2152  00088E  D017               	goto	l2610
  2153  000890  C00B  F013         	movff	___fldiv@b,??___fldiv
  2154  000894  C00C  F014         	movff	___fldiv@b+1,??___fldiv+1
  2155  000898  C00D  F015         	movff	___fldiv@b+2,??___fldiv+2
  2156  00089C  C00E  F016         	movff	___fldiv@b+3,??___fldiv+3
  2157  0008A0  3416               	rlcf	??___fldiv+3,w,c
  2158  0008A2  3216               	rrcf	??___fldiv+3,f,c
  2159  0008A4  3215               	rrcf	??___fldiv+2,f,c
  2160  0008A6  3214               	rrcf	??___fldiv+1,f,c
  2161  0008A8  3213               	rrcf	??___fldiv,f,c
  2162  0008AA  C013  F00B         	movff	??___fldiv,___fldiv@b
  2163  0008AE  C014  F00C         	movff	??___fldiv+1,___fldiv@b+1
  2164  0008B2  C015  F00D         	movff	??___fldiv+2,___fldiv@b+2
  2165  0008B6  C016  F00E         	movff	??___fldiv+3,___fldiv@b+3
  2166  0008BA  4A1C               	infsnz	___fldiv@new_exp,f,c
  2167  0008BC  2A1D               	incf	___fldiv@new_exp+1,f,c
  2168  0008BE                     l2610:
  2169  0008BE  BE1D               	btfsc	___fldiv@new_exp+1,7,c
  2170  0008C0  D010               	goto	l2614
  2171  0008C2  501D               	movf	___fldiv@new_exp+1,w,c
  2172  0008C4  E103               	bnz	u2170
  2173  0008C6  281C               	incf	___fldiv@new_exp,w,c
  2174  0008C8  A0D8               	btfss	status,0,c
  2175  0008CA  D00B               	goto	l2614
  2176  0008CC                     u2170:
  2177  0008CC  0E00               	movlw	0
  2178  0008CE  6E1D               	movwf	___fldiv@new_exp+1,c
  2179  0008D0  681C               	setf	___fldiv@new_exp,c
  2180  0008D2  0E00               	movlw	0
  2181  0008D4  6E0B               	movwf	___fldiv@b,c
  2182  0008D6  0E00               	movlw	0
  2183  0008D8  6E0C               	movwf	___fldiv@b+1,c
  2184  0008DA  0E00               	movlw	0
  2185  0008DC  6E0D               	movwf	___fldiv@b+2,c
  2186  0008DE  0E00               	movlw	0
  2187  0008E0  6E0E               	movwf	___fldiv@b+3,c
  2188  0008E2                     l2614:
  2189  0008E2  BE1D               	btfsc	___fldiv@new_exp+1,7,c
  2190  0008E4  D005               	goto	u2180
  2191  0008E6  501D               	movf	___fldiv@new_exp+1,w,c
  2192  0008E8  E111               	bnz	l2618
  2193  0008EA  041C               	decf	___fldiv@new_exp,w,c
  2194  0008EC  B0D8               	btfsc	status,0,c
  2195  0008EE  D00E               	goto	l2618
  2196  0008F0                     u2180:
  2197  0008F0  0E00               	movlw	0
  2198  0008F2  6E1D               	movwf	___fldiv@new_exp+1,c
  2199  0008F4  0E00               	movlw	0
  2200  0008F6  6E1C               	movwf	___fldiv@new_exp,c
  2201  0008F8  0E00               	movlw	0
  2202  0008FA  6E0B               	movwf	___fldiv@b,c
  2203  0008FC  0E00               	movlw	0
  2204  0008FE  6E0C               	movwf	___fldiv@b+1,c
  2205  000900  0E00               	movlw	0
  2206  000902  6E0D               	movwf	___fldiv@b+2,c
  2207  000904  0E00               	movlw	0
  2208  000906  6E0E               	movwf	___fldiv@b+3,c
  2209  000908  0E00               	movlw	0
  2210  00090A  6E1B               	movwf	___fldiv@sign,c
  2211  00090C                     l2618:
  2212  00090C  C01C  F022         	movff	___fldiv@new_exp,___fldiv@bexp
  2213  000910  A022               	btfss	___fldiv@bexp,0,c
  2214  000912  D002               	goto	l2624
  2215  000914  8E0D               	bsf	___fldiv@b+2,7,c
  2216  000916  D001               	goto	l2626
  2217  000918                     l2624:
  2218  000918  9E0D               	bcf	___fldiv@b+2,7,c
  2219  00091A                     l2626:
  2220  00091A  90D8               	bcf	status,0,c
  2221  00091C  3022               	rrcf	___fldiv@bexp,w,c
  2222  00091E  6E0E               	movwf	___fldiv@b+3,c
  2223  000920  D70E               	goto	l2540
  2224  000922                     __end_of___fldiv:
  2225                           	opt callstack 0
  2226                           
  2227 ;; *************** function ___fladd *****************
  2228 ;; Defined at:
  2229 ;;		line 10 in file "/Applications/microchip/xc8/v2.05/pic/sources/c99/common/sprcadd.c"
  2230 ;; Parameters:    Size  Location     Type
  2231 ;;  b               4   49[COMRAM] unsigned char 
  2232 ;;  a               4   53[COMRAM] unsigned char 
  2233 ;; Auto vars:     Size  Location     Type
  2234 ;;  grs             1   64[COMRAM] unsigned char 
  2235 ;;  bexp            1   63[COMRAM] unsigned char 
  2236 ;;  aexp            1   62[COMRAM] unsigned char 
  2237 ;;  signs           1   61[COMRAM] unsigned char 
  2238 ;; Return value:  Size  Location     Type
  2239 ;;                  4   49[COMRAM] unsigned char 
  2240 ;; Registers used:
  2241 ;;		wreg, status,2, status,0
  2242 ;; Tracked objects:
  2243 ;;		On entry : 0/0
  2244 ;;		On exit  : 0/0
  2245 ;;		Unchanged: 0/0
  2246 ;; Data sizes:     COMRAM   BANK0   BANK1   BANK2   BANK3   BANK4   BANK5   BANK6   BANK7
  2247 ;;      Params:         8       0       0       0       0       0       0       0       0
  2248 ;;      Locals:         4       0       0       0       0       0       0       0       0
  2249 ;;      Temps:          4       0       0       0       0       0       0       0       0
  2250 ;;      Totals:        16       0       0       0       0       0       0       0       0
  2251 ;;Total ram usage:       16 bytes
  2252 ;; Hardware stack levels used:    1
  2253 ;; Hardware stack levels required when called:    5
  2254 ;; This function calls:
  2255 ;;		Nothing
  2256 ;; This function is called by:
  2257 ;;		_main
  2258 ;; This function uses a non-reentrant model
  2259 ;;
  2260                           
  2261                           	psect	text10
  2262  00038E                     __ptext10:
  2263                           	opt callstack 0
  2264  00038E                     ___fladd:
  2265                           	opt callstack 25
  2266                           
  2267                           ;incstack = 0
  2268  00038E  5035               	movf	___fladd@b+3,w,c
  2269  000390  0B80               	andlw	128
  2270  000392  6E3E               	movwf	___fladd@signs,c
  2271  000394  5035               	movf	___fladd@b+3,w,c
  2272  000396  2435               	addwf	___fladd@b+3,w,c
  2273  000398  6E40               	movwf	___fladd@bexp,c
  2274  00039A  BE34               	btfsc	___fladd@b+2,7,c
  2275  00039C  8040               	bsf	___fladd@bexp,0,c
  2276  00039E  5040               	movf	___fladd@bexp,w,c
  2277  0003A0  B4D8               	btfsc	status,2,c
  2278  0003A2  D00D               	goto	l2310
  2279  0003A4  2840               	incf	___fladd@bexp,w,c
  2280  0003A6  A4D8               	btfss	status,2,c
  2281  0003A8  D008               	goto	l2306
  2282  0003AA  0E00               	movlw	0
  2283  0003AC  6E32               	movwf	___fladd@b,c
  2284  0003AE  0E00               	movlw	0
  2285  0003B0  6E33               	movwf	___fladd@b+1,c
  2286  0003B2  0E00               	movlw	0
  2287  0003B4  6E34               	movwf	___fladd@b+2,c
  2288  0003B6  0E00               	movlw	0
  2289  0003B8  6E35               	movwf	___fladd@b+3,c
  2290  0003BA                     l2306:
  2291  0003BA  8E34               	bsf	___fladd@b+2,7,c
  2292  0003BC  D006               	goto	L5
  2293  0003BE                     l2310:
  2294  0003BE  0E00               	movlw	0
  2295  0003C0  6E32               	movwf	___fladd@b,c
  2296  0003C2  0E00               	movlw	0
  2297  0003C4  6E33               	movwf	___fladd@b+1,c
  2298  0003C6  0E00               	movlw	0
  2299  0003C8  6E34               	movwf	___fladd@b+2,c
  2300  0003CA                     L5:
  2301  0003CA  0E00               	movlw	0
  2302  0003CC  6E35               	movwf	___fladd@b+3,c
  2303  0003CE  5039               	movf	___fladd@a+3,w,c
  2304  0003D0  0B80               	andlw	128
  2305  0003D2  6E3F               	movwf	___fladd@aexp,c
  2306  0003D4  503E               	movf	___fladd@signs,w,c
  2307  0003D6  183F               	xorwf	___fladd@aexp,w,c
  2308  0003D8  A4D8               	btfss	status,2,c
  2309  0003DA  8C3E               	bsf	___fladd@signs,6,c
  2310  0003DC  5039               	movf	___fladd@a+3,w,c
  2311  0003DE  2439               	addwf	___fladd@a+3,w,c
  2312  0003E0  6E3F               	movwf	___fladd@aexp,c
  2313  0003E2  BE38               	btfsc	___fladd@a+2,7,c
  2314  0003E4  803F               	bsf	___fladd@aexp,0,c
  2315  0003E6  503F               	movf	___fladd@aexp,w,c
  2316  0003E8  B4D8               	btfsc	status,2,c
  2317  0003EA  D00D               	goto	l2334
  2318  0003EC  283F               	incf	___fladd@aexp,w,c
  2319  0003EE  A4D8               	btfss	status,2,c
  2320  0003F0  D008               	goto	l2330
  2321  0003F2  0E00               	movlw	0
  2322  0003F4  6E36               	movwf	___fladd@a,c
  2323  0003F6  0E00               	movlw	0
  2324  0003F8  6E37               	movwf	___fladd@a+1,c
  2325  0003FA  0E00               	movlw	0
  2326  0003FC  6E38               	movwf	___fladd@a+2,c
  2327  0003FE  0E00               	movlw	0
  2328  000400  6E39               	movwf	___fladd@a+3,c
  2329  000402                     l2330:
  2330  000402  8E38               	bsf	___fladd@a+2,7,c
  2331  000404  D006               	goto	L6
  2332  000406                     l2334:
  2333  000406  0E00               	movlw	0
  2334  000408  6E36               	movwf	___fladd@a,c
  2335  00040A  0E00               	movlw	0
  2336  00040C  6E37               	movwf	___fladd@a+1,c
  2337  00040E  0E00               	movlw	0
  2338  000410  6E38               	movwf	___fladd@a+2,c
  2339  000412                     L6:
  2340  000412  0E00               	movlw	0
  2341  000414  6E39               	movwf	___fladd@a+3,c
  2342  000416  5040               	movf	___fladd@bexp,w,c
  2343  000418  5C3F               	subwf	___fladd@aexp,w,c
  2344  00041A  B0D8               	btfsc	status,0,c
  2345  00041C  D022               	goto	l2372
  2346  00041E  AC3E               	btfss	___fladd@signs,6,c
  2347  000420  D002               	goto	l2342
  2348  000422  0E80               	movlw	128
  2349  000424  1A3E               	xorwf	___fladd@signs,f,c
  2350  000426                     l2342:
  2351  000426  C040  F041         	movff	___fladd@bexp,___fladd@grs
  2352  00042A  C03F  F040         	movff	___fladd@aexp,___fladd@bexp
  2353  00042E  C041  F03F         	movff	___fladd@grs,___fladd@aexp
  2354  000432  C032  F041         	movff	___fladd@b,___fladd@grs
  2355  000436  C036  F032         	movff	___fladd@a,___fladd@b
  2356  00043A  C041  F036         	movff	___fladd@grs,___fladd@a
  2357  00043E  C033  F041         	movff	___fladd@b+1,___fladd@grs
  2358  000442  C037  F033         	movff	___fladd@a+1,___fladd@b+1
  2359  000446  C041  F037         	movff	___fladd@grs,___fladd@a+1
  2360  00044A  C034  F041         	movff	___fladd@b+2,___fladd@grs
  2361  00044E  C038  F034         	movff	___fladd@a+2,___fladd@b+2
  2362  000452  C041  F038         	movff	___fladd@grs,___fladd@a+2
  2363  000456  C035  F041         	movff	___fladd@b+3,___fladd@grs
  2364  00045A  C039  F035         	movff	___fladd@a+3,___fladd@b+3
  2365  00045E  C041  F039         	movff	___fladd@grs,___fladd@a+3
  2366  000462                     l2372:
  2367  000462  0E00               	movlw	0
  2368  000464  6E41               	movwf	___fladd@grs,c
  2369  000466  5040               	movf	___fladd@bexp,w,c
  2370  000468  C03F  F03A         	movff	___fladd@aexp,??___fladd
  2371  00046C  6A3B               	clrf	(??___fladd+1)& (0+255),c
  2372  00046E  5E3A               	subwf	??___fladd,f,c
  2373  000470  0E00               	movlw	0
  2374  000472  5A3B               	subwfb	??___fladd+1,f,c
  2375  000474  BE3B               	btfsc	??___fladd+1,7,c
  2376  000476  D02C               	goto	l942
  2377  000478  503B               	movf	??___fladd+1,w,c
  2378  00047A  E104               	bnz	u1670
  2379  00047C  0E1A               	movlw	26
  2380  00047E  5C3A               	subwf	??___fladd,w,c
  2381  000480  A0D8               	btfss	status,0,c
  2382  000482  D026               	goto	l942
  2383  000484                     u1670:
  2384  000484  5032               	movf	___fladd@b,w,c
  2385  000486  1033               	iorwf	___fladd@b+1,w,c
  2386  000488  1034               	iorwf	___fladd@b+2,w,c
  2387  00048A  1035               	iorwf	___fladd@b+3,w,c
  2388  00048C  B4D8               	btfsc	status,2,c
  2389  00048E  D002               	goto	u1680
  2390  000490  0E01               	movlw	1
  2391  000492  D001               	goto	u1690
  2392  000494                     u1680:
  2393  000494  0E00               	movlw	0
  2394  000496                     u1690:
  2395  000496  6E41               	movwf	___fladd@grs,c
  2396  000498  0E00               	movlw	0
  2397  00049A  6E32               	movwf	___fladd@b,c
  2398  00049C  0E00               	movlw	0
  2399  00049E  6E33               	movwf	___fladd@b+1,c
  2400  0004A0  0E00               	movlw	0
  2401  0004A2  6E34               	movwf	___fladd@b+2,c
  2402  0004A4  0E00               	movlw	0
  2403  0004A6  6E35               	movwf	___fladd@b+3,c
  2404  0004A8  C03F  F040         	movff	___fladd@aexp,___fladd@bexp
  2405  0004AC  D015               	goto	u1720
  2406  0004AE                     l943:
  2407  0004AE  A041               	btfss	___fladd@grs,0,c
  2408  0004B0  D005               	goto	l2384
  2409  0004B2  90D8               	bcf	status,0,c
  2410  0004B4  3041               	rrcf	___fladd@grs,w,c
  2411  0004B6  0901               	iorlw	1
  2412  0004B8  6E41               	movwf	___fladd@grs,c
  2413  0004BA  D002               	goto	l2386
  2414  0004BC                     l2384:
  2415  0004BC  90D8               	bcf	status,0,c
  2416  0004BE  3241               	rrcf	___fladd@grs,f,c
  2417  0004C0                     l2386:
  2418  0004C0  B032               	btfsc	___fladd@b,0,c
  2419  0004C2  8E41               	bsf	___fladd@grs,7,c
  2420  0004C4  3435               	rlcf	___fladd@b+3,w,c
  2421  0004C6  3235               	rrcf	___fladd@b+3,f,c
  2422  0004C8  3234               	rrcf	___fladd@b+2,f,c
  2423  0004CA  3233               	rrcf	___fladd@b+1,f,c
  2424  0004CC  3232               	rrcf	___fladd@b,f,c
  2425  0004CE  2A40               	incf	___fladd@bexp,f,c
  2426  0004D0                     l942:
  2427  0004D0  503F               	movf	___fladd@aexp,w,c
  2428  0004D2  5C40               	subwf	___fladd@bexp,w,c
  2429  0004D4  A0D8               	btfss	status,0,c
  2430  0004D6  D7EB               	goto	l943
  2431  0004D8                     u1720:
  2432  0004D8  BC3E               	btfsc	___fladd@signs,6,c
  2433  0004DA  D028               	goto	l2418
  2434  0004DC  5040               	movf	___fladd@bexp,w,c
  2435  0004DE  A4D8               	btfss	status,2,c
  2436  0004E0  D009               	goto	l2400
  2437  0004E2  0E00               	movlw	0
  2438  0004E4  6E32               	movwf	?___fladd,c
  2439  0004E6  0E00               	movlw	0
  2440  0004E8  6E33               	movwf	?___fladd+1,c
  2441  0004EA  0E00               	movlw	0
  2442  0004EC  6E34               	movwf	?___fladd+2,c
  2443  0004EE  0E00               	movlw	0
  2444  0004F0  6E35               	movwf	?___fladd+3,c
  2445  0004F2  0012               	return	
  2446  0004F4                     l2400:
  2447  0004F4  5036               	movf	___fladd@a,w,c
  2448  0004F6  2632               	addwf	___fladd@b,f,c
  2449  0004F8  5037               	movf	___fladd@a+1,w,c
  2450  0004FA  2233               	addwfc	___fladd@b+1,f,c
  2451  0004FC  5038               	movf	___fladd@a+2,w,c
  2452  0004FE  2234               	addwfc	___fladd@b+2,f,c
  2453  000500  5039               	movf	___fladd@a+3,w,c
  2454  000502  2235               	addwfc	___fladd@b+3,f,c
  2455  000504  A035               	btfss	___fladd@b+3,0,c
  2456  000506  D071               	goto	u1850
  2457  000508  A041               	btfss	___fladd@grs,0,c
  2458  00050A  D005               	goto	l2408
  2459  00050C  90D8               	bcf	status,0,c
  2460  00050E  3041               	rrcf	___fladd@grs,w,c
  2461  000510  0901               	iorlw	1
  2462  000512  6E41               	movwf	___fladd@grs,c
  2463  000514  D002               	goto	l2410
  2464  000516                     l2408:
  2465  000516  90D8               	bcf	status,0,c
  2466  000518  3241               	rrcf	___fladd@grs,f,c
  2467  00051A                     l2410:
  2468  00051A  B032               	btfsc	___fladd@b,0,c
  2469  00051C  8E41               	bsf	___fladd@grs,7,c
  2470  00051E  3435               	rlcf	___fladd@b+3,w,c
  2471  000520  3235               	rrcf	___fladd@b+3,f,c
  2472  000522  3234               	rrcf	___fladd@b+2,f,c
  2473  000524  3233               	rrcf	___fladd@b+1,f,c
  2474  000526  3232               	rrcf	___fladd@b,f,c
  2475  000528  2A40               	incf	___fladd@bexp,f,c
  2476  00052A  D05F               	goto	u1850
  2477  00052C                     l2418:
  2478  00052C  5036               	movf	___fladd@a,w,c
  2479  00052E  5C32               	subwf	___fladd@b,w,c
  2480  000530  5037               	movf	___fladd@a+1,w,c
  2481  000532  5833               	subwfb	___fladd@b+1,w,c
  2482  000534  5038               	movf	___fladd@a+2,w,c
  2483  000536  5834               	subwfb	___fladd@b+2,w,c
  2484  000538  5035               	movf	___fladd@b+3,w,c
  2485  00053A  0A80               	xorlw	128
  2486  00053C  6E3A               	movwf	??___fladd& (0+255),c
  2487  00053E  5039               	movf	___fladd@a+3,w,c
  2488  000540  0A80               	xorlw	128
  2489  000542  583A               	subwfb	??___fladd& (0+255),w,c
  2490  000544  B0D8               	btfsc	status,0,c
  2491  000546  D025               	goto	l2428
  2492  000548  5032               	movf	___fladd@b,w,c
  2493  00054A  5C36               	subwf	___fladd@a,w,c
  2494  00054C  6E3A               	movwf	??___fladd& (0+255),c
  2495  00054E  5033               	movf	___fladd@b+1,w,c
  2496  000550  5837               	subwfb	___fladd@a+1,w,c
  2497  000552  6E3B               	movwf	(??___fladd+1)& (0+255),c
  2498  000554  5034               	movf	___fladd@b+2,w,c
  2499  000556  5838               	subwfb	___fladd@a+2,w,c
  2500  000558  6E3C               	movwf	(??___fladd+2)& (0+255),c
  2501  00055A  5035               	movf	___fladd@b+3,w,c
  2502  00055C  5839               	subwfb	___fladd@a+3,w,c
  2503  00055E  6E3D               	movwf	(??___fladd+3)& (0+255),c
  2504  000560  0EFF               	movlw	255
  2505  000562  243A               	addwf	??___fladd,w,c
  2506  000564  6E32               	movwf	___fladd@b,c
  2507  000566  0EFF               	movlw	255
  2508  000568  203B               	addwfc	??___fladd+1,w,c
  2509  00056A  6E33               	movwf	___fladd@b+1,c
  2510  00056C  0EFF               	movlw	255
  2511  00056E  203C               	addwfc	??___fladd+2,w,c
  2512  000570  6E34               	movwf	___fladd@b+2,c
  2513  000572  0EFF               	movlw	255
  2514  000574  203D               	addwfc	??___fladd+3,w,c
  2515  000576  6E35               	movwf	___fladd@b+3,c
  2516  000578  0E80               	movlw	128
  2517  00057A  1A3E               	xorwf	___fladd@signs,f,c
  2518  00057C  6C41               	negf	___fladd@grs,c
  2519  00057E  5041               	movf	___fladd@grs,w,c
  2520  000580  A4D8               	btfss	status,2,c
  2521  000582  D00F               	goto	l958
  2522  000584  0E01               	movlw	1
  2523  000586  2632               	addwf	___fladd@b,f,c
  2524  000588  0E00               	movlw	0
  2525  00058A  2233               	addwfc	___fladd@b+1,f,c
  2526  00058C  2234               	addwfc	___fladd@b+2,f,c
  2527  00058E  2235               	addwfc	___fladd@b+3,f,c
  2528  000590  D008               	goto	l958
  2529  000592                     l2428:
  2530  000592  5036               	movf	___fladd@a,w,c
  2531  000594  5E32               	subwf	___fladd@b,f,c
  2532  000596  5037               	movf	___fladd@a+1,w,c
  2533  000598  5A33               	subwfb	___fladd@b+1,f,c
  2534  00059A  5038               	movf	___fladd@a+2,w,c
  2535  00059C  5A34               	subwfb	___fladd@b+2,f,c
  2536  00059E  5039               	movf	___fladd@a+3,w,c
  2537  0005A0  5A35               	subwfb	___fladd@b+3,f,c
  2538  0005A2                     l958:
  2539  0005A2  5032               	movf	___fladd@b,w,c
  2540  0005A4  1033               	iorwf	___fladd@b+1,w,c
  2541  0005A6  1034               	iorwf	___fladd@b+2,w,c
  2542  0005A8  1035               	iorwf	___fladd@b+3,w,c
  2543  0005AA  A4D8               	btfss	status,2,c
  2544  0005AC  D01C               	goto	l2452
  2545  0005AE  5041               	movf	___fladd@grs,w,c
  2546  0005B0  A4D8               	btfss	status,2,c
  2547  0005B2  D019               	goto	l2452
  2548  0005B4  0E00               	movlw	0
  2549  0005B6  6E32               	movwf	?___fladd,c
  2550  0005B8  0E00               	movlw	0
  2551  0005BA  6E33               	movwf	?___fladd+1,c
  2552  0005BC  0E00               	movlw	0
  2553  0005BE  6E34               	movwf	?___fladd+2,c
  2554  0005C0  0E00               	movlw	0
  2555  0005C2  6E35               	movwf	?___fladd+3,c
  2556  0005C4  0012               	return	
  2557  0005C6                     l2436:
  2558  0005C6  90D8               	bcf	status,0,c
  2559  0005C8  3632               	rlcf	___fladd@b,f,c
  2560  0005CA  3633               	rlcf	___fladd@b+1,f,c
  2561  0005CC  3634               	rlcf	___fladd@b+2,f,c
  2562  0005CE  3635               	rlcf	___fladd@b+3,f,c
  2563  0005D0  BE41               	btfsc	___fladd@grs,7,c
  2564  0005D2  8032               	bsf	___fladd@b,0,c
  2565  0005D4  A041               	btfss	___fladd@grs,0,c
  2566  0005D6  D002               	goto	l2446
  2567  0005D8  80D8               	bsf	status,0,c
  2568  0005DA  D001               	goto	L7
  2569  0005DC                     l2446:
  2570  0005DC  90D8               	bcf	status,0,c
  2571  0005DE                     L7:
  2572  0005DE  3641               	rlcf	___fladd@grs,f,c
  2573  0005E0  5040               	movf	___fladd@bexp,w,c
  2574  0005E2  A4D8               	btfss	status,2,c
  2575  0005E4  0640               	decf	___fladd@bexp,f,c
  2576  0005E6                     l2452:
  2577  0005E6  AE34               	btfss	___fladd@b+2,7,c
  2578  0005E8  D7EE               	goto	l2436
  2579  0005EA                     u1850:
  2580  0005EA  0E00               	movlw	0
  2581  0005EC  6E3F               	movwf	___fladd@aexp,c
  2582  0005EE  AE41               	btfss	___fladd@grs,7,c
  2583  0005F0  D00B               	goto	l967
  2584  0005F2  C041  F03A         	movff	___fladd@grs,??___fladd
  2585  0005F6  0E7F               	movlw	127
  2586  0005F8  163A               	andwf	??___fladd,f,c
  2587  0005FA  B4D8               	btfsc	status,2,c
  2588  0005FC  D003               	goto	l968
  2589  0005FE                     u1870:
  2590  0005FE  0E01               	movlw	1
  2591  000600  6E3F               	movwf	___fladd@aexp,c
  2592  000602  D002               	goto	l967
  2593  000604                     l968:
  2594  000604  B032               	btfsc	___fladd@b,0,c
  2595  000606  D7FB               	goto	u1870
  2596  000608                     l967:
  2597  000608  503F               	movf	___fladd@aexp,w,c
  2598  00060A  B4D8               	btfsc	status,2,c
  2599  00060C  D020               	goto	l2472
  2600  00060E  0E01               	movlw	1
  2601  000610  2632               	addwf	___fladd@b,f,c
  2602  000612  0E00               	movlw	0
  2603  000614  2233               	addwfc	___fladd@b+1,f,c
  2604  000616  2234               	addwfc	___fladd@b+2,f,c
  2605  000618  2235               	addwfc	___fladd@b+3,f,c
  2606  00061A  A035               	btfss	___fladd@b+3,0,c
  2607  00061C  D018               	goto	l2472
  2608  00061E  C032  F03A         	movff	___fladd@b,??___fladd
  2609  000622  C033  F03B         	movff	___fladd@b+1,??___fladd+1
  2610  000626  C034  F03C         	movff	___fladd@b+2,??___fladd+2
  2611  00062A  C035  F03D         	movff	___fladd@b+3,??___fladd+3
  2612  00062E  343D               	rlcf	??___fladd+3,w,c
  2613  000630  323D               	rrcf	??___fladd+3,f,c
  2614  000632  323C               	rrcf	??___fladd+2,f,c
  2615  000634  323B               	rrcf	??___fladd+1,f,c
  2616  000636  323A               	rrcf	??___fladd,f,c
  2617  000638  C03A  F032         	movff	??___fladd,___fladd@b
  2618  00063C  C03B  F033         	movff	??___fladd+1,___fladd@b+1
  2619  000640  C03C  F034         	movff	??___fladd+2,___fladd@b+2
  2620  000644  C03D  F035         	movff	??___fladd+3,___fladd@b+3
  2621  000648  2840               	incf	___fladd@bexp,w,c
  2622  00064A  A4D8               	btfss	status,2,c
  2623  00064C  2A40               	incf	___fladd@bexp,f,c
  2624  00064E                     l2472:
  2625  00064E  2840               	incf	___fladd@bexp,w,c
  2626  000650  B4D8               	btfsc	status,2,c
  2627  000652  D003               	goto	u1930
  2628  000654  5040               	movf	___fladd@bexp,w,c
  2629  000656  A4D8               	btfss	status,2,c
  2630  000658  D00D               	goto	l2480
  2631  00065A                     u1930:
  2632  00065A  0E00               	movlw	0
  2633  00065C  6E32               	movwf	___fladd@b,c
  2634  00065E  0E00               	movlw	0
  2635  000660  6E33               	movwf	___fladd@b+1,c
  2636  000662  0E00               	movlw	0
  2637  000664  6E34               	movwf	___fladd@b+2,c
  2638  000666  0E00               	movlw	0
  2639  000668  6E35               	movwf	___fladd@b+3,c
  2640  00066A  5040               	movf	___fladd@bexp,w,c
  2641  00066C  A4D8               	btfss	status,2,c
  2642  00066E  D002               	goto	l2480
  2643  000670  0E00               	movlw	0
  2644  000672  6E3E               	movwf	___fladd@signs,c
  2645  000674                     l2480:
  2646  000674  A040               	btfss	___fladd@bexp,0,c
  2647  000676  D002               	goto	l2484
  2648  000678  8E34               	bsf	___fladd@b+2,7,c
  2649  00067A  D001               	goto	l2486
  2650  00067C                     l2484:
  2651  00067C  9E34               	bcf	___fladd@b+2,7,c
  2652  00067E                     l2486:
  2653  00067E  90D8               	bcf	status,0,c
  2654  000680  3040               	rrcf	___fladd@bexp,w,c
  2655  000682  6E35               	movwf	___fladd@b+3,c
  2656  000684  BE3E               	btfsc	___fladd@signs,7,c
  2657  000686  8E35               	bsf	___fladd@b+3,7,c
  2658  000688  C032  F032         	movff	___fladd@b,?___fladd
  2659  00068C  C033  F033         	movff	___fladd@b+1,?___fladd+1
  2660  000690  C034  F034         	movff	___fladd@b+2,?___fladd+2
  2661  000694  C035  F035         	movff	___fladd@b+3,?___fladd+3
  2662  000698  0012               	return		;funcret
  2663  00069A                     __end_of___fladd:
  2664                           	opt callstack 0
  2665                           
  2666 ;; *************** function _SYSTEM_Initialize *****************
  2667 ;; Defined at:
  2668 ;;		line 50 in file "mcc_generated_files/mcc.c"
  2669 ;; Parameters:    Size  Location     Type
  2670 ;;		None
  2671 ;; Auto vars:     Size  Location     Type
  2672 ;;		None
  2673 ;; Return value:  Size  Location     Type
  2674 ;;                  1    wreg      void 
  2675 ;; Registers used:
  2676 ;;		wreg, status,2, status,0, cstack
  2677 ;; Tracked objects:
  2678 ;;		On entry : 0/0
  2679 ;;		On exit  : 0/0
  2680 ;;		Unchanged: 0/0
  2681 ;; Data sizes:     COMRAM   BANK0   BANK1   BANK2   BANK3   BANK4   BANK5   BANK6   BANK7
  2682 ;;      Params:         0       0       0       0       0       0       0       0       0
  2683 ;;      Locals:         0       0       0       0       0       0       0       0       0
  2684 ;;      Temps:          0       0       0       0       0       0       0       0       0
  2685 ;;      Totals:         0       0       0       0       0       0       0       0       0
  2686 ;;Total ram usage:        0 bytes
  2687 ;; Hardware stack levels used:    1
  2688 ;; Hardware stack levels required when called:    7
  2689 ;; This function calls:
  2690 ;;		_INTERRUPT_Initialize
  2691 ;;		_OSCILLATOR_Initialize
  2692 ;;		_PIN_MANAGER_Initialize
  2693 ;;		_PMD_Initialize
  2694 ;;		_TMR2_Initialize
  2695 ;;		_TMR3_Initialize
  2696 ;; This function is called by:
  2697 ;;		_main
  2698 ;; This function uses a non-reentrant model
  2699 ;;
  2700                           
  2701                           	psect	text11
  2702  000FBC                     __ptext11:
  2703                           	opt callstack 0
  2704  000FBC                     _SYSTEM_Initialize:
  2705                           	opt callstack 23
  2706                           
  2707                           ;mcc_generated_files/mcc.c: 52:     INTERRUPT_Initialize();
  2708                           
  2709                           ;incstack = 0
  2710  000FBC  EC10  F008         	call	_INTERRUPT_Initialize	;wreg free
  2711                           
  2712                           ;mcc_generated_files/mcc.c: 53:     PMD_Initialize();
  2713  000FC0  ECC2  F007         	call	_PMD_Initialize	;wreg free
  2714                           
  2715                           ;mcc_generated_files/mcc.c: 54:     PIN_MANAGER_Initialize();
  2716  000FC4  ECC2  F006         	call	_PIN_MANAGER_Initialize	;wreg free
  2717                           
  2718                           ;mcc_generated_files/mcc.c: 55:     OSCILLATOR_Initialize();
  2719  000FC8  ECEB  F007         	call	_OSCILLATOR_Initialize	;wreg free
  2720                           
  2721                           ;mcc_generated_files/mcc.c: 56:     TMR3_Initialize();
  2722  000FCC  EC0A  F007         	call	_TMR3_Initialize	;wreg free
  2723                           
  2724                           ;mcc_generated_files/mcc.c: 57:     TMR2_Initialize();
  2725  000FD0  EC52  F007         	call	_TMR2_Initialize	;wreg free
  2726  000FD4  0012               	return		;funcret
  2727  000FD6                     __end_of_SYSTEM_Initialize:
  2728                           	opt callstack 0
  2729                           
  2730 ;; *************** function _TMR3_Initialize *****************
  2731 ;; Defined at:
  2732 ;;		line 63 in file "mcc_generated_files/tmr3.c"
  2733 ;; Parameters:    Size  Location     Type
  2734 ;;		None
  2735 ;; Auto vars:     Size  Location     Type
  2736 ;;		None
  2737 ;; Return value:  Size  Location     Type
  2738 ;;                  1    wreg      void 
  2739 ;; Registers used:
  2740 ;;		wreg, status,2, status,0
  2741 ;; Tracked objects:
  2742 ;;		On entry : 0/0
  2743 ;;		On exit  : 0/0
  2744 ;;		Unchanged: 0/0
  2745 ;; Data sizes:     COMRAM   BANK0   BANK1   BANK2   BANK3   BANK4   BANK5   BANK6   BANK7
  2746 ;;      Params:         0       0       0       0       0       0       0       0       0
  2747 ;;      Locals:         0       0       0       0       0       0       0       0       0
  2748 ;;      Temps:          2       0       0       0       0       0       0       0       0
  2749 ;;      Totals:         2       0       0       0       0       0       0       0       0
  2750 ;;Total ram usage:        2 bytes
  2751 ;; Hardware stack levels used:    1
  2752 ;; Hardware stack levels required when called:    5
  2753 ;; This function calls:
  2754 ;;		Nothing
  2755 ;; This function is called by:
  2756 ;;		_SYSTEM_Initialize
  2757 ;;		_ping_init
  2758 ;; This function uses a non-reentrant model
  2759 ;;
  2760                           
  2761                           	psect	text12
  2762  000E14                     __ptext12:
  2763                           	opt callstack 0
  2764  000E14                     _TMR3_Initialize:
  2765                           	opt callstack 24
  2766                           
  2767                           ;mcc_generated_files/tmr3.c: 68:     T3GCON = 0x00;
  2768                           
  2769                           ;incstack = 0
  2770  000E14  0E00               	movlw	0
  2771  000E16  6EC9               	movwf	4041,c	;volatile
  2772                           
  2773                           ;mcc_generated_files/tmr3.c: 71:     T3GATE = 0x00;
  2774  000E18  0E00               	movlw	0
  2775  000E1A  6ECA               	movwf	4042,c	;volatile
  2776                           
  2777                           ;mcc_generated_files/tmr3.c: 74:     T3CLK = 0x01;
  2778  000E1C  0E01               	movlw	1
  2779  000E1E  6ECB               	movwf	4043,c	;volatile
  2780                           
  2781                           ;mcc_generated_files/tmr3.c: 77:     TMR3H = 0x06;
  2782  000E20  0E06               	movlw	6
  2783  000E22  6EC7               	movwf	4039,c	;volatile
  2784                           
  2785                           ;mcc_generated_files/tmr3.c: 80:     TMR3L = 0x00;
  2786  000E24  0E00               	movlw	0
  2787  000E26  6EC6               	movwf	4038,c	;volatile
  2788                           
  2789                           ;mcc_generated_files/tmr3.c: 83:     timer3ReloadVal=(uint16_t)((TMR3H << 8) | TMR3L);
  2790  000E28  50C6               	movf	4038,w,c	;volatile
  2791  000E2A  CFC7 F00B          	movff	4039,??_TMR3_Initialize	;volatile
  2792  000E2E  6A0C               	clrf	(??_TMR3_Initialize+1)& (0+255),c
  2793  000E30  C00B  F00C         	movff	??_TMR3_Initialize,??_TMR3_Initialize+1
  2794  000E34  6A0B               	clrf	??_TMR3_Initialize,c
  2795  000E36  100B               	iorwf	??_TMR3_Initialize,w,c
  2796  000E38  0100               	movlb	0	; () banked
  2797  000E3A  6F74               	movwf	_timer3ReloadVal& (0+255),b	;volatile
  2798  000E3C  500C               	movf	??_TMR3_Initialize+1,w,c
  2799  000E3E  6F75               	movwf	(_timer3ReloadVal+1)& (0+255),b	;volatile
  2800                           
  2801                           ; BSR set to: 0
  2802                           ;mcc_generated_files/tmr3.c: 86:     PIR4bits.TMR3IF = 0;
  2803  000E40  010E               	movlb	14	; () banked
  2804  000E42  95C9               	bcf	201,2,b	;volatile
  2805                           
  2806                           ; BSR set to: 14
  2807                           ;mcc_generated_files/tmr3.c: 89:     T3CON = 0x22;
  2808  000E44  0E22               	movlw	34
  2809  000E46  6EC8               	movwf	4040,c	;volatile
  2810                           
  2811                           ; BSR set to: 14
  2812  000E48  0012               	return		;funcret
  2813  000E4A                     __end_of_TMR3_Initialize:
  2814                           	opt callstack 0
  2815                           
  2816 ;; *************** function _TMR2_Initialize *****************
  2817 ;; Defined at:
  2818 ;;		line 64 in file "mcc_generated_files/tmr2.c"
  2819 ;; Parameters:    Size  Location     Type
  2820 ;;		None
  2821 ;; Auto vars:     Size  Location     Type
  2822 ;;		None
  2823 ;; Return value:  Size  Location     Type
  2824 ;;                  1    wreg      void 
  2825 ;; Registers used:
  2826 ;;		wreg, status,2, status,0, cstack
  2827 ;; Tracked objects:
  2828 ;;		On entry : 0/0
  2829 ;;		On exit  : 0/0
  2830 ;;		Unchanged: 0/0
  2831 ;; Data sizes:     COMRAM   BANK0   BANK1   BANK2   BANK3   BANK4   BANK5   BANK6   BANK7
  2832 ;;      Params:         0       0       0       0       0       0       0       0       0
  2833 ;;      Locals:         0       0       0       0       0       0       0       0       0
  2834 ;;      Temps:          0       0       0       0       0       0       0       0       0
  2835 ;;      Totals:         0       0       0       0       0       0       0       0       0
  2836 ;;Total ram usage:        0 bytes
  2837 ;; Hardware stack levels used:    1
  2838 ;; Hardware stack levels required when called:    6
  2839 ;; This function calls:
  2840 ;;		_TMR2_SetInterruptHandler
  2841 ;; This function is called by:
  2842 ;;		_SYSTEM_Initialize
  2843 ;; This function uses a non-reentrant model
  2844 ;;
  2845                           
  2846                           	psect	text13
  2847  000EA4                     __ptext13:
  2848                           	opt callstack 0
  2849  000EA4                     _TMR2_Initialize:
  2850                           	opt callstack 23
  2851                           
  2852                           ;mcc_generated_files/tmr2.c: 69:     T2CLKCON = 0x01;
  2853                           
  2854                           ; BSR set to: 14
  2855                           ;incstack = 0
  2856  000EA4  0E01               	movlw	1
  2857  000EA6  6EBE               	movwf	4030,c	;volatile
  2858                           
  2859                           ;mcc_generated_files/tmr2.c: 72:     T2HLT = 0x00;
  2860  000EA8  0E00               	movlw	0
  2861  000EAA  6EBD               	movwf	4029,c	;volatile
  2862                           
  2863                           ;mcc_generated_files/tmr2.c: 75:     T2RST = 0x00;
  2864  000EAC  0E00               	movlw	0
  2865  000EAE  6EBF               	movwf	4031,c	;volatile
  2866                           
  2867                           ;mcc_generated_files/tmr2.c: 78:     T2PR = 0x9F;
  2868  000EB0  0E9F               	movlw	159
  2869  000EB2  6EBB               	movwf	4027,c	;volatile
  2870                           
  2871                           ;mcc_generated_files/tmr2.c: 81:     T2TMR = 0x00;
  2872  000EB4  0E00               	movlw	0
  2873  000EB6  6EBA               	movwf	4026,c	;volatile
  2874                           
  2875                           ;mcc_generated_files/tmr2.c: 84:     PIR4bits.TMR2IF = 0;
  2876  000EB8  010E               	movlb	14	; () banked
  2877  000EBA  93C9               	bcf	201,1,b	;volatile
  2878                           
  2879                           ; BSR set to: 14
  2880                           ;mcc_generated_files/tmr2.c: 87:     PIE4bits.TMR2IE = 1;
  2881  000EBC  83C1               	bsf	193,1,b	;volatile
  2882                           
  2883                           ; BSR set to: 14
  2884                           ;mcc_generated_files/tmr2.c: 90:     TMR2_SetInterruptHandler(TMR2_DefaultInterruptHandl
      +                          er);
  2885  000EBE  0E30               	movlw	low _TMR2_DefaultInterruptHandler
  2886  000EC0  6E0B               	movwf	TMR2_SetInterruptHandler@InterruptHandler,c
  2887  000EC2  0E10               	movlw	high _TMR2_DefaultInterruptHandler
  2888  000EC4  6E0C               	movwf	TMR2_SetInterruptHandler@InterruptHandler+1,c
  2889  000EC6  EC06  F008         	call	_TMR2_SetInterruptHandler	;wreg free
  2890                           
  2891                           ;mcc_generated_files/tmr2.c: 93:     T2CON = 0x80;
  2892  000ECA  0E80               	movlw	128
  2893  000ECC  6EBC               	movwf	4028,c	;volatile
  2894  000ECE  0012               	return		;funcret
  2895  000ED0                     __end_of_TMR2_Initialize:
  2896                           	opt callstack 0
  2897                           
  2898 ;; *************** function _TMR2_SetInterruptHandler *****************
  2899 ;; Defined at:
  2900 ;;		line 178 in file "mcc_generated_files/tmr2.c"
  2901 ;; Parameters:    Size  Location     Type
  2902 ;;  InterruptHan    2   10[COMRAM] PTR FTN()void 
  2903 ;;		 -> carcontrol_ISR(1), TMR2_DefaultInterruptHandler(1), 
  2904 ;; Auto vars:     Size  Location     Type
  2905 ;;		None
  2906 ;; Return value:  Size  Location     Type
  2907 ;;                  1    wreg      void 
  2908 ;; Registers used:
  2909 ;;		wreg, status,2, status,0
  2910 ;; Tracked objects:
  2911 ;;		On entry : 0/0
  2912 ;;		On exit  : 0/0
  2913 ;;		Unchanged: 0/0
  2914 ;; Data sizes:     COMRAM   BANK0   BANK1   BANK2   BANK3   BANK4   BANK5   BANK6   BANK7
  2915 ;;      Params:         2       0       0       0       0       0       0       0       0
  2916 ;;      Locals:         0       0       0       0       0       0       0       0       0
  2917 ;;      Temps:          0       0       0       0       0       0       0       0       0
  2918 ;;      Totals:         2       0       0       0       0       0       0       0       0
  2919 ;;Total ram usage:        2 bytes
  2920 ;; Hardware stack levels used:    1
  2921 ;; Hardware stack levels required when called:    5
  2922 ;; This function calls:
  2923 ;;		Nothing
  2924 ;; This function is called by:
  2925 ;;		_TMR2_Initialize
  2926 ;;		_carcontrol_init
  2927 ;; This function uses a non-reentrant model
  2928 ;;
  2929                           
  2930                           	psect	text14
  2931  00100C                     __ptext14:
  2932                           	opt callstack 0
  2933  00100C                     _TMR2_SetInterruptHandler:
  2934                           	opt callstack 24
  2935                           
  2936                           ;mcc_generated_files/tmr2.c: 179:     TMR2_InterruptHandler = InterruptHandler;
  2937                           
  2938                           ;incstack = 0
  2939  00100C  C00B  F04E         	movff	TMR2_SetInterruptHandler@InterruptHandler,_TMR2_InterruptHandler
  2940  001010  C00C  F04F         	movff	TMR2_SetInterruptHandler@InterruptHandler+1,_TMR2_InterruptHandler+1
  2941  001014  0012               	return		;funcret
  2942  001016                     __end_of_TMR2_SetInterruptHandler:
  2943                           	opt callstack 0
  2944                           
  2945 ;; *************** function _PMD_Initialize *****************
  2946 ;; Defined at:
  2947 ;;		line 74 in file "mcc_generated_files/mcc.c"
  2948 ;; Parameters:    Size  Location     Type
  2949 ;;		None
  2950 ;; Auto vars:     Size  Location     Type
  2951 ;;		None
  2952 ;; Return value:  Size  Location     Type
  2953 ;;                  1    wreg      void 
  2954 ;; Registers used:
  2955 ;;		wreg, status,2
  2956 ;; Tracked objects:
  2957 ;;		On entry : 0/0
  2958 ;;		On exit  : 0/0
  2959 ;;		Unchanged: 0/0
  2960 ;; Data sizes:     COMRAM   BANK0   BANK1   BANK2   BANK3   BANK4   BANK5   BANK6   BANK7
  2961 ;;      Params:         0       0       0       0       0       0       0       0       0
  2962 ;;      Locals:         0       0       0       0       0       0       0       0       0
  2963 ;;      Temps:          0       0       0       0       0       0       0       0       0
  2964 ;;      Totals:         0       0       0       0       0       0       0       0       0
  2965 ;;Total ram usage:        0 bytes
  2966 ;; Hardware stack levels used:    1
  2967 ;; Hardware stack levels required when called:    5
  2968 ;; This function calls:
  2969 ;;		Nothing
  2970 ;; This function is called by:
  2971 ;;		_SYSTEM_Initialize
  2972 ;; This function uses a non-reentrant model
  2973 ;;
  2974                           
  2975                           	psect	text15
  2976  000F84                     __ptext15:
  2977                           	opt callstack 0
  2978  000F84                     _PMD_Initialize:
  2979                           	opt callstack 24
  2980                           
  2981                           ;mcc_generated_files/mcc.c: 77:     PMD0 = 0x00;
  2982                           
  2983                           ;incstack = 0
  2984  000F84  0E00               	movlw	0
  2985  000F86  010E               	movlb	14	; () banked
  2986  000F88  6FDC               	movwf	220,b	;volatile
  2987                           
  2988                           ;mcc_generated_files/mcc.c: 79:     PMD1 = 0x00;
  2989  000F8A  0E00               	movlw	0
  2990  000F8C  6FDD               	movwf	221,b	;volatile
  2991                           
  2992                           ;mcc_generated_files/mcc.c: 81:     PMD2 = 0x00;
  2993  000F8E  0E00               	movlw	0
  2994  000F90  6FDE               	movwf	222,b	;volatile
  2995                           
  2996                           ;mcc_generated_files/mcc.c: 83:     PMD3 = 0x00;
  2997  000F92  0E00               	movlw	0
  2998  000F94  6FDF               	movwf	223,b	;volatile
  2999                           
  3000                           ;mcc_generated_files/mcc.c: 85:     PMD4 = 0x00;
  3001  000F96  0E00               	movlw	0
  3002  000F98  6FE0               	movwf	224,b	;volatile
  3003                           
  3004                           ;mcc_generated_files/mcc.c: 87:     PMD5 = 0x00;
  3005  000F9A  0E00               	movlw	0
  3006  000F9C  6FE1               	movwf	225,b	;volatile
  3007                           
  3008                           ; BSR set to: 14
  3009  000F9E  0012               	return		;funcret
  3010  000FA0                     __end_of_PMD_Initialize:
  3011                           	opt callstack 0
  3012                           
  3013 ;; *************** function _PIN_MANAGER_Initialize *****************
  3014 ;; Defined at:
  3015 ;;		line 57 in file "mcc_generated_files/pin_manager.c"
  3016 ;; Parameters:    Size  Location     Type
  3017 ;;		None
  3018 ;; Auto vars:     Size  Location     Type
  3019 ;;		None
  3020 ;; Return value:  Size  Location     Type
  3021 ;;                  1    wreg      void 
  3022 ;; Registers used:
  3023 ;;		wreg, status,2, status,0, cstack
  3024 ;; Tracked objects:
  3025 ;;		On entry : 0/0
  3026 ;;		On exit  : 0/0
  3027 ;;		Unchanged: 0/0
  3028 ;; Data sizes:     COMRAM   BANK0   BANK1   BANK2   BANK3   BANK4   BANK5   BANK6   BANK7
  3029 ;;      Params:         0       0       0       0       0       0       0       0       0
  3030 ;;      Locals:         0       0       0       0       0       0       0       0       0
  3031 ;;      Temps:          0       0       0       0       0       0       0       0       0
  3032 ;;      Totals:         0       0       0       0       0       0       0       0       0
  3033 ;;Total ram usage:        0 bytes
  3034 ;; Hardware stack levels used:    1
  3035 ;; Hardware stack levels required when called:    6
  3036 ;; This function calls:
  3037 ;;		_IOCAF2_SetInterruptHandler
  3038 ;; This function is called by:
  3039 ;;		_SYSTEM_Initialize
  3040 ;; This function uses a non-reentrant model
  3041 ;;
  3042                           
  3043                           	psect	text16
  3044  000D84                     __ptext16:
  3045                           	opt callstack 0
  3046  000D84                     _PIN_MANAGER_Initialize:
  3047                           	opt callstack 23
  3048                           
  3049                           ;mcc_generated_files/pin_manager.c: 62:     LATA = 0x00;
  3050                           
  3051                           ; BSR set to: 14
  3052                           ;incstack = 0
  3053  000D84  0E00               	movlw	0
  3054  000D86  6E82               	movwf	3970,c	;volatile
  3055                           
  3056                           ;mcc_generated_files/pin_manager.c: 63:     LATB = 0x00;
  3057  000D88  0E00               	movlw	0
  3058  000D8A  6E83               	movwf	3971,c	;volatile
  3059                           
  3060                           ;mcc_generated_files/pin_manager.c: 64:     LATC = 0x00;
  3061  000D8C  0E00               	movlw	0
  3062  000D8E  6E84               	movwf	3972,c	;volatile
  3063                           
  3064                           ;mcc_generated_files/pin_manager.c: 69:     TRISA = 0xFC;
  3065  000D90  0EFC               	movlw	252
  3066  000D92  6E87               	movwf	3975,c	;volatile
  3067                           
  3068                           ;mcc_generated_files/pin_manager.c: 70:     TRISB = 0xFF;
  3069  000D94  6888               	setf	3976,c	;volatile
  3070                           
  3071                           ;mcc_generated_files/pin_manager.c: 71:     TRISC = 0xFF;
  3072  000D96  6889               	setf	3977,c	;volatile
  3073                           
  3074                           ;mcc_generated_files/pin_manager.c: 76:     ANSELC = 0xFF;
  3075  000D98  010F               	movlb	15	; () banked
  3076  000D9A  691C               	setf	28,b	;volatile
  3077                           
  3078                           ; BSR set to: 15
  3079                           ;mcc_generated_files/pin_manager.c: 77:     ANSELB = 0xFF;
  3080  000D9C  6914               	setf	20,b	;volatile
  3081                           
  3082                           ;mcc_generated_files/pin_manager.c: 78:     ANSELA = 0xFA;
  3083  000D9E  0EFA               	movlw	250
  3084  000DA0  6F0C               	movwf	12,b	;volatile
  3085                           
  3086                           ;mcc_generated_files/pin_manager.c: 83:     WPUE = 0x00;
  3087  000DA2  0E00               	movlw	0
  3088  000DA4  6F28               	movwf	40,b	;volatile
  3089                           
  3090                           ;mcc_generated_files/pin_manager.c: 84:     WPUB = 0x00;
  3091  000DA6  0E00               	movlw	0
  3092  000DA8  6F13               	movwf	19,b	;volatile
  3093                           
  3094                           ;mcc_generated_files/pin_manager.c: 85:     WPUA = 0x00;
  3095  000DAA  0E00               	movlw	0
  3096  000DAC  6F0B               	movwf	11,b	;volatile
  3097                           
  3098                           ;mcc_generated_files/pin_manager.c: 86:     WPUC = 0x00;
  3099  000DAE  0E00               	movlw	0
  3100  000DB0  6F1B               	movwf	27,b	;volatile
  3101                           
  3102                           ;mcc_generated_files/pin_manager.c: 91:     ODCONA = 0x00;
  3103  000DB2  0E00               	movlw	0
  3104  000DB4  6F0A               	movwf	10,b	;volatile
  3105                           
  3106                           ;mcc_generated_files/pin_manager.c: 92:     ODCONB = 0x00;
  3107  000DB6  0E00               	movlw	0
  3108  000DB8  6F12               	movwf	18,b	;volatile
  3109                           
  3110                           ;mcc_generated_files/pin_manager.c: 93:     ODCONC = 0x00;
  3111  000DBA  0E00               	movlw	0
  3112  000DBC  6F1A               	movwf	26,b	;volatile
  3113                           
  3114                           ; BSR set to: 15
  3115                           ;mcc_generated_files/pin_manager.c: 98:     SLRCONA = 0xFF;
  3116  000DBE  6909               	setf	9,b	;volatile
  3117                           
  3118                           ; BSR set to: 15
  3119                           ;mcc_generated_files/pin_manager.c: 99:     SLRCONB = 0xFF;
  3120  000DC0  6911               	setf	17,b	;volatile
  3121                           
  3122                           ; BSR set to: 15
  3123                           ;mcc_generated_files/pin_manager.c: 100:     SLRCONC = 0xFF;
  3124  000DC2  6919               	setf	25,b	;volatile
  3125                           
  3126                           ; BSR set to: 15
  3127                           ;mcc_generated_files/pin_manager.c: 107:     IOCAFbits.IOCAF2 = 0;
  3128  000DC4  9505               	bcf	5,2,b	;volatile
  3129                           
  3130                           ; BSR set to: 15
  3131                           ;mcc_generated_files/pin_manager.c: 109:     IOCANbits.IOCAN2 = 1;
  3132  000DC6  8506               	bsf	6,2,b	;volatile
  3133                           
  3134                           ; BSR set to: 15
  3135                           ;mcc_generated_files/pin_manager.c: 111:     IOCAPbits.IOCAP2 = 1;
  3136  000DC8  8507               	bsf	7,2,b	;volatile
  3137                           
  3138                           ; BSR set to: 15
  3139                           ;mcc_generated_files/pin_manager.c: 116:     IOCAF2_SetInterruptHandler(IOCAF2_DefaultIn
      +                          terruptHandler);
  3140  000DCA  0E32               	movlw	low _IOCAF2_DefaultInterruptHandler
  3141  000DCC  6E0B               	movwf	IOCAF2_SetInterruptHandler@InterruptHandler,c
  3142  000DCE  0E10               	movlw	high _IOCAF2_DefaultInterruptHandler
  3143  000DD0  6E0C               	movwf	IOCAF2_SetInterruptHandler@InterruptHandler+1,c
  3144  000DD2  EC0B  F008         	call	_IOCAF2_SetInterruptHandler	;wreg free
  3145                           
  3146                           ;mcc_generated_files/pin_manager.c: 119:     PIE0bits.IOCIE = 1;
  3147  000DD6  010E               	movlb	14	; () banked
  3148  000DD8  89BD               	bsf	189,4,b	;volatile
  3149                           
  3150                           ; BSR set to: 14
  3151  000DDA  0012               	return		;funcret
  3152  000DDC                     __end_of_PIN_MANAGER_Initialize:
  3153                           	opt callstack 0
  3154                           
  3155 ;; *************** function _IOCAF2_SetInterruptHandler *****************
  3156 ;; Defined at:
  3157 ;;		line 150 in file "mcc_generated_files/pin_manager.c"
  3158 ;; Parameters:    Size  Location     Type
  3159 ;;  InterruptHan    2   10[COMRAM] PTR FTN()void 
  3160 ;;		 -> ping_isr(1), IOCAF2_DefaultInterruptHandler(1), 
  3161 ;; Auto vars:     Size  Location     Type
  3162 ;;		None
  3163 ;; Return value:  Size  Location     Type
  3164 ;;                  1    wreg      void 
  3165 ;; Registers used:
  3166 ;;		wreg, status,2, status,0
  3167 ;; Tracked objects:
  3168 ;;		On entry : 0/0
  3169 ;;		On exit  : 0/0
  3170 ;;		Unchanged: 0/0
  3171 ;; Data sizes:     COMRAM   BANK0   BANK1   BANK2   BANK3   BANK4   BANK5   BANK6   BANK7
  3172 ;;      Params:         2       0       0       0       0       0       0       0       0
  3173 ;;      Locals:         0       0       0       0       0       0       0       0       0
  3174 ;;      Temps:          0       0       0       0       0       0       0       0       0
  3175 ;;      Totals:         2       0       0       0       0       0       0       0       0
  3176 ;;Total ram usage:        2 bytes
  3177 ;; Hardware stack levels used:    1
  3178 ;; Hardware stack levels required when called:    5
  3179 ;; This function calls:
  3180 ;;		Nothing
  3181 ;; This function is called by:
  3182 ;;		_PIN_MANAGER_Initialize
  3183 ;;		_ping_init
  3184 ;; This function uses a non-reentrant model
  3185 ;;
  3186                           
  3187                           	psect	text17
  3188  001016                     __ptext17:
  3189                           	opt callstack 0
  3190  001016                     _IOCAF2_SetInterruptHandler:
  3191                           	opt callstack 24
  3192                           
  3193                           ;mcc_generated_files/pin_manager.c: 151:     IOCAF2_InterruptHandler = InterruptHandler;
  3194                           
  3195                           ; BSR set to: 14
  3196                           ;incstack = 0
  3197  001016  C00B  F050         	movff	IOCAF2_SetInterruptHandler@InterruptHandler,_IOCAF2_InterruptHandler
  3198  00101A  C00C  F051         	movff	IOCAF2_SetInterruptHandler@InterruptHandler+1,_IOCAF2_InterruptHandler+1
  3199  00101E  0012               	return		;funcret
  3200  001020                     __end_of_IOCAF2_SetInterruptHandler:
  3201                           	opt callstack 0
  3202                           
  3203 ;; *************** function _OSCILLATOR_Initialize *****************
  3204 ;; Defined at:
  3205 ;;		line 60 in file "mcc_generated_files/mcc.c"
  3206 ;; Parameters:    Size  Location     Type
  3207 ;;		None
  3208 ;; Auto vars:     Size  Location     Type
  3209 ;;		None
  3210 ;; Return value:  Size  Location     Type
  3211 ;;                  1    wreg      void 
  3212 ;; Registers used:
  3213 ;;		wreg, status,2
  3214 ;; Tracked objects:
  3215 ;;		On entry : 0/0
  3216 ;;		On exit  : 0/0
  3217 ;;		Unchanged: 0/0
  3218 ;; Data sizes:     COMRAM   BANK0   BANK1   BANK2   BANK3   BANK4   BANK5   BANK6   BANK7
  3219 ;;      Params:         0       0       0       0       0       0       0       0       0
  3220 ;;      Locals:         0       0       0       0       0       0       0       0       0
  3221 ;;      Temps:          0       0       0       0       0       0       0       0       0
  3222 ;;      Totals:         0       0       0       0       0       0       0       0       0
  3223 ;;Total ram usage:        0 bytes
  3224 ;; Hardware stack levels used:    1
  3225 ;; Hardware stack levels required when called:    5
  3226 ;; This function calls:
  3227 ;;		Nothing
  3228 ;; This function is called by:
  3229 ;;		_SYSTEM_Initialize
  3230 ;; This function uses a non-reentrant model
  3231 ;;
  3232                           
  3233                           	psect	text18
  3234  000FD6                     __ptext18:
  3235                           	opt callstack 0
  3236  000FD6                     _OSCILLATOR_Initialize:
  3237                           	opt callstack 24
  3238                           
  3239                           ;mcc_generated_files/mcc.c: 63:     OSCCON1 = 0x60;
  3240                           
  3241                           ;incstack = 0
  3242  000FD6  0E60               	movlw	96
  3243  000FD8  010E               	movlb	14	; () banked
  3244  000FDA  6FD3               	movwf	211,b	;volatile
  3245                           
  3246                           ;mcc_generated_files/mcc.c: 65:     OSCCON3 = 0x00;
  3247  000FDC  0E00               	movlw	0
  3248  000FDE  6FD5               	movwf	213,b	;volatile
  3249                           
  3250                           ;mcc_generated_files/mcc.c: 67:     OSCEN = 0x00;
  3251  000FE0  0E00               	movlw	0
  3252  000FE2  6FD7               	movwf	215,b	;volatile
  3253                           
  3254                           ;mcc_generated_files/mcc.c: 69:     OSCFRQ = 0x08;
  3255  000FE4  0E08               	movlw	8
  3256  000FE6  6FD9               	movwf	217,b	;volatile
  3257                           
  3258                           ;mcc_generated_files/mcc.c: 71:     OSCTUNE = 0x00;
  3259  000FE8  0E00               	movlw	0
  3260  000FEA  6FD8               	movwf	216,b	;volatile
  3261                           
  3262                           ; BSR set to: 14
  3263  000FEC  0012               	return		;funcret
  3264  000FEE                     __end_of_OSCILLATOR_Initialize:
  3265                           	opt callstack 0
  3266                           
  3267 ;; *************** function _INTERRUPT_Initialize *****************
  3268 ;; Defined at:
  3269 ;;		line 52 in file "mcc_generated_files/interrupt_manager.c"
  3270 ;; Parameters:    Size  Location     Type
  3271 ;;		None
  3272 ;; Auto vars:     Size  Location     Type
  3273 ;;		None
  3274 ;; Return value:  Size  Location     Type
  3275 ;;                  1    wreg      void 
  3276 ;; Registers used:
  3277 ;;		None
  3278 ;; Tracked objects:
  3279 ;;		On entry : 0/0
  3280 ;;		On exit  : 0/0
  3281 ;;		Unchanged: 0/0
  3282 ;; Data sizes:     COMRAM   BANK0   BANK1   BANK2   BANK3   BANK4   BANK5   BANK6   BANK7
  3283 ;;      Params:         0       0       0       0       0       0       0       0       0
  3284 ;;      Locals:         0       0       0       0       0       0       0       0       0
  3285 ;;      Temps:          0       0       0       0       0       0       0       0       0
  3286 ;;      Totals:         0       0       0       0       0       0       0       0       0
  3287 ;;Total ram usage:        0 bytes
  3288 ;; Hardware stack levels used:    1
  3289 ;; Hardware stack levels required when called:    5
  3290 ;; This function calls:
  3291 ;;		Nothing
  3292 ;; This function is called by:
  3293 ;;		_SYSTEM_Initialize
  3294 ;; This function uses a non-reentrant model
  3295 ;;
  3296                           
  3297                           	psect	text19
  3298  001020                     __ptext19:
  3299                           	opt callstack 0
  3300  001020                     _INTERRUPT_Initialize:
  3301                           	opt callstack 24
  3302                           
  3303                           ;mcc_generated_files/interrupt_manager.c: 55:     INTCONbits.IPEN = 0;
  3304                           
  3305                           ; BSR set to: 14
  3306                           ;incstack = 0
  3307  001020  9AF2               	bcf	4082,5,c	;volatile
  3308  001022  0012               	return		;funcret
  3309  001024                     __end_of_INTERRUPT_Initialize:
  3310                           	opt callstack 0
  3311                           
  3312 ;; *************** function _INTERRUPT_InterruptManager *****************
  3313 ;; Defined at:
  3314 ;;		line 58 in file "mcc_generated_files/interrupt_manager.c"
  3315 ;; Parameters:    Size  Location     Type
  3316 ;;		None
  3317 ;; Auto vars:     Size  Location     Type
  3318 ;;		None
  3319 ;; Return value:  Size  Location     Type
  3320 ;;                  1    wreg      void 
  3321 ;; Registers used:
  3322 ;;		wreg, status,2, status,0, pclath, tosl, cstack
  3323 ;; Tracked objects:
  3324 ;;		On entry : 0/0
  3325 ;;		On exit  : 0/0
  3326 ;;		Unchanged: 0/0
  3327 ;; Data sizes:     COMRAM   BANK0   BANK1   BANK2   BANK3   BANK4   BANK5   BANK6   BANK7
  3328 ;;      Params:         0       0       0       0       0       0       0       0       0
  3329 ;;      Locals:         0       0       0       0       0       0       0       0       0
  3330 ;;      Temps:          2       0       0       0       0       0       0       0       0
  3331 ;;      Totals:         2       0       0       0       0       0       0       0       0
  3332 ;;Total ram usage:        2 bytes
  3333 ;; Hardware stack levels used:    1
  3334 ;; Hardware stack levels required when called:    4
  3335 ;; This function calls:
  3336 ;;		_PIN_MANAGER_IOC
  3337 ;;		_TMR2_ISR
  3338 ;; This function is called by:
  3339 ;;		Interrupt level 2
  3340 ;; This function uses a non-reentrant model
  3341 ;;
  3342                           
  3343                           	psect	intcode
  3344  000008                     __pintcode:
  3345                           	opt callstack 0
  3346  000008                     _INTERRUPT_InterruptManager:
  3347                           	opt callstack 23
  3348                           
  3349                           ;incstack = 0
  3350  000008  8255               	bsf	btemp,1,c	;set compiler interrupt flag (level 2)
  3351  00000A  CFFA F009          	movff	pclath,??_INTERRUPT_InterruptManager
  3352  00000E  CFFB F00A          	movff	pclatu,??_INTERRUPT_InterruptManager+1
  3353                           
  3354                           ;mcc_generated_files/interrupt_manager.c: 61:     if(PIE0bits.IOCIE == 1 && PIR0bits.IOC
      +                          IF == 1)
  3355  000012  010E               	movlb	14	; () banked
  3356  000014  B9BD               	btfsc	189,4,b	;volatile
  3357                           
  3358                           ; BSR set to: 14
  3359  000016  A9C5               	btfss	197,4,b	;volatile
  3360  000018  D003               	goto	i2l217
  3361                           
  3362                           ; BSR set to: 14
  3363                           ;mcc_generated_files/interrupt_manager.c: 62:     {;mcc_generated_files/interrupt_manage
      +                          r.c: 63:         PIN_MANAGER_IOC();
  3364  00001A  EC00  F008         	call	_PIN_MANAGER_IOC	;wreg free
  3365                           
  3366                           ;mcc_generated_files/interrupt_manager.c: 64:     }
  3367  00001E  D006               	goto	i2l221
  3368  000020                     i2l217:
  3369                           
  3370                           ; BSR set to: 14
  3371  000020  BCF2               	btfsc	4082,6,c	;volatile
  3372                           
  3373                           ; BSR set to: 14
  3374                           ;mcc_generated_files/interrupt_manager.c: 66:     {;mcc_generated_files/interrupt_manage
      +                          r.c: 67:         if(PIE4bits.TMR2IE == 1 && PIR4bits.TMR2IF == 1)
  3375  000022  A3C1               	btfss	193,1,b	;volatile
  3376  000024  D003               	goto	i2l221
  3377                           
  3378                           ; BSR set to: 14
  3379  000026  B3C9               	btfsc	201,1,b	;volatile
  3380                           
  3381                           ; BSR set to: 14
  3382                           ;mcc_generated_files/interrupt_manager.c: 68:         {;mcc_generated_files/interrupt_ma
      +                          nager.c: 69:             TMR2_ISR();
  3383  000028  EC91  F007         	call	_TMR2_ISR	;wreg free
  3384  00002C                     i2l221:
  3385  00002C  C00A  FFFB         	movff	??_INTERRUPT_InterruptManager+1,pclatu
  3386  000030  C009  FFFA         	movff	??_INTERRUPT_InterruptManager,pclath
  3387  000034  9255               	bcf	btemp,1,c	;clear compiler interrupt flag (level 2)
  3388  000036  0011               	retfie		f
  3389  000038                     __end_of_INTERRUPT_InterruptManager:
  3390                           	opt callstack 0
  3391                           
  3392 ;; *************** function _TMR2_ISR *****************
  3393 ;; Defined at:
  3394 ;;		line 165 in file "mcc_generated_files/tmr2.c"
  3395 ;; Parameters:    Size  Location     Type
  3396 ;;		None
  3397 ;; Auto vars:     Size  Location     Type
  3398 ;;		None
  3399 ;; Return value:  Size  Location     Type
  3400 ;;                  1    wreg      void 
  3401 ;; Registers used:
  3402 ;;		wreg, status,2, status,0, pclath, tosl, cstack
  3403 ;; Tracked objects:
  3404 ;;		On entry : 0/0
  3405 ;;		On exit  : 0/0
  3406 ;;		Unchanged: 0/0
  3407 ;; Data sizes:     COMRAM   BANK0   BANK1   BANK2   BANK3   BANK4   BANK5   BANK6   BANK7
  3408 ;;      Params:         0       0       0       0       0       0       0       0       0
  3409 ;;      Locals:         0       0       0       0       0       0       0       0       0
  3410 ;;      Temps:          0       0       0       0       0       0       0       0       0
  3411 ;;      Totals:         0       0       0       0       0       0       0       0       0
  3412 ;;Total ram usage:        0 bytes
  3413 ;; Hardware stack levels used:    1
  3414 ;; Hardware stack levels required when called:    1
  3415 ;; This function calls:
  3416 ;;		Absolute function
  3417 ;;		_TMR2_DefaultInterruptHandler
  3418 ;;		_carcontrol_ISR
  3419 ;; This function is called by:
  3420 ;;		_INTERRUPT_InterruptManager
  3421 ;; This function uses a non-reentrant model
  3422 ;;
  3423                           
  3424                           	psect	text21
  3425  000F22                     __ptext21:
  3426                           	opt callstack 0
  3427  000F22                     _TMR2_ISR:
  3428                           	opt callstack 25
  3429                           
  3430                           ;mcc_generated_files/tmr2.c: 169:     PIR4bits.TMR2IF = 0;
  3431                           
  3432                           ;incstack = 0
  3433  000F22  010E               	movlb	14	; () banked
  3434  000F24  93C9               	bcf	201,1,b	;volatile
  3435                           
  3436                           ; BSR set to: 14
  3437                           ;mcc_generated_files/tmr2.c: 171:     if(TMR2_InterruptHandler)
  3438  000F26  504E               	movf	_TMR2_InterruptHandler,w,c
  3439  000F28  104F               	iorwf	_TMR2_InterruptHandler+1,w,c
  3440  000F2A  B4D8               	btfsc	status,2,c
  3441  000F2C  0012               	return	
  3442                           
  3443                           ; BSR set to: 14
  3444                           ;mcc_generated_files/tmr2.c: 172:     {;mcc_generated_files/tmr2.c: 173:         TMR2_In
      +                          terruptHandler();
  3445  000F2E  D801               	call	i2u44_48
  3446  000F30  0012               	return	
  3447  000F32                     i2u44_48:
  3448  000F32  0005               	push	
  3449  000F34  6EFA               	movwf	pclath,c
  3450  000F36  504E               	movf	_TMR2_InterruptHandler,w,c
  3451  000F38  6EFD               	movwf	tosl,c
  3452  000F3A  504F               	movf	_TMR2_InterruptHandler+1,w,c
  3453  000F3C  6EFE               	movwf	tosh,c
  3454  000F3E  50F8               	movf	tblptru,w,c
  3455  000F40  6EFF               	movwf	tosu,c
  3456  000F42  50FA               	movf	pclath,w,c
  3457  000F44  0012               	return		;indir
  3458  000F46                     __end_of_TMR2_ISR:
  3459                           	opt callstack 0
  3460                           
  3461 ;; *************** function _TMR2_DefaultInterruptHandler *****************
  3462 ;; Defined at:
  3463 ;;		line 182 in file "mcc_generated_files/tmr2.c"
  3464 ;; Parameters:    Size  Location     Type
  3465 ;;		None
  3466 ;; Auto vars:     Size  Location     Type
  3467 ;;		None
  3468 ;; Return value:  Size  Location     Type
  3469 ;;                  1    wreg      void 
  3470 ;; Registers used:
  3471 ;;		None
  3472 ;; Tracked objects:
  3473 ;;		On entry : 0/0
  3474 ;;		On exit  : 0/0
  3475 ;;		Unchanged: 0/0
  3476 ;; Data sizes:     COMRAM   BANK0   BANK1   BANK2   BANK3   BANK4   BANK5   BANK6   BANK7
  3477 ;;      Params:         0       0       0       0       0       0       0       0       0
  3478 ;;      Locals:         0       0       0       0       0       0       0       0       0
  3479 ;;      Temps:          0       0       0       0       0       0       0       0       0
  3480 ;;      Totals:         0       0       0       0       0       0       0       0       0
  3481 ;;Total ram usage:        0 bytes
  3482 ;; Hardware stack levels used:    1
  3483 ;; This function calls:
  3484 ;;		Nothing
  3485 ;; This function is called by:
  3486 ;;		_TMR2_Initialize
  3487 ;;		_TMR2_ISR
  3488 ;; This function uses a non-reentrant model
  3489 ;;
  3490                           
  3491                           	psect	text22
  3492  001030                     __ptext22:
  3493                           	opt callstack 0
  3494  001030                     _TMR2_DefaultInterruptHandler:
  3495                           	opt callstack 25
  3496                           
  3497                           ;incstack = 0
  3498  001030  0012               	return		;funcret
  3499  001032                     __end_of_TMR2_DefaultInterruptHandler:
  3500                           	opt callstack 0
  3501                           
  3502 ;; *************** function _carcontrol_ISR *****************
  3503 ;; Defined at:
  3504 ;;		line 41 in file "car_ctrl.c"
  3505 ;; Parameters:    Size  Location     Type
  3506 ;;		None
  3507 ;; Auto vars:     Size  Location     Type
  3508 ;;		None
  3509 ;; Return value:  Size  Location     Type
  3510 ;;                  1    wreg      void 
  3511 ;; Registers used:
  3512 ;;		wreg, status,2, status,0
  3513 ;; Tracked objects:
  3514 ;;		On entry : 0/0
  3515 ;;		On exit  : 0/0
  3516 ;;		Unchanged: 0/0
  3517 ;; Data sizes:     COMRAM   BANK0   BANK1   BANK2   BANK3   BANK4   BANK5   BANK6   BANK7
  3518 ;;      Params:         0       0       0       0       0       0       0       0       0
  3519 ;;      Locals:         0       0       0       0       0       0       0       0       0
  3520 ;;      Temps:          3       0       0       0       0       0       0       0       0
  3521 ;;      Totals:         3       0       0       0       0       0       0       0       0
  3522 ;;Total ram usage:        3 bytes
  3523 ;; Hardware stack levels used:    1
  3524 ;; This function calls:
  3525 ;;		Nothing
  3526 ;; This function is called by:
  3527 ;;		_carcontrol_init
  3528 ;;		_TMR2_ISR
  3529 ;; This function uses a non-reentrant model
  3530 ;;
  3531                           
  3532                           	psect	text23
  3533  000B68                     __ptext23:
  3534                           	opt callstack 0
  3535  000B68                     _carcontrol_ISR:
  3536                           	opt callstack 25
  3537                           
  3538                           ;car_ctrl.c: 43:     switch (carctl.state) {
  3539                           
  3540                           ;incstack = 0
  3541  000B68  D05C               	goto	i2l1244
  3542  000B6A                     i2l1202:
  3543                           
  3544                           ;car_ctrl.c: 46:             carctl.state = state_high;
  3545  000B6A  0E01               	movlw	1
  3546  000B6C  6E45               	movwf	_carctl+1,c	;volatile
  3547  000B6E  8082               	bsf	3970,0,c	;volatile
  3548  000B70  8282               	bsf	3970,1,c	;volatile
  3549                           
  3550                           ;car_ctrl.c: 49:             stateTime = 0;
  3551  000B72  0E00               	movlw	0
  3552  000B74  6E4A               	movwf	_stateTime+1,c
  3553  000B76  0E00               	movlw	0
  3554  000B78  6E49               	movwf	_stateTime,c
  3555                           
  3556                           ;car_ctrl.c: 50:         break;
  3557  000B7A  0012               	return	
  3558  000B7C                     i2l1208:
  3559                           
  3560                           ;car_ctrl.c: 52:             stateTime++;
  3561  000B7C  4A49               	infsnz	_stateTime,f,c
  3562  000B7E  2A4A               	incf	_stateTime+1,f,c
  3563  000B80  8082               	bsf	3970,0,c	;volatile
  3564  000B82  8282               	bsf	3970,1,c	;volatile
  3565                           
  3566                           ;car_ctrl.c: 55:             if (stateTime >= 100) {
  3567  000B84  BE4A               	btfsc	_stateTime+1,7,c
  3568  000B86  0012               	return	
  3569  000B88  504A               	movf	_stateTime+1,w,c
  3570  000B8A  E104               	bnz	i2u8_40
  3571  000B8C  0E64               	movlw	100
  3572  000B8E  5C49               	subwf	_stateTime,w,c
  3573  000B90  A0D8               	btfss	status,0,c
  3574  000B92  0012               	return	
  3575  000B94                     i2u8_40:
  3576                           
  3577                           ;car_ctrl.c: 57:                 carctl.state = state_vary;
  3578  000B94  0E02               	movlw	2
  3579  000B96  6E45               	movwf	_carctl+1,c	;volatile
  3580                           
  3581                           ;car_ctrl.c: 58:                 stateTime = 0;
  3582  000B98  0E00               	movlw	0
  3583  000B9A  6E4A               	movwf	_stateTime+1,c
  3584  000B9C  0E00               	movlw	0
  3585  000B9E  6E49               	movwf	_stateTime,c
  3586  000BA0  0012               	return	
  3587  000BA2                     i2l1218:
  3588                           
  3589                           ;car_ctrl.c: 62:             stateTime++;
  3590  000BA2  4A49               	infsnz	_stateTime,f,c
  3591  000BA4  2A4A               	incf	_stateTime+1,f,c
  3592                           
  3593                           ;car_ctrl.c: 63:             if (stateTime > carctl.throttleHighTime) {
  3594  000BA6  5047               	movf	_carctl+3,w,c	;volatile
  3595  000BA8  6E01               	movwf	??_carcontrol_ISR& (0+255),c
  3596  000BAA  6A02               	clrf	(??_carcontrol_ISR+1)& (0+255),c
  3597  000BAC  5049               	movf	_stateTime,w,c
  3598  000BAE  5C01               	subwf	??_carcontrol_ISR,w,c
  3599  000BB0  5002               	movf	??_carcontrol_ISR+1,w,c
  3600  000BB2  0A80               	xorlw	128
  3601  000BB4  6E03               	movwf	(??_carcontrol_ISR+2)& (0+255),c
  3602  000BB6  504A               	movf	_stateTime+1,w,c
  3603  000BB8  0A80               	xorlw	128
  3604  000BBA  5803               	subwfb	(??_carcontrol_ISR+2)& (0+255),w,c
  3605  000BBC  A0D8               	btfss	status,0,c
  3606                           
  3607                           ;car_ctrl.c: 64:                 do { LATAbits.LATA0 = 0; } while(0);
  3608  000BBE  9082               	bcf	3970,0,c	;volatile
  3609                           
  3610                           ;car_ctrl.c: 66:             if (stateTime > carctl.servoHighTime) {
  3611  000BC0  5048               	movf	_carctl+4,w,c	;volatile
  3612  000BC2  6E01               	movwf	??_carcontrol_ISR& (0+255),c
  3613  000BC4  6A02               	clrf	(??_carcontrol_ISR+1)& (0+255),c
  3614  000BC6  5049               	movf	_stateTime,w,c
  3615  000BC8  5C01               	subwf	??_carcontrol_ISR,w,c
  3616  000BCA  5002               	movf	??_carcontrol_ISR+1,w,c
  3617  000BCC  0A80               	xorlw	128
  3618  000BCE  6E03               	movwf	(??_carcontrol_ISR+2)& (0+255),c
  3619  000BD0  504A               	movf	_stateTime+1,w,c
  3620  000BD2  0A80               	xorlw	128
  3621  000BD4  5803               	subwfb	(??_carcontrol_ISR+2)& (0+255),w,c
  3622  000BD6  A0D8               	btfss	status,0,c
  3623                           
  3624                           ;car_ctrl.c: 67:                 do { LATAbits.LATA1 = 0; } while(0);
  3625  000BD8  9282               	bcf	3970,1,c	;volatile
  3626                           
  3627                           ;car_ctrl.c: 69:             if (stateTime >= 100) {
  3628  000BDA  BE4A               	btfsc	_stateTime+1,7,c
  3629  000BDC  0012               	return	
  3630  000BDE  504A               	movf	_stateTime+1,w,c
  3631  000BE0  E104               	bnz	i2u11_40
  3632  000BE2  0E64               	movlw	100
  3633  000BE4  5C49               	subwf	_stateTime,w,c
  3634  000BE6  A0D8               	btfss	status,0,c
  3635  000BE8  0012               	return	
  3636  000BEA                     i2u11_40:
  3637                           
  3638                           ;car_ctrl.c: 70:                 carctl.state = state_low;
  3639  000BEA  0E03               	movlw	3
  3640  000BEC  6E45               	movwf	_carctl+1,c	;volatile
  3641                           
  3642                           ;car_ctrl.c: 71:                 stateTime = 0;
  3643  000BEE  0E00               	movlw	0
  3644  000BF0  6E4A               	movwf	_stateTime+1,c
  3645  000BF2  0E00               	movlw	0
  3646  000BF4  6E49               	movwf	_stateTime,c
  3647  000BF6  0012               	return	
  3648  000BF8                     i2l1228:
  3649                           
  3650                           ;car_ctrl.c: 75:             stateTime++;
  3651  000BF8  4A49               	infsnz	_stateTime,f,c
  3652  000BFA  2A4A               	incf	_stateTime+1,f,c
  3653  000BFC  9082               	bcf	3970,0,c	;volatile
  3654  000BFE  9282               	bcf	3970,1,c	;volatile
  3655                           
  3656                           ;car_ctrl.c: 78:             if (stateTime >= 1800) {
  3657  000C00  BE4A               	btfsc	_stateTime+1,7,c
  3658  000C02  0012               	return	
  3659  000C04  0E08               	movlw	8
  3660  000C06  5C49               	subwf	_stateTime,w,c
  3661  000C08  0E07               	movlw	7
  3662  000C0A  584A               	subwfb	_stateTime+1,w,c
  3663  000C0C  A0D8               	btfss	status,0,c
  3664  000C0E  0012               	return	
  3665                           
  3666                           ;car_ctrl.c: 79:                 carctl.state = state_high;
  3667  000C10  0E01               	movlw	1
  3668  000C12  6E45               	movwf	_carctl+1,c	;volatile
  3669                           
  3670                           ;car_ctrl.c: 80:                 stateTime = 0;
  3671  000C14  0E00               	movlw	0
  3672  000C16  6E4A               	movwf	_stateTime+1,c
  3673  000C18  0E00               	movlw	0
  3674  000C1A  6E49               	movwf	_stateTime,c
  3675  000C1C  8082               	bsf	3970,0,c	;volatile
  3676  000C1E  9282               	bcf	3970,1,c	;volatile
  3677  000C20  0012               	return	
  3678  000C22                     i2l1244:
  3679  000C22  5045               	movf	_carctl+1,w,c	;volatile
  3680  000C24  6E01               	movwf	??_carcontrol_ISR& (0+255),c
  3681  000C26  6A02               	clrf	(??_carcontrol_ISR+1)& (0+255),c
  3682                           
  3683                           ; Switch on 2 bytes has been partitioned into a top level switch of size 1, and 1 sub-sw
      +                          itches
  3684                           ; Switch size 1, requested type "simple"
  3685                           ; Number of cases is 1, Range of values is 0 to 0
  3686                           ; switch strategies available:
  3687                           ; Name         Instructions Cycles
  3688                           ; simple_byte            4     3 (average)
  3689                           ;	Chosen strategy is simple_byte
  3690  000C28  5002               	movf	??_carcontrol_ISR+1,w,c
  3691  000C2A  0A00               	xorlw	0	; case 0
  3692  000C2C  A4D8               	btfss	status,2,c
  3693  000C2E  0012               	return	
  3694                           
  3695                           ; Switch size 1, requested type "simple"
  3696                           ; Number of cases is 4, Range of values is 0 to 3
  3697                           ; switch strategies available:
  3698                           ; Name         Instructions Cycles
  3699                           ; simple_byte           13     7 (average)
  3700                           ;	Chosen strategy is simple_byte
  3701  000C30  5001               	movf	??_carcontrol_ISR,w,c
  3702  000C32  0A00               	xorlw	0	; case 0
  3703  000C34  B4D8               	btfsc	status,2,c
  3704  000C36  D799               	goto	i2l1202
  3705  000C38  0A01               	xorlw	1	; case 1
  3706  000C3A  B4D8               	btfsc	status,2,c
  3707  000C3C  D79F               	goto	i2l1208
  3708  000C3E  0A03               	xorlw	3	; case 2
  3709  000C40  B4D8               	btfsc	status,2,c
  3710  000C42  D7AF               	goto	i2l1218
  3711  000C44  0A01               	xorlw	1	; case 3
  3712  000C46  A4D8               	btfss	status,2,c
  3713  000C48  0012               	return	
  3714  000C4A  D7D6               	goto	i2l1228
  3715  000C4C                     __end_of_carcontrol_ISR:
  3716                           	opt callstack 0
  3717                           
  3718 ;; *************** function _PIN_MANAGER_IOC *****************
  3719 ;; Defined at:
  3720 ;;		line 123 in file "mcc_generated_files/pin_manager.c"
  3721 ;; Parameters:    Size  Location     Type
  3722 ;;		None
  3723 ;; Auto vars:     Size  Location     Type
  3724 ;;		None
  3725 ;; Return value:  Size  Location     Type
  3726 ;;                  1    wreg      void 
  3727 ;; Registers used:
  3728 ;;		wreg, status,2, status,0, pclath, tosl, cstack
  3729 ;; Tracked objects:
  3730 ;;		On entry : 0/0
  3731 ;;		On exit  : 0/0
  3732 ;;		Unchanged: 0/0
  3733 ;; Data sizes:     COMRAM   BANK0   BANK1   BANK2   BANK3   BANK4   BANK5   BANK6   BANK7
  3734 ;;      Params:         0       0       0       0       0       0       0       0       0
  3735 ;;      Locals:         0       0       0       0       0       0       0       0       0
  3736 ;;      Temps:          0       0       0       0       0       0       0       0       0
  3737 ;;      Totals:         0       0       0       0       0       0       0       0       0
  3738 ;;Total ram usage:        0 bytes
  3739 ;; Hardware stack levels used:    1
  3740 ;; Hardware stack levels required when called:    3
  3741 ;; This function calls:
  3742 ;;		_IOCAF2_ISR
  3743 ;; This function is called by:
  3744 ;;		_INTERRUPT_InterruptManager
  3745 ;; This function uses a non-reentrant model
  3746 ;;
  3747                           
  3748                           	psect	text24
  3749  001000                     __ptext24:
  3750                           	opt callstack 0
  3751  001000                     _PIN_MANAGER_IOC:
  3752                           	opt callstack 23
  3753                           
  3754                           ;mcc_generated_files/pin_manager.c: 126:     if(IOCAFbits.IOCAF2 == 1)
  3755                           
  3756                           ;incstack = 0
  3757  001000  010F               	movlb	15	; () banked
  3758  001002  A505               	btfss	5,2,b	;volatile
  3759  001004  0012               	return	
  3760                           
  3761                           ; BSR set to: 15
  3762                           ;mcc_generated_files/pin_manager.c: 127:     {;mcc_generated_files/pin_manager.c: 128:  
      +                                 IOCAF2_ISR();
  3763  001006  EC7E  F007         	call	_IOCAF2_ISR	;wreg free
  3764  00100A  0012               	return		;funcret
  3765  00100C                     __end_of_PIN_MANAGER_IOC:
  3766                           	opt callstack 0
  3767                           
  3768 ;; *************** function _IOCAF2_ISR *****************
  3769 ;; Defined at:
  3770 ;;		line 135 in file "mcc_generated_files/pin_manager.c"
  3771 ;; Parameters:    Size  Location     Type
  3772 ;;		None
  3773 ;; Auto vars:     Size  Location     Type
  3774 ;;		None
  3775 ;; Return value:  Size  Location     Type
  3776 ;;                  1    wreg      void 
  3777 ;; Registers used:
  3778 ;;		wreg, status,2, status,0, pclath, tosl, cstack
  3779 ;; Tracked objects:
  3780 ;;		On entry : 0/0
  3781 ;;		On exit  : 0/0
  3782 ;;		Unchanged: 0/0
  3783 ;; Data sizes:     COMRAM   BANK0   BANK1   BANK2   BANK3   BANK4   BANK5   BANK6   BANK7
  3784 ;;      Params:         0       0       0       0       0       0       0       0       0
  3785 ;;      Locals:         0       0       0       0       0       0       0       0       0
  3786 ;;      Temps:          0       0       0       0       0       0       0       0       0
  3787 ;;      Totals:         0       0       0       0       0       0       0       0       0
  3788 ;;Total ram usage:        0 bytes
  3789 ;; Hardware stack levels used:    1
  3790 ;; Hardware stack levels required when called:    2
  3791 ;; This function calls:
  3792 ;;		Absolute function
  3793 ;;		_IOCAF2_DefaultInterruptHandler
  3794 ;;		_ping_isr
  3795 ;; This function is called by:
  3796 ;;		_PIN_MANAGER_IOC
  3797 ;; This function uses a non-reentrant model
  3798 ;;
  3799                           
  3800                           	psect	text25
  3801  000EFC                     __ptext25:
  3802                           	opt callstack 0
  3803  000EFC                     _IOCAF2_ISR:
  3804                           	opt callstack 23
  3805                           
  3806                           ;mcc_generated_files/pin_manager.c: 140:     if(IOCAF2_InterruptHandler)
  3807                           
  3808                           ;incstack = 0
  3809  000EFC  5050               	movf	_IOCAF2_InterruptHandler,w,c
  3810  000EFE  1051               	iorwf	_IOCAF2_InterruptHandler+1,w,c
  3811  000F00  B4D8               	btfsc	status,2,c
  3812  000F02  D00C               	goto	i2u123_49
  3813                           
  3814                           ;mcc_generated_files/pin_manager.c: 141:     {;mcc_generated_files/pin_manager.c: 142:  
      +                                 IOCAF2_InterruptHandler();
  3815  000F04  D801               	call	i2u123_48
  3816  000F06  D00A               	goto	i2u123_49
  3817  000F08                     i2u123_48:
  3818  000F08  0005               	push	
  3819  000F0A  6EFA               	movwf	pclath,c
  3820  000F0C  5050               	movf	_IOCAF2_InterruptHandler,w,c
  3821  000F0E  6EFD               	movwf	tosl,c
  3822  000F10  5051               	movf	_IOCAF2_InterruptHandler+1,w,c
  3823  000F12  6EFE               	movwf	tosh,c
  3824  000F14  50F8               	movf	tblptru,w,c
  3825  000F16  6EFF               	movwf	tosu,c
  3826  000F18  50FA               	movf	pclath,w,c
  3827  000F1A  0012               	return		;indir
  3828  000F1C                     i2u123_49:
  3829                           
  3830                           ;mcc_generated_files/pin_manager.c: 144:     IOCAFbits.IOCAF2 = 0;
  3831  000F1C  010F               	movlb	15	; () banked
  3832  000F1E  9505               	bcf	5,2,b	;volatile
  3833                           
  3834                           ; BSR set to: 15
  3835  000F20  0012               	return		;funcret
  3836  000F22                     __end_of_IOCAF2_ISR:
  3837                           	opt callstack 0
  3838                           
  3839 ;; *************** function _IOCAF2_DefaultInterruptHandler *****************
  3840 ;; Defined at:
  3841 ;;		line 157 in file "mcc_generated_files/pin_manager.c"
  3842 ;; Parameters:    Size  Location     Type
  3843 ;;		None
  3844 ;; Auto vars:     Size  Location     Type
  3845 ;;		None
  3846 ;; Return value:  Size  Location     Type
  3847 ;;                  1    wreg      void 
  3848 ;; Registers used:
  3849 ;;		None
  3850 ;; Tracked objects:
  3851 ;;		On entry : 0/0
  3852 ;;		On exit  : 0/0
  3853 ;;		Unchanged: 0/0
  3854 ;; Data sizes:     COMRAM   BANK0   BANK1   BANK2   BANK3   BANK4   BANK5   BANK6   BANK7
  3855 ;;      Params:         0       0       0       0       0       0       0       0       0
  3856 ;;      Locals:         0       0       0       0       0       0       0       0       0
  3857 ;;      Temps:          0       0       0       0       0       0       0       0       0
  3858 ;;      Totals:         0       0       0       0       0       0       0       0       0
  3859 ;;Total ram usage:        0 bytes
  3860 ;; Hardware stack levels used:    1
  3861 ;; This function calls:
  3862 ;;		Nothing
  3863 ;; This function is called by:
  3864 ;;		_PIN_MANAGER_Initialize
  3865 ;;		_IOCAF2_ISR
  3866 ;; This function uses a non-reentrant model
  3867 ;;
  3868                           
  3869                           	psect	text26
  3870  001032                     __ptext26:
  3871                           	opt callstack 0
  3872  001032                     _IOCAF2_DefaultInterruptHandler:
  3873                           	opt callstack 24
  3874                           
  3875                           ; BSR set to: 15
  3876                           ;incstack = 0
  3877  001032  0012               	return		;funcret
  3878  001034                     __end_of_IOCAF2_DefaultInterruptHandler:
  3879                           	opt callstack 0
  3880                           
  3881 ;; *************** function _ping_isr *****************
  3882 ;; Defined at:
  3883 ;;		line 6 in file "ping.c"
  3884 ;; Parameters:    Size  Location     Type
  3885 ;;		None
  3886 ;; Auto vars:     Size  Location     Type
  3887 ;;		None
  3888 ;; Return value:  Size  Location     Type
  3889 ;;                  1    wreg      void 
  3890 ;; Registers used:
  3891 ;;		wreg, status,2, cstack
  3892 ;; Tracked objects:
  3893 ;;		On entry : 0/0
  3894 ;;		On exit  : 0/0
  3895 ;;		Unchanged: 0/0
  3896 ;; Data sizes:     COMRAM   BANK0   BANK1   BANK2   BANK3   BANK4   BANK5   BANK6   BANK7
  3897 ;;      Params:         0       0       0       0       0       0       0       0       0
  3898 ;;      Locals:         0       0       0       0       0       0       0       0       0
  3899 ;;      Temps:          0       0       0       0       0       0       0       0       0
  3900 ;;      Totals:         0       0       0       0       0       0       0       0       0
  3901 ;;Total ram usage:        0 bytes
  3902 ;; Hardware stack levels used:    1
  3903 ;; Hardware stack levels required when called:    1
  3904 ;; This function calls:
  3905 ;;		_TMR3_ReadTimer
  3906 ;;		_TMR3_StartTimer
  3907 ;;		_TMR3_StopTimer
  3908 ;;		_TMR3_WriteTimer
  3909 ;; This function is called by:
  3910 ;;		_ping_init
  3911 ;;		_IOCAF2_ISR
  3912 ;; This function uses a non-reentrant model
  3913 ;;
  3914                           
  3915                           	psect	text27
  3916  000ED0                     __ptext27:
  3917                           	opt callstack 0
  3918  000ED0                     _ping_isr:
  3919                           	opt callstack 23
  3920                           
  3921                           ;ping.c: 8:     if (PORTAbits.RA2) {
  3922                           
  3923                           ;incstack = 0
  3924  000ED0  A48C               	btfss	3980,2,c	;volatile
  3925  000ED2  D009               	goto	i2l1990
  3926                           
  3927                           ;ping.c: 10:         TMR3_WriteTimer(0);
  3928  000ED4  0E00               	movlw	0
  3929  000ED6  6E02               	movwf	TMR3_WriteTimer@timerVal+1,c
  3930  000ED8  0E00               	movlw	0
  3931  000EDA  6E01               	movwf	TMR3_WriteTimer@timerVal,c
  3932  000EDC  ECD0  F007         	call	_TMR3_WriteTimer	;wreg free
  3933                           
  3934                           ;ping.c: 11:         TMR3_StartTimer();
  3935  000EE0  EC14  F008         	call	_TMR3_StartTimer	;wreg free
  3936                           
  3937                           ;ping.c: 12:     } else {
  3938  000EE4  0012               	return	
  3939  000EE6                     i2l1990:
  3940                           
  3941                           ;ping.c: 14:         TMR3_StopTimer();
  3942  000EE6  EC12  F008         	call	_TMR3_StopTimer	;wreg free
  3943                           
  3944                           ;ping.c: 15:         time_val = TMR3_ReadTimer();
  3945  000EEA  ECA3  F007         	call	_TMR3_ReadTimer	;wreg free
  3946  000EEE  C001  F04C         	movff	?_TMR3_ReadTimer,_time_val	;volatile
  3947  000EF2  C002  F04D         	movff	?_TMR3_ReadTimer+1,_time_val+1	;volatile
  3948                           
  3949                           ;ping.c: 16:         read_ready = 1;
  3950  000EF6  0E01               	movlw	1
  3951  000EF8  6E4B               	movwf	_read_ready,c	;volatile
  3952  000EFA  0012               	return		;funcret
  3953  000EFC                     __end_of_ping_isr:
  3954                           	opt callstack 0
  3955                           
  3956 ;; *************** function _TMR3_WriteTimer *****************
  3957 ;; Defined at:
  3958 ;;		line 120 in file "mcc_generated_files/tmr3.c"
  3959 ;; Parameters:    Size  Location     Type
  3960 ;;  timerVal        2    0[COMRAM] unsigned short 
  3961 ;; Auto vars:     Size  Location     Type
  3962 ;;		None
  3963 ;; Return value:  Size  Location     Type
  3964 ;;                  1    wreg      void 
  3965 ;; Registers used:
  3966 ;;		wreg, status,2
  3967 ;; Tracked objects:
  3968 ;;		On entry : 0/0
  3969 ;;		On exit  : 0/0
  3970 ;;		Unchanged: 0/0
  3971 ;; Data sizes:     COMRAM   BANK0   BANK1   BANK2   BANK3   BANK4   BANK5   BANK6   BANK7
  3972 ;;      Params:         2       0       0       0       0       0       0       0       0
  3973 ;;      Locals:         0       0       0       0       0       0       0       0       0
  3974 ;;      Temps:          0       0       0       0       0       0       0       0       0
  3975 ;;      Totals:         2       0       0       0       0       0       0       0       0
  3976 ;;Total ram usage:        2 bytes
  3977 ;; Hardware stack levels used:    1
  3978 ;; This function calls:
  3979 ;;		Nothing
  3980 ;; This function is called by:
  3981 ;;		_ping_isr
  3982 ;;		_TMR3_Reload
  3983 ;; This function uses a non-reentrant model
  3984 ;;
  3985                           
  3986                           	psect	text28
  3987  000FA0                     __ptext28:
  3988                           	opt callstack 0
  3989  000FA0                     _TMR3_WriteTimer:
  3990                           	opt callstack 23
  3991                           
  3992                           ;mcc_generated_files/tmr3.c: 120: void TMR3_WriteTimer(uint16_t timerVal);mcc_generated_
      +                          files/tmr3.c: 121: {;mcc_generated_files/tmr3.c: 122:     if (T3CONbits.nT3SYNC == 1)
  3993                           
  3994                           ;incstack = 0
  3995  000FA0  A4C8               	btfss	4040,2,c	;volatile
  3996  000FA2  D007               	goto	i2l1968
  3997                           
  3998                           ;mcc_generated_files/tmr3.c: 123:     {;mcc_generated_files/tmr3.c: 125:         T3CONbi
      +                          ts.TMR3ON = 0;
  3999  000FA4  90C8               	bcf	4040,0,c	;volatile
  4000                           
  4001                           ;mcc_generated_files/tmr3.c: 128:         TMR3H = (timerVal >> 8);
  4002  000FA6  5002               	movf	TMR3_WriteTimer@timerVal+1,w,c
  4003  000FA8  6EC7               	movwf	4039,c	;volatile
  4004                           
  4005                           ;mcc_generated_files/tmr3.c: 129:         TMR3L = timerVal;
  4006  000FAA  C001  FFC6         	movff	TMR3_WriteTimer@timerVal,4038	;volatile
  4007                           
  4008                           ;mcc_generated_files/tmr3.c: 132:         T3CONbits.TMR3ON =1;
  4009  000FAE  80C8               	bsf	4040,0,c	;volatile
  4010                           
  4011                           ;mcc_generated_files/tmr3.c: 133:     }
  4012  000FB0  0012               	return	
  4013  000FB2                     i2l1968:
  4014                           
  4015                           ;mcc_generated_files/tmr3.c: 135:     {;mcc_generated_files/tmr3.c: 137:         TMR3H =
      +                           (timerVal >> 8);
  4016  000FB2  5002               	movf	TMR3_WriteTimer@timerVal+1,w,c
  4017  000FB4  6EC7               	movwf	4039,c	;volatile
  4018                           
  4019                           ;mcc_generated_files/tmr3.c: 138:         TMR3L = timerVal;
  4020  000FB6  C001  FFC6         	movff	TMR3_WriteTimer@timerVal,4038	;volatile
  4021  000FBA  0012               	return		;funcret
  4022  000FBC                     __end_of_TMR3_WriteTimer:
  4023                           	opt callstack 0
  4024                           
  4025 ;; *************** function _TMR3_StopTimer *****************
  4026 ;; Defined at:
  4027 ;;		line 98 in file "mcc_generated_files/tmr3.c"
  4028 ;; Parameters:    Size  Location     Type
  4029 ;;		None
  4030 ;; Auto vars:     Size  Location     Type
  4031 ;;		None
  4032 ;; Return value:  Size  Location     Type
  4033 ;;                  1    wreg      void 
  4034 ;; Registers used:
  4035 ;;		None
  4036 ;; Tracked objects:
  4037 ;;		On entry : 0/0
  4038 ;;		On exit  : 0/0
  4039 ;;		Unchanged: 0/0
  4040 ;; Data sizes:     COMRAM   BANK0   BANK1   BANK2   BANK3   BANK4   BANK5   BANK6   BANK7
  4041 ;;      Params:         0       0       0       0       0       0       0       0       0
  4042 ;;      Locals:         0       0       0       0       0       0       0       0       0
  4043 ;;      Temps:          0       0       0       0       0       0       0       0       0
  4044 ;;      Totals:         0       0       0       0       0       0       0       0       0
  4045 ;;Total ram usage:        0 bytes
  4046 ;; Hardware stack levels used:    1
  4047 ;; This function calls:
  4048 ;;		Nothing
  4049 ;; This function is called by:
  4050 ;;		_ping_isr
  4051 ;; This function uses a non-reentrant model
  4052 ;;
  4053                           
  4054                           	psect	text29
  4055  001024                     __ptext29:
  4056                           	opt callstack 0
  4057  001024                     _TMR3_StopTimer:
  4058                           	opt callstack 23
  4059                           
  4060                           ;mcc_generated_files/tmr3.c: 101:     T3CONbits.TMR3ON = 0;
  4061                           
  4062                           ;incstack = 0
  4063  001024  90C8               	bcf	4040,0,c	;volatile
  4064  001026  0012               	return		;funcret
  4065  001028                     __end_of_TMR3_StopTimer:
  4066                           	opt callstack 0
  4067                           
  4068 ;; *************** function _TMR3_StartTimer *****************
  4069 ;; Defined at:
  4070 ;;		line 92 in file "mcc_generated_files/tmr3.c"
  4071 ;; Parameters:    Size  Location     Type
  4072 ;;		None
  4073 ;; Auto vars:     Size  Location     Type
  4074 ;;		None
  4075 ;; Return value:  Size  Location     Type
  4076 ;;                  1    wreg      void 
  4077 ;; Registers used:
  4078 ;;		None
  4079 ;; Tracked objects:
  4080 ;;		On entry : 0/0
  4081 ;;		On exit  : 0/0
  4082 ;;		Unchanged: 0/0
  4083 ;; Data sizes:     COMRAM   BANK0   BANK1   BANK2   BANK3   BANK4   BANK5   BANK6   BANK7
  4084 ;;      Params:         0       0       0       0       0       0       0       0       0
  4085 ;;      Locals:         0       0       0       0       0       0       0       0       0
  4086 ;;      Temps:          0       0       0       0       0       0       0       0       0
  4087 ;;      Totals:         0       0       0       0       0       0       0       0       0
  4088 ;;Total ram usage:        0 bytes
  4089 ;; Hardware stack levels used:    1
  4090 ;; This function calls:
  4091 ;;		Nothing
  4092 ;; This function is called by:
  4093 ;;		_ping_isr
  4094 ;; This function uses a non-reentrant model
  4095 ;;
  4096                           
  4097                           	psect	text30
  4098  001028                     __ptext30:
  4099                           	opt callstack 0
  4100  001028                     _TMR3_StartTimer:
  4101                           	opt callstack 23
  4102                           
  4103                           ;mcc_generated_files/tmr3.c: 95:     T3CONbits.TMR3ON = 1;
  4104                           
  4105                           ;incstack = 0
  4106  001028  80C8               	bsf	4040,0,c	;volatile
  4107  00102A  0012               	return		;funcret
  4108  00102C                     __end_of_TMR3_StartTimer:
  4109                           	opt callstack 0
  4110                           
  4111 ;; *************** function _TMR3_ReadTimer *****************
  4112 ;; Defined at:
  4113 ;;		line 104 in file "mcc_generated_files/tmr3.c"
  4114 ;; Parameters:    Size  Location     Type
  4115 ;;		None
  4116 ;; Auto vars:     Size  Location     Type
  4117 ;;  readVal         2    4[COMRAM] unsigned short 
  4118 ;;  readValLow      1    7[COMRAM] unsigned char 
  4119 ;;  readValHigh     1    6[COMRAM] unsigned char 
  4120 ;; Return value:  Size  Location     Type
  4121 ;;                  2    0[COMRAM] unsigned short 
  4122 ;; Registers used:
  4123 ;;		wreg, status,2
  4124 ;; Tracked objects:
  4125 ;;		On entry : 0/0
  4126 ;;		On exit  : 0/0
  4127 ;;		Unchanged: 0/0
  4128 ;; Data sizes:     COMRAM   BANK0   BANK1   BANK2   BANK3   BANK4   BANK5   BANK6   BANK7
  4129 ;;      Params:         2       0       0       0       0       0       0       0       0
  4130 ;;      Locals:         4       0       0       0       0       0       0       0       0
  4131 ;;      Temps:          2       0       0       0       0       0       0       0       0
  4132 ;;      Totals:         8       0       0       0       0       0       0       0       0
  4133 ;;Total ram usage:        8 bytes
  4134 ;; Hardware stack levels used:    1
  4135 ;; This function calls:
  4136 ;;		Nothing
  4137 ;; This function is called by:
  4138 ;;		_ping_isr
  4139 ;; This function uses a non-reentrant model
  4140 ;;
  4141                           
  4142                           	psect	text31
  4143  000F46                     __ptext31:
  4144                           	opt callstack 0
  4145  000F46                     _TMR3_ReadTimer:
  4146                           	opt callstack 23
  4147                           
  4148                           ;mcc_generated_files/tmr3.c: 106:     uint16_t readVal;;mcc_generated_files/tmr3.c: 107:
      +                               uint8_t readValHigh;;mcc_generated_files/tmr3.c: 108:     uint8_t readValLow;;mcc_g
      +                          enerated_files/tmr3.c: 110:     T3CONbits.T3RD16 = 1;
  4149                           
  4150                           ;incstack = 0
  4151  000F46  82C8               	bsf	4040,1,c	;volatile
  4152                           
  4153                           ;mcc_generated_files/tmr3.c: 112:     readValLow = TMR3L;
  4154  000F48  CFC6 F008          	movff	4038,TMR3_ReadTimer@readValLow	;volatile
  4155                           
  4156                           ;mcc_generated_files/tmr3.c: 113:     readValHigh = TMR3H;
  4157  000F4C  CFC7 F007          	movff	4039,TMR3_ReadTimer@readValHigh	;volatile
  4158                           
  4159                           ;mcc_generated_files/tmr3.c: 115:     readVal = ((uint16_t)readValHigh << 8) | readValLo
      +                          w;
  4160  000F50  5007               	movf	TMR3_ReadTimer@readValHigh,w,c
  4161  000F52  6E03               	movwf	??_TMR3_ReadTimer& (0+255),c
  4162  000F54  5008               	movf	TMR3_ReadTimer@readValLow,w,c
  4163  000F56  6E05               	movwf	TMR3_ReadTimer@readVal,c
  4164  000F58  C003  F006         	movff	??_TMR3_ReadTimer,TMR3_ReadTimer@readVal+1
  4165                           
  4166                           ;mcc_generated_files/tmr3.c: 117:     return readVal;
  4167  000F5C  C005  F001         	movff	TMR3_ReadTimer@readVal,?_TMR3_ReadTimer
  4168  000F60  C006  F002         	movff	TMR3_ReadTimer@readVal+1,?_TMR3_ReadTimer+1
  4169  000F64  0012               	return		;funcret
  4170  000F66                     __end_of_TMR3_ReadTimer:
  4171                           	opt callstack 0
  4172  0000                     
  4173                           	psect	text32
  4174  000000                     __ptext32:
  4175                           	opt callstack 0
  4176                           
  4177                           	psect	rparam
  4178  0000                     
  4179                           	psect	temp
  4180  000055                     btemp:
  4181                           	opt callstack 0
  4182  000055                     	ds	1
  4183  0000                     int$flags	set	btemp
  4184  0000                     wtemp8	set	btemp+1
  4185  0000                     ttemp5	set	btemp+1
  4186  0000                     ttemp6	set	btemp+4
  4187  0000                     ttemp7	set	btemp+8
  4188                           tosu	equ	0xFFF
  4189                           tosh	equ	0xFFE
  4190                           tosl	equ	0xFFD
  4191                           stkptr	equ	0xFFC
  4192                           pclatu	equ	0xFFB
  4193                           pclath	equ	0xFFA
  4194                           pcl	equ	0xFF9
  4195                           tblptru	equ	0xFF8
  4196                           tblptrh	equ	0xFF7
  4197                           tblptrl	equ	0xFF6
  4198                           tablat	equ	0xFF5
  4199                           prodh	equ	0xFF4
  4200                           prodl	equ	0xFF3
  4201                           indf0	equ	0xFEF
  4202                           postinc0	equ	0xFEE
  4203                           postdec0	equ	0xFED
  4204                           preinc0	equ	0xFEC
  4205                           plusw0	equ	0xFEB
  4206                           fsr0h	equ	0xFEA
  4207                           fsr0l	equ	0xFE9
  4208                           wreg	equ	0xFE8
  4209                           indf1	equ	0xFE7
  4210                           postinc1	equ	0xFE6
  4211                           postdec1	equ	0xFE5
  4212                           preinc1	equ	0xFE4
  4213                           plusw1	equ	0xFE3
  4214                           fsr1h	equ	0xFE2
  4215                           fsr1l	equ	0xFE1
  4216                           bsr	equ	0xFE0
  4217                           indf2	equ	0xFDF
  4218                           postinc2	equ	0xFDE
  4219                           postdec2	equ	0xFDD
  4220                           preinc2	equ	0xFDC
  4221                           plusw2	equ	0xFDB
  4222                           fsr2h	equ	0xFDA
  4223                           fsr2l	equ	0xFD9
  4224                           status	equ	0xFD8


Data Sizes:
    Strings     0
    Constant    0
    Data        3
    BSS         10
    Persistent  6
    Stack       0

Auto Spaces:
    Space          Size  Autos    Used
    COMRAM           94     67      84
    BANK0           160     20      22
    BANK1           256      0       0
    BANK2           256      0       0
    BANK3           256      0       0
    BANK4           256      0       0
    BANK5           256      0       0
    BANK6           256      0       0
    BANK7           256      0       0

Pointer List with Targets:

    TMR2_SetInterruptHandler@InterruptHandler	PTR FTN()void  size(2) Largest target is 1
		 -> carcontrol_ISR(), TMR2_DefaultInterruptHandler(), 

    TMR2_InterruptHandler	PTR FTN()void  size(2) Largest target is 1
		 -> carcontrol_ISR(), TMR2_DefaultInterruptHandler(), Absolute function(), 

    IOCAF2_SetInterruptHandler@InterruptHandler	PTR FTN()void  size(2) Largest target is 1
		 -> ping_isr(), IOCAF2_DefaultInterruptHandler(), 

    IOCAF2_InterruptHandler	PTR FTN()void  size(2) Largest target is 1
		 -> ping_isr(), Absolute function(), IOCAF2_DefaultInterruptHandler(), 


Critical Paths under _main in COMRAM

    _main->___fltol
    _ping_init->_IOCAF2_SetInterruptHandler
    _ping_init->_TMR3_Initialize
    _ping->___flmul
    ___flmul->___xxtofl
    _carcontrol_init->_TMR2_SetInterruptHandler
    ___fltol->___fladd
    ___fladd->___flmul
    _SYSTEM_Initialize->_TMR3_Initialize
    _TMR2_Initialize->_TMR2_SetInterruptHandler
    _PIN_MANAGER_Initialize->_IOCAF2_SetInterruptHandler

Critical Paths under _INTERRUPT_InterruptManager in COMRAM

    _TMR2_ISR->_carcontrol_ISR
    _ping_isr->_TMR3_ReadTimer

Critical Paths under _main in BANK0

    _main->___fltol

Critical Paths under _INTERRUPT_InterruptManager in BANK0

    None.

Critical Paths under _main in BANK1

    None.

Critical Paths under _INTERRUPT_InterruptManager in BANK1

    None.

Critical Paths under _main in BANK2

    None.

Critical Paths under _INTERRUPT_InterruptManager in BANK2

    None.

Critical Paths under _main in BANK3

    None.

Critical Paths under _INTERRUPT_InterruptManager in BANK3

    None.

Critical Paths under _main in BANK4

    None.

Critical Paths under _INTERRUPT_InterruptManager in BANK4

    None.

Critical Paths under _main in BANK5

    None.

Critical Paths under _INTERRUPT_InterruptManager in BANK5

    None.

Critical Paths under _main in BANK6

    None.

Critical Paths under _INTERRUPT_InterruptManager in BANK6

    None.

Critical Paths under _main in BANK7

    None.

Critical Paths under _INTERRUPT_InterruptManager in BANK7

    None.

Call Graph Tables:

 ---------------------------------------------------------------------------------
 (Depth) Function   	        Calls       Base Space   Used Autos Params    Refs
 ---------------------------------------------------------------------------------
 (0) _main                                                12    12      0    9452
                                              8 BANK0     12    12      0
                  _SYSTEM_Initialize
                            ___fladd
                            ___fldiv
                            ___flmul
                            ___fltol
                    _carcontrol_init
                _carcontrol_steering
                               _ping
                          _ping_init
 ---------------------------------------------------------------------------------
 (1) _ping_init                                            0     0      0     174
         _IOCAF2_SetInterruptHandler
                    _TMR3_Initialize
 ---------------------------------------------------------------------------------
 (1) _ping                                                 8     4      4    2317
                                             49 COMRAM     8     4      4
                            ___flmul
                           ___xxtofl
 ---------------------------------------------------------------------------------
 (2) ___xxtofl                                            14    10      4     398
                                             10 COMRAM    14    10      4
 ---------------------------------------------------------------------------------
 (2) ___flmul                                             25    17      8    1896
                                             24 COMRAM    25    17      8
                           ___xxtofl (ARG)
 ---------------------------------------------------------------------------------
 (1) _carcontrol_init                                      0     0      0     310
           _TMR2_SetInterruptHandler
                _carcontrol_steering
                _carcontrol_throttle
 ---------------------------------------------------------------------------------
 (2) _carcontrol_throttle                                  1     1      0      45
                                             10 COMRAM     1     1      0
 ---------------------------------------------------------------------------------
 (1) _carcontrol_steering                                  1     1      0      91
                                             10 COMRAM     1     1      0
 ---------------------------------------------------------------------------------
 (1) ___fltol                                             10     6      4     427
                                             65 COMRAM     2     2      0
                                              0 BANK0      8     4      4
                            ___fladd (ARG)
                            ___flmul (ARG)
 ---------------------------------------------------------------------------------
 (1) ___fldiv                                             25    17      8    1399
                                             10 COMRAM    25    17      8
 ---------------------------------------------------------------------------------
 (1) ___fladd                                             16     8      8    2388
                                             49 COMRAM    16     8      8
                            ___flmul (ARG)
 ---------------------------------------------------------------------------------
 (1) _SYSTEM_Initialize                                    0     0      0     348
               _INTERRUPT_Initialize
              _OSCILLATOR_Initialize
             _PIN_MANAGER_Initialize
                     _PMD_Initialize
                    _TMR2_Initialize
                    _TMR3_Initialize
 ---------------------------------------------------------------------------------
 (2) _TMR3_Initialize                                      2     2      0       0
                                             10 COMRAM     2     2      0
 ---------------------------------------------------------------------------------
 (2) _TMR2_Initialize                                      0     0      0     174
           _TMR2_SetInterruptHandler
 ---------------------------------------------------------------------------------
 (2) _TMR2_SetInterruptHandler                             2     0      2     174
                                             10 COMRAM     2     0      2
 ---------------------------------------------------------------------------------
 (2) _PMD_Initialize                                       0     0      0       0
 ---------------------------------------------------------------------------------
 (2) _PIN_MANAGER_Initialize                               0     0      0     174
         _IOCAF2_SetInterruptHandler
 ---------------------------------------------------------------------------------
 (2) _IOCAF2_SetInterruptHandler                           2     0      2     174
                                             10 COMRAM     2     0      2
 ---------------------------------------------------------------------------------
 (2) _OSCILLATOR_Initialize                                0     0      0       0
 ---------------------------------------------------------------------------------
 (2) _INTERRUPT_Initialize                                 0     0      0       0
 ---------------------------------------------------------------------------------
 Estimated maximum stack depth 2
 ---------------------------------------------------------------------------------
 (Depth) Function   	        Calls       Base Space   Used Autos Params    Refs
 ---------------------------------------------------------------------------------
 (4) _INTERRUPT_InterruptManager                           2     2      0     309
                                              8 COMRAM     2     2      0
                    _PIN_MANAGER_IOC
                           _TMR2_ISR
 ---------------------------------------------------------------------------------
 (5) _TMR2_ISR                                             0     0      0       0
                   Absolute function *
       _TMR2_DefaultInterruptHandler *
                     _carcontrol_ISR *
 ---------------------------------------------------------------------------------
 (6) _carcontrol_ISR                                       3     3      0       0
                                              0 COMRAM     3     3      0
 ---------------------------------------------------------------------------------
 (6) _TMR2_DefaultInterruptHandler                         0     0      0       0
 ---------------------------------------------------------------------------------
 (5) _PIN_MANAGER_IOC                                      0     0      0     309
                         _IOCAF2_ISR
 ---------------------------------------------------------------------------------
 (6) _IOCAF2_ISR                                           0     0      0     309
                   Absolute function *
     _IOCAF2_DefaultInterruptHandler *
                           _ping_isr *
 ---------------------------------------------------------------------------------
 (7) _ping_isr                                             0     0      0     309
                     _TMR3_ReadTimer
                    _TMR3_StartTimer
                     _TMR3_StopTimer
                    _TMR3_WriteTimer
 ---------------------------------------------------------------------------------
 (8) _TMR3_WriteTimer                                      2     0      2     240
                                              0 COMRAM     2     0      2
 ---------------------------------------------------------------------------------
 (8) _TMR3_StopTimer                                       0     0      0       0
 ---------------------------------------------------------------------------------
 (8) _TMR3_StartTimer                                      0     0      0       0
 ---------------------------------------------------------------------------------
 (8) _TMR3_ReadTimer                                       8     6      2      69
                                              0 COMRAM     8     6      2
 ---------------------------------------------------------------------------------
 (7) _IOCAF2_DefaultInterruptHandler                       0     0      0       0
 ---------------------------------------------------------------------------------
 (6) Absolute function(Fake)                               0     0      0       0
 ---------------------------------------------------------------------------------
 Estimated maximum stack depth 8
 ---------------------------------------------------------------------------------

 Call Graph Graphs:

 _main (ROOT)
   _SYSTEM_Initialize
     _INTERRUPT_Initialize
     _OSCILLATOR_Initialize
     _PIN_MANAGER_Initialize
       _IOCAF2_SetInterruptHandler
     _PMD_Initialize
     _TMR2_Initialize
       _TMR2_SetInterruptHandler
     _TMR3_Initialize
   ___fladd
     ___flmul (ARG)
       ___xxtofl (ARG)
   ___fldiv
   ___flmul
     ___xxtofl (ARG)
   ___fltol
     ___fladd (ARG)
       ___flmul (ARG)
         ___xxtofl (ARG)
     ___flmul (ARG)
       ___xxtofl (ARG)
   _carcontrol_init
     _TMR2_SetInterruptHandler
     _carcontrol_steering
     _carcontrol_throttle
   _carcontrol_steering
   _ping
     ___flmul
       ___xxtofl (ARG)
     ___xxtofl
   _ping_init
     _IOCAF2_SetInterruptHandler
     _TMR3_Initialize

 _INTERRUPT_InterruptManager (ROOT)
   _PIN_MANAGER_IOC
     _IOCAF2_ISR
       Absolute function(Fake) *
       _IOCAF2_DefaultInterruptHandler *
       _ping_isr *
         _TMR3_ReadTimer
         _TMR3_StartTimer
         _TMR3_StopTimer
         _TMR3_WriteTimer
   _TMR2_ISR
     Absolute function(Fake) *
     _TMR2_DefaultInterruptHandler *
     _carcontrol_ISR *

 Address spaces:
Name               Size   Autos  Total    Cost      Usage
BIGRAM             7FF      0       0      21        0.0%
EEDATA             100      0       0       0        0.0%
BITBANK7           100      0       0      19        0.0%
BANK7              100      0       0      20        0.0%
BITBANK6           100      0       0      16        0.0%
BANK6              100      0       0      17        0.0%
BITBANK5           100      0       0      14        0.0%
BANK5              100      0       0      15        0.0%
BITBANK4           100      0       0      12        0.0%
BANK4              100      0       0      13        0.0%
BITBANK3           100      0       0      10        0.0%
BANK3              100      0       0      11        0.0%
BITBANK2           100      0       0       8        0.0%
BANK2              100      0       0       9        0.0%
BITBANK1           100      0       0       6        0.0%
BANK1              100      0       0       7        0.0%
BITBANK0            A0      0       0       4        0.0%
BANK0               A0     14      16       5       13.8%
BITCOMRAM           5E      0       0       0        0.0%
COMRAM              5E     43      54       1       89.4%
BITSFR_2             0      0       0     200        0.0%
SFR_2                0      0       0     200        0.0%
BITSFR_1             0      0       0     200        0.0%
SFR_1                0      0       0     200        0.0%
BITSFR               0      0       0     200        0.0%
SFR                  0      0       0     200        0.0%
STACK                0      0       0       2        0.0%
NULL                 0      0       0       0        0.0%
ABS                  0      0      6A      18        0.0%
DATA                 0      0      6A       3        0.0%
CODE                 0      0       0       0        0.0%


Microchip Technology PIC18 Macro Assembler V2.05 build -831301201 
Symbol Table                                                                                   Thu Apr  4 23:50:33 2019

          __end_of_TMR2_SetInterruptHandler 1016                           ??_carcontrol_init 000D  
                              ___fldiv@aexp 0023                                ___fldiv@bexp 0022  
                              ___fldiv@sign 001B                                 __CFG_CP$OFF 000000  
                       _carcontrol_throttle 0FEE                         _carcontrol_steering 0E78  
                               __CFG_LVP$ON 000000                                         l942 04D0  
                                       l943 04AE                                         l958 05A2  
                                       l967 0608                                         l968 0604  
                                       l997 080C                                         _PR2 000FBB  
                              __CFG_CPD$OFF 000000                     __size_of_PMD_Initialize 001C  
                           _TMR2_Initialize 0EA4                                         tosl 000FFD  
                                       wreg 000FE8          __end_of_IOCAF2_SetInterruptHandler 1020  
                _IOCAF2_SetInterruptHandler 1016                                ___flmul@aexp 002A  
                              ___flmul@bexp 002B                                ___flmul@sign 0025  
                              ___flmul@temp 0030                                ___flmul@prod 002C  
               carcontrol_steering@steering 000B                                __CFG_ZCD$OFF 000000  
                              ___fltol@exp1 0043                                        l1008 087A  
                                      l1009 0876                                        l1027 00BC  
                                      l1044 035A                                        l1036 02D4  
                                      l2100 00AC                                        l1037 02D0  
                                      l2210 098E                                        l1075 09DE  
                                      l2108 00DA                                        l2212 0994  
                                      l2204 0970                                        l1068 0960  
                                      l2310 03BE                                        l2054 0E88  
                                      l2150 027C                                        l2222 0A04  
                                      l2214 09A0                                        l2400 04F4  
                                      l2080 0068                                        l2240 0A50  
                                      l2224 0A10                                        l2216 09C6  
                                      l2410 051A                                        l2330 0402  
                                      l2306 03BA                                        l2058 0E96  
                                      l2066 0FFA                                        l2082 006C  
                           _timer3ReloadVal 0074                                        l2180 0336  
                                      l2156 029A                                        l2084 007C  
                                      l2342 0426                                        l2334 0406  
                                      l2408 0516                                        l2512 06CA  
                                      l2192 0378                                        l2176 0318  
                                      l2418 052C                                        l2610 08BE  
                                      l2098 00A8                                        l2436 05C6  
                                      l2452 05E6                                        l2428 0592  
                                      l2372 0462                                        l2540 073E  
                                      l2532 070A                                        l2508 06C6  
                                      l2284 0D22                                        l2446 05DC  
                                      l2614 08E2                                        l2480 0674  
                                      l2472 064E                                        l2384 04BC  
                                      l2624 0918                                        l2528 0706  
                                      l2386 04C0                                        l2626 091A  
                                      l2618 090C                                        l2554 076C  
                                      l2546 0754                                        l2484 067C  
                                      l2572 07E4                                        l2564 07BC  
                                      l2486 067E                                        l2590 0840  
                                      l2584 0822                                        l2752 0CB6  
                                      l2736 0C6C                                        l2578 080A  
                                      l2770 0CF6                                        l2762 0CCE  
                                      l2764 0CDA                                        l2756 0CC6  
                                      u2130 0870                                        u1340 00C8  
                                      _LATA 000F82                                        u1430 0326  
                                      u1350 023E                                        _LATB 000F83  
                                      _LATC 000F84                                        u2320 0C5A  
                                      u1440 0344                                        u1520 0A1A  
                                      u2170 08CC                                        u2330 0C8A  
                                      u1355 0234                                        u2180 08F0  
                                      u1390 02CA                                        u2335 0C80  
                                      u2407 0A94                                        u1720 04D8  
                                      u2417 0B5A                                        u2370 0CE0  
                                      _T2PR 000FBB                                        u2427 0D0E  
                                      u2437 0D18                                        u1670 0484  
                                      u1680 0494                                        u1930 065A  
                                      u1850 05EA                                        u1690 0496  
                                      u2397 0A7E                                        u1870 05FE  
                                      _PMD0 000EDC                                        _PMD1 000EDD  
                                      _PMD2 000EDE                                        _PMD3 000EDF  
                                      _PMD4 000EE0                                        _PMD5 000EE1  
                                      _TMR2 000FBA                                        _WPUA 000F0B  
                                      _WPUB 000F13                                        _WPUC 000F1B  
                                      _WPUE 000F28                        ?_carcontrol_throttle 0001  
                      ?_carcontrol_steering 0001                               __CFG_FCMEN$ON 000000  
                                      _main 0A62                                        _ping 0D08  
                                      btemp 0055                                        prodh 000FF4  
                                      prodl 000FF3                                        start 0038  
                           ___fldiv@new_exp 001C                             _TMR3_Initialize 0E14  
                             __CFG_CSWEN$ON 000000                                ___param_bank 000000  
                             __CFG_SCANE$ON 000000              __size_of_OSCILLATOR_Initialize 0018  
                       __size_of_IOCAF2_ISR 0026               __end_of_OSCILLATOR_Initialize 0FEE  
                             ___fltol@sign1 0042                             __end_of___fladd 069A  
                                     ?_main 0001                             __end_of___fldiv 0922  
                                     ?_ping 0032                               __CFG_WDTE$OFF 000000  
                           __end_of___flmul 038E                             __end_of___fltol 0D08  
                                     _T3CLK 000FCB                                       _T2CON 000FBC  
                                     _T3CON 000FC8                                       _T2HLT 000FBD  
                            __CFG_DEBUG$OFF 000000                                       _T2TMR 000FBA  
                                     _T2RST 000FBF                                       i2l221 002C  
                                     i2l217 0020                                       _OSCEN 000ED7  
                                     _TMR3H 000FC7                                       _TMR3L 000FC6  
                                     _TRISA 000F87                                       _TRISB 000F88  
                                     _TRISC 000F89                   TMR3_ReadTimer@readValHigh 0007  
                             __CFG_WRT0$OFF 000000                               __CFG_WRT1$OFF 000000  
                             __CFG_WRT2$OFF 000000                               __CFG_WRT3$OFF 000000  
                            __CFG_EBTR0$OFF 000000                              __CFG_EBTR1$OFF 000000  
                            __CFG_EBTR2$OFF 000000                              __CFG_EBTR3$OFF 000000  
                          __end_of_TMR2_ISR 0F46                               __CFG_WRTB$OFF 000000  
                             __CFG_WRTC$OFF 000000                               __CFG_WRTD$OFF 000000  
                            __CFG_EBTRB$OFF 000000                     __end_of_PIN_MANAGER_IOC 100C  
                        __CFG_MCLRE$EXTMCLR 000000                       ??_carcontrol_throttle 000B  
                     ??_carcontrol_steering 000B                                       pclath 000FFA  
                                     tablat 000FF5                                       ttemp5 0056  
                                     ttemp6 0059                                       ttemp7 005D  
                                     status 000FD8                                       wtemp8 0056  
                            _carcontrol_ISR 0B68                             __initialization 0DDC  
                              __end_of_main 0B68                                __end_of_ping 0D84  
                   __end_of_TMR2_Initialize 0ED0                 ?_INTERRUPT_InterruptManager 0001  
                  _TMR2_SetInterruptHandler 100C                                      ??_main 0068  
                                    ??_ping 0036                             _TMR3_StartTimer 1028  
                             __activetblptr 000002                                      _ANSELA 000F0C  
                                    _ANSELB 000F14                                      _ANSELC 000F1C  
                                    _T3GATE 000FCA                                      _T3GCON 000FC9  
                                    _ODCONA 000F0A                                      _ODCONB 000F12  
                                    _ODCONC 000F1A                      __end_of_carcontrol_ISR 0C4C  
                                    i2l1202 0B6A                     __end_of_TMR3_Initialize 0E4A  
                                    i2l1208 0B7C                                      i2l1218 0BA2  
                                    i2l1228 0BF8                                      i2l1244 0C22  
                            __CFG_WDTCCS$SC 000000                                      i2l1990 0EE6  
                                    i2l1968 0FB2                                      _OSCFRQ 000ED9  
                                    i2u8_40 0B94                            __end_of___xxtofl 0A62  
                           _TMR3_WriteTimer 0FA0                              __CFG_PWRTE$OFF 000000  
                            __CFG_XINST$OFF 000000                                   ??___fladd 003A  
                                 ??___fldiv 0013                              __CFG_STVREN$ON 000000  
                                 ??___flmul 0021                                      _carctl 0044  
                                 ??___fltol 0064                                      clear_0 0E00  
                          __end_of_ping_isr 0EFC                              _PMD_Initialize 0F84  
                              __pdataCOMRAM 0052                                      tblptrh 000FF7  
                                    tblptrl 000FF6                                      tblptru 000FF8  
  TMR2_SetInterruptHandler@InterruptHandler 000B  IOCAF2_SetInterruptHandler@InterruptHandler 000B  
                          ?_PIN_MANAGER_IOC 0001                                ??_IOCAF2_ISR 0009  
             __size_of_INTERRUPT_Initialize 0004                             ?_carcontrol_ISR 0001  
                              ___xxtofl@arg 0015                                ___xxtofl@exp 0014  
                         _SYSTEM_Initialize 0FBC                                ___xxtofl@val 000B  
                           _carcontrol_init 0E4A                                  __accesstop 0060  
                   __end_of__initialization 0E06                          ?_SYSTEM_Initialize 0001  
                             ___rparam_used 000001                                  ___fltol@f1 0060  
                            __pcstackCOMRAM 0001                         ??_SYSTEM_Initialize 000D  
                   __end_of_TMR3_StartTimer 102C                                   ?_TMR2_ISR 0001  
                          ?_TMR2_Initialize 0001                      __end_of_PMD_Initialize 0FA0  
                        __end_of_IOCAF2_ISR 0F22                 ?_IOCAF2_SetInterruptHandler 000B  
          ??_IOCAF2_DefaultInterruptHandler 0001             ?_IOCAF2_DefaultInterruptHandler 0001  
                 __end_of_SYSTEM_Initialize 0FD6                     __end_of_TMR3_WriteTimer 0FBC  
                            main@cm_to_targ 006A                            ?_TMR3_Initialize 0001  
                                __pnvCOMRAM 004E                     __size_of_TMR3_ReadTimer 0020  
                           __CFG_PPS1WAY$ON 000000                                  ??_TMR2_ISR 0004  
                        __size_of_ping_init 001E                             ?_PMD_Initialize 0001  
                                 ?___xxtofl 000B                                     _OSCCON1 000ED3  
                                   _OSCCON3 000ED5                     __end_of_carcontrol_init 0E78  
                                   i2u11_40 0BEA                                     i2u44_48 0F32  
                                   _OSCTUNE 000ED8                                     _SLRCONA 000F09  
                                   _SLRCONB 000F11                                     _SLRCONC 000F19  
                   __size_of_TMR3_StopTimer 0004                                   ?_ping_isr 0001  
                                   __Hparam 0000                                     __Lparam 0000  
                ??_TMR2_SetInterruptHandler 000D                  __CFG_RSTOSC$HFINTOSC_64MHZ 000000  
                                   ___fladd 038E                                     ___fldiv 069A  
                                   ___flmul 003C                            ?_TMR3_StartTimer 0001  
                                   ___fltol 0C4C                                     __pcinit 0DDC  
                                   __ramtop 0800                                  _read_ready 004B  
                                   __ptext0 0A62                                     __ptext1 0F66  
                                   __ptext2 0D08                                     __ptext3 0922  
                                   __ptext4 003C                                     __ptext5 0E4A  
                                   __ptext6 0FEE                                     __ptext7 0E78  
                                   __ptext8 0C4C                                     __ptext9 069A  
                     _OSCILLATOR_Initialize 0FD6                                   _T2CONbits 000FBC  
                                ??___xxtofl 000F                                   _T3CONbits 000FC8  
               __end_of_carcontrol_throttle 1000                    ??_PIN_MANAGER_Initialize 000D  
               __end_of_carcontrol_steering 0EA4                                   _T2HLTbits 000FBD  
                                 _IOCAFbits 000F05                                   _IOCANbits 000F06  
                                 _IOCAPbits 000F07                  __size_of_SYSTEM_Initialize 001A  
                      end_of_initialization 0E06                            ?_TMR3_WriteTimer 0001  
                         __end_of_ping_init 0F84                                   _T2RSTbits 000FBF  
                             __Lmediumconst 0000                                  ??_ping_isr 0009  
                     TMR3_ReadTimer@readVal 0005                                     postinc0 000FEE  
                     __CFG_WDTCPS$WDTCPS_31 000000                                   _PORTAbits 000F8C  
                                _servo_trim 0054                                 ___fladd@grs 0041  
                             ___xxtofl@sign 0013                                   _TRISAbits 000F87  
                          ??_carcontrol_ISR 0001                            ?_carcontrol_init 0001  
                               ___fldiv@grs 001E                                 ___fldiv@rem 0017  
                          __CFG_FEXTOSC$OFF 000000                                 ___flmul@grs 0026  
                            _TMR3_ReadTimer 0F46                __end_of_INTERRUPT_Initialize 1024  
      __end_of_TMR2_DefaultInterruptHandler 1032       __size_of_TMR2_DefaultInterruptHandler 0002  
              _TMR2_DefaultInterruptHandler 1030                               __pidataCOMRAM 102C  
                         __size_of_TMR2_ISR 0024                      ?_OSCILLATOR_Initialize 0001  
                       start_initialization 0DDC             __size_of_PIN_MANAGER_Initialize 0058  
                              ping@distance 0036                              _TMR3_StopTimer 1024  
                    __end_of_TMR3_ReadTimer 0F66                    __size_of_PIN_MANAGER_IOC 000C  
    __end_of_IOCAF2_DefaultInterruptHandler 1034     __size_of_IOCAF2_DefaultInterruptHandler 0002  
            _IOCAF2_DefaultInterruptHandler 1032                            __CFG_LPBOREN$OFF 000000  
                          ??_PMD_Initialize 000B               ?_TMR2_DefaultInterruptHandler 0001  
                                 ___fladd@a 0036                                   ___fladd@b 0032  
                                 ___fldiv@a 000F                                   ___fldiv@b 000B  
                                 ___flmul@a 001D                                   ___flmul@b 0019  
                               __pbssCOMRAM 0044                               __pcstackBANK0 0060  
                  __size_of_TMR2_Initialize 002C                           __size_of___xxtofl 0140  
                    __end_of_TMR3_StopTimer 1028                             ?_TMR3_ReadTimer 0001  
                                 __pnvBANK0 0074                      _PIN_MANAGER_Initialize 0D84  
                  __size_of_TMR3_Initialize 0036                                   __pintcode 0008  
                         __size_of_ping_isr 002C                                    ?___fladd 0032  
                                  ?___fldiv 000B                                    ?___flmul 0019  
                                  ?___fltol 0060                ??_INTERRUPT_InterruptManager 0009  
                                  _T2CLKCON 000FBE                        _INTERRUPT_Initialize 1020  
                           ?_TMR3_StopTimer 0001                                    _LATAbits 000F82  
                                 _ping_init 0F66                                    _PIE0bits 000EBD  
                                  _PIE4bits 000EC1                                    i2u123_48 0F08  
                                  i2u123_49 0F1C         __size_of_INTERRUPT_InterruptManager 0030  
                                  _PIR0bits 000EC5                                    _PIR4bits 000EC9  
                                  _TMR2_ISR 0F22                                   _servo_max 0052  
                                 _servo_min 0053                           ??_PIN_MANAGER_IOC 0009  
                                 _stateTime 0049                    TMR3_ReadTimer@readValLow 0008  
                                 main@angle 0072                    __size_of_TMR3_StartTimer 0004  
            ??_TMR2_DefaultInterruptHandler 0001           __size_of_TMR2_SetInterruptHandler 000A  
                 ?_TMR2_SetInterruptHandler 000B                       ?_INTERRUPT_Initialize 0001  
              __size_of_carcontrol_throttle 0012                __size_of_carcontrol_steering 002C  
                         ??_TMR2_Initialize 000D                                  ?_ping_init 0001  
                                  __Hrparam 0000                    __size_of_TMR3_WriteTimer 001C  
                                  __Lrparam 0000                          __CFG_BOREN$SBORDIS 000000  
                   ??_OSCILLATOR_Initialize 000B                            __size_of___fladd 030C  
                          __size_of___fldiv 0288                            __size_of___flmul 0352  
                          __size_of___fltol 00BC                           ??_TMR3_Initialize 000B  
                   _IOCAF2_InterruptHandler 0050                                    ___xxtofl 0922  
              ??_IOCAF2_SetInterruptHandler 000D                                    __ptext10 038E  
                                  __ptext11 0FBC                                    __ptext12 0E14  
                                  __ptext21 0F22                                    __ptext13 0EA4  
                                  __ptext30 1028                                    __ptext22 1030  
                                  __ptext14 100C                                    __ptext31 0F46  
                                  __ptext23 0B68                                    __ptext15 0F84  
                                  __ptext32 0000                                    __ptext24 1000  
                                  __ptext16 0D84                                    __ptext25 0EFC  
                                  __ptext17 1016                                    __ptext26 1032  
                                  __ptext18 0FD6                                    __ptext27 0ED0  
                                  __ptext19 1020                                    __ptext28 0FA0  
                                  __ptext29 1024                                  _IOCAF2_ISR 0EFC  
                                _T3GCONbits 000FC9                     TMR3_WriteTimer@timerVal 0001  
                             __size_of_main 0106                               __size_of_ping 007C  
                  __size_of_carcontrol_init 002E                        __CFG_WDTCWS$WDTCWS_7 000000  
                                  _ping_isr 0ED0                          __CFG_BORV$VBOR_190 000000  
                                  _time_val 004C                                    int$flags 0055  
        __end_of_INTERRUPT_InterruptManager 0038                  _INTERRUPT_InterruptManager 0008  
                                  main@dist 006E         __size_of_IOCAF2_SetInterruptHandler 000A  
                                _INTCONbits 000FF2                      ??_INTERRUPT_Initialize 000B  
                          ??_TMR3_ReadTimer 0003                           ??_TMR3_StartTimer 0001  
                                  intlevel2 0000                     ?_PIN_MANAGER_Initialize 0001  
                         __CFG_CLKOUTEN$OFF 000000                                 ??_ping_init 000D  
                   __size_of_carcontrol_ISR 00E4                           ??_TMR3_WriteTimer 0003  
               carcontrol_throttle@throttle 000B                            ??_TMR3_StopTimer 0001  
                             ___fladd@signs 003E                                 ?_IOCAF2_ISR 0001  
            __end_of_PIN_MANAGER_Initialize 0DDC                                ___fladd@aexp 003F  
                              ___fladd@bexp 0040                             _PIN_MANAGER_IOC 1000  
                     _TMR2_InterruptHandler 004E  
